; Listing generated by Microsoft (R) Optimizing Compiler Version 19.16.27031.1 

	TITLE	c:\users\giulif\downloads\study\git\sysstatus\monitorips.cpp
	.686P
	.XMM
	include listing.inc
	.model	flat

INCLUDELIB OLDNAMES

PUBLIC	??_C@_0BM@JCKHFAHN@?9?9?5MonIPs?4OnChng?0?50x?$CFp?5?$CF?42X@ ; `string'
PUBLIC	??_C@_0P@DNHLOBGB@?$DO?$DO?5MonIPs?4Init@	; `string'
PUBLIC	??_C@_0BM@LPPKJDAO@?$DM?$DM?5MonIPs?4Init?0?5Sync?5Obj?5?$CFu@ ; `string'
PUBLIC	??_C@_0BM@EDMNPOCE@?$DM?$DM?5MonIPs?4Init?0?5CreateEv?5?$CFu@ ; `string'
PUBLIC	??_C@_0CF@HDGCLEAK@?$DM?$DM?5MonIPs?4Init?0?5RegWaitForSnglO@ ; `string'
PUBLIC	??_C@_0CC@DBAGDPMP@?$DM?$DM?5MonIPs?4Init?0?5Ev?50x?$CFp?0?5ret?5Tr@ ; `string'
PUBLIC	??_C@_0BF@PFFODCIL@?$DO?$DO?5MonIPs?4ChkIPAddrs@ ; `string'
PUBLIC	??_C@_0DL@DAAGENEF@Addr?5?$CFu?0?5Idx?5?$CFu?0?5Mask?5?$CFu?0?5BCast@ ; `string'
PUBLIC	??_C@_08BKNGEFGB@Primary?4@			; `string'
PUBLIC	??_C@_08FHKMKPIG@Dynamic?4@			; `string'
PUBLIC	??_C@_0O@HGEAPED@Disconnected?4@		; `string'
PUBLIC	??_C@_08FCNPIEBD@Deleted?4@			; `string'
PUBLIC	??_C@_0L@HFLHPH@Transient?4@			; `string'
PUBLIC	??_C@_0BC@PFKLNNIM@Published?5in?5DNS?4@	; `string'
PUBLIC	??_C@_0BF@NLFEEFHK@?$DM?$DM?5MonIPs?4ChkIPAddrs@ ; `string'
PUBLIC	??_C@_0BD@OLBABOEK@vector?$DMT?$DO?5too?5long@	; `string'
PUBLIC	??_C@_0BA@JFNIOLAK@string?5too?5long@		; `string'
PUBLIC	?_OptionsStorage@?1??__local_stdio_printf_options@@9@4_KA ; `__local_stdio_printf_options'::`2'::_OptionsStorage
PUBLIC	_GUID_DEVINTERFACE_USB_HUB
PUBLIC	_GUID_DEVINTERFACE_USB_DEVICE
EXTRN	__invalid_parameter_noinfo_noreturn:PROC
EXTRN	__imp__CreateEventA@16:PROC
EXTRN	__imp__GetProcessHeap@0:PROC
EXTRN	__imp__HeapAlloc@12:PROC
EXTRN	___stdio_common_vsprintf:PROC
EXTRN	__imp__GetIpAddrTable@12:PROC
EXTRN	__imp__GetLastError@0:PROC
EXTRN	??3@YAXPAXI@Z:PROC				; operator delete
EXTRN	__imp__NotifyAddrChange@8:PROC
EXTRN	__imp__ReleaseMutex@4:PROC
EXTRN	__imp__WaitForSingleObject@8:PROC
EXTRN	__imp__CreateMutexA@12:PROC
EXTRN	?_Xlength_error@std@@YAXPBD@Z:PROC		; std::_Xlength_error
EXTRN	??2@YAPAXI@Z:PROC				; operator new
EXTRN	__imp__RegisterWaitForSingleObject@24:PROC
EXTRN	__imp__HeapFree@12:PROC
EXTRN	@__security_check_cookie@4:PROC
EXTRN	___CxxFrameHandler3:PROC
;	COMDAT ?_OptionsStorage@?1??__local_stdio_printf_options@@9@4_KA
_BSS	SEGMENT
?_OptionsStorage@?1??__local_stdio_printf_options@@9@4_KA DQ 01H DUP (?) ; `__local_stdio_printf_options'::`2'::_OptionsStorage
_BSS	ENDS
;	COMDAT _GUID_DEVINTERFACE_USB_DEVICE
CONST	SEGMENT
_GUID_DEVINTERFACE_USB_DEVICE DD 0a5dcbf10H
	DW	06530H
	DW	011d2H
	DB	090H
	DB	01fH
	DB	00H
	DB	0c0H
	DB	04fH
	DB	0b9H
	DB	051H
	DB	0edH
CONST	ENDS
;	COMDAT _GUID_DEVINTERFACE_USB_HUB
CONST	SEGMENT
_GUID_DEVINTERFACE_USB_HUB DD 0f18a0e88H
	DW	0c30cH
	DW	011d0H
	DB	088H
	DB	015H
	DB	00H
	DB	0a0H
	DB	0c9H
	DB	06H
	DB	0beH
	DB	0d8H
CONST	ENDS
;	COMDAT ??_C@_0BA@JFNIOLAK@string?5too?5long@
CONST	SEGMENT
??_C@_0BA@JFNIOLAK@string?5too?5long@ DB 'string too long', 00H ; `string'
CONST	ENDS
;	COMDAT ??_C@_0BD@OLBABOEK@vector?$DMT?$DO?5too?5long@
CONST	SEGMENT
??_C@_0BD@OLBABOEK@vector?$DMT?$DO?5too?5long@ DB 'vector<T> too long', 00H ; `string'
CONST	ENDS
;	COMDAT ??_C@_0BF@NLFEEFHK@?$DM?$DM?5MonIPs?4ChkIPAddrs@
CONST	SEGMENT
??_C@_0BF@NLFEEFHK@?$DM?$DM?5MonIPs?4ChkIPAddrs@ DB '<< MonIPs.ChkIPAddrs'
	DB	00H						; `string'
CONST	ENDS
;	COMDAT ??_C@_0BC@PFKLNNIM@Published?5in?5DNS?4@
CONST	SEGMENT
??_C@_0BC@PFKLNNIM@Published?5in?5DNS?4@ DB 'Published in DNS.', 00H ; `string'
CONST	ENDS
;	COMDAT ??_C@_0L@HFLHPH@Transient?4@
CONST	SEGMENT
??_C@_0L@HFLHPH@Transient?4@ DB 'Transient.', 00H	; `string'
CONST	ENDS
;	COMDAT ??_C@_08FCNPIEBD@Deleted?4@
CONST	SEGMENT
??_C@_08FCNPIEBD@Deleted?4@ DB 'Deleted.', 00H		; `string'
CONST	ENDS
;	COMDAT ??_C@_0O@HGEAPED@Disconnected?4@
CONST	SEGMENT
??_C@_0O@HGEAPED@Disconnected?4@ DB 'Disconnected.', 00H ; `string'
CONST	ENDS
;	COMDAT ??_C@_08FHKMKPIG@Dynamic?4@
CONST	SEGMENT
??_C@_08FHKMKPIG@Dynamic?4@ DB 'Dynamic.', 00H		; `string'
CONST	ENDS
;	COMDAT ??_C@_08BKNGEFGB@Primary?4@
CONST	SEGMENT
??_C@_08BKNGEFGB@Primary?4@ DB 'Primary.', 00H		; `string'
CONST	ENDS
;	COMDAT ??_C@_0DL@DAAGENEF@Addr?5?$CFu?0?5Idx?5?$CFu?0?5Mask?5?$CFu?0?5BCast@
CONST	SEGMENT
??_C@_0DL@DAAGENEF@Addr?5?$CFu?0?5Idx?5?$CFu?0?5Mask?5?$CFu?0?5BCast@ DB 'A'
	DB	'ddr %u, Idx %u, Mask %u, BCastAddr %u, ReasmSz %u, Tp %X.', 00H ; `string'
CONST	ENDS
;	COMDAT ??_C@_0BF@PFFODCIL@?$DO?$DO?5MonIPs?4ChkIPAddrs@
CONST	SEGMENT
??_C@_0BF@PFFODCIL@?$DO?$DO?5MonIPs?4ChkIPAddrs@ DB '>> MonIPs.ChkIPAddrs'
	DB	00H						; `string'
CONST	ENDS
;	COMDAT ??_C@_0CC@DBAGDPMP@?$DM?$DM?5MonIPs?4Init?0?5Ev?50x?$CFp?0?5ret?5Tr@
CONST	SEGMENT
??_C@_0CC@DBAGDPMP@?$DM?$DM?5MonIPs?4Init?0?5Ev?50x?$CFp?0?5ret?5Tr@ DB '<'
	DB	'< MonIPs.Init, Ev 0x%p, ret True', 00H	; `string'
CONST	ENDS
;	COMDAT ??_C@_0CF@HDGCLEAK@?$DM?$DM?5MonIPs?4Init?0?5RegWaitForSnglO@
CONST	SEGMENT
??_C@_0CF@HDGCLEAK@?$DM?$DM?5MonIPs?4Init?0?5RegWaitForSnglO@ DB '<< MonI'
	DB	'Ps.Init, RegWaitForSnglObj %u', 00H		; `string'
CONST	ENDS
;	COMDAT ??_C@_0BM@EDMNPOCE@?$DM?$DM?5MonIPs?4Init?0?5CreateEv?5?$CFu@
CONST	SEGMENT
??_C@_0BM@EDMNPOCE@?$DM?$DM?5MonIPs?4Init?0?5CreateEv?5?$CFu@ DB '<< MonI'
	DB	'Ps.Init, CreateEv %u', 00H			; `string'
CONST	ENDS
;	COMDAT ??_C@_0BM@LPPKJDAO@?$DM?$DM?5MonIPs?4Init?0?5Sync?5Obj?5?$CFu@
CONST	SEGMENT
??_C@_0BM@LPPKJDAO@?$DM?$DM?5MonIPs?4Init?0?5Sync?5Obj?5?$CFu@ DB '<< Mon'
	DB	'IPs.Init, Sync Obj %u', 00H			; `string'
CONST	ENDS
;	COMDAT ??_C@_0P@DNHLOBGB@?$DO?$DO?5MonIPs?4Init@
CONST	SEGMENT
??_C@_0P@DNHLOBGB@?$DO?$DO?5MonIPs?4Init@ DB '>> MonIPs.Init', 00H ; `string'
CONST	ENDS
;	COMDAT ??_C@_0BM@JCKHFAHN@?9?9?5MonIPs?4OnChng?0?50x?$CFp?5?$CF?42X@
CONST	SEGMENT
??_C@_0BM@JCKHFAHN@?9?9?5MonIPs?4OnChng?0?50x?$CFp?5?$CF?42X@ DB '-- MonI'
	DB	'Ps.OnChng, 0x%p %.2X', 00H			; `string'
CONST	ENDS
PUBLIC	??$construct@V?$basic_string@DU?$char_traits@D@std@@V?$allocator@D@2@@std@@V12@@?$_Default_allocator_traits@V?$allocator@V?$basic_string@DU?$char_traits@D@std@@V?$allocator@D@2@@std@@@std@@@std@@SAXAAV?$allocator@V?$basic_string@DU?$char_traits@D@std@@V?$allocator@D@2@@std@@@1@QAV?$basic_string@DU?$char_traits@D@std@@V?$allocator@D@2@@1@$$QAV31@@Z ; std::_Default_allocator_traits<std::allocator<std::basic_string<char,std::char_traits<char>,std::allocator<char> > > >::construct<std::basic_string<char,std::char_traits<char>,std::allocator<char> >,std::basic_string<char,std::char_traits<char>,std::allocator<char> > >
PUBLIC	??$forward@V?$basic_string@DU?$char_traits@D@std@@V?$allocator@D@2@@std@@@std@@YA$$QAV?$basic_string@DU?$char_traits@D@std@@V?$allocator@D@2@@0@AAV10@@Z ; std::forward<std::basic_string<char,std::char_traits<char>,std::allocator<char> > >
PUBLIC	??$_Emplace_back@V?$basic_string@DU?$char_traits@D@std@@V?$allocator@D@2@@std@@@?$_Uninitialized_backout_al@PAV?$basic_string@DU?$char_traits@D@std@@V?$allocator@D@2@@std@@V?$allocator@V?$basic_string@DU?$char_traits@D@std@@V?$allocator@D@2@@std@@@2@@std@@QAEX$$QAV?$basic_string@DU?$char_traits@D@std@@V?$allocator@D@2@@1@@Z ; std::_Uninitialized_backout_al<std::basic_string<char,std::char_traits<char>,std::allocator<char> > *,std::allocator<std::basic_string<char,std::char_traits<char>,std::allocator<char> > > >::_Emplace_back<std::basic_string<char,std::char_traits<char>,std::allocator<char> > >
PUBLIC	??0?$_Uninitialized_backout_al@PAV?$basic_string@DU?$char_traits@D@std@@V?$allocator@D@2@@std@@V?$allocator@V?$basic_string@DU?$char_traits@D@std@@V?$allocator@D@2@@std@@@2@@std@@QAE@PAV?$basic_string@DU?$char_traits@D@std@@V?$allocator@D@2@@1@AAV?$allocator@V?$basic_string@DU?$char_traits@D@std@@V?$allocator@D@2@@std@@@1@@Z ; std::_Uninitialized_backout_al<std::basic_string<char,std::char_traits<char>,std::allocator<char> > *,std::allocator<std::basic_string<char,std::char_traits<char>,std::allocator<char> > > >::_Uninitialized_backout_al<std::basic_string<char,std::char_traits<char>,std::allocator<char> > *,std::allocator<std::basic_string<char,std::char_traits<char>,std::allocator<char> > > >
PUBLIC	??1?$_Uninitialized_backout_al@PAV?$basic_string@DU?$char_traits@D@std@@V?$allocator@D@2@@std@@V?$allocator@V?$basic_string@DU?$char_traits@D@std@@V?$allocator@D@2@@std@@@2@@std@@QAE@XZ ; std::_Uninitialized_backout_al<std::basic_string<char,std::char_traits<char>,std::allocator<char> > *,std::allocator<std::basic_string<char,std::char_traits<char>,std::allocator<char> > > >::~_Uninitialized_backout_al<std::basic_string<char,std::char_traits<char>,std::allocator<char> > *,std::allocator<std::basic_string<char,std::char_traits<char>,std::allocator<char> > > >
PUBLIC	?_Release@?$_Uninitialized_backout_al@PAV?$basic_string@DU?$char_traits@D@std@@V?$allocator@D@2@@std@@V?$allocator@V?$basic_string@DU?$char_traits@D@std@@V?$allocator@D@2@@std@@@2@@std@@QAEPAV?$basic_string@DU?$char_traits@D@std@@V?$allocator@D@2@@2@XZ ; std::_Uninitialized_backout_al<std::basic_string<char,std::char_traits<char>,std::allocator<char> > *,std::allocator<std::basic_string<char,std::char_traits<char>,std::allocator<char> > > >::_Release
PUBLIC	??_G?$basic_string@DU?$char_traits@D@std@@V?$allocator@D@2@@std@@QAEPAXI@Z ; std::basic_string<char,std::char_traits<char>,std::allocator<char> >::`scalar deleting destructor'
PUBLIC	??$_Seek_wrapped@V?$basic_string@DU?$char_traits@D@std@@V?$allocator@D@2@@std@@@std@@YAXAAPAV?$basic_string@DU?$char_traits@D@std@@V?$allocator@D@2@@0@QAV10@@Z ; std::_Seek_wrapped<std::basic_string<char,std::char_traits<char>,std::allocator<char> > >
PUBLIC	??$?0U?$integral_constant@_N$00@std@@@_Unused_parameter@std@@QAE@$$QAU?$integral_constant@_N$00@1@@Z ; std::_Unused_parameter::_Unused_parameter<std::integral_constant<bool,1> >
PUBLIC	??$_Uninitialized_move_al_unchecked@PAV?$basic_string@DU?$char_traits@D@std@@V?$allocator@D@2@@std@@PAV12@V?$allocator@V?$basic_string@DU?$char_traits@D@std@@V?$allocator@D@2@@std@@@2@@std@@YAPAV?$basic_string@DU?$char_traits@D@std@@V?$allocator@D@2@@0@PAV10@QAV10@1AAV?$allocator@V?$basic_string@DU?$char_traits@D@std@@V?$allocator@D@2@@std@@@0@U_General_ptr_iterator_tag@0@U_Unused_parameter@0@@Z ; std::_Uninitialized_move_al_unchecked<std::basic_string<char,std::char_traits<char>,std::allocator<char> > *,std::basic_string<char,std::char_traits<char>,std::allocator<char> > *,std::allocator<std::basic_string<char,std::char_traits<char>,std::allocator<char> > > >
PUBLIC	??$_Ptr_move_cat@V?$basic_string@DU?$char_traits@D@std@@V?$allocator@D@2@@std@@V12@@std@@YA?AU_General_ptr_iterator_tag@0@ABQAV?$basic_string@DU?$char_traits@D@std@@V?$allocator@D@2@@0@0@Z ; std::_Ptr_move_cat<std::basic_string<char,std::char_traits<char>,std::allocator<char> >,std::basic_string<char,std::char_traits<char>,std::allocator<char> > >
PUBLIC	??$_Get_unwrapped_n@V?$basic_string@DU?$char_traits@D@std@@V?$allocator@D@2@@std@@H$0A@@std@@YAPAV?$basic_string@DU?$char_traits@D@std@@V?$allocator@D@2@@0@QAV10@H@Z ; std::_Get_unwrapped_n<std::basic_string<char,std::char_traits<char>,std::allocator<char> >,int,0>
PUBLIC	??$destroy@V?$basic_string@DU?$char_traits@D@std@@V?$allocator@D@2@@std@@@?$_Default_allocator_traits@V?$allocator@V?$basic_string@DU?$char_traits@D@std@@V?$allocator@D@2@@std@@@std@@@std@@SAXAAV?$allocator@V?$basic_string@DU?$char_traits@D@std@@V?$allocator@D@2@@std@@@1@QAV?$basic_string@DU?$char_traits@D@std@@V?$allocator@D@2@@1@@Z ; std::_Default_allocator_traits<std::allocator<std::basic_string<char,std::char_traits<char>,std::allocator<char> > > >::destroy<std::basic_string<char,std::char_traits<char>,std::allocator<char> > >
PUBLIC	??$_Get_size_of_n@$0BI@@std@@YAII@Z		; std::_Get_size_of_n<24>
PUBLIC	??$_Idl_distance@PAV?$basic_string@DU?$char_traits@D@std@@V?$allocator@D@2@@std@@PAV12@@std@@YA@ABQAV?$basic_string@DU?$char_traits@D@std@@V?$allocator@D@2@@0@0@Z ; std::_Idl_distance<std::basic_string<char,std::char_traits<char>,std::allocator<char> > *,std::basic_string<char,std::char_traits<char>,std::allocator<char> > *>
PUBLIC	??$_Uninitialized_move@PAV?$basic_string@DU?$char_traits@D@std@@V?$allocator@D@2@@std@@PAV12@V?$allocator@V?$basic_string@DU?$char_traits@D@std@@V?$allocator@D@2@@std@@@2@@std@@YAPAV?$basic_string@DU?$char_traits@D@std@@V?$allocator@D@2@@0@QAV10@0PAV10@AAV?$allocator@V?$basic_string@DU?$char_traits@D@std@@V?$allocator@D@2@@std@@@0@@Z ; std::_Uninitialized_move<std::basic_string<char,std::char_traits<char>,std::allocator<char> > *,std::basic_string<char,std::char_traits<char>,std::allocator<char> > *,std::allocator<std::basic_string<char,std::char_traits<char>,std::allocator<char> > > >
PUBLIC	??$_Allocate_manually_vector_aligned@U_Default_allocate_traits@std@@@std@@YAPAXI@Z ; std::_Allocate_manually_vector_aligned<std::_Default_allocate_traits>
PUBLIC	??$forward@ABQAD@std@@YAABQADABQAD@Z		; std::forward<char * const &>
PUBLIC	??$_Destroy_range1@V?$allocator@V?$basic_string@DU?$char_traits@D@std@@V?$allocator@D@2@@std@@@std@@@std@@YAXPAV?$basic_string@DU?$char_traits@D@std@@V?$allocator@D@2@@0@0AAV?$allocator@V?$basic_string@DU?$char_traits@D@std@@V?$allocator@D@2@@std@@@0@U?$integral_constant@_N$0A@@0@@Z ; std::_Destroy_range1<std::allocator<std::basic_string<char,std::char_traits<char>,std::allocator<char> > > >
PUBLIC	??$?0V?$allocator@D@std@@$$V@?$_Compressed_pair@V?$allocator@D@std@@V?$_String_val@U?$_Simple_types@D@std@@@2@$00@std@@QAE@U_One_then_variadic_args_t@1@$$QAV?$allocator@D@1@@Z ; std::_Compressed_pair<std::allocator<char>,std::_String_val<std::_Simple_types<char> >,1>::_Compressed_pair<std::allocator<char>,std::_String_val<std::_Simple_types<char> >,1><std::allocator<char> >
PUBLIC	??$forward@V?$allocator@D@std@@@std@@YA$$QAV?$allocator@D@0@AAV10@@Z ; std::forward<std::allocator<char> >
PUBLIC	??$_Get_unwrapped@V?$basic_string@DU?$char_traits@D@std@@V?$allocator@D@2@@std@@@std@@YAPAV?$basic_string@DU?$char_traits@D@std@@V?$allocator@D@2@@0@QAV10@@Z ; std::_Get_unwrapped<std::basic_string<char,std::char_traits<char>,std::allocator<char> > >
PUBLIC	??0_Bxty@?$_String_val@U?$_Simple_types@D@std@@@std@@QAE@XZ ; std::_String_val<std::_Simple_types<char> >::_Bxty::_Bxty
PUBLIC	?_Umove_if_noexcept1@?$vector@V?$basic_string@DU?$char_traits@D@std@@V?$allocator@D@2@@std@@V?$allocator@V?$basic_string@DU?$char_traits@D@std@@V?$allocator@D@2@@std@@@2@@std@@AAEXPAV?$basic_string@DU?$char_traits@D@std@@V?$allocator@D@2@@2@00U?$integral_constant@_N$00@2@@Z ; std::vector<std::basic_string<char,std::char_traits<char>,std::allocator<char> >,std::allocator<std::basic_string<char,std::char_traits<char>,std::allocator<char> > > >::_Umove_if_noexcept1
PUBLIC	?max_size@?$_Default_allocator_traits@V?$allocator@V?$basic_string@DU?$char_traits@D@std@@V?$allocator@D@2@@std@@@std@@@std@@SAIABV?$allocator@V?$basic_string@DU?$char_traits@D@std@@V?$allocator@D@2@@std@@@2@@Z ; std::_Default_allocator_traits<std::allocator<std::basic_string<char,std::char_traits<char>,std::allocator<char> > > >::max_size
PUBLIC	??0?$allocator@D@std@@QAE@XZ			; std::allocator<char>::allocator<char>
PUBLIC	?_Calculate_growth@?$basic_string@DU?$char_traits@D@std@@V?$allocator@D@2@@std@@QBEII@Z ; std::basic_string<char,std::char_traits<char>,std::allocator<char> >::_Calculate_growth
PUBLIC	?_Xlen@?$basic_string@DU?$char_traits@D@std@@V?$allocator@D@2@@std@@SAXXZ ; std::basic_string<char,std::char_traits<char>,std::allocator<char> >::_Xlen
PUBLIC	??0?$_String_val@U?$_Simple_types@D@std@@@std@@QAE@XZ ; std::_String_val<std::_Simple_types<char> >::_String_val<std::_Simple_types<char> >
PUBLIC	?allocate@?$allocator@V?$basic_string@DU?$char_traits@D@std@@V?$allocator@D@2@@std@@@std@@QAEPAV?$basic_string@DU?$char_traits@D@std@@V?$allocator@D@2@@2@I@Z ; std::allocator<std::basic_string<char,std::char_traits<char>,std::allocator<char> > >::allocate
PUBLIC	?size@?$vector@V?$basic_string@DU?$char_traits@D@std@@V?$allocator@D@2@@std@@V?$allocator@V?$basic_string@DU?$char_traits@D@std@@V?$allocator@D@2@@std@@@2@@std@@QBEIXZ ; std::vector<std::basic_string<char,std::char_traits<char>,std::allocator<char> >,std::allocator<std::basic_string<char,std::char_traits<char>,std::allocator<char> > > >::size
PUBLIC	?max_size@?$vector@V?$basic_string@DU?$char_traits@D@std@@V?$allocator@D@2@@std@@V?$allocator@V?$basic_string@DU?$char_traits@D@std@@V?$allocator@D@2@@std@@@2@@std@@QBEIXZ ; std::vector<std::basic_string<char,std::char_traits<char>,std::allocator<char> >,std::allocator<std::basic_string<char,std::char_traits<char>,std::allocator<char> > > >::max_size
PUBLIC	?_Umove@?$vector@V?$basic_string@DU?$char_traits@D@std@@V?$allocator@D@2@@std@@V?$allocator@V?$basic_string@DU?$char_traits@D@std@@V?$allocator@D@2@@std@@@2@@std@@AAEPAV?$basic_string@DU?$char_traits@D@std@@V?$allocator@D@2@@2@PAV32@00@Z ; std::vector<std::basic_string<char,std::char_traits<char>,std::allocator<char> >,std::allocator<std::basic_string<char,std::char_traits<char>,std::allocator<char> > > >::_Umove
PUBLIC	?_Umove_if_noexcept@?$vector@V?$basic_string@DU?$char_traits@D@std@@V?$allocator@D@2@@std@@V?$allocator@V?$basic_string@DU?$char_traits@D@std@@V?$allocator@D@2@@std@@@2@@std@@AAEXPAV?$basic_string@DU?$char_traits@D@std@@V?$allocator@D@2@@2@00@Z ; std::vector<std::basic_string<char,std::char_traits<char>,std::allocator<char> >,std::allocator<std::basic_string<char,std::char_traits<char>,std::allocator<char> > > >::_Umove_if_noexcept
PUBLIC	?_Calculate_growth@?$vector@V?$basic_string@DU?$char_traits@D@std@@V?$allocator@D@2@@std@@V?$allocator@V?$basic_string@DU?$char_traits@D@std@@V?$allocator@D@2@@std@@@2@@std@@ABEII@Z ; std::vector<std::basic_string<char,std::char_traits<char>,std::allocator<char> >,std::allocator<std::basic_string<char,std::char_traits<char>,std::allocator<char> > > >::_Calculate_growth
PUBLIC	?_Change_array@?$vector@V?$basic_string@DU?$char_traits@D@std@@V?$allocator@D@2@@std@@V?$allocator@V?$basic_string@DU?$char_traits@D@std@@V?$allocator@D@2@@std@@@2@@std@@AAEXQAV?$basic_string@DU?$char_traits@D@std@@V?$allocator@D@2@@2@II@Z ; std::vector<std::basic_string<char,std::char_traits<char>,std::allocator<char> >,std::allocator<std::basic_string<char,std::char_traits<char>,std::allocator<char> > > >::_Change_array
PUBLIC	?_Xlength@?$vector@V?$basic_string@DU?$char_traits@D@std@@V?$allocator@D@2@@std@@V?$allocator@V?$basic_string@DU?$char_traits@D@std@@V?$allocator@D@2@@std@@@2@@std@@CAXXZ ; std::vector<std::basic_string<char,std::char_traits<char>,std::allocator<char> >,std::allocator<std::basic_string<char,std::char_traits<char>,std::allocator<char> > > >::_Xlength
PUBLIC	??$_Deallocate@$07$0A@@std@@YAXPAXI@Z		; std::_Deallocate<8,0>
PUBLIC	??$_Allocate@$07U_Default_allocate_traits@std@@$0A@@std@@YAPAXI@Z ; std::_Allocate<8,std::_Default_allocate_traits,0>
PUBLIC	??$addressof@V?$_String_val@U?$_Simple_types@D@std@@@std@@@std@@YAPAV?$_String_val@U?$_Simple_types@D@std@@@0@AAV10@@Z ; std::addressof<std::_String_val<std::_Simple_types<char> > >
PUBLIC	??$construct@PADABQAD@?$_Default_allocator_traits@V?$allocator@D@std@@@std@@SAXAAV?$allocator@D@1@QAPADABQAD@Z ; std::_Default_allocator_traits<std::allocator<char> >::construct<char *,char * const &>
PUBLIC	??$_Reallocate_grow_by@V<lambda_ab246b20b9526e2ef7792587e4298a77>@@PBDI@?$basic_string@DU?$char_traits@D@std@@V?$allocator@D@2@@std@@QAEAAV01@IV<lambda_ab246b20b9526e2ef7792587e4298a77>@@PBDI@Z ; std::basic_string<char,std::char_traits<char>,std::allocator<char> >::_Reallocate_grow_by<<lambda_ab246b20b9526e2ef7792587e4298a77>,char const *,unsigned int>
PUBLIC	??$_Reallocate_for@V<lambda_9366063389c5f42a00a5088cf24e69de>@@PBD@?$basic_string@DU?$char_traits@D@std@@V?$allocator@D@2@@std@@QAEAAV01@IV<lambda_9366063389c5f42a00a5088cf24e69de>@@PBD@Z ; std::basic_string<char,std::char_traits<char>,std::allocator<char> >::_Reallocate_for<<lambda_9366063389c5f42a00a5088cf24e69de>,char const *>
PUBLIC	??$destroy@PAD@?$_Default_allocator_traits@V?$allocator@D@std@@@std@@SAXAAV?$allocator@D@1@QAPAD@Z ; std::_Default_allocator_traits<std::allocator<char> >::destroy<char *>
PUBLIC	??$addressof@PAD@std@@YAPAPADAAPAD@Z		; std::addressof<char *>
PUBLIC	??$?0$$V@?$_Compressed_pair@V?$allocator@D@std@@V?$_String_val@U?$_Simple_types@D@std@@@2@$00@std@@QAE@U_Zero_then_variadic_args_t@1@@Z ; std::_Compressed_pair<std::allocator<char>,std::_String_val<std::_Simple_types<char> >,1>::_Compressed_pair<std::allocator<char>,std::_String_val<std::_Simple_types<char> >,1><>
PUBLIC	??$_Destroy_range@V?$allocator@V?$basic_string@DU?$char_traits@D@std@@V?$allocator@D@2@@std@@@std@@@std@@YAXPAV?$basic_string@DU?$char_traits@D@std@@V?$allocator@D@2@@0@0AAV?$allocator@V?$basic_string@DU?$char_traits@D@std@@V?$allocator@D@2@@std@@@0@@Z ; std::_Destroy_range<std::allocator<std::basic_string<char,std::char_traits<char>,std::allocator<char> > > >
PUBLIC	??$move@AAV?$basic_string@DU?$char_traits@D@std@@V?$allocator@D@2@@std@@@std@@YA$$QAV?$basic_string@DU?$char_traits@D@std@@V?$allocator@D@2@@0@AAV10@@Z ; std::move<std::basic_string<char,std::char_traits<char>,std::allocator<char> > &>
PUBLIC	??$?0V?$allocator@D@std@@X@?$_String_alloc@U?$_String_base_types@DV?$allocator@D@std@@@std@@@std@@QAE@$$QAV?$allocator@D@1@@Z ; std::_String_alloc<std::_String_base_types<char,std::allocator<char> > >::_String_alloc<std::_String_base_types<char,std::allocator<char> > ><std::allocator<char>,void>
PUBLIC	??$move@AAV?$allocator@D@std@@@std@@YA$$QAV?$allocator@D@0@AAV10@@Z ; std::move<std::allocator<char> &>
PUBLIC	??$_Unfancy@D@std@@YAPADPAD@Z			; std::_Unfancy<char>
PUBLIC	??$_Emplace_reallocate@ABV?$basic_string@DU?$char_traits@D@std@@V?$allocator@D@2@@std@@@?$vector@V?$basic_string@DU?$char_traits@D@std@@V?$allocator@D@2@@std@@V?$allocator@V?$basic_string@DU?$char_traits@D@std@@V?$allocator@D@2@@std@@@2@@std@@QAEPAV?$basic_string@DU?$char_traits@D@std@@V?$allocator@D@2@@1@QAV21@ABV21@@Z ; std::vector<std::basic_string<char,std::char_traits<char>,std::allocator<char> >,std::allocator<std::basic_string<char,std::char_traits<char>,std::allocator<char> > > >::_Emplace_reallocate<std::basic_string<char,std::char_traits<char>,std::allocator<char> > const &>
PUBLIC	??$construct@V?$basic_string@DU?$char_traits@D@std@@V?$allocator@D@2@@std@@ABV12@@?$_Default_allocator_traits@V?$allocator@V?$basic_string@DU?$char_traits@D@std@@V?$allocator@D@2@@std@@@std@@@std@@SAXAAV?$allocator@V?$basic_string@DU?$char_traits@D@std@@V?$allocator@D@2@@std@@@1@QAV?$basic_string@DU?$char_traits@D@std@@V?$allocator@D@2@@1@ABV31@@Z ; std::_Default_allocator_traits<std::allocator<std::basic_string<char,std::char_traits<char>,std::allocator<char> > > >::construct<std::basic_string<char,std::char_traits<char>,std::allocator<char> >,std::basic_string<char,std::char_traits<char>,std::allocator<char> > const &>
PUBLIC	??$_Unfancy@V?$basic_string@DU?$char_traits@D@std@@V?$allocator@D@2@@std@@@std@@YAPAV?$basic_string@DU?$char_traits@D@std@@V?$allocator@D@2@@0@PAV10@@Z ; std::_Unfancy<std::basic_string<char,std::char_traits<char>,std::allocator<char> > >
PUBLIC	??$forward@ABV?$basic_string@DU?$char_traits@D@std@@V?$allocator@D@2@@std@@@std@@YAABV?$basic_string@DU?$char_traits@D@std@@V?$allocator@D@2@@0@ABV10@@Z ; std::forward<std::basic_string<char,std::char_traits<char>,std::allocator<char> > const &>
PUBLIC	??$_Min_value@I@std@@YAABIABI0@Z		; std::_Min_value<unsigned int>
PUBLIC	?_Get_second@?$_Compressed_pair@V?$allocator@V?$basic_string@DU?$char_traits@D@std@@V?$allocator@D@2@@std@@@std@@V?$_Vector_val@U?$_Simple_types@V?$basic_string@DU?$char_traits@D@std@@V?$allocator@D@2@@std@@@std@@@2@$00@std@@QAEAAV?$_Vector_val@U?$_Simple_types@V?$basic_string@DU?$char_traits@D@std@@V?$allocator@D@2@@std@@@std@@@2@XZ ; std::_Compressed_pair<std::allocator<std::basic_string<char,std::char_traits<char>,std::allocator<char> > >,std::_Vector_val<std::_Simple_types<std::basic_string<char,std::char_traits<char>,std::allocator<char> > > >,1>::_Get_second
PUBLIC	?_Get_second@?$_Compressed_pair@V?$allocator@V?$basic_string@DU?$char_traits@D@std@@V?$allocator@D@2@@std@@@std@@V?$_Vector_val@U?$_Simple_types@V?$basic_string@DU?$char_traits@D@std@@V?$allocator@D@2@@std@@@std@@@2@$00@std@@QBEABV?$_Vector_val@U?$_Simple_types@V?$basic_string@DU?$char_traits@D@std@@V?$allocator@D@2@@std@@@std@@@2@XZ ; std::_Compressed_pair<std::allocator<std::basic_string<char,std::char_traits<char>,std::allocator<char> > >,std::_Vector_val<std::_Simple_types<std::basic_string<char,std::char_traits<char>,std::allocator<char> > > >,1>::_Get_second
PUBLIC	?max_size@?$_Default_allocator_traits@V?$allocator@D@std@@@std@@SAIABV?$allocator@D@2@@Z ; std::_Default_allocator_traits<std::allocator<char> >::max_size
PUBLIC	?_Get_first@?$_Compressed_pair@V?$allocator@D@std@@V?$_String_val@U?$_Simple_types@D@std@@@2@$00@std@@QAEAAV?$allocator@D@2@XZ ; std::_Compressed_pair<std::allocator<char>,std::_String_val<std::_Simple_types<char> >,1>::_Get_first
PUBLIC	?_Get_first@?$_Compressed_pair@V?$allocator@D@std@@V?$_String_val@U?$_Simple_types@D@std@@@2@$00@std@@QBEABV?$allocator@D@2@XZ ; std::_Compressed_pair<std::allocator<char>,std::_String_val<std::_Simple_types<char> >,1>::_Get_first
PUBLIC	?_Get_second@?$_Compressed_pair@V?$allocator@D@std@@V?$_String_val@U?$_Simple_types@D@std@@@2@$00@std@@QAEAAV?$_String_val@U?$_Simple_types@D@std@@@2@XZ ; std::_Compressed_pair<std::allocator<char>,std::_String_val<std::_Simple_types<char> >,1>::_Get_second
PUBLIC	?_Get_second@?$_Compressed_pair@V?$allocator@D@std@@V?$_String_val@U?$_Simple_types@D@std@@@2@$00@std@@QBEABV?$_String_val@U?$_Simple_types@D@std@@@2@XZ ; std::_Compressed_pair<std::allocator<char>,std::_String_val<std::_Simple_types<char> >,1>::_Get_second
PUBLIC	?deallocate@?$allocator@V?$basic_string@DU?$char_traits@D@std@@V?$allocator@D@2@@std@@@std@@QAEXQAV?$basic_string@DU?$char_traits@D@std@@V?$allocator@D@2@@2@I@Z ; std::allocator<std::basic_string<char,std::char_traits<char>,std::allocator<char> > >::deallocate
PUBLIC	?capacity@?$vector@V?$basic_string@DU?$char_traits@D@std@@V?$allocator@D@2@@std@@V?$allocator@V?$basic_string@DU?$char_traits@D@std@@V?$allocator@D@2@@std@@@2@@std@@QBEIXZ ; std::vector<std::basic_string<char,std::char_traits<char>,std::allocator<char> >,std::allocator<std::basic_string<char,std::char_traits<char>,std::allocator<char> > > >::capacity
PUBLIC	?_Get_data@?$_Vector_alloc@U?$_Vec_base_types@V?$basic_string@DU?$char_traits@D@std@@V?$allocator@D@2@@std@@V?$allocator@V?$basic_string@DU?$char_traits@D@std@@V?$allocator@D@2@@std@@@2@@std@@@std@@QAEAAV?$_Vector_val@U?$_Simple_types@V?$basic_string@DU?$char_traits@D@std@@V?$allocator@D@2@@std@@@std@@@2@XZ ; std::_Vector_alloc<std::_Vec_base_types<std::basic_string<char,std::char_traits<char>,std::allocator<char> >,std::allocator<std::basic_string<char,std::char_traits<char>,std::allocator<char> > > > >::_Get_data
PUBLIC	?_Get_data@?$_Vector_alloc@U?$_Vec_base_types@V?$basic_string@DU?$char_traits@D@std@@V?$allocator@D@2@@std@@V?$allocator@V?$basic_string@DU?$char_traits@D@std@@V?$allocator@D@2@@std@@@2@@std@@@std@@QBEABV?$_Vector_val@U?$_Simple_types@V?$basic_string@DU?$char_traits@D@std@@V?$allocator@D@2@@std@@@std@@@2@XZ ; std::_Vector_alloc<std::_Vec_base_types<std::basic_string<char,std::char_traits<char>,std::allocator<char> >,std::allocator<std::basic_string<char,std::char_traits<char>,std::allocator<char> > > > >::_Get_data
PUBLIC	?_Myend@?$_Vector_alloc@U?$_Vec_base_types@V?$basic_string@DU?$char_traits@D@std@@V?$allocator@D@2@@std@@V?$allocator@V?$basic_string@DU?$char_traits@D@std@@V?$allocator@D@2@@std@@@2@@std@@@std@@QAEAAPAV?$basic_string@DU?$char_traits@D@std@@V?$allocator@D@2@@2@XZ ; std::_Vector_alloc<std::_Vec_base_types<std::basic_string<char,std::char_traits<char>,std::allocator<char> >,std::allocator<std::basic_string<char,std::char_traits<char>,std::allocator<char> > > > >::_Myend
PUBLIC	?_Myend@?$_Vector_alloc@U?$_Vec_base_types@V?$basic_string@DU?$char_traits@D@std@@V?$allocator@D@2@@std@@V?$allocator@V?$basic_string@DU?$char_traits@D@std@@V?$allocator@D@2@@std@@@2@@std@@@std@@QBEABQAV?$basic_string@DU?$char_traits@D@std@@V?$allocator@D@2@@2@XZ ; std::_Vector_alloc<std::_Vec_base_types<std::basic_string<char,std::char_traits<char>,std::allocator<char> >,std::allocator<std::basic_string<char,std::char_traits<char>,std::allocator<char> > > > >::_Myend
PUBLIC	?_Get_first@?$_Compressed_pair@V?$allocator@V?$basic_string@DU?$char_traits@D@std@@V?$allocator@D@2@@std@@@std@@V?$_Vector_val@U?$_Simple_types@V?$basic_string@DU?$char_traits@D@std@@V?$allocator@D@2@@std@@@std@@@2@$00@std@@QAEAAV?$allocator@V?$basic_string@DU?$char_traits@D@std@@V?$allocator@D@2@@std@@@2@XZ ; std::_Compressed_pair<std::allocator<std::basic_string<char,std::char_traits<char>,std::allocator<char> > >,std::_Vector_val<std::_Simple_types<std::basic_string<char,std::char_traits<char>,std::allocator<char> > > >,1>::_Get_first
PUBLIC	?_Get_first@?$_Compressed_pair@V?$allocator@V?$basic_string@DU?$char_traits@D@std@@V?$allocator@D@2@@std@@@std@@V?$_Vector_val@U?$_Simple_types@V?$basic_string@DU?$char_traits@D@std@@V?$allocator@D@2@@std@@@std@@@2@$00@std@@QBEABV?$allocator@V?$basic_string@DU?$char_traits@D@std@@V?$allocator@D@2@@std@@@2@XZ ; std::_Compressed_pair<std::allocator<std::basic_string<char,std::char_traits<char>,std::allocator<char> > >,std::_Vector_val<std::_Simple_types<std::basic_string<char,std::char_traits<char>,std::allocator<char> > > >,1>::_Get_first
PUBLIC	?deallocate@?$allocator@D@std@@QAEXQADI@Z	; std::allocator<char>::deallocate
PUBLIC	?allocate@?$allocator@D@std@@QAEPADI@Z		; std::allocator<char>::allocate
PUBLIC	?_Assign_rv_contents_with_alloc_always_equal@?$basic_string@DU?$char_traits@D@std@@V?$allocator@D@2@@std@@QAEX$$QAV12@U?$integral_constant@_N$00@2@@Z ; std::basic_string<char,std::char_traits<char>,std::allocator<char> >::_Assign_rv_contents_with_alloc_always_equal
PUBLIC	?_Construct_lv_contents@?$basic_string@DU?$char_traits@D@std@@V?$allocator@D@2@@std@@QAEXABV12@@Z ; std::basic_string<char,std::char_traits<char>,std::allocator<char> >::_Construct_lv_contents
PUBLIC	??R<lambda_ab246b20b9526e2ef7792587e4298a77>@@QBE@QADQBDI1I@Z ; <lambda_ab246b20b9526e2ef7792587e4298a77>::operator()
PUBLIC	?append@?$basic_string@DU?$char_traits@D@std@@V?$allocator@D@2@@std@@QAEAAV12@QBDI@Z ; std::basic_string<char,std::char_traits<char>,std::allocator<char> >::append
PUBLIC	??R<lambda_9366063389c5f42a00a5088cf24e69de>@@QBE@QADIQBD@Z ; <lambda_9366063389c5f42a00a5088cf24e69de>::operator()
PUBLIC	?assign@?$basic_string@DU?$char_traits@D@std@@V?$allocator@D@2@@std@@QAEAAV12@QBDI@Z ; std::basic_string<char,std::char_traits<char>,std::allocator<char> >::assign
PUBLIC	??$_Max_value@I@std@@YAABIABI0@Z		; std::_Max_value<unsigned int>
PUBLIC	?max_size@?$basic_string@DU?$char_traits@D@std@@V?$allocator@D@2@@std@@QBEIXZ ; std::basic_string<char,std::char_traits<char>,std::allocator<char> >::max_size
PUBLIC	?_Tidy_init@?$basic_string@DU?$char_traits@D@std@@V?$allocator@D@2@@std@@QAEXXZ ; std::basic_string<char,std::char_traits<char>,std::allocator<char> >::_Tidy_init
PUBLIC	?_Tidy_deallocate@?$basic_string@DU?$char_traits@D@std@@V?$allocator@D@2@@std@@QAEXXZ ; std::basic_string<char,std::char_traits<char>,std::allocator<char> >::_Tidy_deallocate
PUBLIC	??0?$_String_alloc@U?$_String_base_types@DV?$allocator@D@std@@@std@@@std@@QAE@XZ ; std::_String_alloc<std::_String_base_types<char,std::allocator<char> > >::_String_alloc<std::_String_base_types<char,std::allocator<char> > >
PUBLIC	?_Orphan_all@?$_String_alloc@U?$_String_base_types@DV?$allocator@D@std@@@std@@@std@@QAEXXZ ; std::_String_alloc<std::_String_base_types<char,std::allocator<char> > >::_Orphan_all
PUBLIC	?_Getal@?$_String_alloc@U?$_String_base_types@DV?$allocator@D@std@@@std@@@std@@QAEAAV?$allocator@D@2@XZ ; std::_String_alloc<std::_String_base_types<char,std::allocator<char> > >::_Getal
PUBLIC	?_Getal@?$_String_alloc@U?$_String_base_types@DV?$allocator@D@std@@@std@@@std@@QBEABV?$allocator@D@2@XZ ; std::_String_alloc<std::_String_base_types<char,std::allocator<char> > >::_Getal
PUBLIC	?_Get_data@?$_String_alloc@U?$_String_base_types@DV?$allocator@D@std@@@std@@@std@@QAEAAV?$_String_val@U?$_Simple_types@D@std@@@2@XZ ; std::_String_alloc<std::_String_base_types<char,std::allocator<char> > >::_Get_data
PUBLIC	?_Get_data@?$_String_alloc@U?$_String_base_types@DV?$allocator@D@std@@@std@@@std@@QBEABV?$_String_val@U?$_Simple_types@D@std@@@2@XZ ; std::_String_alloc<std::_String_base_types<char,std::allocator<char> > >::_Get_data
PUBLIC	?select_on_container_copy_construction@?$_Default_allocator_traits@V?$allocator@D@std@@@std@@SA?AV?$allocator@D@2@ABV32@@Z ; std::_Default_allocator_traits<std::allocator<char> >::select_on_container_copy_construction
PUBLIC	?_Myptr@?$_String_val@U?$_Simple_types@D@std@@@std@@QAEPADXZ ; std::_String_val<std::_Simple_types<char> >::_Myptr
PUBLIC	?_Myptr@?$_String_val@U?$_Simple_types@D@std@@@std@@QBEPBDXZ ; std::_String_val<std::_Simple_types<char> >::_Myptr
PUBLIC	?_Large_string_engaged@?$_String_val@U?$_Simple_types@D@std@@@std@@QBE_NXZ ; std::_String_val<std::_Simple_types<char> >::_Large_string_engaged
PUBLIC	??1_Bxty@?$_String_val@U?$_Simple_types@D@std@@@std@@QAE@XZ ; std::_String_val<std::_Simple_types<char> >::_Bxty::~_Bxty
PUBLIC	?_Has_unused_capacity@?$vector@V?$basic_string@DU?$char_traits@D@std@@V?$allocator@D@2@@std@@V?$allocator@V?$basic_string@DU?$char_traits@D@std@@V?$allocator@D@2@@std@@@2@@std@@ABE_NXZ ; std::vector<std::basic_string<char,std::char_traits<char>,std::allocator<char> >,std::allocator<std::basic_string<char,std::char_traits<char>,std::allocator<char> > > >::_Has_unused_capacity
PUBLIC	?_Destroy@?$vector@V?$basic_string@DU?$char_traits@D@std@@V?$allocator@D@2@@std@@V?$allocator@V?$basic_string@DU?$char_traits@D@std@@V?$allocator@D@2@@std@@@2@@std@@AAEXPAV?$basic_string@DU?$char_traits@D@std@@V?$allocator@D@2@@2@0@Z ; std::vector<std::basic_string<char,std::char_traits<char>,std::allocator<char> >,std::allocator<std::basic_string<char,std::char_traits<char>,std::allocator<char> > > >::_Destroy
PUBLIC	?_Orphan_range@?$vector@V?$basic_string@DU?$char_traits@D@std@@V?$allocator@D@2@@std@@V?$allocator@V?$basic_string@DU?$char_traits@D@std@@V?$allocator@D@2@@std@@@2@@std@@ABEXPAV?$basic_string@DU?$char_traits@D@std@@V?$allocator@D@2@@2@0@Z ; std::vector<std::basic_string<char,std::char_traits<char>,std::allocator<char> >,std::allocator<std::basic_string<char,std::char_traits<char>,std::allocator<char> > > >::_Orphan_range
PUBLIC	?_Orphan_all@?$_Vector_alloc@U?$_Vec_base_types@V?$basic_string@DU?$char_traits@D@std@@V?$allocator@D@2@@std@@V?$allocator@V?$basic_string@DU?$char_traits@D@std@@V?$allocator@D@2@@std@@@2@@std@@@std@@QAEXXZ ; std::_Vector_alloc<std::_Vec_base_types<std::basic_string<char,std::char_traits<char>,std::allocator<char> >,std::allocator<std::basic_string<char,std::char_traits<char>,std::allocator<char> > > > >::_Orphan_all
PUBLIC	?_Getal@?$_Vector_alloc@U?$_Vec_base_types@V?$basic_string@DU?$char_traits@D@std@@V?$allocator@D@2@@std@@V?$allocator@V?$basic_string@DU?$char_traits@D@std@@V?$allocator@D@2@@std@@@2@@std@@@std@@QAEAAV?$allocator@V?$basic_string@DU?$char_traits@D@std@@V?$allocator@D@2@@std@@@2@XZ ; std::_Vector_alloc<std::_Vec_base_types<std::basic_string<char,std::char_traits<char>,std::allocator<char> >,std::allocator<std::basic_string<char,std::char_traits<char>,std::allocator<char> > > > >::_Getal
PUBLIC	?_Getal@?$_Vector_alloc@U?$_Vec_base_types@V?$basic_string@DU?$char_traits@D@std@@V?$allocator@D@2@@std@@V?$allocator@V?$basic_string@DU?$char_traits@D@std@@V?$allocator@D@2@@std@@@2@@std@@@std@@QBEABV?$allocator@V?$basic_string@DU?$char_traits@D@std@@V?$allocator@D@2@@std@@@2@XZ ; std::_Vector_alloc<std::_Vec_base_types<std::basic_string<char,std::char_traits<char>,std::allocator<char> >,std::allocator<std::basic_string<char,std::char_traits<char>,std::allocator<char> > > > >::_Getal
PUBLIC	?_Myfirst@?$_Vector_alloc@U?$_Vec_base_types@V?$basic_string@DU?$char_traits@D@std@@V?$allocator@D@2@@std@@V?$allocator@V?$basic_string@DU?$char_traits@D@std@@V?$allocator@D@2@@std@@@2@@std@@@std@@QAEAAPAV?$basic_string@DU?$char_traits@D@std@@V?$allocator@D@2@@2@XZ ; std::_Vector_alloc<std::_Vec_base_types<std::basic_string<char,std::char_traits<char>,std::allocator<char> >,std::allocator<std::basic_string<char,std::char_traits<char>,std::allocator<char> > > > >::_Myfirst
PUBLIC	?_Myfirst@?$_Vector_alloc@U?$_Vec_base_types@V?$basic_string@DU?$char_traits@D@std@@V?$allocator@D@2@@std@@V?$allocator@V?$basic_string@DU?$char_traits@D@std@@V?$allocator@D@2@@std@@@2@@std@@@std@@QBEABQAV?$basic_string@DU?$char_traits@D@std@@V?$allocator@D@2@@2@XZ ; std::_Vector_alloc<std::_Vec_base_types<std::basic_string<char,std::char_traits<char>,std::allocator<char> >,std::allocator<std::basic_string<char,std::char_traits<char>,std::allocator<char> > > > >::_Myfirst
PUBLIC	?_Mylast@?$_Vector_alloc@U?$_Vec_base_types@V?$basic_string@DU?$char_traits@D@std@@V?$allocator@D@2@@std@@V?$allocator@V?$basic_string@DU?$char_traits@D@std@@V?$allocator@D@2@@std@@@2@@std@@@std@@QAEAAPAV?$basic_string@DU?$char_traits@D@std@@V?$allocator@D@2@@2@XZ ; std::_Vector_alloc<std::_Vec_base_types<std::basic_string<char,std::char_traits<char>,std::allocator<char> >,std::allocator<std::basic_string<char,std::char_traits<char>,std::allocator<char> > > > >::_Mylast
PUBLIC	?_Mylast@?$_Vector_alloc@U?$_Vec_base_types@V?$basic_string@DU?$char_traits@D@std@@V?$allocator@D@2@@std@@V?$allocator@V?$basic_string@DU?$char_traits@D@std@@V?$allocator@D@2@@std@@@2@@std@@@std@@QBEABQAV?$basic_string@DU?$char_traits@D@std@@V?$allocator@D@2@@2@XZ ; std::_Vector_alloc<std::_Vec_base_types<std::basic_string<char,std::char_traits<char>,std::allocator<char> >,std::allocator<std::basic_string<char,std::char_traits<char>,std::allocator<char> > > > >::_Mylast
PUBLIC	??1?$_String_val@U?$_Simple_types@D@std@@@std@@QAE@XZ ; std::_String_val<std::_Simple_types<char> >::~_String_val<std::_Simple_types<char> >
PUBLIC	??1?$_Compressed_pair@V?$allocator@D@std@@V?$_String_val@U?$_Simple_types@D@std@@@2@$00@std@@QAE@XZ ; std::_Compressed_pair<std::allocator<char>,std::_String_val<std::_Simple_types<char> >,1>::~_Compressed_pair<std::allocator<char>,std::_String_val<std::_Simple_types<char> >,1>
PUBLIC	??1?$_String_alloc@U?$_String_base_types@DV?$allocator@D@std@@@std@@@std@@QAE@XZ ; std::_String_alloc<std::_String_base_types<char,std::allocator<char> > >::~_String_alloc<std::_String_base_types<char,std::allocator<char> > >
PUBLIC	??0?$basic_string@DU?$char_traits@D@std@@V?$allocator@D@2@@std@@QAE@ABV01@@Z ; std::basic_string<char,std::char_traits<char>,std::allocator<char> >::basic_string<char,std::char_traits<char>,std::allocator<char> >
PUBLIC	??0?$basic_string@DU?$char_traits@D@std@@V?$allocator@D@2@@std@@QAE@XZ ; std::basic_string<char,std::char_traits<char>,std::allocator<char> >::basic_string<char,std::char_traits<char>,std::allocator<char> >
PUBLIC	??0?$basic_string@DU?$char_traits@D@std@@V?$allocator@D@2@@std@@QAE@$$QAV01@@Z ; std::basic_string<char,std::char_traits<char>,std::allocator<char> >::basic_string<char,std::char_traits<char>,std::allocator<char> >
PUBLIC	??1?$basic_string@DU?$char_traits@D@std@@V?$allocator@D@2@@std@@QAE@XZ ; std::basic_string<char,std::char_traits<char>,std::allocator<char> >::~basic_string<char,std::char_traits<char>,std::allocator<char> >
PUBLIC	?append@?$basic_string@DU?$char_traits@D@std@@V?$allocator@D@2@@std@@QAEAAV12@QBD@Z ; std::basic_string<char,std::char_traits<char>,std::allocator<char> >::append
PUBLIC	?assign@?$basic_string@DU?$char_traits@D@std@@V?$allocator@D@2@@std@@QAEAAV12@QBD@Z ; std::basic_string<char,std::char_traits<char>,std::allocator<char> >::assign
PUBLIC	??$_Emplace_back_with_unused_capacity@ABV?$basic_string@DU?$char_traits@D@std@@V?$allocator@D@2@@std@@@?$vector@V?$basic_string@DU?$char_traits@D@std@@V?$allocator@D@2@@std@@V?$allocator@V?$basic_string@DU?$char_traits@D@std@@V?$allocator@D@2@@std@@@2@@std@@AAE@ABV?$basic_string@DU?$char_traits@D@std@@V?$allocator@D@2@@1@@Z ; std::vector<std::basic_string<char,std::char_traits<char>,std::allocator<char> >,std::allocator<std::basic_string<char,std::char_traits<char>,std::allocator<char> > > >::_Emplace_back_with_unused_capacity<std::basic_string<char,std::char_traits<char>,std::allocator<char> > const &>
PUBLIC	??$emplace_back@ABV?$basic_string@DU?$char_traits@D@std@@V?$allocator@D@2@@std@@@?$vector@V?$basic_string@DU?$char_traits@D@std@@V?$allocator@D@2@@std@@V?$allocator@V?$basic_string@DU?$char_traits@D@std@@V?$allocator@D@2@@std@@@2@@std@@QAE@ABV?$basic_string@DU?$char_traits@D@std@@V?$allocator@D@2@@1@@Z ; std::vector<std::basic_string<char,std::char_traits<char>,std::allocator<char> >,std::allocator<std::basic_string<char,std::char_traits<char>,std::allocator<char> > > >::emplace_back<std::basic_string<char,std::char_traits<char>,std::allocator<char> > const &>
PUBLIC	?push_back@?$vector@V?$basic_string@DU?$char_traits@D@std@@V?$allocator@D@2@@std@@V?$allocator@V?$basic_string@DU?$char_traits@D@std@@V?$allocator@D@2@@std@@@2@@std@@QAEXABV?$basic_string@DU?$char_traits@D@std@@V?$allocator@D@2@@2@@Z ; std::vector<std::basic_string<char,std::char_traits<char>,std::allocator<char> >,std::allocator<std::basic_string<char,std::char_traits<char>,std::allocator<char> > > >::push_back
PUBLIC	?clear@?$vector@V?$basic_string@DU?$char_traits@D@std@@V?$allocator@D@2@@std@@V?$allocator@V?$basic_string@DU?$char_traits@D@std@@V?$allocator@D@2@@std@@@2@@std@@QAEXXZ ; std::vector<std::basic_string<char,std::char_traits<char>,std::allocator<char> >,std::allocator<std::basic_string<char,std::char_traits<char>,std::allocator<char> > > >::clear
PUBLIC	?CheckIPAddress@MonitorIPs@@IAEXXZ		; MonitorIPs::CheckIPAddress
PUBLIC	?Initialize@MonitorIPs@@QAE_NXZ			; MonitorIPs::Initialize
PUBLIC	?SetChange@MonitorIPs@@IAEXXZ			; MonitorIPs::SetChange
PUBLIC	?s_OnChange@MonitorIPs@@KGXPAXE@Z		; MonitorIPs::s_OnChange
PUBLIC	??$_Convert_size@I@std@@YAII@Z			; std::_Convert_size<unsigned int>
PUBLIC	?_Adjust_manually_vector_aligned@std@@YAXAAPAXAAI@Z ; std::_Adjust_manually_vector_aligned
PUBLIC	?_Allocate@_Default_allocate_traits@std@@SAPAXI@Z ; std::_Default_allocate_traits::_Allocate
PUBLIC	??$_Get_size_of_n@$00@std@@YAII@Z		; std::_Get_size_of_n<1>
PUBLIC	?_Orphan_all@_Container_base0@std@@QAEXXZ	; std::_Container_base0::_Orphan_all
PUBLIC	?assign@?$char_traits@D@std@@SAXAADABD@Z	; std::char_traits<char>::assign
PUBLIC	?move@?$char_traits@D@std@@SAPADQADQBDI@Z	; std::char_traits<char>::move
PUBLIC	?copy@?$char_traits@D@std@@SAPADQADQBDI@Z	; std::char_traits<char>::copy
PUBLIC	?length@?$char_traits@D@std@@SAIQBD@Z		; std::char_traits<char>::length
PUBLIC	__snprintf
PUBLIC	__vsnprintf
PUBLIC	__vsnprintf_l
PUBLIC	?max@?$numeric_limits@H@std@@SAHXZ		; std::numeric_limits<int>::max
PUBLIC	___local_stdio_printf_options
PUBLIC	??2@YAPAXIPAX@Z					; operator new
PUBLIC	__real@3fe0000000000000
PUBLIC	__real@408f400000000000
PUBLIC	__real@412e848000000000
PUBLIC	__real@41cdcd6500000000
PUBLIC	__real@49742400
PUBLIC	__xmm@2c27225c7c2f5f2d29282a2524234021
PUBLIC	__xmm@41f00000000000000000000000000000
EXTRN	__CxxThrowException@8:PROC
EXTRN	__alldiv:PROC
EXTRN	__alldvrm:PROC
EXTRN	__allmul:PROC
EXTRN	__aulldiv:PROC
EXTRN	__chkstk:PROC
EXTRN	__dtoui3:PROC
EXTRN	__dtoul3:PROC
EXTRN	__ltod3:PROC
EXTRN	__ultod3:PROC
EXTRN	_memcpy:PROC
EXTRN	_memmove:PROC
EXTRN	_memset:PROC
EXTRN	___security_cookie:DWORD
EXTRN	__fltused:DWORD
;	COMDAT __xmm@41f00000000000000000000000000000
CONST	SEGMENT
__xmm@41f00000000000000000000000000000 DB 00H, 00H, 00H, 00H, 00H, 00H, 00H
	DB	00H, 00H, 00H, 00H, 00H, 00H, 00H, 0f0H, 'A'
CONST	ENDS
;	COMDAT __xmm@2c27225c7c2f5f2d29282a2524234021
CONST	SEGMENT
__xmm@2c27225c7c2f5f2d29282a2524234021 DB '!@#$%*()-_/|\"'','
CONST	ENDS
;	COMDAT __real@49742400
CONST	SEGMENT
__real@49742400 DD 049742400r			; 1e+06
CONST	ENDS
;	COMDAT __real@41cdcd6500000000
CONST	SEGMENT
__real@41cdcd6500000000 DQ 041cdcd6500000000r	; 1e+09
CONST	ENDS
;	COMDAT __real@412e848000000000
CONST	SEGMENT
__real@412e848000000000 DQ 0412e848000000000r	; 1e+06
CONST	ENDS
;	COMDAT __real@408f400000000000
CONST	SEGMENT
__real@408f400000000000 DQ 0408f400000000000r	; 1000
CONST	ENDS
;	COMDAT __real@3fe0000000000000
CONST	SEGMENT
__real@3fe0000000000000 DQ 03fe0000000000000r	; 0.5
CONST	ENDS
xdata$x	SEGMENT
__ehfuncinfo$?CheckIPAddress@MonitorIPs@@IAEXXZ DD 019930522H
	DD	01H
	DD	FLAT:__unwindtable$?CheckIPAddress@MonitorIPs@@IAEXXZ
	DD	2 DUP(00H)
	DD	2 DUP(00H)
	DD	00H
	DD	00H
__unwindtable$?CheckIPAddress@MonitorIPs@@IAEXXZ DD 0ffffffffH
	DD	FLAT:__unwindfunclet$?CheckIPAddress@MonitorIPs@@IAEXXZ$0
xdata$x	ENDS
;	COMDAT xdata$x
xdata$x	SEGMENT
__ehfuncinfo$??1?$basic_string@DU?$char_traits@D@std@@V?$allocator@D@2@@std@@QAE@XZ DD 019930522H
	DD	00H
	DD	00H
	DD	2 DUP(00H)
	DD	2 DUP(00H)
	DD	00H
	DD	04H
xdata$x	ENDS
;	COMDAT xdata$x
xdata$x	SEGMENT
__ehfuncinfo$??$_Emplace_reallocate@ABV?$basic_string@DU?$char_traits@D@std@@V?$allocator@D@2@@std@@@?$vector@V?$basic_string@DU?$char_traits@D@std@@V?$allocator@D@2@@std@@V?$allocator@V?$basic_string@DU?$char_traits@D@std@@V?$allocator@D@2@@std@@@2@@std@@QAEPAV?$basic_string@DU?$char_traits@D@std@@V?$allocator@D@2@@1@QAV21@ABV21@@Z DD 019930522H
	DD	02H
	DD	FLAT:__unwindtable$??$_Emplace_reallocate@ABV?$basic_string@DU?$char_traits@D@std@@V?$allocator@D@2@@std@@@?$vector@V?$basic_string@DU?$char_traits@D@std@@V?$allocator@D@2@@std@@V?$allocator@V?$basic_string@DU?$char_traits@D@std@@V?$allocator@D@2@@std@@@2@@std@@QAEPAV?$basic_string@DU?$char_traits@D@std@@V?$allocator@D@2@@1@QAV21@ABV21@@Z
	DD	01H
	DD	FLAT:__tryblocktable$??$_Emplace_reallocate@ABV?$basic_string@DU?$char_traits@D@std@@V?$allocator@D@2@@std@@@?$vector@V?$basic_string@DU?$char_traits@D@std@@V?$allocator@D@2@@std@@V?$allocator@V?$basic_string@DU?$char_traits@D@std@@V?$allocator@D@2@@std@@@2@@std@@QAEPAV?$basic_string@DU?$char_traits@D@std@@V?$allocator@D@2@@1@QAV21@ABV21@@Z
	DD	2 DUP(00H)
	DD	00H
	DD	00H
__unwindtable$??$_Emplace_reallocate@ABV?$basic_string@DU?$char_traits@D@std@@V?$allocator@D@2@@std@@@?$vector@V?$basic_string@DU?$char_traits@D@std@@V?$allocator@D@2@@std@@V?$allocator@V?$basic_string@DU?$char_traits@D@std@@V?$allocator@D@2@@std@@@2@@std@@QAEPAV?$basic_string@DU?$char_traits@D@std@@V?$allocator@D@2@@1@QAV21@ABV21@@Z DD 0ffffffffH
	DD	00H
	DD	0ffffffffH
	DD	00H
__tryblocktable$??$_Emplace_reallocate@ABV?$basic_string@DU?$char_traits@D@std@@V?$allocator@D@2@@std@@@?$vector@V?$basic_string@DU?$char_traits@D@std@@V?$allocator@D@2@@std@@V?$allocator@V?$basic_string@DU?$char_traits@D@std@@V?$allocator@D@2@@std@@@2@@std@@QAEPAV?$basic_string@DU?$char_traits@D@std@@V?$allocator@D@2@@1@QAV21@ABV21@@Z DD 00H
	DD	00H
	DD	01H
	DD	01H
	DD	FLAT:__catchsym$??$_Emplace_reallocate@ABV?$basic_string@DU?$char_traits@D@std@@V?$allocator@D@2@@std@@@?$vector@V?$basic_string@DU?$char_traits@D@std@@V?$allocator@D@2@@std@@V?$allocator@V?$basic_string@DU?$char_traits@D@std@@V?$allocator@D@2@@std@@@2@@std@@QAEPAV?$basic_string@DU?$char_traits@D@std@@V?$allocator@D@2@@1@QAV21@ABV21@@Z$2
__catchsym$??$_Emplace_reallocate@ABV?$basic_string@DU?$char_traits@D@std@@V?$allocator@D@2@@std@@@?$vector@V?$basic_string@DU?$char_traits@D@std@@V?$allocator@D@2@@std@@V?$allocator@V?$basic_string@DU?$char_traits@D@std@@V?$allocator@D@2@@std@@@2@@std@@QAEPAV?$basic_string@DU?$char_traits@D@std@@V?$allocator@D@2@@1@QAV21@ABV21@@Z$2 DD 00H
	DD	00H
	DD	00H
	DD	FLAT:__catch$??$_Emplace_reallocate@ABV?$basic_string@DU?$char_traits@D@std@@V?$allocator@D@2@@std@@@?$vector@V?$basic_string@DU?$char_traits@D@std@@V?$allocator@D@2@@std@@V?$allocator@V?$basic_string@DU?$char_traits@D@std@@V?$allocator@D@2@@std@@@2@@std@@QAEPAV?$basic_string@DU?$char_traits@D@std@@V?$allocator@D@2@@1@QAV21@ABV21@@Z$0
xdata$x	ENDS
;	COMDAT xdata$x
xdata$x	SEGMENT
__ehfuncinfo$??$_Uninitialized_move@PAV?$basic_string@DU?$char_traits@D@std@@V?$allocator@D@2@@std@@PAV12@V?$allocator@V?$basic_string@DU?$char_traits@D@std@@V?$allocator@D@2@@std@@@2@@std@@YAPAV?$basic_string@DU?$char_traits@D@std@@V?$allocator@D@2@@0@QAV10@0PAV10@AAV?$allocator@V?$basic_string@DU?$char_traits@D@std@@V?$allocator@D@2@@std@@@0@@Z DD 019930522H
	DD	01H
	DD	FLAT:__unwindtable$??$_Uninitialized_move@PAV?$basic_string@DU?$char_traits@D@std@@V?$allocator@D@2@@std@@PAV12@V?$allocator@V?$basic_string@DU?$char_traits@D@std@@V?$allocator@D@2@@std@@@2@@std@@YAPAV?$basic_string@DU?$char_traits@D@std@@V?$allocator@D@2@@0@QAV10@0PAV10@AAV?$allocator@V?$basic_string@DU?$char_traits@D@std@@V?$allocator@D@2@@std@@@0@@Z
	DD	2 DUP(00H)
	DD	2 DUP(00H)
	DD	00H
	DD	00H
__unwindtable$??$_Uninitialized_move@PAV?$basic_string@DU?$char_traits@D@std@@V?$allocator@D@2@@std@@PAV12@V?$allocator@V?$basic_string@DU?$char_traits@D@std@@V?$allocator@D@2@@std@@@2@@std@@YAPAV?$basic_string@DU?$char_traits@D@std@@V?$allocator@D@2@@0@QAV10@0PAV10@AAV?$allocator@V?$basic_string@DU?$char_traits@D@std@@V?$allocator@D@2@@std@@@0@@Z DD 0ffffffffH
	DD	FLAT:__unwindfunclet$??$_Uninitialized_move@PAV?$basic_string@DU?$char_traits@D@std@@V?$allocator@D@2@@std@@PAV12@V?$allocator@V?$basic_string@DU?$char_traits@D@std@@V?$allocator@D@2@@std@@@2@@std@@YAPAV?$basic_string@DU?$char_traits@D@std@@V?$allocator@D@2@@0@QAV10@0PAV10@AAV?$allocator@V?$basic_string@DU?$char_traits@D@std@@V?$allocator@D@2@@std@@@0@@Z$0
xdata$x	ENDS
;	COMDAT xdata$x
xdata$x	SEGMENT
__ehfuncinfo$??$_Uninitialized_move_al_unchecked@PAV?$basic_string@DU?$char_traits@D@std@@V?$allocator@D@2@@std@@PAV12@V?$allocator@V?$basic_string@DU?$char_traits@D@std@@V?$allocator@D@2@@std@@@2@@std@@YAPAV?$basic_string@DU?$char_traits@D@std@@V?$allocator@D@2@@0@PAV10@QAV10@1AAV?$allocator@V?$basic_string@DU?$char_traits@D@std@@V?$allocator@D@2@@std@@@0@U_General_ptr_iterator_tag@0@U_Unused_parameter@0@@Z DD 019930522H
	DD	01H
	DD	FLAT:__unwindtable$??$_Uninitialized_move_al_unchecked@PAV?$basic_string@DU?$char_traits@D@std@@V?$allocator@D@2@@std@@PAV12@V?$allocator@V?$basic_string@DU?$char_traits@D@std@@V?$allocator@D@2@@std@@@2@@std@@YAPAV?$basic_string@DU?$char_traits@D@std@@V?$allocator@D@2@@0@PAV10@QAV10@1AAV?$allocator@V?$basic_string@DU?$char_traits@D@std@@V?$allocator@D@2@@std@@@0@U_General_ptr_iterator_tag@0@U_Unused_parameter@0@@Z
	DD	2 DUP(00H)
	DD	2 DUP(00H)
	DD	00H
	DD	00H
__unwindtable$??$_Uninitialized_move_al_unchecked@PAV?$basic_string@DU?$char_traits@D@std@@V?$allocator@D@2@@std@@PAV12@V?$allocator@V?$basic_string@DU?$char_traits@D@std@@V?$allocator@D@2@@std@@@2@@std@@YAPAV?$basic_string@DU?$char_traits@D@std@@V?$allocator@D@2@@0@PAV10@QAV10@1AAV?$allocator@V?$basic_string@DU?$char_traits@D@std@@V?$allocator@D@2@@std@@@0@U_General_ptr_iterator_tag@0@U_Unused_parameter@0@@Z DD 0ffffffffH
	DD	FLAT:__unwindfunclet$??$_Uninitialized_move_al_unchecked@PAV?$basic_string@DU?$char_traits@D@std@@V?$allocator@D@2@@std@@PAV12@V?$allocator@V?$basic_string@DU?$char_traits@D@std@@V?$allocator@D@2@@std@@@2@@std@@YAPAV?$basic_string@DU?$char_traits@D@std@@V?$allocator@D@2@@0@PAV10@QAV10@1AAV?$allocator@V?$basic_string@DU?$char_traits@D@std@@V?$allocator@D@2@@std@@@0@U_General_ptr_iterator_tag@0@U_Unused_parameter@0@@Z$0
xdata$x	ENDS
;	COMDAT xdata$x
xdata$x	SEGMENT
__ehfuncinfo$??_G?$basic_string@DU?$char_traits@D@std@@V?$allocator@D@2@@std@@QAEPAXI@Z DD 019930522H
	DD	00H
	DD	00H
	DD	2 DUP(00H)
	DD	2 DUP(00H)
	DD	00H
	DD	04H
xdata$x	ENDS
; Function compile flags: /Ogtp
; File c:\program files (x86)\microsoft visual studio\2017\professional\vc\tools\msvc\14.16.27023\include\vcruntime_new.h
;	COMDAT ??2@YAPAXIPAX@Z
_TEXT	SEGMENT
??2@YAPAXIPAX@Z PROC					; operator new, COMDAT
; __Size$dead$ = ecx
; __Where$ = edx

; 186  :         (void)_Size;
; 187  :         return _Where;

  00000	8b c2		 mov	 eax, edx

; 188  :     }

  00002	c3		 ret	 0
??2@YAPAXIPAX@Z ENDP					; operator new
_TEXT	ENDS
; Function compile flags: /Ogtp
; File c:\program files (x86)\windows kits\10\include\10.0.17763.0\ucrt\corecrt_stdio_config.h
;	COMDAT ___local_stdio_printf_options
_TEXT	SEGMENT
___local_stdio_printf_options PROC			; COMDAT

; 87   :         static unsigned __int64 _OptionsStorage;
; 88   :         return &_OptionsStorage;

  00000	b8 00 00 00 00	 mov	 eax, OFFSET ?_OptionsStorage@?1??__local_stdio_printf_options@@9@4_KA ; `__local_stdio_printf_options'::`2'::_OptionsStorage

; 89   :     }

  00005	c3		 ret	 0
___local_stdio_printf_options ENDP
_TEXT	ENDS
; Function compile flags: /Ogtp
; File c:\program files (x86)\microsoft visual studio\2017\professional\vc\tools\msvc\14.16.27023\include\limits
;	COMDAT ?max@?$numeric_limits@H@std@@SAHXZ
_TEXT	SEGMENT
?max@?$numeric_limits@H@std@@SAHXZ PROC			; std::numeric_limits<int>::max, COMDAT

; 617  : 		return (INT_MAX);

  00000	b8 ff ff ff 7f	 mov	 eax, 2147483647		; 7fffffffH

; 618  : 		}

  00005	c3		 ret	 0
?max@?$numeric_limits@H@std@@SAHXZ ENDP			; std::numeric_limits<int>::max
_TEXT	ENDS
; Function compile flags: /Ogtp
; File c:\program files (x86)\windows kits\10\include\10.0.17763.0\ucrt\stdio.h
;	COMDAT __vsnprintf_l
_TEXT	SEGMENT
__Format$ = 8						; size = 4
__Locale$dead$ = 12					; size = 4
__ArgList$ = 16						; size = 4
__vsnprintf_l PROC					; COMDAT
; __Buffer$ = ecx
; __BufferCount$ = edx

; 1389 :     {

  00000	55		 push	 ebp
  00001	8b ec		 mov	 ebp, esp
  00003	83 e4 f8	 and	 esp, -8			; fffffff8H

; 1390 :         int const _Result = __stdio_common_vsprintf(

  00006	ff 75 10	 push	 DWORD PTR __ArgList$[ebp]
  00009	6a 00		 push	 0
  0000b	ff 75 08	 push	 DWORD PTR __Format$[ebp]
  0000e	52		 push	 edx
  0000f	51		 push	 ecx
  00010	e8 00 00 00 00	 call	 ___local_stdio_printf_options
  00015	8b 08		 mov	 ecx, DWORD PTR [eax]
  00017	ff 70 04	 push	 DWORD PTR [eax+4]
  0001a	83 c9 01	 or	 ecx, 1
  0001d	51		 push	 ecx
  0001e	e8 00 00 00 00	 call	 ___stdio_common_vsprintf

; 1391 :             _CRT_INTERNAL_LOCAL_PRINTF_OPTIONS | _CRT_INTERNAL_PRINTF_LEGACY_VSPRINTF_NULL_TERMINATION,
; 1392 :             _Buffer, _BufferCount, _Format, _Locale, _ArgList);
; 1393 : 
; 1394 :         return _Result < 0 ? -1 : _Result;

  00023	83 c9 ff	 or	 ecx, -1
  00026	83 c4 1c	 add	 esp, 28			; 0000001cH
  00029	85 c0		 test	 eax, eax
  0002b	0f 48 c1	 cmovs	 eax, ecx

; 1395 :     }

  0002e	8b e5		 mov	 esp, ebp
  00030	5d		 pop	 ebp
  00031	c3		 ret	 0
__vsnprintf_l ENDP
_TEXT	ENDS
; Function compile flags: /Ogtp
; File c:\program files (x86)\windows kits\10\include\10.0.17763.0\ucrt\stdio.h
;	COMDAT __vsnprintf
_TEXT	SEGMENT
__Format$ = 8						; size = 4
__ArgList$ = 12						; size = 4
__vsnprintf PROC					; COMDAT
; __Buffer$ = ecx
; __BufferCount$ = edx

; 1409 :     {

  00000	55		 push	 ebp
  00001	8b ec		 mov	 ebp, esp

; 1410 :         #pragma warning(push)
; 1411 :         #pragma warning(disable: 4996) // Deprecation
; 1412 :         return _vsnprintf_l(_Buffer, _BufferCount, _Format, NULL, _ArgList);

  00003	ff 75 0c	 push	 DWORD PTR __ArgList$[ebp]
  00006	51		 push	 ecx
  00007	ff 75 08	 push	 DWORD PTR __Format$[ebp]
  0000a	e8 00 00 00 00	 call	 __vsnprintf_l
  0000f	83 c4 0c	 add	 esp, 12			; 0000000cH

; 1413 :         #pragma warning(pop)
; 1414 :     }

  00012	5d		 pop	 ebp
  00013	c3		 ret	 0
__vsnprintf ENDP
_TEXT	ENDS
; Function compile flags: /Ogtp
; File c:\program files (x86)\windows kits\10\include\10.0.17763.0\ucrt\stdio.h
;	COMDAT __snprintf
_TEXT	SEGMENT
__Buffer$ = 8						; size = 4
__BufferCount$ = 12					; size = 4
__Format$ = 16						; size = 4
__snprintf PROC						; COMDAT

; 1969 :     {

  00000	55		 push	 ebp
  00001	8b ec		 mov	 ebp, esp
  00003	51		 push	 ecx

; 1412 :         return _vsnprintf_l(_Buffer, _BufferCount, _Format, NULL, _ArgList);

  00004	8b 55 0c	 mov	 edx, DWORD PTR __BufferCount$[ebp]
  00007	8d 45 14	 lea	 eax, DWORD PTR __Format$[ebp+4]
  0000a	50		 push	 eax
  0000b	51		 push	 ecx
  0000c	ff 75 10	 push	 DWORD PTR __Format$[ebp]
  0000f	8b 4d 08	 mov	 ecx, DWORD PTR __Buffer$[ebp]
  00012	e8 00 00 00 00	 call	 __vsnprintf_l
  00017	83 c4 0c	 add	 esp, 12			; 0000000cH

; 1970 :         int _Result;
; 1971 :         va_list _ArgList;
; 1972 :         __crt_va_start(_ArgList, _Format);
; 1973 :     #pragma warning(suppress:28719)    // 28719
; 1974 :         _Result = _vsnprintf(_Buffer, _BufferCount, _Format, _ArgList);
; 1975 :         __crt_va_end(_ArgList);
; 1976 :         return _Result;
; 1977 :     }

  0001a	59		 pop	 ecx
  0001b	5d		 pop	 ebp
  0001c	c3		 ret	 0
__snprintf ENDP
_TEXT	ENDS
; Function compile flags: /Ogtp
; File c:\program files (x86)\microsoft visual studio\2017\professional\vc\tools\msvc\14.16.27023\include\iosfwd
;	COMDAT ?length@?$char_traits@D@std@@SAIQBD@Z
_TEXT	SEGMENT
?length@?$char_traits@D@std@@SAIQBD@Z PROC		; std::char_traits<char>::length, COMDAT
; __First$ = ecx

; 461  : #if _HAS_CXX17
; 462  : 		return (__builtin_strlen(_First));

  00000	8d 51 01	 lea	 edx, DWORD PTR [ecx+1]
$LL3@length:
  00003	8a 01		 mov	 al, BYTE PTR [ecx]
  00005	41		 inc	 ecx
  00006	84 c0		 test	 al, al
  00008	75 f9		 jne	 SHORT $LL3@length
  0000a	2b ca		 sub	 ecx, edx
  0000c	8b c1		 mov	 eax, ecx

; 463  : #else /* _HAS_CXX17 */
; 464  : 		return (_CSTD strlen(_First));
; 465  : #endif /* _HAS_CXX17 */
; 466  : 		}

  0000e	c3		 ret	 0
?length@?$char_traits@D@std@@SAIQBD@Z ENDP		; std::char_traits<char>::length
_TEXT	ENDS
; Function compile flags: /Ogtp
; File c:\program files (x86)\microsoft visual studio\2017\professional\vc\tools\msvc\14.16.27023\include\iosfwd
;	COMDAT ?copy@?$char_traits@D@std@@SAPADQADQBDI@Z
_TEXT	SEGMENT
__Count$ = 8						; size = 4
?copy@?$char_traits@D@std@@SAPADQADQBDI@Z PROC		; std::char_traits<char>::copy, COMDAT
; __First1$ = ecx
; __First2$ = edx

; 470  : 		{	// copy [_First2, _First2 + _Count) to [_First1, ...)

  00000	55		 push	 ebp
  00001	8b ec		 mov	 ebp, esp

; 471  : 		return (static_cast<char *>(_CSTD memcpy(_First1, _First2, _Count)));

  00003	ff 75 08	 push	 DWORD PTR __Count$[ebp]
  00006	52		 push	 edx
  00007	51		 push	 ecx
  00008	e8 00 00 00 00	 call	 _memcpy
  0000d	83 c4 0c	 add	 esp, 12			; 0000000cH

; 472  : 		}

  00010	5d		 pop	 ebp
  00011	c3		 ret	 0
?copy@?$char_traits@D@std@@SAPADQADQBDI@Z ENDP		; std::char_traits<char>::copy
_TEXT	ENDS
; Function compile flags: /Ogtp
; File c:\program files (x86)\microsoft visual studio\2017\professional\vc\tools\msvc\14.16.27023\include\iosfwd
;	COMDAT ?move@?$char_traits@D@std@@SAPADQADQBDI@Z
_TEXT	SEGMENT
__Count$ = 8						; size = 4
?move@?$char_traits@D@std@@SAPADQADQBDI@Z PROC		; std::char_traits<char>::move, COMDAT
; __First1$ = ecx
; __First2$ = edx

; 494  : 		{	// copy [_First2, _First2 + _Count) to [_First1, ...)

  00000	55		 push	 ebp
  00001	8b ec		 mov	 ebp, esp

; 495  : 		return (static_cast<char *>(_CSTD memmove(_First1, _First2, _Count)));

  00003	ff 75 08	 push	 DWORD PTR __Count$[ebp]
  00006	52		 push	 edx
  00007	51		 push	 ecx
  00008	e8 00 00 00 00	 call	 _memmove
  0000d	83 c4 0c	 add	 esp, 12			; 0000000cH

; 496  : 		}

  00010	5d		 pop	 ebp
  00011	c3		 ret	 0
?move@?$char_traits@D@std@@SAPADQADQBDI@Z ENDP		; std::char_traits<char>::move
_TEXT	ENDS
; Function compile flags: /Ogtp
; File c:\program files (x86)\microsoft visual studio\2017\professional\vc\tools\msvc\14.16.27023\include\iosfwd
;	COMDAT ?assign@?$char_traits@D@std@@SAXAADABD@Z
_TEXT	SEGMENT
?assign@?$char_traits@D@std@@SAXAADABD@Z PROC		; std::char_traits<char>::assign, COMDAT
; __Left$ = ecx
; __Right$ = edx

; 506  : 		_Left = _Right;

  00000	8a 02		 mov	 al, BYTE PTR [edx]
  00002	88 01		 mov	 BYTE PTR [ecx], al

; 507  : 		}

  00004	c3		 ret	 0
?assign@?$char_traits@D@std@@SAXAADABD@Z ENDP		; std::char_traits<char>::assign
_TEXT	ENDS
; Function compile flags: /Ogtp
; File c:\program files (x86)\microsoft visual studio\2017\professional\vc\tools\msvc\14.16.27023\include\xutility
;	COMDAT ?_Orphan_all@_Container_base0@std@@QAEXXZ
_TEXT	SEGMENT
?_Orphan_all@_Container_base0@std@@QAEXXZ PROC		; std::_Container_base0::_Orphan_all, COMDAT
; _this$dead$ = ecx

; 43   : 		}

  00000	c3		 ret	 0
?_Orphan_all@_Container_base0@std@@QAEXXZ ENDP		; std::_Container_base0::_Orphan_all
_TEXT	ENDS
; Function compile flags: /Ogtp
; File c:\program files (x86)\microsoft visual studio\2017\professional\vc\tools\msvc\14.16.27023\include\xmemory0
;	COMDAT ??$_Get_size_of_n@$00@std@@YAII@Z
_TEXT	SEGMENT
??$_Get_size_of_n@$00@std@@YAII@Z PROC			; std::_Get_size_of_n<1>, COMDAT
; __Count$ = ecx

; 38   : 	return (_Count);

  00000	8b c1		 mov	 eax, ecx

; 39   : 	}

  00002	c3		 ret	 0
??$_Get_size_of_n@$00@std@@YAII@Z ENDP			; std::_Get_size_of_n<1>
_TEXT	ENDS
; Function compile flags: /Ogtp
; File c:\program files (x86)\microsoft visual studio\2017\professional\vc\tools\msvc\14.16.27023\include\xmemory0
;	COMDAT ?_Allocate@_Default_allocate_traits@std@@SAPAXI@Z
_TEXT	SEGMENT
?_Allocate@_Default_allocate_traits@std@@SAPAXI@Z PROC	; std::_Default_allocate_traits::_Allocate, COMDAT
; __Bytes$ = ecx

; 52   : 		return (::operator new(_Bytes));

  00000	51		 push	 ecx
  00001	e8 00 00 00 00	 call	 ??2@YAPAXI@Z		; operator new
  00006	83 c4 04	 add	 esp, 4

; 53   : 		}

  00009	c3		 ret	 0
?_Allocate@_Default_allocate_traits@std@@SAPAXI@Z ENDP	; std::_Default_allocate_traits::_Allocate
_TEXT	ENDS
; Function compile flags: /Ogtp
; File c:\program files (x86)\microsoft visual studio\2017\professional\vc\tools\msvc\14.16.27023\include\xmemory0
;	COMDAT ?_Adjust_manually_vector_aligned@std@@YAXAAPAXAAI@Z
_TEXT	SEGMENT
?_Adjust_manually_vector_aligned@std@@YAXAAPAXAAI@Z PROC ; std::_Adjust_manually_vector_aligned, COMDAT
; __Ptr$ = ecx
; __Bytes$ = edx

; 115  : 	_Bytes += _Non_user_size;

  00000	83 02 23	 add	 DWORD PTR [edx], 35	; 00000023H

; 116  : 
; 117  : 	const uintptr_t * const _Ptr_user = reinterpret_cast<uintptr_t *>(_Ptr);
; 118  : 	const uintptr_t _Ptr_container = _Ptr_user[-1];

  00003	8b 01		 mov	 eax, DWORD PTR [ecx]
  00005	8b 50 fc	 mov	 edx, DWORD PTR [eax-4]

; 119  : 
; 120  : 	// If the following asserts, it likely means that we are performing
; 121  : 	// an aligned delete on memory coming from an unaligned allocation.
; 122  : 	_STL_ASSERT(_Ptr_user[-2] == _Big_allocation_sentinel, "invalid argument");
; 123  : 
; 124  : 	// Extra paranoia on aligned allocation/deallocation; ensure _Ptr_container is
; 125  : 	// in range [_Min_back_shift, _Non_user_size]
; 126  :   #ifdef _DEBUG
; 127  : 	constexpr uintptr_t _Min_back_shift = 2 * sizeof(void *);
; 128  :   #else /* ^^^ _DEBUG ^^^ // vvv !_DEBUG vvv */
; 129  : 	constexpr uintptr_t _Min_back_shift = sizeof(void *);
; 130  :   #endif /* _DEBUG */
; 131  : 	const uintptr_t _Back_shift = reinterpret_cast<uintptr_t>(_Ptr) - _Ptr_container;

  00008	2b c2		 sub	 eax, edx

; 132  : 	_STL_VERIFY(_Back_shift >= _Min_back_shift && _Back_shift <= _Non_user_size, "invalid argument");

  0000a	83 c0 fc	 add	 eax, -4			; fffffffcH
  0000d	83 f8 1f	 cmp	 eax, 31			; 0000001fH
  00010	77 03		 ja	 SHORT $LN7@Adjust_man

; 133  : 	_Ptr = reinterpret_cast<void *>(_Ptr_container);

  00012	89 11		 mov	 DWORD PTR [ecx], edx

; 134  : 	}

  00014	c3		 ret	 0
$LN7@Adjust_man:

; 132  : 	_STL_VERIFY(_Back_shift >= _Min_back_shift && _Back_shift <= _Non_user_size, "invalid argument");

  00015	e9 00 00 00 00	 jmp	 __invalid_parameter_noinfo_noreturn
?_Adjust_manually_vector_aligned@std@@YAXAAPAXAAI@Z ENDP ; std::_Adjust_manually_vector_aligned
_TEXT	ENDS
; Function compile flags: /Ogtp
; File c:\program files (x86)\microsoft visual studio\2017\professional\vc\tools\msvc\14.16.27023\include\xmemory0
;	COMDAT ??$_Convert_size@I@std@@YAII@Z
_TEXT	SEGMENT
??$_Convert_size@I@std@@YAII@Z PROC			; std::_Convert_size<unsigned int>, COMDAT
; __Len$ = ecx

; 1204 : 	return (_Len);

  00000	8b c1		 mov	 eax, ecx

; 1205 : 	}

  00002	c3		 ret	 0
??$_Convert_size@I@std@@YAII@Z ENDP			; std::_Convert_size<unsigned int>
_TEXT	ENDS
; Function compile flags: /Ogtp
; File c:\users\giulif\downloads\study\git\sysstatus\monitorips.h
;	COMDAT ?s_OnChange@MonitorIPs@@KGXPAXE@Z
_TEXT	SEGMENT
_lpParameter$ = 8					; size = 4
_b$ = 12						; size = 1
?s_OnChange@MonitorIPs@@KGXPAXE@Z PROC			; MonitorIPs::s_OnChange, COMDAT

; 87   :     {

  00000	55		 push	 ebp
  00001	8b ec		 mov	 ebp, esp
  00003	83 e4 f8	 and	 esp, -8			; fffffff8H
  00006	51		 push	 ecx

; 88   :         Log(LOG_DEBUG, __LINE__, "-- MonIPs.OnChng, 0x%p %.2X", lpParameter, b);

  00007	0f b6 45 0c	 movzx	 eax, BYTE PTR _b$[ebp]
  0000b	56		 push	 esi
  0000c	8b 75 08	 mov	 esi, DWORD PTR _lpParameter$[ebp]
  0000f	50		 push	 eax
  00010	56		 push	 esi
  00011	68 00 00 00 00	 push	 OFFSET ??_C@_0BM@JCKHFAHN@?9?9?5MonIPs?4OnChng?0?50x?$CFp?5?$CF?42X@
  00016	6a 58		 push	 88			; 00000058H
  00018	6a 10		 push	 16			; 00000010H
  0001a	e8 00 00 00 00	 call	 ?Log@@YAXHHPBDZZ	; Log
  0001f	83 c4 14	 add	 esp, 20			; 00000014H

; 89   :         MonitorIPs *self = reinterpret_cast<MonitorIPs*>(lpParameter);
; 90   :         self->CheckIPAddress();     // something changed - check it again

  00022	8b ce		 mov	 ecx, esi
  00024	e8 00 00 00 00	 call	 ?CheckIPAddress@MonitorIPs@@IAEXXZ ; MonitorIPs::CheckIPAddress

; 97   :         WaitForSingleObject(m_hSync, MINUTE);

  00029	68 60 ea 00 00	 push	 60000			; 0000ea60H
  0002e	ff 36		 push	 DWORD PTR [esi]
  00030	ff 15 00 00 00
	00		 call	 DWORD PTR __imp__WaitForSingleObject@8

; 98   :         m_changed = true;
; 99   :         ReleaseMutex(m_hSync);

  00036	ff 36		 push	 DWORD PTR [esi]
  00038	c6 46 28 01	 mov	 BYTE PTR [esi+40], 1
  0003c	ff 15 00 00 00
	00		 call	 DWORD PTR __imp__ReleaseMutex@4

; 91   :         self->SetChange();
; 92   :     }

  00042	5e		 pop	 esi
  00043	8b e5		 mov	 esp, ebp
  00045	5d		 pop	 ebp
  00046	c2 08 00	 ret	 8
?s_OnChange@MonitorIPs@@KGXPAXE@Z ENDP			; MonitorIPs::s_OnChange
_TEXT	ENDS
; Function compile flags: /Ogtp
; File c:\users\giulif\downloads\study\git\sysstatus\monitorips.h
;	COMDAT ?SetChange@MonitorIPs@@IAEXXZ
_TEXT	SEGMENT
?SetChange@MonitorIPs@@IAEXXZ PROC			; MonitorIPs::SetChange, COMDAT
; _this$ = ecx

; 96   :     {

  00000	56		 push	 esi
  00001	8b f1		 mov	 esi, ecx

; 97   :         WaitForSingleObject(m_hSync, MINUTE);

  00003	68 60 ea 00 00	 push	 60000			; 0000ea60H
  00008	ff 36		 push	 DWORD PTR [esi]
  0000a	ff 15 00 00 00
	00		 call	 DWORD PTR __imp__WaitForSingleObject@8

; 98   :         m_changed = true;
; 99   :         ReleaseMutex(m_hSync);

  00010	ff 36		 push	 DWORD PTR [esi]
  00012	c6 46 28 01	 mov	 BYTE PTR [esi+40], 1
  00016	ff 15 00 00 00
	00		 call	 DWORD PTR __imp__ReleaseMutex@4
  0001c	5e		 pop	 esi

; 100  :     }

  0001d	c3		 ret	 0
?SetChange@MonitorIPs@@IAEXXZ ENDP			; MonitorIPs::SetChange
_TEXT	ENDS
; Function compile flags: /Ogtp
; File c:\users\giulif\downloads\study\git\sysstatus\monitorips.cpp
_TEXT	SEGMENT
?Initialize@MonitorIPs@@QAE_NXZ PROC			; MonitorIPs::Initialize
; _this$ = ecx

; 27   : {

  00000	55		 push	 ebp
  00001	8b ec		 mov	 ebp, esp
  00003	83 e4 f8	 and	 esp, -8			; fffffff8H
  00006	51		 push	 ecx
  00007	56		 push	 esi

; 28   :     Log(LOG_DEBUG, __LINE__, ">> MonIPs.Init");

  00008	68 00 00 00 00	 push	 OFFSET ??_C@_0P@DNHLOBGB@?$DO?$DO?5MonIPs?4Init@
  0000d	6a 1c		 push	 28			; 0000001cH
  0000f	6a 10		 push	 16			; 00000010H
  00011	8b f1		 mov	 esi, ecx
  00013	e8 00 00 00 00	 call	 ?Log@@YAXHHPBDZZ	; Log
  00018	83 c4 0c	 add	 esp, 12			; 0000000cH

; 29   : 
; 30   :     m_hSync = CreateMutex(nullptr, FALSE, nullptr);

  0001b	6a 00		 push	 0
  0001d	6a 00		 push	 0
  0001f	6a 00		 push	 0
  00021	ff 15 00 00 00
	00		 call	 DWORD PTR __imp__CreateMutexA@12
  00027	89 06		 mov	 DWORD PTR [esi], eax

; 31   :     if (!m_hSync)

  00029	85 c0		 test	 eax, eax
  0002b	75 1f		 jne	 SHORT $LN2@Initialize

; 32   :     {
; 33   :         Log(LOG_DEBUG, __LINE__, "<< MonIPs.Init, Sync Obj %u", GetLastError());

  0002d	ff 15 00 00 00
	00		 call	 DWORD PTR __imp__GetLastError@0
  00033	50		 push	 eax
  00034	68 00 00 00 00	 push	 OFFSET ??_C@_0BM@LPPKJDAO@?$DM?$DM?5MonIPs?4Init?0?5Sync?5Obj?5?$CFu@
  00039	6a 21		 push	 33			; 00000021H
  0003b	6a 10		 push	 16			; 00000010H
  0003d	e8 00 00 00 00	 call	 ?Log@@YAXHHPBDZZ	; Log
  00042	83 c4 10	 add	 esp, 16			; 00000010H

; 34   :         return false;

  00045	32 c0		 xor	 al, al

; 54   : }

  00047	5e		 pop	 esi
  00048	8b e5		 mov	 esp, ebp
  0004a	5d		 pop	 ebp
  0004b	c3		 ret	 0
$LN2@Initialize:

; 35   :     }
; 36   : 
; 37   :     m_o.hEvent = CreateEvent(nullptr, FALSE, FALSE, nullptr);

  0004c	6a 00		 push	 0
  0004e	6a 00		 push	 0
  00050	6a 00		 push	 0
  00052	6a 00		 push	 0
  00054	ff 15 00 00 00
	00		 call	 DWORD PTR __imp__CreateEventA@16
  0005a	89 46 18	 mov	 DWORD PTR [esi+24], eax

; 38   :     if (!m_o.hEvent)

  0005d	85 c0		 test	 eax, eax
  0005f	75 1f		 jne	 SHORT $LN3@Initialize

; 39   :     {
; 40   :         Log(LOG_DEBUG, __LINE__, "<< MonIPs.Init, CreateEv %u", GetLastError());

  00061	ff 15 00 00 00
	00		 call	 DWORD PTR __imp__GetLastError@0
  00067	50		 push	 eax
  00068	68 00 00 00 00	 push	 OFFSET ??_C@_0BM@EDMNPOCE@?$DM?$DM?5MonIPs?4Init?0?5CreateEv?5?$CFu@
  0006d	6a 28		 push	 40			; 00000028H
  0006f	6a 10		 push	 16			; 00000010H
  00071	e8 00 00 00 00	 call	 ?Log@@YAXHHPBDZZ	; Log
  00076	83 c4 10	 add	 esp, 16			; 00000010H

; 41   :         return false;

  00079	32 c0		 xor	 al, al

; 54   : }

  0007b	5e		 pop	 esi
  0007c	8b e5		 mov	 esp, ebp
  0007e	5d		 pop	 ebp
  0007f	c3		 ret	 0
$LN3@Initialize:

; 42   :     }
; 43   : 
; 44   :     if (!RegisterWaitForSingleObject(&m_hWait, m_o.hEvent, s_OnChange, this, INFINITE, 0))

  00080	6a 00		 push	 0
  00082	6a ff		 push	 -1
  00084	56		 push	 esi
  00085	68 00 00 00 00	 push	 OFFSET ?s_OnChange@MonitorIPs@@KGXPAXE@Z ; MonitorIPs::s_OnChange
  0008a	50		 push	 eax
  0008b	8d 46 04	 lea	 eax, DWORD PTR [esi+4]
  0008e	50		 push	 eax
  0008f	ff 15 00 00 00
	00		 call	 DWORD PTR __imp__RegisterWaitForSingleObject@24
  00095	85 c0		 test	 eax, eax
  00097	75 1f		 jne	 SHORT $LN4@Initialize

; 45   :     {
; 46   :         Log(LOG_DEBUG, __LINE__, "<< MonIPs.Init, RegWaitForSnglObj %u", GetLastError());

  00099	ff 15 00 00 00
	00		 call	 DWORD PTR __imp__GetLastError@0
  0009f	50		 push	 eax
  000a0	68 00 00 00 00	 push	 OFFSET ??_C@_0CF@HDGCLEAK@?$DM?$DM?5MonIPs?4Init?0?5RegWaitForSnglO@
  000a5	6a 2e		 push	 46			; 0000002eH
  000a7	6a 10		 push	 16			; 00000010H
  000a9	e8 00 00 00 00	 call	 ?Log@@YAXHHPBDZZ	; Log
  000ae	83 c4 10	 add	 esp, 16			; 00000010H

; 47   :         return false;

  000b1	32 c0		 xor	 al, al

; 54   : }

  000b3	5e		 pop	 esi
  000b4	8b e5		 mov	 esp, ebp
  000b6	5d		 pop	 ebp
  000b7	c3		 ret	 0
$LN4@Initialize:

; 48   :     }
; 49   : 
; 50   :     CheckIPAddress();

  000b8	8b ce		 mov	 ecx, esi
  000ba	e8 00 00 00 00	 call	 ?CheckIPAddress@MonitorIPs@@IAEXXZ ; MonitorIPs::CheckIPAddress

; 51   : 
; 52   :     Log(LOG_DEBUG, __LINE__, "<< MonIPs.Init, Ev 0x%p, ret True", m_o.hEvent);

  000bf	ff 76 18	 push	 DWORD PTR [esi+24]
  000c2	68 00 00 00 00	 push	 OFFSET ??_C@_0CC@DBAGDPMP@?$DM?$DM?5MonIPs?4Init?0?5Ev?50x?$CFp?0?5ret?5Tr@
  000c7	6a 34		 push	 52			; 00000034H
  000c9	6a 10		 push	 16			; 00000010H
  000cb	e8 00 00 00 00	 call	 ?Log@@YAXHHPBDZZ	; Log
  000d0	83 c4 10	 add	 esp, 16			; 00000010H

; 53   :     return true;

  000d3	b0 01		 mov	 al, 1

; 54   : }

  000d5	5e		 pop	 esi
  000d6	8b e5		 mov	 esp, ebp
  000d8	5d		 pop	 ebp
  000d9	c3		 ret	 0
?Initialize@MonitorIPs@@QAE_NXZ ENDP			; MonitorIPs::Initialize
_TEXT	ENDS
; Function compile flags: /Ogtp
; File c:\users\giulif\downloads\study\git\sysstatus\monitorips.cpp
; File c:\program files (x86)\microsoft visual studio\2017\professional\vc\tools\msvc\14.16.27023\include\vector
; File c:\users\giulif\downloads\study\git\sysstatus\monitorips.cpp
; File c:\program files (x86)\microsoft visual studio\2017\professional\vc\tools\msvc\14.16.27023\include\xstring
; File c:\program files (x86)\microsoft visual studio\2017\professional\vc\tools\msvc\14.16.27023\include\iosfwd
; File c:\users\giulif\downloads\study\git\sysstatus\monitorips.cpp
; File c:\program files (x86)\microsoft visual studio\2017\professional\vc\tools\msvc\14.16.27023\include\iosfwd
; File c:\users\giulif\downloads\study\git\sysstatus\monitorips.cpp
; File c:\program files (x86)\microsoft visual studio\2017\professional\vc\tools\msvc\14.16.27023\include\iosfwd
; File c:\program files (x86)\microsoft visual studio\2017\professional\vc\tools\msvc\14.16.27023\include\xstring
; File c:\users\giulif\downloads\study\git\sysstatus\monitorips.cpp
; File c:\program files (x86)\microsoft visual studio\2017\professional\vc\tools\msvc\14.16.27023\include\xstring
; File c:\program files (x86)\microsoft visual studio\2017\professional\vc\tools\msvc\14.16.27023\include\iosfwd
; File c:\program files (x86)\microsoft visual studio\2017\professional\vc\tools\msvc\14.16.27023\include\xstring
; File c:\users\giulif\downloads\study\git\sysstatus\monitorips.cpp
; File c:\program files (x86)\microsoft visual studio\2017\professional\vc\tools\msvc\14.16.27023\include\xstring
; File c:\program files (x86)\microsoft visual studio\2017\professional\vc\tools\msvc\14.16.27023\include\iosfwd
; File c:\program files (x86)\microsoft visual studio\2017\professional\vc\tools\msvc\14.16.27023\include\xstring
; File c:\users\giulif\downloads\study\git\sysstatus\monitorips.cpp
; File c:\program files (x86)\microsoft visual studio\2017\professional\vc\tools\msvc\14.16.27023\include\xstring
; File c:\program files (x86)\microsoft visual studio\2017\professional\vc\tools\msvc\14.16.27023\include\iosfwd
; File c:\program files (x86)\microsoft visual studio\2017\professional\vc\tools\msvc\14.16.27023\include\xstring
; File c:\users\giulif\downloads\study\git\sysstatus\monitorips.cpp
; File c:\program files (x86)\microsoft visual studio\2017\professional\vc\tools\msvc\14.16.27023\include\xstring
; File c:\program files (x86)\microsoft visual studio\2017\professional\vc\tools\msvc\14.16.27023\include\iosfwd
; File c:\program files (x86)\microsoft visual studio\2017\professional\vc\tools\msvc\14.16.27023\include\xstring
; File c:\users\giulif\downloads\study\git\sysstatus\monitorips.cpp
; File c:\program files (x86)\microsoft visual studio\2017\professional\vc\tools\msvc\14.16.27023\include\xstring
; File c:\program files (x86)\microsoft visual studio\2017\professional\vc\tools\msvc\14.16.27023\include\iosfwd
; File c:\program files (x86)\microsoft visual studio\2017\professional\vc\tools\msvc\14.16.27023\include\xstring
; File c:\users\giulif\downloads\study\git\sysstatus\monitorips.cpp
; File c:\program files (x86)\microsoft visual studio\2017\professional\vc\tools\msvc\14.16.27023\include\xstring
; File c:\program files (x86)\microsoft visual studio\2017\professional\vc\tools\msvc\14.16.27023\include\iosfwd
; File c:\program files (x86)\microsoft visual studio\2017\professional\vc\tools\msvc\14.16.27023\include\xstring
; File c:\program files (x86)\microsoft visual studio\2017\professional\vc\tools\msvc\14.16.27023\include\vector
; File c:\program files (x86)\microsoft visual studio\2017\professional\vc\tools\msvc\14.16.27023\include\xmemory0
; File c:\program files (x86)\microsoft visual studio\2017\professional\vc\tools\msvc\14.16.27023\include\vector
; File c:\users\giulif\downloads\study\git\sysstatus\monitorips.cpp
; File c:\program files (x86)\microsoft visual studio\2017\professional\vc\tools\msvc\14.16.27023\include\xstring
; File c:\program files (x86)\microsoft visual studio\2017\professional\vc\tools\msvc\14.16.27023\include\xmemory0
; File c:\program files (x86)\microsoft visual studio\2017\professional\vc\tools\msvc\14.16.27023\include\xstring
; File c:\program files (x86)\microsoft visual studio\2017\professional\vc\tools\msvc\14.16.27023\include\xmemory0
; File c:\users\giulif\downloads\study\git\sysstatus\monitorips.cpp
; File c:\program files (x86)\microsoft visual studio\2017\professional\vc\tools\msvc\14.16.27023\include\xstring
; File c:\program files (x86)\microsoft visual studio\2017\professional\vc\tools\msvc\14.16.27023\include\iosfwd
; File c:\users\giulif\downloads\study\git\sysstatus\monitorips.cpp
; File c:\program files (x86)\microsoft visual studio\2017\professional\vc\tools\msvc\14.16.27023\include\xmemory0
; File c:\users\giulif\downloads\study\git\sysstatus\monitorips.cpp
_TEXT	SEGMENT
_h$ = -352						; size = 4
_hDefaultProcessHeap$1$ = -348				; size = 4
$T2 = -344						; size = 1
$T3 = -340						; size = 1
$T4 = -336						; size = 1
$T5 = -332						; size = 1
$T6 = -328						; size = 1
$T7 = -324						; size = 1
_this$GSCopy$1$ = -320					; size = 4
_piat$1$ = -316						; size = 4
_dwIndex$1$ = -312					; size = 4
_ulSize$ = -308						; size = 4
_strip$8 = -304						; size = 24
_ip$9 = -280						; size = 260
__$ArrayPad$ = -16					; size = 4
__$EHRec$ = -12						; size = 12
?CheckIPAddress@MonitorIPs@@IAEXXZ PROC			; MonitorIPs::CheckIPAddress
; _this$ = ecx

; 57   : {

  00000	55		 push	 ebp
  00001	8b ec		 mov	 ebp, esp
  00003	6a ff		 push	 -1
  00005	68 00 00 00 00	 push	 __ehhandler$?CheckIPAddress@MonitorIPs@@IAEXXZ
  0000a	64 a1 00 00 00
	00		 mov	 eax, DWORD PTR fs:0
  00010	50		 push	 eax
  00011	81 ec 54 01 00
	00		 sub	 esp, 340		; 00000154H
  00017	a1 00 00 00 00	 mov	 eax, DWORD PTR ___security_cookie
  0001c	33 c5		 xor	 eax, ebp
  0001e	89 45 f0	 mov	 DWORD PTR __$ArrayPad$[ebp], eax
  00021	53		 push	 ebx
  00022	56		 push	 esi
  00023	57		 push	 edi
  00024	50		 push	 eax
  00025	8d 45 f4	 lea	 eax, DWORD PTR __$EHRec$[ebp]
  00028	64 a3 00 00 00
	00		 mov	 DWORD PTR fs:0, eax
  0002e	8b d9		 mov	 ebx, ecx
  00030	89 9d c0 fe ff
	ff		 mov	 DWORD PTR _this$GSCopy$1$[ebp], ebx

; 58   :     ULONG ulSize = 0;
; 59   : 
; 60   :     Log(LOG_DEBUG, __LINE__, ">> MonIPs.ChkIPAddrs");

  00036	68 00 00 00 00	 push	 OFFSET ??_C@_0BF@PFFODCIL@?$DO?$DO?5MonIPs?4ChkIPAddrs@
  0003b	6a 3c		 push	 60			; 0000003cH
  0003d	6a 10		 push	 16			; 00000010H
  0003f	c7 85 cc fe ff
	ff 00 00 00 00	 mov	 DWORD PTR _ulSize$[ebp], 0
  00049	e8 00 00 00 00	 call	 ?Log@@YAXHHPBDZZ	; Log

; 61   : 
; 62   :     //Get number of bytes required
; 63   :     if (GetIpAddrTable(nullptr, &ulSize, 0) == ERROR_INSUFFICIENT_BUFFER)

  0004e	8b 35 00 00 00
	00		 mov	 esi, DWORD PTR __imp__GetIpAddrTable@12
  00054	8d 85 cc fe ff
	ff		 lea	 eax, DWORD PTR _ulSize$[ebp]
  0005a	83 c4 0c	 add	 esp, 12			; 0000000cH
  0005d	6a 00		 push	 0
  0005f	50		 push	 eax
  00060	6a 00		 push	 0
  00062	ff d6		 call	 esi
  00064	83 f8 7a	 cmp	 eax, 122		; 0000007aH
  00067	0f 85 45 04 00
	00		 jne	 $LN6@CheckIPAdd

; 64   :     {
; 65   :         //Allocate required memory
; 66   :         HANDLE const hDefaultProcessHeap = GetProcessHeap();

  0006d	ff 15 00 00 00
	00		 call	 DWORD PTR __imp__GetProcessHeap@0

; 67   :         PMIB_IPADDRTABLE piat = reinterpret_cast<PMIB_IPADDRTABLE>(HeapAlloc(hDefaultProcessHeap, HEAP_ZERO_MEMORY, ulSize));

  00073	ff b5 cc fe ff
	ff		 push	 DWORD PTR _ulSize$[ebp]
  00079	89 85 a4 fe ff
	ff		 mov	 DWORD PTR _hDefaultProcessHeap$1$[ebp], eax
  0007f	6a 08		 push	 8
  00081	50		 push	 eax
  00082	ff 15 00 00 00
	00		 call	 DWORD PTR __imp__HeapAlloc@12
  00088	8b f8		 mov	 edi, eax
  0008a	89 bd c4 fe ff
	ff		 mov	 DWORD PTR _piat$1$[ebp], edi

; 68   :         if (piat)

  00090	85 ff		 test	 edi, edi
  00092	0f 84 1a 04 00
	00		 je	 $LN6@CheckIPAdd

; 69   :         {
; 70   :             //Retrieve the list of IPs
; 71   :             if (GetIpAddrTable(piat, &ulSize, 0) == ERROR_SUCCESS)

  00098	6a 00		 push	 0
  0009a	8d 85 cc fe ff
	ff		 lea	 eax, DWORD PTR _ulSize$[ebp]
  000a0	50		 push	 eax
  000a1	57		 push	 edi
  000a2	ff d6		 call	 esi
  000a4	85 c0		 test	 eax, eax
  000a6	0f 85 f7 03 00
	00		 jne	 $LN7@CheckIPAdd

; 72   :             {
; 73   :                 WaitForSingleObject(m_hSync, MINUTE);

  000ac	68 60 ea 00 00	 push	 60000			; 0000ea60H
  000b1	ff 33		 push	 DWORD PTR [ebx]
  000b3	ff 15 00 00 00
	00		 call	 DWORD PTR __imp__WaitForSingleObject@8
; File c:\program files (x86)\microsoft visual studio\2017\professional\vc\tools\msvc\14.16.27023\include\vector

; 1849 : 		_Destroy_range(_First, _Last, this->_Getal());

  000b9	8b 53 20	 mov	 edx, DWORD PTR [ebx+32]
  000bc	51		 push	 ecx
  000bd	8b 4b 1c	 mov	 ecx, DWORD PTR [ebx+28]
  000c0	e8 00 00 00 00	 call	 ??$_Destroy_range@V?$allocator@V?$basic_string@DU?$char_traits@D@std@@V?$allocator@D@2@@std@@@std@@@std@@YAXPAV?$basic_string@DU?$char_traits@D@std@@V?$allocator@D@2@@0@0AAV?$allocator@V?$basic_string@DU?$char_traits@D@std@@V?$allocator@D@2@@std@@@0@@Z ; std::_Destroy_range<std::allocator<std::basic_string<char,std::char_traits<char>,std::allocator<char> > > >

; 1592 : 		this->_Mylast() = this->_Myfirst();

  000c5	8b 43 1c	 mov	 eax, DWORD PTR [ebx+28]

; 1849 : 		_Destroy_range(_First, _Last, this->_Getal());

  000c8	83 c4 04	 add	 esp, 4

; 1592 : 		this->_Mylast() = this->_Myfirst();

  000cb	89 43 20	 mov	 DWORD PTR [ebx+32], eax
; File c:\users\giulif\downloads\study\git\sysstatus\monitorips.cpp

; 76   :                 for (DWORD dwIndex = 0; dwIndex < piat->dwNumEntries; dwIndex++)

  000ce	83 3f 00	 cmp	 DWORD PTR [edi], 0
  000d1	c7 85 c8 fe ff
	ff 00 00 00 00	 mov	 DWORD PTR _dwIndex$1$[ebp], 0
  000db	0f 86 b4 03 00
	00		 jbe	 $LN362@CheckIPAdd

; 72   :             {
; 73   :                 WaitForSingleObject(m_hSync, MINUTE);

  000e1	83 c7 1a	 add	 edi, 26			; 0000001aH
$LL4@CheckIPAdd:
; File c:\program files (x86)\microsoft visual studio\2017\professional\vc\tools\msvc\14.16.27023\include\xstring

; 1784 : 		_Mysize(0),

  000e4	c7 85 e0 fe ff
	ff 00 00 00 00	 mov	 DWORD PTR _strip$8[ebp+16], 0

; 1785 : 		_Myres(0)

  000ee	c7 85 e4 fe ff
	ff 00 00 00 00	 mov	 DWORD PTR _strip$8[ebp+20], 0

; 3976 : 		_My_data._Mysize = 0;

  000f8	c7 85 e0 fe ff
	ff 00 00 00 00	 mov	 DWORD PTR _strip$8[ebp+16], 0

; 3977 : 		_My_data._Myres = this->_BUF_SIZE - 1;

  00102	c7 85 e4 fe ff
	ff 0f 00 00 00	 mov	 DWORD PTR _strip$8[ebp+20], 15 ; 0000000fH
; File c:\program files (x86)\microsoft visual studio\2017\professional\vc\tools\msvc\14.16.27023\include\iosfwd

; 506  : 		_Left = _Right;

  0010c	c6 85 d0 fe ff
	ff 00		 mov	 BYTE PTR _strip$8[ebp], 0
; File c:\users\giulif\downloads\study\git\sysstatus\monitorips.cpp

; 79   :                     std::string strip;

  00113	c7 45 fc 00 00
	00 00		 mov	 DWORD PTR __$EHRec$[ebp+8], 0

; 80   :                     char ip[_MAX_PATH] = { 0 };

  0011a	8d 85 e8 fe ff
	ff		 lea	 eax, DWORD PTR _ip$9[ebp]
  00120	68 04 01 00 00	 push	 260			; 00000104H
  00125	6a 00		 push	 0
  00127	50		 push	 eax
  00128	e8 00 00 00 00	 call	 _memset

; 83   :                     _snprintf(ip, sizeof(ip) - 1, "Addr %u, Idx %u, Mask %u, BCastAddr %u, ReasmSz %u, Tp %X.",

  0012d	0f b7 07	 movzx	 eax, WORD PTR [edi]
  00130	83 c4 0c	 add	 esp, 12			; 0000000cH
  00133	50		 push	 eax
  00134	ff 77 fa	 push	 DWORD PTR [edi-6]
  00137	8d 85 e8 fe ff
	ff		 lea	 eax, DWORD PTR _ip$9[ebp]
  0013d	ff 77 f6	 push	 DWORD PTR [edi-10]
  00140	ff 77 f2	 push	 DWORD PTR [edi-14]
  00143	ff 77 ee	 push	 DWORD PTR [edi-18]
  00146	ff 77 ea	 push	 DWORD PTR [edi-22]
  00149	68 00 00 00 00	 push	 OFFSET ??_C@_0DL@DAAGENEF@Addr?5?$CFu?0?5Idx?5?$CFu?0?5Mask?5?$CFu?0?5BCast@
  0014e	68 03 01 00 00	 push	 259			; 00000103H
  00153	50		 push	 eax
  00154	e8 00 00 00 00	 call	 __snprintf
; File c:\program files (x86)\microsoft visual studio\2017\professional\vc\tools\msvc\14.16.27023\include\iosfwd

; 462  : 		return (__builtin_strlen(_First));

  00159	8d 8d e8 fe ff
	ff		 lea	 ecx, DWORD PTR _ip$9[ebp]
; File c:\users\giulif\downloads\study\git\sysstatus\monitorips.cpp

; 83   :                     _snprintf(ip, sizeof(ip) - 1, "Addr %u, Idx %u, Mask %u, BCastAddr %u, ReasmSz %u, Tp %X.",

  0015f	83 c4 24	 add	 esp, 36			; 00000024H
; File c:\program files (x86)\microsoft visual studio\2017\professional\vc\tools\msvc\14.16.27023\include\iosfwd

; 462  : 		return (__builtin_strlen(_First));

  00162	8d 51 01	 lea	 edx, DWORD PTR [ecx+1]
$LL363@CheckIPAdd:
  00165	8a 01		 mov	 al, BYTE PTR [ecx]
  00167	41		 inc	 ecx
  00168	84 c0		 test	 al, al
  0016a	75 f9		 jne	 SHORT $LL363@CheckIPAdd
  0016c	2b ca		 sub	 ecx, edx
; File c:\program files (x86)\microsoft visual studio\2017\professional\vc\tools\msvc\14.16.27023\include\xstring

; 2676 : 		return (assign(_Ptr, _Convert_size<size_type>(_Traits::length(_Ptr))));

  0016e	8d 85 e8 fe ff
	ff		 lea	 eax, DWORD PTR _ip$9[ebp]
  00174	51		 push	 ecx
  00175	50		 push	 eax
  00176	8d 8d d0 fe ff
	ff		 lea	 ecx, DWORD PTR _strip$8[ebp]
  0017c	e8 00 00 00 00	 call	 ?assign@?$basic_string@DU?$char_traits@D@std@@V?$allocator@D@2@@std@@QAEAAV12@QBDI@Z ; std::basic_string<char,std::char_traits<char>,std::allocator<char> >::assign
; File c:\users\giulif\downloads\study\git\sysstatus\monitorips.cpp

; 86   :                     if (prow->wType&MIB_IPADDR_PRIMARY)

  00181	f6 07 01	 test	 BYTE PTR [edi], 1
  00184	74 62		 je	 SHORT $LN86@CheckIPAdd
; File c:\program files (x86)\microsoft visual studio\2017\professional\vc\tools\msvc\14.16.27023\include\xstring

; 2571 : 		const size_type _Old_size = _My_data._Mysize;

  00186	8b 8d e4 fe ff
	ff		 mov	 ecx, DWORD PTR _strip$8[ebp+20]
  0018c	8b c1		 mov	 eax, ecx
  0018e	8b 9d e0 fe ff
	ff		 mov	 ebx, DWORD PTR _strip$8[ebp+16]
  00194	2b c3		 sub	 eax, ebx

; 2572 : 		if (_Count <= _My_data._Myres - _Old_size)

  00196	6a 08		 push	 8
  00198	68 00 00 00 00	 push	 OFFSET ??_C@_08BKNGEFGB@Primary?4@
  0019d	83 f8 08	 cmp	 eax, 8
  001a0	72 2c		 jb	 SHORT $LN87@CheckIPAdd

; 1825 : 		return (_BUF_SIZE <= _Myres);

  001a2	83 f9 10	 cmp	 ecx, 16			; 00000010H

; 1803 : 		value_type * _Result = _Bx._Buf;

  001a5	8d b5 d0 fe ff
	ff		 lea	 esi, DWORD PTR _strip$8[ebp]

; 2574 : 			_My_data._Mysize = _Old_size + _Count;

  001ab	8d 43 08	 lea	 eax, DWORD PTR [ebx+8]

; 1804 : 		if (_Large_string_engaged())

  001ae	0f 43 b5 d0 fe
	ff ff		 cmovae	 esi, DWORD PTR _strip$8[ebp]

; 2574 : 			_My_data._Mysize = _Old_size + _Count;

  001b5	89 85 e0 fe ff
	ff		 mov	 DWORD PTR _strip$8[ebp+16], eax

; 2575 : 			_Elem * const _Old_ptr = _My_data._Myptr();
; 2576 : 			_Traits::move(_Old_ptr + _Old_size, _Ptr, _Count);

  001bb	8d 04 1e	 lea	 eax, DWORD PTR [esi+ebx]
; File c:\program files (x86)\microsoft visual studio\2017\professional\vc\tools\msvc\14.16.27023\include\iosfwd

; 495  : 		return (static_cast<char *>(_CSTD memmove(_First1, _First2, _Count)));

  001be	50		 push	 eax
  001bf	e8 00 00 00 00	 call	 _memmove
  001c4	83 c4 0c	 add	 esp, 12			; 0000000cH

; 506  : 		_Left = _Right;

  001c7	c6 44 1e 08 00	 mov	 BYTE PTR [esi+ebx+8], 0
; File c:\program files (x86)\microsoft visual studio\2017\professional\vc\tools\msvc\14.16.27023\include\xstring

; 2578 : 			return (*this);

  001cc	eb 1a		 jmp	 SHORT $LN86@CheckIPAdd
$LN87@CheckIPAdd:

; 2579 : 			}
; 2580 : 
; 2581 : 		return (_Reallocate_grow_by(_Count,

  001ce	c6 85 bc fe ff
	ff 00		 mov	 BYTE PTR $T7[ebp], 0
  001d5	8d 8d d0 fe ff
	ff		 lea	 ecx, DWORD PTR _strip$8[ebp]
  001db	ff b5 bc fe ff
	ff		 push	 DWORD PTR $T7[ebp]
  001e1	6a 08		 push	 8
  001e3	e8 00 00 00 00	 call	 ??$_Reallocate_grow_by@V<lambda_ab246b20b9526e2ef7792587e4298a77>@@PBDI@?$basic_string@DU?$char_traits@D@std@@V?$allocator@D@2@@std@@QAEAAV01@IV<lambda_ab246b20b9526e2ef7792587e4298a77>@@PBDI@Z ; std::basic_string<char,std::char_traits<char>,std::allocator<char> >::_Reallocate_grow_by<<lambda_ab246b20b9526e2ef7792587e4298a77>,char const *,unsigned int>
$LN86@CheckIPAdd:
; File c:\users\giulif\downloads\study\git\sysstatus\monitorips.cpp

; 89   :                     if (prow->wType&MIB_IPADDR_DYNAMIC)

  001e8	f6 07 04	 test	 BYTE PTR [edi], 4
  001eb	74 62		 je	 SHORT $LN110@CheckIPAdd
; File c:\program files (x86)\microsoft visual studio\2017\professional\vc\tools\msvc\14.16.27023\include\xstring

; 2571 : 		const size_type _Old_size = _My_data._Mysize;

  001ed	8b 8d e4 fe ff
	ff		 mov	 ecx, DWORD PTR _strip$8[ebp+20]
  001f3	8b c1		 mov	 eax, ecx
  001f5	8b 9d e0 fe ff
	ff		 mov	 ebx, DWORD PTR _strip$8[ebp+16]
  001fb	2b c3		 sub	 eax, ebx

; 2572 : 		if (_Count <= _My_data._Myres - _Old_size)

  001fd	6a 08		 push	 8
  001ff	68 00 00 00 00	 push	 OFFSET ??_C@_08FHKMKPIG@Dynamic?4@
  00204	83 f8 08	 cmp	 eax, 8
  00207	72 2c		 jb	 SHORT $LN111@CheckIPAdd

; 1825 : 		return (_BUF_SIZE <= _Myres);

  00209	83 f9 10	 cmp	 ecx, 16			; 00000010H

; 1803 : 		value_type * _Result = _Bx._Buf;

  0020c	8d b5 d0 fe ff
	ff		 lea	 esi, DWORD PTR _strip$8[ebp]

; 2574 : 			_My_data._Mysize = _Old_size + _Count;

  00212	8d 43 08	 lea	 eax, DWORD PTR [ebx+8]

; 1804 : 		if (_Large_string_engaged())

  00215	0f 43 b5 d0 fe
	ff ff		 cmovae	 esi, DWORD PTR _strip$8[ebp]

; 2574 : 			_My_data._Mysize = _Old_size + _Count;

  0021c	89 85 e0 fe ff
	ff		 mov	 DWORD PTR _strip$8[ebp+16], eax

; 2575 : 			_Elem * const _Old_ptr = _My_data._Myptr();
; 2576 : 			_Traits::move(_Old_ptr + _Old_size, _Ptr, _Count);

  00222	8d 04 1e	 lea	 eax, DWORD PTR [esi+ebx]
; File c:\program files (x86)\microsoft visual studio\2017\professional\vc\tools\msvc\14.16.27023\include\iosfwd

; 495  : 		return (static_cast<char *>(_CSTD memmove(_First1, _First2, _Count)));

  00225	50		 push	 eax
  00226	e8 00 00 00 00	 call	 _memmove
  0022b	83 c4 0c	 add	 esp, 12			; 0000000cH

; 506  : 		_Left = _Right;

  0022e	c6 44 1e 08 00	 mov	 BYTE PTR [esi+ebx+8], 0
; File c:\program files (x86)\microsoft visual studio\2017\professional\vc\tools\msvc\14.16.27023\include\xstring

; 2578 : 			return (*this);

  00233	eb 1a		 jmp	 SHORT $LN110@CheckIPAdd
$LN111@CheckIPAdd:

; 2579 : 			}
; 2580 : 
; 2581 : 		return (_Reallocate_grow_by(_Count,

  00235	c6 85 b8 fe ff
	ff 00		 mov	 BYTE PTR $T6[ebp], 0
  0023c	8d 8d d0 fe ff
	ff		 lea	 ecx, DWORD PTR _strip$8[ebp]
  00242	ff b5 b8 fe ff
	ff		 push	 DWORD PTR $T6[ebp]
  00248	6a 08		 push	 8
  0024a	e8 00 00 00 00	 call	 ??$_Reallocate_grow_by@V<lambda_ab246b20b9526e2ef7792587e4298a77>@@PBDI@?$basic_string@DU?$char_traits@D@std@@V?$allocator@D@2@@std@@QAEAAV01@IV<lambda_ab246b20b9526e2ef7792587e4298a77>@@PBDI@Z ; std::basic_string<char,std::char_traits<char>,std::allocator<char> >::_Reallocate_grow_by<<lambda_ab246b20b9526e2ef7792587e4298a77>,char const *,unsigned int>
$LN110@CheckIPAdd:
; File c:\users\giulif\downloads\study\git\sysstatus\monitorips.cpp

; 92   :                     if (prow->wType&MIB_IPADDR_DISCONNECTED)

  0024f	f6 07 08	 test	 BYTE PTR [edi], 8
  00252	74 60		 je	 SHORT $LN134@CheckIPAdd
; File c:\program files (x86)\microsoft visual studio\2017\professional\vc\tools\msvc\14.16.27023\include\xstring

; 2571 : 		const size_type _Old_size = _My_data._Mysize;

  00254	8b 95 e4 fe ff
	ff		 mov	 edx, DWORD PTR _strip$8[ebp+20]
  0025a	8b c2		 mov	 eax, edx
  0025c	8b 8d e0 fe ff
	ff		 mov	 ecx, DWORD PTR _strip$8[ebp+16]
  00262	2b c1		 sub	 eax, ecx

; 2572 : 		if (_Count <= _My_data._Myres - _Old_size)

  00264	6a 0d		 push	 13			; 0000000dH
  00266	68 00 00 00 00	 push	 OFFSET ??_C@_0O@HGEAPED@Disconnected?4@
  0026b	83 f8 0d	 cmp	 eax, 13			; 0000000dH
  0026e	72 2a		 jb	 SHORT $LN135@CheckIPAdd

; 1825 : 		return (_BUF_SIZE <= _Myres);

  00270	83 fa 10	 cmp	 edx, 16			; 00000010H

; 1803 : 		value_type * _Result = _Bx._Buf;

  00273	8d b5 d0 fe ff
	ff		 lea	 esi, DWORD PTR _strip$8[ebp]

; 2574 : 			_My_data._Mysize = _Old_size + _Count;

  00279	8d 41 0d	 lea	 eax, DWORD PTR [ecx+13]

; 1804 : 		if (_Large_string_engaged())

  0027c	0f 43 b5 d0 fe
	ff ff		 cmovae	 esi, DWORD PTR _strip$8[ebp]

; 2576 : 			_Traits::move(_Old_ptr + _Old_size, _Ptr, _Count);

  00283	03 f1		 add	 esi, ecx
  00285	89 85 e0 fe ff
	ff		 mov	 DWORD PTR _strip$8[ebp+16], eax
; File c:\program files (x86)\microsoft visual studio\2017\professional\vc\tools\msvc\14.16.27023\include\iosfwd

; 495  : 		return (static_cast<char *>(_CSTD memmove(_First1, _First2, _Count)));

  0028b	56		 push	 esi
  0028c	e8 00 00 00 00	 call	 _memmove
  00291	83 c4 0c	 add	 esp, 12			; 0000000cH

; 506  : 		_Left = _Right;

  00294	c6 46 0d 00	 mov	 BYTE PTR [esi+13], 0
; File c:\program files (x86)\microsoft visual studio\2017\professional\vc\tools\msvc\14.16.27023\include\xstring

; 2578 : 			return (*this);

  00298	eb 1a		 jmp	 SHORT $LN134@CheckIPAdd
$LN135@CheckIPAdd:

; 2579 : 			}
; 2580 : 
; 2581 : 		return (_Reallocate_grow_by(_Count,

  0029a	c6 85 b4 fe ff
	ff 00		 mov	 BYTE PTR $T5[ebp], 0
  002a1	8d 8d d0 fe ff
	ff		 lea	 ecx, DWORD PTR _strip$8[ebp]
  002a7	ff b5 b4 fe ff
	ff		 push	 DWORD PTR $T5[ebp]
  002ad	6a 0d		 push	 13			; 0000000dH
  002af	e8 00 00 00 00	 call	 ??$_Reallocate_grow_by@V<lambda_ab246b20b9526e2ef7792587e4298a77>@@PBDI@?$basic_string@DU?$char_traits@D@std@@V?$allocator@D@2@@std@@QAEAAV01@IV<lambda_ab246b20b9526e2ef7792587e4298a77>@@PBDI@Z ; std::basic_string<char,std::char_traits<char>,std::allocator<char> >::_Reallocate_grow_by<<lambda_ab246b20b9526e2ef7792587e4298a77>,char const *,unsigned int>
$LN134@CheckIPAdd:
; File c:\users\giulif\downloads\study\git\sysstatus\monitorips.cpp

; 95   :                     if (prow->wType&MIB_IPADDR_DELETED)

  002b4	f6 07 40	 test	 BYTE PTR [edi], 64	; 00000040H
  002b7	74 62		 je	 SHORT $LN158@CheckIPAdd
; File c:\program files (x86)\microsoft visual studio\2017\professional\vc\tools\msvc\14.16.27023\include\xstring

; 2571 : 		const size_type _Old_size = _My_data._Mysize;

  002b9	8b 8d e4 fe ff
	ff		 mov	 ecx, DWORD PTR _strip$8[ebp+20]
  002bf	8b c1		 mov	 eax, ecx
  002c1	8b 9d e0 fe ff
	ff		 mov	 ebx, DWORD PTR _strip$8[ebp+16]
  002c7	2b c3		 sub	 eax, ebx

; 2572 : 		if (_Count <= _My_data._Myres - _Old_size)

  002c9	6a 08		 push	 8
  002cb	68 00 00 00 00	 push	 OFFSET ??_C@_08FCNPIEBD@Deleted?4@
  002d0	83 f8 08	 cmp	 eax, 8
  002d3	72 2c		 jb	 SHORT $LN159@CheckIPAdd

; 1825 : 		return (_BUF_SIZE <= _Myres);

  002d5	83 f9 10	 cmp	 ecx, 16			; 00000010H

; 1803 : 		value_type * _Result = _Bx._Buf;

  002d8	8d b5 d0 fe ff
	ff		 lea	 esi, DWORD PTR _strip$8[ebp]

; 2574 : 			_My_data._Mysize = _Old_size + _Count;

  002de	8d 43 08	 lea	 eax, DWORD PTR [ebx+8]

; 1804 : 		if (_Large_string_engaged())

  002e1	0f 43 b5 d0 fe
	ff ff		 cmovae	 esi, DWORD PTR _strip$8[ebp]

; 2574 : 			_My_data._Mysize = _Old_size + _Count;

  002e8	89 85 e0 fe ff
	ff		 mov	 DWORD PTR _strip$8[ebp+16], eax

; 2575 : 			_Elem * const _Old_ptr = _My_data._Myptr();
; 2576 : 			_Traits::move(_Old_ptr + _Old_size, _Ptr, _Count);

  002ee	8d 04 1e	 lea	 eax, DWORD PTR [esi+ebx]
; File c:\program files (x86)\microsoft visual studio\2017\professional\vc\tools\msvc\14.16.27023\include\iosfwd

; 495  : 		return (static_cast<char *>(_CSTD memmove(_First1, _First2, _Count)));

  002f1	50		 push	 eax
  002f2	e8 00 00 00 00	 call	 _memmove
  002f7	83 c4 0c	 add	 esp, 12			; 0000000cH

; 506  : 		_Left = _Right;

  002fa	c6 44 1e 08 00	 mov	 BYTE PTR [esi+ebx+8], 0
; File c:\program files (x86)\microsoft visual studio\2017\professional\vc\tools\msvc\14.16.27023\include\xstring

; 2578 : 			return (*this);

  002ff	eb 1a		 jmp	 SHORT $LN158@CheckIPAdd
$LN159@CheckIPAdd:

; 2579 : 			}
; 2580 : 
; 2581 : 		return (_Reallocate_grow_by(_Count,

  00301	c6 85 b0 fe ff
	ff 00		 mov	 BYTE PTR $T4[ebp], 0
  00308	8d 8d d0 fe ff
	ff		 lea	 ecx, DWORD PTR _strip$8[ebp]
  0030e	ff b5 b0 fe ff
	ff		 push	 DWORD PTR $T4[ebp]
  00314	6a 08		 push	 8
  00316	e8 00 00 00 00	 call	 ??$_Reallocate_grow_by@V<lambda_ab246b20b9526e2ef7792587e4298a77>@@PBDI@?$basic_string@DU?$char_traits@D@std@@V?$allocator@D@2@@std@@QAEAAV01@IV<lambda_ab246b20b9526e2ef7792587e4298a77>@@PBDI@Z ; std::basic_string<char,std::char_traits<char>,std::allocator<char> >::_Reallocate_grow_by<<lambda_ab246b20b9526e2ef7792587e4298a77>,char const *,unsigned int>
$LN158@CheckIPAdd:
; File c:\users\giulif\downloads\study\git\sysstatus\monitorips.cpp

; 98   :                     if (prow->wType&MIB_IPADDR_TRANSIENT)

  0031b	f6 07 80	 test	 BYTE PTR [edi], 128	; 00000080H
  0031e	74 62		 je	 SHORT $LN182@CheckIPAdd
; File c:\program files (x86)\microsoft visual studio\2017\professional\vc\tools\msvc\14.16.27023\include\xstring

; 2571 : 		const size_type _Old_size = _My_data._Mysize;

  00320	8b 8d e4 fe ff
	ff		 mov	 ecx, DWORD PTR _strip$8[ebp+20]
  00326	8b c1		 mov	 eax, ecx
  00328	8b 9d e0 fe ff
	ff		 mov	 ebx, DWORD PTR _strip$8[ebp+16]
  0032e	2b c3		 sub	 eax, ebx

; 2572 : 		if (_Count <= _My_data._Myres - _Old_size)

  00330	6a 0a		 push	 10			; 0000000aH
  00332	68 00 00 00 00	 push	 OFFSET ??_C@_0L@HFLHPH@Transient?4@
  00337	83 f8 0a	 cmp	 eax, 10			; 0000000aH
  0033a	72 2c		 jb	 SHORT $LN183@CheckIPAdd

; 1825 : 		return (_BUF_SIZE <= _Myres);

  0033c	83 f9 10	 cmp	 ecx, 16			; 00000010H

; 1803 : 		value_type * _Result = _Bx._Buf;

  0033f	8d b5 d0 fe ff
	ff		 lea	 esi, DWORD PTR _strip$8[ebp]

; 2574 : 			_My_data._Mysize = _Old_size + _Count;

  00345	8d 43 0a	 lea	 eax, DWORD PTR [ebx+10]

; 1804 : 		if (_Large_string_engaged())

  00348	0f 43 b5 d0 fe
	ff ff		 cmovae	 esi, DWORD PTR _strip$8[ebp]

; 2574 : 			_My_data._Mysize = _Old_size + _Count;

  0034f	89 85 e0 fe ff
	ff		 mov	 DWORD PTR _strip$8[ebp+16], eax

; 2575 : 			_Elem * const _Old_ptr = _My_data._Myptr();
; 2576 : 			_Traits::move(_Old_ptr + _Old_size, _Ptr, _Count);

  00355	8d 04 1e	 lea	 eax, DWORD PTR [esi+ebx]
; File c:\program files (x86)\microsoft visual studio\2017\professional\vc\tools\msvc\14.16.27023\include\iosfwd

; 495  : 		return (static_cast<char *>(_CSTD memmove(_First1, _First2, _Count)));

  00358	50		 push	 eax
  00359	e8 00 00 00 00	 call	 _memmove
  0035e	83 c4 0c	 add	 esp, 12			; 0000000cH

; 506  : 		_Left = _Right;

  00361	c6 44 1e 0a 00	 mov	 BYTE PTR [esi+ebx+10], 0
; File c:\program files (x86)\microsoft visual studio\2017\professional\vc\tools\msvc\14.16.27023\include\xstring

; 2578 : 			return (*this);

  00366	eb 1a		 jmp	 SHORT $LN182@CheckIPAdd
$LN183@CheckIPAdd:

; 2579 : 			}
; 2580 : 
; 2581 : 		return (_Reallocate_grow_by(_Count,

  00368	c6 85 ac fe ff
	ff 00		 mov	 BYTE PTR $T3[ebp], 0
  0036f	8d 8d d0 fe ff
	ff		 lea	 ecx, DWORD PTR _strip$8[ebp]
  00375	ff b5 ac fe ff
	ff		 push	 DWORD PTR $T3[ebp]
  0037b	6a 0a		 push	 10			; 0000000aH
  0037d	e8 00 00 00 00	 call	 ??$_Reallocate_grow_by@V<lambda_ab246b20b9526e2ef7792587e4298a77>@@PBDI@?$basic_string@DU?$char_traits@D@std@@V?$allocator@D@2@@std@@QAEAAV01@IV<lambda_ab246b20b9526e2ef7792587e4298a77>@@PBDI@Z ; std::basic_string<char,std::char_traits<char>,std::allocator<char> >::_Reallocate_grow_by<<lambda_ab246b20b9526e2ef7792587e4298a77>,char const *,unsigned int>
$LN182@CheckIPAdd:
; File c:\users\giulif\downloads\study\git\sysstatus\monitorips.cpp

; 101  :                     if (prow->wType&MIB_IPADDR_DNS_ELIGIBLE)

  00382	b8 00 01 00 00	 mov	 eax, 256		; 00000100H
  00387	66 85 07	 test	 WORD PTR [edi], ax
  0038a	74 62		 je	 SHORT $LN206@CheckIPAdd
; File c:\program files (x86)\microsoft visual studio\2017\professional\vc\tools\msvc\14.16.27023\include\xstring

; 2571 : 		const size_type _Old_size = _My_data._Mysize;

  0038c	8b 8d e4 fe ff
	ff		 mov	 ecx, DWORD PTR _strip$8[ebp+20]
  00392	8b c1		 mov	 eax, ecx
  00394	8b 9d e0 fe ff
	ff		 mov	 ebx, DWORD PTR _strip$8[ebp+16]
  0039a	2b c3		 sub	 eax, ebx

; 2572 : 		if (_Count <= _My_data._Myres - _Old_size)

  0039c	6a 11		 push	 17			; 00000011H
  0039e	68 00 00 00 00	 push	 OFFSET ??_C@_0BC@PFKLNNIM@Published?5in?5DNS?4@
  003a3	83 f8 11	 cmp	 eax, 17			; 00000011H
  003a6	72 2c		 jb	 SHORT $LN207@CheckIPAdd

; 1825 : 		return (_BUF_SIZE <= _Myres);

  003a8	83 f9 10	 cmp	 ecx, 16			; 00000010H

; 1803 : 		value_type * _Result = _Bx._Buf;

  003ab	8d b5 d0 fe ff
	ff		 lea	 esi, DWORD PTR _strip$8[ebp]

; 2574 : 			_My_data._Mysize = _Old_size + _Count;

  003b1	8d 43 11	 lea	 eax, DWORD PTR [ebx+17]

; 1804 : 		if (_Large_string_engaged())

  003b4	0f 43 b5 d0 fe
	ff ff		 cmovae	 esi, DWORD PTR _strip$8[ebp]

; 2574 : 			_My_data._Mysize = _Old_size + _Count;

  003bb	89 85 e0 fe ff
	ff		 mov	 DWORD PTR _strip$8[ebp+16], eax

; 2575 : 			_Elem * const _Old_ptr = _My_data._Myptr();
; 2576 : 			_Traits::move(_Old_ptr + _Old_size, _Ptr, _Count);

  003c1	8d 04 1e	 lea	 eax, DWORD PTR [esi+ebx]
; File c:\program files (x86)\microsoft visual studio\2017\professional\vc\tools\msvc\14.16.27023\include\iosfwd

; 495  : 		return (static_cast<char *>(_CSTD memmove(_First1, _First2, _Count)));

  003c4	50		 push	 eax
  003c5	e8 00 00 00 00	 call	 _memmove
  003ca	83 c4 0c	 add	 esp, 12			; 0000000cH

; 506  : 		_Left = _Right;

  003cd	c6 44 1e 11 00	 mov	 BYTE PTR [esi+ebx+17], 0
; File c:\program files (x86)\microsoft visual studio\2017\professional\vc\tools\msvc\14.16.27023\include\xstring

; 2578 : 			return (*this);

  003d2	eb 1a		 jmp	 SHORT $LN206@CheckIPAdd
$LN207@CheckIPAdd:

; 2579 : 			}
; 2580 : 
; 2581 : 		return (_Reallocate_grow_by(_Count,

  003d4	c6 85 a8 fe ff
	ff 00		 mov	 BYTE PTR $T2[ebp], 0
  003db	8d 8d d0 fe ff
	ff		 lea	 ecx, DWORD PTR _strip$8[ebp]
  003e1	ff b5 a8 fe ff
	ff		 push	 DWORD PTR $T2[ebp]
  003e7	6a 11		 push	 17			; 00000011H
  003e9	e8 00 00 00 00	 call	 ??$_Reallocate_grow_by@V<lambda_ab246b20b9526e2ef7792587e4298a77>@@PBDI@?$basic_string@DU?$char_traits@D@std@@V?$allocator@D@2@@std@@QAEAAV01@IV<lambda_ab246b20b9526e2ef7792587e4298a77>@@PBDI@Z ; std::basic_string<char,std::char_traits<char>,std::allocator<char> >::_Reallocate_grow_by<<lambda_ab246b20b9526e2ef7792587e4298a77>,char const *,unsigned int>
$LN206@CheckIPAdd:
; File c:\program files (x86)\microsoft visual studio\2017\professional\vc\tools\msvc\14.16.27023\include\vector

; 1726 : 		return (this->_Myend() != this->_Mylast());

  003ee	8b 9d c0 fe ff
	ff		 mov	 ebx, DWORD PTR _this$GSCopy$1$[ebp]

; 917  : 		if (_Has_unused_capacity())

  003f4	8d 8d d0 fe ff
	ff		 lea	 ecx, DWORD PTR _strip$8[ebp]
  003fa	51		 push	 ecx

; 1726 : 		return (this->_Myend() != this->_Mylast());

  003fb	8b 43 20	 mov	 eax, DWORD PTR [ebx+32]
  003fe	39 43 24	 cmp	 DWORD PTR [ebx+36], eax

; 917  : 		if (_Has_unused_capacity())

  00401	74 0d		 je	 SHORT $LN227@CheckIPAdd
; File c:\program files (x86)\microsoft visual studio\2017\professional\vc\tools\msvc\14.16.27023\include\xmemory0

; 879  : 		{	// construct _Objty(_Types...) at _Ptr

  00403	8b c8		 mov	 ecx, eax
  00405	e8 00 00 00 00	 call	 ??0?$basic_string@DU?$char_traits@D@std@@V?$allocator@D@2@@std@@QAE@ABV01@@Z ; std::basic_string<char,std::char_traits<char>,std::allocator<char> >::basic_string<char,std::char_traits<char>,std::allocator<char> >
; File c:\program files (x86)\microsoft visual studio\2017\professional\vc\tools\msvc\14.16.27023\include\vector

; 905  : 		++this->_Mylast();

  0040a	83 43 20 18	 add	 DWORD PTR [ebx+32], 24	; 00000018H

; 919  : 			return (_Emplace_back_with_unused_capacity(_STD forward<_Valty>(_Val)...));

  0040e	eb 09		 jmp	 SHORT $LN226@CheckIPAdd
$LN227@CheckIPAdd:

; 920  : 			}
; 921  : 
; 922  : 		_Ty& _Result = *_Emplace_reallocate(this->_Mylast(), _STD forward<_Valty>(_Val)...);

  00410	50		 push	 eax
  00411	8d 4b 1c	 lea	 ecx, DWORD PTR [ebx+28]
  00414	e8 00 00 00 00	 call	 ??$_Emplace_reallocate@ABV?$basic_string@DU?$char_traits@D@std@@V?$allocator@D@2@@std@@@?$vector@V?$basic_string@DU?$char_traits@D@std@@V?$allocator@D@2@@std@@V?$allocator@V?$basic_string@DU?$char_traits@D@std@@V?$allocator@D@2@@std@@@2@@std@@QAEPAV?$basic_string@DU?$char_traits@D@std@@V?$allocator@D@2@@1@QAV21@ABV21@@Z ; std::vector<std::basic_string<char,std::char_traits<char>,std::allocator<char> >,std::allocator<std::basic_string<char,std::char_traits<char>,std::allocator<char> > > >::_Emplace_reallocate<std::basic_string<char,std::char_traits<char>,std::allocator<char> > const &>
$LN226@CheckIPAdd:
; File c:\users\giulif\downloads\study\git\sysstatus\monitorips.cpp

; 105  :                 }

  00419	c7 45 fc ff ff
	ff ff		 mov	 DWORD PTR __$EHRec$[ebp+8], -1
; File c:\program files (x86)\microsoft visual studio\2017\professional\vc\tools\msvc\14.16.27023\include\xstring

; 1825 : 		return (_BUF_SIZE <= _Myres);

  00420	8b 95 e4 fe ff
	ff		 mov	 edx, DWORD PTR _strip$8[ebp+20]
  00426	83 fa 10	 cmp	 edx, 16			; 00000010H

; 3987 : 		if (_My_data._Large_string_engaged())

  00429	72 2f		 jb	 SHORT $LN343@CheckIPAdd
; File c:\program files (x86)\microsoft visual studio\2017\professional\vc\tools\msvc\14.16.27023\include\xmemory0

; 992  : 		_Deallocate<_New_alignof<_Ty>>(_Ptr, sizeof(_Ty) * _Count);

  0042b	8b 8d d0 fe ff
	ff		 mov	 ecx, DWORD PTR _strip$8[ebp]
; File c:\program files (x86)\microsoft visual studio\2017\professional\vc\tools\msvc\14.16.27023\include\xstring

; 3992 : 			_Al.deallocate(_Ptr, _My_data._Myres + 1);

  00431	42		 inc	 edx
; File c:\program files (x86)\microsoft visual studio\2017\professional\vc\tools\msvc\14.16.27023\include\xmemory0

; 992  : 		_Deallocate<_New_alignof<_Ty>>(_Ptr, sizeof(_Ty) * _Count);

  00432	8b c1		 mov	 eax, ecx

; 201  : 	if (_Bytes >= _Big_allocation_threshold)

  00434	81 fa 00 10 00
	00		 cmp	 edx, 4096		; 00001000H
  0043a	72 14		 jb	 SHORT $LN342@CheckIPAdd

; 118  : 	const uintptr_t _Ptr_container = _Ptr_user[-1];

  0043c	8b 49 fc	 mov	 ecx, DWORD PTR [ecx-4]
  0043f	83 c2 23	 add	 edx, 35			; 00000023H
  00442	2b c1		 sub	 eax, ecx

; 132  : 	_STL_VERIFY(_Back_shift >= _Min_back_shift && _Back_shift <= _Non_user_size, "invalid argument");

  00444	83 c0 fc	 add	 eax, -4			; fffffffcH
  00447	83 f8 1f	 cmp	 eax, 31			; 0000001fH
  0044a	0f 87 a0 00 00
	00		 ja	 $LN339@CheckIPAdd
$LN342@CheckIPAdd:

; 207  : 	::operator delete(_Ptr, _Bytes);

  00450	52		 push	 edx
  00451	51		 push	 ecx
  00452	e8 00 00 00 00	 call	 ??3@YAXPAXI@Z		; operator delete
  00457	83 c4 08	 add	 esp, 8
$LN343@CheckIPAdd:
; File c:\users\giulif\downloads\study\git\sysstatus\monitorips.cpp

; 76   :                 for (DWORD dwIndex = 0; dwIndex < piat->dwNumEntries; dwIndex++)

  0045a	8b 9d c8 fe ff
	ff		 mov	 ebx, DWORD PTR _dwIndex$1$[ebp]
  00460	83 c7 18	 add	 edi, 24			; 00000018H
  00463	8b 85 c4 fe ff
	ff		 mov	 eax, DWORD PTR _piat$1$[ebp]
  00469	43		 inc	 ebx
; File c:\program files (x86)\microsoft visual studio\2017\professional\vc\tools\msvc\14.16.27023\include\xstring

; 3995 : 		_My_data._Mysize = 0;

  0046a	c7 85 e0 fe ff
	ff 00 00 00 00	 mov	 DWORD PTR _strip$8[ebp+16], 0

; 3996 : 		_My_data._Myres = this->_BUF_SIZE - 1;

  00474	c7 85 e4 fe ff
	ff 0f 00 00 00	 mov	 DWORD PTR _strip$8[ebp+20], 15 ; 0000000fH
; File c:\program files (x86)\microsoft visual studio\2017\professional\vc\tools\msvc\14.16.27023\include\iosfwd

; 506  : 		_Left = _Right;

  0047e	c6 85 d0 fe ff
	ff 00		 mov	 BYTE PTR _strip$8[ebp], 0
; File c:\users\giulif\downloads\study\git\sysstatus\monitorips.cpp

; 76   :                 for (DWORD dwIndex = 0; dwIndex < piat->dwNumEntries; dwIndex++)

  00485	89 9d c8 fe ff
	ff		 mov	 DWORD PTR _dwIndex$1$[ebp], ebx
  0048b	3b 18		 cmp	 ebx, DWORD PTR [eax]
  0048d	0f 82 51 fc ff
	ff		 jb	 $LL4@CheckIPAdd
  00493	8b f8		 mov	 edi, eax
$LN362@CheckIPAdd:

; 106  :                 ReleaseMutex(m_hSync);

  00495	8b 9d c0 fe ff
	ff		 mov	 ebx, DWORD PTR _this$GSCopy$1$[ebp]
  0049b	ff 33		 push	 DWORD PTR [ebx]
  0049d	ff 15 00 00 00
	00		 call	 DWORD PTR __imp__ReleaseMutex@4
$LN7@CheckIPAdd:

; 107  :             }
; 108  :             HeapFree(hDefaultProcessHeap, 0UL, piat);

  004a3	57		 push	 edi
  004a4	6a 00		 push	 0
  004a6	ff b5 a4 fe ff
	ff		 push	 DWORD PTR _hDefaultProcessHeap$1$[ebp]
  004ac	ff 15 00 00 00
	00		 call	 DWORD PTR __imp__HeapFree@12
$LN6@CheckIPAdd:

; 109  :         }
; 110  :     }
; 111  : 
; 112  :     HANDLE h;
; 113  :     NotifyAddrChange(&h, &m_o);

  004b2	8d 43 08	 lea	 eax, DWORD PTR [ebx+8]
  004b5	50		 push	 eax
  004b6	8d 85 a0 fe ff
	ff		 lea	 eax, DWORD PTR _h$[ebp]
  004bc	50		 push	 eax
  004bd	ff 15 00 00 00
	00		 call	 DWORD PTR __imp__NotifyAddrChange@8

; 114  : 
; 115  :     Log(LOG_DEBUG, __LINE__, "<< MonIPs.ChkIPAddrs");

  004c3	68 00 00 00 00	 push	 OFFSET ??_C@_0BF@NLFEEFHK@?$DM?$DM?5MonIPs?4ChkIPAddrs@
  004c8	6a 73		 push	 115			; 00000073H
  004ca	6a 10		 push	 16			; 00000010H
  004cc	e8 00 00 00 00	 call	 ?Log@@YAXHHPBDZZ	; Log
  004d1	83 c4 0c	 add	 esp, 12			; 0000000cH

; 116  : }

  004d4	8b 4d f4	 mov	 ecx, DWORD PTR __$EHRec$[ebp]
  004d7	64 89 0d 00 00
	00 00		 mov	 DWORD PTR fs:0, ecx
  004de	59		 pop	 ecx
  004df	5f		 pop	 edi
  004e0	5e		 pop	 esi
  004e1	5b		 pop	 ebx
  004e2	8b 4d f0	 mov	 ecx, DWORD PTR __$ArrayPad$[ebp]
  004e5	33 cd		 xor	 ecx, ebp
  004e7	e8 00 00 00 00	 call	 @__security_check_cookie@4
  004ec	8b e5		 mov	 esp, ebp
  004ee	5d		 pop	 ebp
  004ef	c3		 ret	 0
$LN339@CheckIPAdd:
; File c:\program files (x86)\microsoft visual studio\2017\professional\vc\tools\msvc\14.16.27023\include\xmemory0

; 132  : 	_STL_VERIFY(_Back_shift >= _Min_back_shift && _Back_shift <= _Non_user_size, "invalid argument");

  004f0	e8 00 00 00 00	 call	 __invalid_parameter_noinfo_noreturn
$LN366@CheckIPAdd:
  004f5	cc		 int	 3
_TEXT	ENDS
text$x	SEGMENT
__unwindfunclet$?CheckIPAddress@MonitorIPs@@IAEXXZ$0:
  00000	8d 8d d0 fe ff
	ff		 lea	 ecx, DWORD PTR _strip$8[ebp]
  00006	e9 00 00 00 00	 jmp	 ??1?$basic_string@DU?$char_traits@D@std@@V?$allocator@D@2@@std@@QAE@XZ ; std::basic_string<char,std::char_traits<char>,std::allocator<char> >::~basic_string<char,std::char_traits<char>,std::allocator<char> >
__ehhandler$?CheckIPAddress@MonitorIPs@@IAEXXZ:
  0000b	8b 54 24 08	 mov	 edx, DWORD PTR [esp+8]
  0000f	8d 42 0c	 lea	 eax, DWORD PTR [edx+12]
  00012	8b 8a 9c fe ff
	ff		 mov	 ecx, DWORD PTR [edx-356]
  00018	33 c8		 xor	 ecx, eax
  0001a	e8 00 00 00 00	 call	 @__security_check_cookie@4
  0001f	8b 4a fc	 mov	 ecx, DWORD PTR [edx-4]
  00022	33 c8		 xor	 ecx, eax
  00024	e8 00 00 00 00	 call	 @__security_check_cookie@4
  00029	b8 00 00 00 00	 mov	 eax, OFFSET __ehfuncinfo$?CheckIPAddress@MonitorIPs@@IAEXXZ
  0002e	e9 00 00 00 00	 jmp	 ___CxxFrameHandler3
text$x	ENDS
?CheckIPAddress@MonitorIPs@@IAEXXZ ENDP			; MonitorIPs::CheckIPAddress
; Function compile flags: /Ogtp
; File c:\program files (x86)\microsoft visual studio\2017\professional\vc\tools\msvc\14.16.27023\include\vector
;	COMDAT ?clear@?$vector@V?$basic_string@DU?$char_traits@D@std@@V?$allocator@D@2@@std@@V?$allocator@V?$basic_string@DU?$char_traits@D@std@@V?$allocator@D@2@@std@@@2@@std@@QAEXXZ
_TEXT	SEGMENT
?clear@?$vector@V?$basic_string@DU?$char_traits@D@std@@V?$allocator@D@2@@std@@V?$allocator@V?$basic_string@DU?$char_traits@D@std@@V?$allocator@D@2@@std@@@2@@std@@QAEXXZ PROC ; std::vector<std::basic_string<char,std::char_traits<char>,std::allocator<char> >,std::allocator<std::basic_string<char,std::char_traits<char>,std::allocator<char> > > >::clear, COMDAT
; _this$ = ecx

; 1589 : 		{	// erase all

  00000	56		 push	 esi
  00001	8b f1		 mov	 esi, ecx

; 1849 : 		_Destroy_range(_First, _Last, this->_Getal());

  00003	51		 push	 ecx
  00004	8b 56 04	 mov	 edx, DWORD PTR [esi+4]
  00007	8b 0e		 mov	 ecx, DWORD PTR [esi]
  00009	e8 00 00 00 00	 call	 ??$_Destroy_range@V?$allocator@V?$basic_string@DU?$char_traits@D@std@@V?$allocator@D@2@@std@@@std@@@std@@YAXPAV?$basic_string@DU?$char_traits@D@std@@V?$allocator@D@2@@0@0AAV?$allocator@V?$basic_string@DU?$char_traits@D@std@@V?$allocator@D@2@@std@@@0@@Z ; std::_Destroy_range<std::allocator<std::basic_string<char,std::char_traits<char>,std::allocator<char> > > >

; 1590 : 		this->_Orphan_all();
; 1591 : 		_Destroy(this->_Myfirst(), this->_Mylast());
; 1592 : 		this->_Mylast() = this->_Myfirst();

  0000e	8b 06		 mov	 eax, DWORD PTR [esi]

; 1849 : 		_Destroy_range(_First, _Last, this->_Getal());

  00010	83 c4 04	 add	 esp, 4

; 1590 : 		this->_Orphan_all();
; 1591 : 		_Destroy(this->_Myfirst(), this->_Mylast());
; 1592 : 		this->_Mylast() = this->_Myfirst();

  00013	89 46 04	 mov	 DWORD PTR [esi+4], eax
  00016	5e		 pop	 esi

; 1593 : 		}

  00017	c3		 ret	 0
?clear@?$vector@V?$basic_string@DU?$char_traits@D@std@@V?$allocator@D@2@@std@@V?$allocator@V?$basic_string@DU?$char_traits@D@std@@V?$allocator@D@2@@std@@@2@@std@@QAEXXZ ENDP ; std::vector<std::basic_string<char,std::char_traits<char>,std::allocator<char> >,std::allocator<std::basic_string<char,std::char_traits<char>,std::allocator<char> > > >::clear
_TEXT	ENDS
; Function compile flags: /Ogtp
; File c:\program files (x86)\microsoft visual studio\2017\professional\vc\tools\msvc\14.16.27023\include\vector
; File c:\program files (x86)\microsoft visual studio\2017\professional\vc\tools\msvc\14.16.27023\include\xmemory0
; File c:\program files (x86)\microsoft visual studio\2017\professional\vc\tools\msvc\14.16.27023\include\vector
;	COMDAT ?push_back@?$vector@V?$basic_string@DU?$char_traits@D@std@@V?$allocator@D@2@@std@@V?$allocator@V?$basic_string@DU?$char_traits@D@std@@V?$allocator@D@2@@std@@@2@@std@@QAEXABV?$basic_string@DU?$char_traits@D@std@@V?$allocator@D@2@@2@@Z
_TEXT	SEGMENT
__Val$ = 8						; size = 4
?push_back@?$vector@V?$basic_string@DU?$char_traits@D@std@@V?$allocator@D@2@@std@@V?$allocator@V?$basic_string@DU?$char_traits@D@std@@V?$allocator@D@2@@std@@@2@@std@@QAEXABV?$basic_string@DU?$char_traits@D@std@@V?$allocator@D@2@@2@@Z PROC ; std::vector<std::basic_string<char,std::char_traits<char>,std::allocator<char> >,std::allocator<std::basic_string<char,std::char_traits<char>,std::allocator<char> > > >::push_back, COMDAT
; _this$ = ecx

; 931  : 		{	// insert element at end, provide strong guarantee

  00000	55		 push	 ebp
  00001	8b ec		 mov	 ebp, esp
  00003	56		 push	 esi

; 917  : 		if (_Has_unused_capacity())

  00004	ff 75 08	 push	 DWORD PTR __Val$[ebp]

; 931  : 		{	// insert element at end, provide strong guarantee

  00007	8b f1		 mov	 esi, ecx

; 1726 : 		return (this->_Myend() != this->_Mylast());

  00009	8b 46 04	 mov	 eax, DWORD PTR [esi+4]
  0000c	39 46 08	 cmp	 DWORD PTR [esi+8], eax

; 917  : 		if (_Has_unused_capacity())

  0000f	74 10		 je	 SHORT $LN4@push_back
; File c:\program files (x86)\microsoft visual studio\2017\professional\vc\tools\msvc\14.16.27023\include\xmemory0

; 879  : 		{	// construct _Objty(_Types...) at _Ptr

  00011	8b c8		 mov	 ecx, eax
  00013	e8 00 00 00 00	 call	 ??0?$basic_string@DU?$char_traits@D@std@@V?$allocator@D@2@@std@@QAE@ABV01@@Z ; std::basic_string<char,std::char_traits<char>,std::allocator<char> >::basic_string<char,std::char_traits<char>,std::allocator<char> >
; File c:\program files (x86)\microsoft visual studio\2017\professional\vc\tools\msvc\14.16.27023\include\vector

; 905  : 		++this->_Mylast();

  00018	83 46 04 18	 add	 DWORD PTR [esi+4], 24	; 00000018H
  0001c	5e		 pop	 esi

; 932  : 		emplace_back(_Val);
; 933  : 		}

  0001d	5d		 pop	 ebp
  0001e	c2 04 00	 ret	 4
$LN4@push_back:

; 922  : 		_Ty& _Result = *_Emplace_reallocate(this->_Mylast(), _STD forward<_Valty>(_Val)...);

  00021	50		 push	 eax
  00022	e8 00 00 00 00	 call	 ??$_Emplace_reallocate@ABV?$basic_string@DU?$char_traits@D@std@@V?$allocator@D@2@@std@@@?$vector@V?$basic_string@DU?$char_traits@D@std@@V?$allocator@D@2@@std@@V?$allocator@V?$basic_string@DU?$char_traits@D@std@@V?$allocator@D@2@@std@@@2@@std@@QAEPAV?$basic_string@DU?$char_traits@D@std@@V?$allocator@D@2@@1@QAV21@ABV21@@Z ; std::vector<std::basic_string<char,std::char_traits<char>,std::allocator<char> >,std::allocator<std::basic_string<char,std::char_traits<char>,std::allocator<char> > > >::_Emplace_reallocate<std::basic_string<char,std::char_traits<char>,std::allocator<char> > const &>
  00027	5e		 pop	 esi

; 932  : 		emplace_back(_Val);
; 933  : 		}

  00028	5d		 pop	 ebp
  00029	c2 04 00	 ret	 4
?push_back@?$vector@V?$basic_string@DU?$char_traits@D@std@@V?$allocator@D@2@@std@@V?$allocator@V?$basic_string@DU?$char_traits@D@std@@V?$allocator@D@2@@std@@@2@@std@@QAEXABV?$basic_string@DU?$char_traits@D@std@@V?$allocator@D@2@@2@@Z ENDP ; std::vector<std::basic_string<char,std::char_traits<char>,std::allocator<char> >,std::allocator<std::basic_string<char,std::char_traits<char>,std::allocator<char> > > >::push_back
_TEXT	ENDS
; Function compile flags: /Ogtp
; File c:\program files (x86)\microsoft visual studio\2017\professional\vc\tools\msvc\14.16.27023\include\vector
; File c:\program files (x86)\microsoft visual studio\2017\professional\vc\tools\msvc\14.16.27023\include\xmemory0
; File c:\program files (x86)\microsoft visual studio\2017\professional\vc\tools\msvc\14.16.27023\include\vector
;	COMDAT ??$emplace_back@ABV?$basic_string@DU?$char_traits@D@std@@V?$allocator@D@2@@std@@@?$vector@V?$basic_string@DU?$char_traits@D@std@@V?$allocator@D@2@@std@@V?$allocator@V?$basic_string@DU?$char_traits@D@std@@V?$allocator@D@2@@std@@@2@@std@@QAE@ABV?$basic_string@DU?$char_traits@D@std@@V?$allocator@D@2@@1@@Z
_TEXT	SEGMENT
_<_Val_0>$ = 8						; size = 4
??$emplace_back@ABV?$basic_string@DU?$char_traits@D@std@@V?$allocator@D@2@@std@@@?$vector@V?$basic_string@DU?$char_traits@D@std@@V?$allocator@D@2@@std@@V?$allocator@V?$basic_string@DU?$char_traits@D@std@@V?$allocator@D@2@@std@@@2@@std@@QAE@ABV?$basic_string@DU?$char_traits@D@std@@V?$allocator@D@2@@1@@Z PROC ; std::vector<std::basic_string<char,std::char_traits<char>,std::allocator<char> >,std::allocator<std::basic_string<char,std::char_traits<char>,std::allocator<char> > > >::emplace_back<std::basic_string<char,std::char_traits<char>,std::allocator<char> > const &>, COMDAT
; _this$ = ecx

; 916  : 		{	// insert by perfectly forwarding into element at end, provide strong guarantee

  00000	55		 push	 ebp
  00001	8b ec		 mov	 ebp, esp
  00003	56		 push	 esi

; 917  : 		if (_Has_unused_capacity())

  00004	ff 75 08	 push	 DWORD PTR _<_Val_0>$[ebp]
  00007	8b f1		 mov	 esi, ecx

; 1726 : 		return (this->_Myend() != this->_Mylast());

  00009	8b 46 04	 mov	 eax, DWORD PTR [esi+4]
  0000c	39 46 08	 cmp	 DWORD PTR [esi+8], eax

; 917  : 		if (_Has_unused_capacity())

  0000f	74 15		 je	 SHORT $LN2@emplace_ba
; File c:\program files (x86)\microsoft visual studio\2017\professional\vc\tools\msvc\14.16.27023\include\xmemory0

; 879  : 		{	// construct _Objty(_Types...) at _Ptr

  00011	8b c8		 mov	 ecx, eax
  00013	e8 00 00 00 00	 call	 ??0?$basic_string@DU?$char_traits@D@std@@V?$allocator@D@2@@std@@QAE@ABV01@@Z ; std::basic_string<char,std::char_traits<char>,std::allocator<char> >::basic_string<char,std::char_traits<char>,std::allocator<char> >
; File c:\program files (x86)\microsoft visual studio\2017\professional\vc\tools\msvc\14.16.27023\include\vector

; 904  : 		_Ty& _Result = *this->_Mylast();

  00018	8b 46 04	 mov	 eax, DWORD PTR [esi+4]

; 905  : 		++this->_Mylast();

  0001b	8d 48 18	 lea	 ecx, DWORD PTR [eax+24]
  0001e	89 4e 04	 mov	 DWORD PTR [esi+4], ecx
  00021	5e		 pop	 esi

; 923  : #if _HAS_CXX17
; 924  : 		return (_Result);
; 925  : #else /* ^^^ _HAS_CXX17 ^^^ // vvv !_HAS_CXX17 vvv */
; 926  : 		(void)_Result;
; 927  : #endif /* _HAS_CXX17 */
; 928  : 		}

  00022	5d		 pop	 ebp
  00023	c2 04 00	 ret	 4
$LN2@emplace_ba:

; 918  : 			{
; 919  : 			return (_Emplace_back_with_unused_capacity(_STD forward<_Valty>(_Val)...));
; 920  : 			}
; 921  : 
; 922  : 		_Ty& _Result = *_Emplace_reallocate(this->_Mylast(), _STD forward<_Valty>(_Val)...);

  00026	50		 push	 eax
  00027	e8 00 00 00 00	 call	 ??$_Emplace_reallocate@ABV?$basic_string@DU?$char_traits@D@std@@V?$allocator@D@2@@std@@@?$vector@V?$basic_string@DU?$char_traits@D@std@@V?$allocator@D@2@@std@@V?$allocator@V?$basic_string@DU?$char_traits@D@std@@V?$allocator@D@2@@std@@@2@@std@@QAEPAV?$basic_string@DU?$char_traits@D@std@@V?$allocator@D@2@@1@QAV21@ABV21@@Z ; std::vector<std::basic_string<char,std::char_traits<char>,std::allocator<char> >,std::allocator<std::basic_string<char,std::char_traits<char>,std::allocator<char> > > >::_Emplace_reallocate<std::basic_string<char,std::char_traits<char>,std::allocator<char> > const &>
  0002c	5e		 pop	 esi

; 923  : #if _HAS_CXX17
; 924  : 		return (_Result);
; 925  : #else /* ^^^ _HAS_CXX17 ^^^ // vvv !_HAS_CXX17 vvv */
; 926  : 		(void)_Result;
; 927  : #endif /* _HAS_CXX17 */
; 928  : 		}

  0002d	5d		 pop	 ebp
  0002e	c2 04 00	 ret	 4
??$emplace_back@ABV?$basic_string@DU?$char_traits@D@std@@V?$allocator@D@2@@std@@@?$vector@V?$basic_string@DU?$char_traits@D@std@@V?$allocator@D@2@@std@@V?$allocator@V?$basic_string@DU?$char_traits@D@std@@V?$allocator@D@2@@std@@@2@@std@@QAE@ABV?$basic_string@DU?$char_traits@D@std@@V?$allocator@D@2@@1@@Z ENDP ; std::vector<std::basic_string<char,std::char_traits<char>,std::allocator<char> >,std::allocator<std::basic_string<char,std::char_traits<char>,std::allocator<char> > > >::emplace_back<std::basic_string<char,std::char_traits<char>,std::allocator<char> > const &>
_TEXT	ENDS
; Function compile flags: /Ogtp
; File c:\program files (x86)\microsoft visual studio\2017\professional\vc\tools\msvc\14.16.27023\include\vector
; File c:\program files (x86)\microsoft visual studio\2017\professional\vc\tools\msvc\14.16.27023\include\xmemory0
; File c:\program files (x86)\microsoft visual studio\2017\professional\vc\tools\msvc\14.16.27023\include\vector
; File c:\program files (x86)\microsoft visual studio\2017\professional\vc\tools\msvc\14.16.27023\include\xmemory0
; File c:\program files (x86)\microsoft visual studio\2017\professional\vc\tools\msvc\14.16.27023\include\vector
;	COMDAT ??$_Emplace_back_with_unused_capacity@ABV?$basic_string@DU?$char_traits@D@std@@V?$allocator@D@2@@std@@@?$vector@V?$basic_string@DU?$char_traits@D@std@@V?$allocator@D@2@@std@@V?$allocator@V?$basic_string@DU?$char_traits@D@std@@V?$allocator@D@2@@std@@@2@@std@@AAE@ABV?$basic_string@DU?$char_traits@D@std@@V?$allocator@D@2@@1@@Z
_TEXT	SEGMENT
_<_Val_0>$ = 8						; size = 4
??$_Emplace_back_with_unused_capacity@ABV?$basic_string@DU?$char_traits@D@std@@V?$allocator@D@2@@std@@@?$vector@V?$basic_string@DU?$char_traits@D@std@@V?$allocator@D@2@@std@@V?$allocator@V?$basic_string@DU?$char_traits@D@std@@V?$allocator@D@2@@std@@@2@@std@@AAE@ABV?$basic_string@DU?$char_traits@D@std@@V?$allocator@D@2@@1@@Z PROC ; std::vector<std::basic_string<char,std::char_traits<char>,std::allocator<char> >,std::allocator<std::basic_string<char,std::char_traits<char>,std::allocator<char> > > >::_Emplace_back_with_unused_capacity<std::basic_string<char,std::char_traits<char>,std::allocator<char> > const &>, COMDAT
; _this$ = ecx

; 900  : 		{	// insert by perfectly forwarding into element at end, provide strong guarantee

  00000	55		 push	 ebp
  00001	8b ec		 mov	 ebp, esp
  00003	56		 push	 esi
; File c:\program files (x86)\microsoft visual studio\2017\professional\vc\tools\msvc\14.16.27023\include\xmemory0

; 879  : 		{	// construct _Objty(_Types...) at _Ptr

  00004	ff 75 08	 push	 DWORD PTR _<_Val_0>$[ebp]
; File c:\program files (x86)\microsoft visual studio\2017\professional\vc\tools\msvc\14.16.27023\include\vector

; 900  : 		{	// insert by perfectly forwarding into element at end, provide strong guarantee

  00007	8b f1		 mov	 esi, ecx
; File c:\program files (x86)\microsoft visual studio\2017\professional\vc\tools\msvc\14.16.27023\include\xmemory0

; 879  : 		{	// construct _Objty(_Types...) at _Ptr

  00009	8b 4e 04	 mov	 ecx, DWORD PTR [esi+4]
  0000c	e8 00 00 00 00	 call	 ??0?$basic_string@DU?$char_traits@D@std@@V?$allocator@D@2@@std@@QAE@ABV01@@Z ; std::basic_string<char,std::char_traits<char>,std::allocator<char> >::basic_string<char,std::char_traits<char>,std::allocator<char> >
; File c:\program files (x86)\microsoft visual studio\2017\professional\vc\tools\msvc\14.16.27023\include\vector

; 904  : 		_Ty& _Result = *this->_Mylast();

  00011	8b 46 04	 mov	 eax, DWORD PTR [esi+4]

; 905  : 		++this->_Mylast();

  00014	8d 50 18	 lea	 edx, DWORD PTR [eax+24]
  00017	89 56 04	 mov	 DWORD PTR [esi+4], edx

; 906  : #if _HAS_CXX17
; 907  : 		return (_Result);

  0001a	5e		 pop	 esi

; 908  : #else /* ^^^ _HAS_CXX17 ^^^ // vvv !_HAS_CXX17 vvv */
; 909  : 		(void)_Result;
; 910  : #endif /* _HAS_CXX17 */
; 911  : 		}

  0001b	5d		 pop	 ebp
  0001c	c2 04 00	 ret	 4
??$_Emplace_back_with_unused_capacity@ABV?$basic_string@DU?$char_traits@D@std@@V?$allocator@D@2@@std@@@?$vector@V?$basic_string@DU?$char_traits@D@std@@V?$allocator@D@2@@std@@V?$allocator@V?$basic_string@DU?$char_traits@D@std@@V?$allocator@D@2@@std@@@2@@std@@AAE@ABV?$basic_string@DU?$char_traits@D@std@@V?$allocator@D@2@@1@@Z ENDP ; std::vector<std::basic_string<char,std::char_traits<char>,std::allocator<char> >,std::allocator<std::basic_string<char,std::char_traits<char>,std::allocator<char> > > >::_Emplace_back_with_unused_capacity<std::basic_string<char,std::char_traits<char>,std::allocator<char> > const &>
_TEXT	ENDS
; Function compile flags: /Ogtp
; File c:\program files (x86)\microsoft visual studio\2017\professional\vc\tools\msvc\14.16.27023\include\xstring
; File c:\program files (x86)\microsoft visual studio\2017\professional\vc\tools\msvc\14.16.27023\include\iosfwd
; File c:\program files (x86)\microsoft visual studio\2017\professional\vc\tools\msvc\14.16.27023\include\xstring
; File c:\program files (x86)\microsoft visual studio\2017\professional\vc\tools\msvc\14.16.27023\include\iosfwd
; File c:\program files (x86)\microsoft visual studio\2017\professional\vc\tools\msvc\14.16.27023\include\xstring
;	COMDAT ?assign@?$basic_string@DU?$char_traits@D@std@@V?$allocator@D@2@@std@@QAEAAV12@QBD@Z
_TEXT	SEGMENT
__Ptr$ = 8						; size = 4
?assign@?$basic_string@DU?$char_traits@D@std@@V?$allocator@D@2@@std@@QAEAAV12@QBD@Z PROC ; std::basic_string<char,std::char_traits<char>,std::allocator<char> >::assign, COMDAT
; _this$ = ecx

; 2675 : 		{	// assign [_Ptr, <null>)

  00000	55		 push	 ebp
  00001	8b ec		 mov	 ebp, esp
; File c:\program files (x86)\microsoft visual studio\2017\professional\vc\tools\msvc\14.16.27023\include\iosfwd

; 462  : 		return (__builtin_strlen(_First));

  00003	8b 55 08	 mov	 edx, DWORD PTR __Ptr$[ebp]
  00006	8b c2		 mov	 eax, edx
; File c:\program files (x86)\microsoft visual studio\2017\professional\vc\tools\msvc\14.16.27023\include\xstring

; 2675 : 		{	// assign [_Ptr, <null>)

  00008	56		 push	 esi
  00009	57		 push	 edi
  0000a	8b f1		 mov	 esi, ecx
; File c:\program files (x86)\microsoft visual studio\2017\professional\vc\tools\msvc\14.16.27023\include\iosfwd

; 462  : 		return (__builtin_strlen(_First));

  0000c	8d 78 01	 lea	 edi, DWORD PTR [eax+1]
  0000f	90		 npad	 1
$LL7@assign:
  00010	8a 08		 mov	 cl, BYTE PTR [eax]
  00012	40		 inc	 eax
  00013	84 c9		 test	 cl, cl
  00015	75 f9		 jne	 SHORT $LL7@assign
  00017	2b c7		 sub	 eax, edi
; File c:\program files (x86)\microsoft visual studio\2017\professional\vc\tools\msvc\14.16.27023\include\xstring

; 2676 : 		return (assign(_Ptr, _Convert_size<size_type>(_Traits::length(_Ptr))));

  00019	8b ce		 mov	 ecx, esi
  0001b	50		 push	 eax
  0001c	52		 push	 edx
  0001d	e8 00 00 00 00	 call	 ?assign@?$basic_string@DU?$char_traits@D@std@@V?$allocator@D@2@@std@@QAEAAV12@QBDI@Z ; std::basic_string<char,std::char_traits<char>,std::allocator<char> >::assign
  00022	5f		 pop	 edi
  00023	5e		 pop	 esi

; 2677 : 		}

  00024	5d		 pop	 ebp
  00025	c2 04 00	 ret	 4
?assign@?$basic_string@DU?$char_traits@D@std@@V?$allocator@D@2@@std@@QAEAAV12@QBD@Z ENDP ; std::basic_string<char,std::char_traits<char>,std::allocator<char> >::assign
_TEXT	ENDS
; Function compile flags: /Ogtp
; File c:\program files (x86)\microsoft visual studio\2017\professional\vc\tools\msvc\14.16.27023\include\xstring
; File c:\program files (x86)\microsoft visual studio\2017\professional\vc\tools\msvc\14.16.27023\include\iosfwd
; File c:\program files (x86)\microsoft visual studio\2017\professional\vc\tools\msvc\14.16.27023\include\xstring
; File c:\program files (x86)\microsoft visual studio\2017\professional\vc\tools\msvc\14.16.27023\include\iosfwd
; File c:\program files (x86)\microsoft visual studio\2017\professional\vc\tools\msvc\14.16.27023\include\xstring
; File c:\program files (x86)\microsoft visual studio\2017\professional\vc\tools\msvc\14.16.27023\include\iosfwd
; File c:\program files (x86)\microsoft visual studio\2017\professional\vc\tools\msvc\14.16.27023\include\xstring
; File c:\program files (x86)\microsoft visual studio\2017\professional\vc\tools\msvc\14.16.27023\include\iosfwd
; File c:\program files (x86)\microsoft visual studio\2017\professional\vc\tools\msvc\14.16.27023\include\xstring
; File c:\program files (x86)\microsoft visual studio\2017\professional\vc\tools\msvc\14.16.27023\include\xstddef
; File c:\program files (x86)\microsoft visual studio\2017\professional\vc\tools\msvc\14.16.27023\include\iosfwd
; File c:\program files (x86)\microsoft visual studio\2017\professional\vc\tools\msvc\14.16.27023\include\xstring
; File c:\program files (x86)\microsoft visual studio\2017\professional\vc\tools\msvc\14.16.27023\include\iosfwd
; File c:\program files (x86)\microsoft visual studio\2017\professional\vc\tools\msvc\14.16.27023\include\xstring
; File c:\program files (x86)\microsoft visual studio\2017\professional\vc\tools\msvc\14.16.27023\include\iosfwd
; File c:\program files (x86)\microsoft visual studio\2017\professional\vc\tools\msvc\14.16.27023\include\xstring
;	COMDAT ?append@?$basic_string@DU?$char_traits@D@std@@V?$allocator@D@2@@std@@QAEAAV12@QBD@Z
_TEXT	SEGMENT
__Old_size$1$ = 8					; size = 4
$T1 = 8							; size = 1
__Ptr$ = 8						; size = 4
?append@?$basic_string@DU?$char_traits@D@std@@V?$allocator@D@2@@std@@QAEAAV12@QBD@Z PROC ; std::basic_string<char,std::char_traits<char>,std::allocator<char> >::append, COMDAT
; _this$ = ecx

; 2591 : 		{	// append [_Ptr, <null>)

  00000	55		 push	 ebp
  00001	8b ec		 mov	 ebp, esp
; File c:\program files (x86)\microsoft visual studio\2017\professional\vc\tools\msvc\14.16.27023\include\iosfwd

; 462  : 		return (__builtin_strlen(_First));

  00003	8b 55 08	 mov	 edx, DWORD PTR __Ptr$[ebp]
; File c:\program files (x86)\microsoft visual studio\2017\professional\vc\tools\msvc\14.16.27023\include\xstring

; 2591 : 		{	// append [_Ptr, <null>)

  00006	56		 push	 esi
; File c:\program files (x86)\microsoft visual studio\2017\professional\vc\tools\msvc\14.16.27023\include\iosfwd

; 462  : 		return (__builtin_strlen(_First));

  00007	8b f2		 mov	 esi, edx
; File c:\program files (x86)\microsoft visual studio\2017\professional\vc\tools\msvc\14.16.27023\include\xstring

; 2591 : 		{	// append [_Ptr, <null>)

  00009	57		 push	 edi
  0000a	8b f9		 mov	 edi, ecx
; File c:\program files (x86)\microsoft visual studio\2017\professional\vc\tools\msvc\14.16.27023\include\iosfwd

; 462  : 		return (__builtin_strlen(_First));

  0000c	8d 4e 01	 lea	 ecx, DWORD PTR [esi+1]
  0000f	90		 npad	 1
$LL25@append:
  00010	8a 06		 mov	 al, BYTE PTR [esi]
  00012	46		 inc	 esi
  00013	84 c0		 test	 al, al
  00015	75 f9		 jne	 SHORT $LL25@append
; File c:\program files (x86)\microsoft visual studio\2017\professional\vc\tools\msvc\14.16.27023\include\xstring

; 2572 : 		if (_Count <= _My_data._Myres - _Old_size)

  00017	8b 47 14	 mov	 eax, DWORD PTR [edi+20]
; File c:\program files (x86)\microsoft visual studio\2017\professional\vc\tools\msvc\14.16.27023\include\iosfwd

; 462  : 		return (__builtin_strlen(_First));

  0001a	2b f1		 sub	 esi, ecx
; File c:\program files (x86)\microsoft visual studio\2017\professional\vc\tools\msvc\14.16.27023\include\xstring

; 2571 : 		const size_type _Old_size = _My_data._Mysize;

  0001c	8b 4f 10	 mov	 ecx, DWORD PTR [edi+16]

; 2572 : 		if (_Count <= _My_data._Myres - _Old_size)

  0001f	2b c1		 sub	 eax, ecx
  00021	89 4d 08	 mov	 DWORD PTR __Old_size$1$[ebp], ecx
  00024	3b f0		 cmp	 esi, eax
  00026	77 31		 ja	 SHORT $LN8@append

; 1825 : 		return (_BUF_SIZE <= _Myres);

  00028	83 7f 14 10	 cmp	 DWORD PTR [edi+20], 16	; 00000010H

; 2574 : 			_My_data._Mysize = _Old_size + _Count;

  0002c	8d 04 0e	 lea	 eax, DWORD PTR [esi+ecx]
  0002f	53		 push	 ebx
  00030	89 47 10	 mov	 DWORD PTR [edi+16], eax

; 1803 : 		value_type * _Result = _Bx._Buf;

  00033	8b df		 mov	 ebx, edi

; 1804 : 		if (_Large_string_engaged())

  00035	72 02		 jb	 SHORT $LN15@append
; File c:\program files (x86)\microsoft visual studio\2017\professional\vc\tools\msvc\14.16.27023\include\xstddef

; 346  : 	return (_Ptr);

  00037	8b 1f		 mov	 ebx, DWORD PTR [edi]
$LN15@append:
; File c:\program files (x86)\microsoft visual studio\2017\professional\vc\tools\msvc\14.16.27023\include\iosfwd

; 495  : 		return (static_cast<char *>(_CSTD memmove(_First1, _First2, _Count)));

  00039	56		 push	 esi
  0003a	52		 push	 edx
; File c:\program files (x86)\microsoft visual studio\2017\professional\vc\tools\msvc\14.16.27023\include\xstring

; 2576 : 			_Traits::move(_Old_ptr + _Old_size, _Ptr, _Count);

  0003b	03 cb		 add	 ecx, ebx
; File c:\program files (x86)\microsoft visual studio\2017\professional\vc\tools\msvc\14.16.27023\include\iosfwd

; 495  : 		return (static_cast<char *>(_CSTD memmove(_First1, _First2, _Count)));

  0003d	51		 push	 ecx
  0003e	e8 00 00 00 00	 call	 _memmove

; 506  : 		_Left = _Right;

  00043	8b 45 08	 mov	 eax, DWORD PTR __Old_size$1$[ebp]
; File c:\program files (x86)\microsoft visual studio\2017\professional\vc\tools\msvc\14.16.27023\include\xstring

; 2577 : 			_Traits::assign(_Old_ptr[_Old_size + _Count], _Elem());

  00046	8d 0c 1e	 lea	 ecx, DWORD PTR [esi+ebx]
; File c:\program files (x86)\microsoft visual studio\2017\professional\vc\tools\msvc\14.16.27023\include\iosfwd

; 495  : 		return (static_cast<char *>(_CSTD memmove(_First1, _First2, _Count)));

  00049	83 c4 0c	 add	 esp, 12			; 0000000cH

; 506  : 		_Left = _Right;

  0004c	c6 04 01 00	 mov	 BYTE PTR [ecx+eax], 0
; File c:\program files (x86)\microsoft visual studio\2017\professional\vc\tools\msvc\14.16.27023\include\xstring

; 2592 : 		return (append(_Ptr, _Convert_size<size_type>(_Traits::length(_Ptr))));

  00050	8b c7		 mov	 eax, edi
  00052	5b		 pop	 ebx
  00053	5f		 pop	 edi

; 2593 : 		}

  00054	5e		 pop	 esi
  00055	5d		 pop	 ebp
  00056	c2 04 00	 ret	 4
$LN8@append:

; 2581 : 		return (_Reallocate_grow_by(_Count,

  00059	56		 push	 esi
  0005a	52		 push	 edx
  0005b	c6 45 08 00	 mov	 BYTE PTR $T1[ebp], 0
  0005f	8b cf		 mov	 ecx, edi
  00061	ff 75 08	 push	 DWORD PTR $T1[ebp]
  00064	56		 push	 esi
  00065	e8 00 00 00 00	 call	 ??$_Reallocate_grow_by@V<lambda_ab246b20b9526e2ef7792587e4298a77>@@PBDI@?$basic_string@DU?$char_traits@D@std@@V?$allocator@D@2@@std@@QAEAAV01@IV<lambda_ab246b20b9526e2ef7792587e4298a77>@@PBDI@Z ; std::basic_string<char,std::char_traits<char>,std::allocator<char> >::_Reallocate_grow_by<<lambda_ab246b20b9526e2ef7792587e4298a77>,char const *,unsigned int>
  0006a	5f		 pop	 edi

; 2593 : 		}

  0006b	5e		 pop	 esi
  0006c	5d		 pop	 ebp
  0006d	c2 04 00	 ret	 4
?append@?$basic_string@DU?$char_traits@D@std@@V?$allocator@D@2@@std@@QAEAAV12@QBD@Z ENDP ; std::basic_string<char,std::char_traits<char>,std::allocator<char> >::append
_TEXT	ENDS
; Function compile flags: /Ogtp
; File c:\program files (x86)\microsoft visual studio\2017\professional\vc\tools\msvc\14.16.27023\include\xstring
; File c:\program files (x86)\microsoft visual studio\2017\professional\vc\tools\msvc\14.16.27023\include\xmemory0
; File c:\program files (x86)\microsoft visual studio\2017\professional\vc\tools\msvc\14.16.27023\include\xstring
; File c:\program files (x86)\microsoft visual studio\2017\professional\vc\tools\msvc\14.16.27023\include\xmemory0
; File c:\program files (x86)\microsoft visual studio\2017\professional\vc\tools\msvc\14.16.27023\include\xstring
; File c:\program files (x86)\microsoft visual studio\2017\professional\vc\tools\msvc\14.16.27023\include\iosfwd
; File c:\program files (x86)\microsoft visual studio\2017\professional\vc\tools\msvc\14.16.27023\include\xstring
; File c:\program files (x86)\microsoft visual studio\2017\professional\vc\tools\msvc\14.16.27023\include\xmemory0
; File c:\program files (x86)\microsoft visual studio\2017\professional\vc\tools\msvc\14.16.27023\include\xstring
;	COMDAT ??1?$basic_string@DU?$char_traits@D@std@@V?$allocator@D@2@@std@@QAE@XZ
_TEXT	SEGMENT
__$EHRec$ = -12						; size = 12
??1?$basic_string@DU?$char_traits@D@std@@V?$allocator@D@2@@std@@QAE@XZ PROC ; std::basic_string<char,std::char_traits<char>,std::allocator<char> >::~basic_string<char,std::char_traits<char>,std::allocator<char> >, COMDAT
; _this$ = ecx

; 2459 : 		{	// destroy the string

  00000	55		 push	 ebp
  00001	8b ec		 mov	 ebp, esp
  00003	6a ff		 push	 -1
  00005	68 00 00 00 00	 push	 __ehhandler$??1?$basic_string@DU?$char_traits@D@std@@V?$allocator@D@2@@std@@QAE@XZ
  0000a	64 a1 00 00 00
	00		 mov	 eax, DWORD PTR fs:0
  00010	50		 push	 eax
  00011	56		 push	 esi
  00012	a1 00 00 00 00	 mov	 eax, DWORD PTR ___security_cookie
  00017	33 c5		 xor	 eax, ebp
  00019	50		 push	 eax
  0001a	8d 45 f4	 lea	 eax, DWORD PTR __$EHRec$[ebp]
  0001d	64 a3 00 00 00
	00		 mov	 DWORD PTR fs:0, eax
  00023	8b f1		 mov	 esi, ecx

; 1825 : 		return (_BUF_SIZE <= _Myres);

  00025	8b 4e 14	 mov	 ecx, DWORD PTR [esi+20]
  00028	83 f9 10	 cmp	 ecx, 16			; 00000010H

; 3987 : 		if (_My_data._Large_string_engaged())

  0002b	72 27		 jb	 SHORT $LN43@basic_stri
; File c:\program files (x86)\microsoft visual studio\2017\professional\vc\tools\msvc\14.16.27023\include\xmemory0

; 992  : 		_Deallocate<_New_alignof<_Ty>>(_Ptr, sizeof(_Ty) * _Count);

  0002d	8b 06		 mov	 eax, DWORD PTR [esi]
; File c:\program files (x86)\microsoft visual studio\2017\professional\vc\tools\msvc\14.16.27023\include\xstring

; 3992 : 			_Al.deallocate(_Ptr, _My_data._Myres + 1);

  0002f	41		 inc	 ecx
; File c:\program files (x86)\microsoft visual studio\2017\professional\vc\tools\msvc\14.16.27023\include\xmemory0

; 201  : 	if (_Bytes >= _Big_allocation_threshold)

  00030	81 f9 00 10 00
	00		 cmp	 ecx, 4096		; 00001000H
  00036	72 12		 jb	 SHORT $LN42@basic_stri

; 118  : 	const uintptr_t _Ptr_container = _Ptr_user[-1];

  00038	8b 50 fc	 mov	 edx, DWORD PTR [eax-4]
  0003b	83 c1 23	 add	 ecx, 35			; 00000023H

; 119  : 
; 120  : 	// If the following asserts, it likely means that we are performing
; 121  : 	// an aligned delete on memory coming from an unaligned allocation.
; 122  : 	_STL_ASSERT(_Ptr_user[-2] == _Big_allocation_sentinel, "invalid argument");
; 123  : 
; 124  : 	// Extra paranoia on aligned allocation/deallocation; ensure _Ptr_container is
; 125  : 	// in range [_Min_back_shift, _Non_user_size]
; 126  :   #ifdef _DEBUG
; 127  : 	constexpr uintptr_t _Min_back_shift = 2 * sizeof(void *);
; 128  :   #else /* ^^^ _DEBUG ^^^ // vvv !_DEBUG vvv */
; 129  : 	constexpr uintptr_t _Min_back_shift = sizeof(void *);
; 130  :   #endif /* _DEBUG */
; 131  : 	const uintptr_t _Back_shift = reinterpret_cast<uintptr_t>(_Ptr) - _Ptr_container;

  0003e	2b c2		 sub	 eax, edx

; 132  : 	_STL_VERIFY(_Back_shift >= _Min_back_shift && _Back_shift <= _Non_user_size, "invalid argument");

  00040	83 c0 fc	 add	 eax, -4			; fffffffcH
  00043	83 f8 1f	 cmp	 eax, 31			; 0000001fH
  00046	77 2d		 ja	 SHORT $LN39@basic_stri

; 133  : 	_Ptr = reinterpret_cast<void *>(_Ptr_container);

  00048	8b c2		 mov	 eax, edx
$LN42@basic_stri:

; 207  : 	::operator delete(_Ptr, _Bytes);

  0004a	51		 push	 ecx
  0004b	50		 push	 eax
  0004c	e8 00 00 00 00	 call	 ??3@YAXPAXI@Z		; operator delete
  00051	83 c4 08	 add	 esp, 8
$LN43@basic_stri:
; File c:\program files (x86)\microsoft visual studio\2017\professional\vc\tools\msvc\14.16.27023\include\xstring

; 3995 : 		_My_data._Mysize = 0;

  00054	c7 46 10 00 00
	00 00		 mov	 DWORD PTR [esi+16], 0

; 3996 : 		_My_data._Myres = this->_BUF_SIZE - 1;

  0005b	c7 46 14 0f 00
	00 00		 mov	 DWORD PTR [esi+20], 15	; 0000000fH
; File c:\program files (x86)\microsoft visual studio\2017\professional\vc\tools\msvc\14.16.27023\include\iosfwd

; 506  : 		_Left = _Right;

  00062	c6 06 00	 mov	 BYTE PTR [esi], 0
; File c:\program files (x86)\microsoft visual studio\2017\professional\vc\tools\msvc\14.16.27023\include\xstring

; 2461 : 		}

  00065	8b 4d f4	 mov	 ecx, DWORD PTR __$EHRec$[ebp]
  00068	64 89 0d 00 00
	00 00		 mov	 DWORD PTR fs:0, ecx
  0006f	59		 pop	 ecx
  00070	5e		 pop	 esi
  00071	8b e5		 mov	 esp, ebp
  00073	5d		 pop	 ebp
  00074	c3		 ret	 0
$LN39@basic_stri:
; File c:\program files (x86)\microsoft visual studio\2017\professional\vc\tools\msvc\14.16.27023\include\xmemory0

; 132  : 	_STL_VERIFY(_Back_shift >= _Min_back_shift && _Back_shift <= _Non_user_size, "invalid argument");

  00075	e8 00 00 00 00	 call	 __invalid_parameter_noinfo_noreturn
$LN58@basic_stri:
  0007a	cc		 int	 3
_TEXT	ENDS
;	COMDAT text$x
text$x	SEGMENT
__ehhandler$??1?$basic_string@DU?$char_traits@D@std@@V?$allocator@D@2@@std@@QAE@XZ:
  00000	8b 54 24 08	 mov	 edx, DWORD PTR [esp+8]
  00004	8d 42 0c	 lea	 eax, DWORD PTR [edx+12]
  00007	8b 4a f8	 mov	 ecx, DWORD PTR [edx-8]
  0000a	33 c8		 xor	 ecx, eax
  0000c	e8 00 00 00 00	 call	 @__security_check_cookie@4
  00011	b8 00 00 00 00	 mov	 eax, OFFSET __ehfuncinfo$??1?$basic_string@DU?$char_traits@D@std@@V?$allocator@D@2@@std@@QAE@XZ
  00016	e9 00 00 00 00	 jmp	 ___CxxFrameHandler3
text$x	ENDS
??1?$basic_string@DU?$char_traits@D@std@@V?$allocator@D@2@@std@@QAE@XZ ENDP ; std::basic_string<char,std::char_traits<char>,std::allocator<char> >::~basic_string<char,std::char_traits<char>,std::allocator<char> >
; Function compile flags: /Ogtp
; File c:\program files (x86)\microsoft visual studio\2017\professional\vc\tools\msvc\14.16.27023\include\xstring
; File c:\program files (x86)\microsoft visual studio\2017\professional\vc\tools\msvc\14.16.27023\include\iosfwd
; File c:\program files (x86)\microsoft visual studio\2017\professional\vc\tools\msvc\14.16.27023\include\xstring
;	COMDAT ??0?$basic_string@DU?$char_traits@D@std@@V?$allocator@D@2@@std@@QAE@$$QAV01@@Z
_TEXT	SEGMENT
__Right$ = 8						; size = 4
??0?$basic_string@DU?$char_traits@D@std@@V?$allocator@D@2@@std@@QAE@$$QAV01@@Z PROC ; std::basic_string<char,std::char_traits<char>,std::allocator<char> >::basic_string<char,std::char_traits<char>,std::allocator<char> >, COMDAT
; _this$ = ecx

; 2268 : 		{	// construct by moving _Right

  00000	55		 push	 ebp
  00001	8b ec		 mov	 ebp, esp

; 2365 : 		_CSTD memcpy(_My_data_mem, _Right_data_mem, _Memcpy_move_size);

  00003	8b 45 08	 mov	 eax, DWORD PTR __Right$[ebp]

; 1784 : 		_Mysize(0),

  00006	c7 41 10 00 00
	00 00		 mov	 DWORD PTR [ecx+16], 0

; 1785 : 		_Myres(0)

  0000d	c7 41 14 00 00
	00 00		 mov	 DWORD PTR [ecx+20], 0

; 2365 : 		_CSTD memcpy(_My_data_mem, _Right_data_mem, _Memcpy_move_size);

  00014	0f 10 00	 movups	 xmm0, XMMWORD PTR [eax]
  00017	0f 11 01	 movups	 XMMWORD PTR [ecx], xmm0
  0001a	f3 0f 7e 40 10	 movq	 xmm0, QWORD PTR [eax+16]
  0001f	66 0f d6 41 10	 movq	 QWORD PTR [ecx+16], xmm0

; 3976 : 		_My_data._Mysize = 0;

  00024	c7 40 10 00 00
	00 00		 mov	 DWORD PTR [eax+16], 0

; 3977 : 		_My_data._Myres = this->_BUF_SIZE - 1;

  0002b	c7 40 14 0f 00
	00 00		 mov	 DWORD PTR [eax+20], 15	; 0000000fH
; File c:\program files (x86)\microsoft visual studio\2017\professional\vc\tools\msvc\14.16.27023\include\iosfwd

; 506  : 		_Left = _Right;

  00032	c6 00 00	 mov	 BYTE PTR [eax], 0
; File c:\program files (x86)\microsoft visual studio\2017\professional\vc\tools\msvc\14.16.27023\include\xstring

; 2270 : 		}

  00035	8b c1		 mov	 eax, ecx
  00037	5d		 pop	 ebp
  00038	c2 04 00	 ret	 4
??0?$basic_string@DU?$char_traits@D@std@@V?$allocator@D@2@@std@@QAE@$$QAV01@@Z ENDP ; std::basic_string<char,std::char_traits<char>,std::allocator<char> >::basic_string<char,std::char_traits<char>,std::allocator<char> >
_TEXT	ENDS
; Function compile flags: /Ogtp
; File c:\program files (x86)\microsoft visual studio\2017\professional\vc\tools\msvc\14.16.27023\include\xstring
; File c:\program files (x86)\microsoft visual studio\2017\professional\vc\tools\msvc\14.16.27023\include\iosfwd
; File c:\program files (x86)\microsoft visual studio\2017\professional\vc\tools\msvc\14.16.27023\include\xstring
;	COMDAT ??0?$basic_string@DU?$char_traits@D@std@@V?$allocator@D@2@@std@@QAE@XZ
_TEXT	SEGMENT
??0?$basic_string@DU?$char_traits@D@std@@V?$allocator@D@2@@std@@QAE@XZ PROC ; std::basic_string<char,std::char_traits<char>,std::allocator<char> >::basic_string<char,std::char_traits<char>,std::allocator<char> >, COMDAT
; _this$ = ecx

; 3976 : 		_My_data._Mysize = 0;

  00000	c7 41 10 00 00
	00 00		 mov	 DWORD PTR [ecx+16], 0

; 2144 : 		}

  00007	8b c1		 mov	 eax, ecx

; 3977 : 		_My_data._Myres = this->_BUF_SIZE - 1;

  00009	c7 41 14 0f 00
	00 00		 mov	 DWORD PTR [ecx+20], 15	; 0000000fH
; File c:\program files (x86)\microsoft visual studio\2017\professional\vc\tools\msvc\14.16.27023\include\iosfwd

; 506  : 		_Left = _Right;

  00010	c6 01 00	 mov	 BYTE PTR [ecx], 0
; File c:\program files (x86)\microsoft visual studio\2017\professional\vc\tools\msvc\14.16.27023\include\xstring

; 2144 : 		}

  00013	c3		 ret	 0
??0?$basic_string@DU?$char_traits@D@std@@V?$allocator@D@2@@std@@QAE@XZ ENDP ; std::basic_string<char,std::char_traits<char>,std::allocator<char> >::basic_string<char,std::char_traits<char>,std::allocator<char> >
_TEXT	ENDS
; Function compile flags: /Ogtp
; File c:\program files (x86)\microsoft visual studio\2017\professional\vc\tools\msvc\14.16.27023\include\xstring
; File c:\program files (x86)\microsoft visual studio\2017\professional\vc\tools\msvc\14.16.27023\include\xstddef
; File c:\program files (x86)\microsoft visual studio\2017\professional\vc\tools\msvc\14.16.27023\include\xstring
; File c:\program files (x86)\microsoft visual studio\2017\professional\vc\tools\msvc\14.16.27023\include\iosfwd
; File c:\program files (x86)\microsoft visual studio\2017\professional\vc\tools\msvc\14.16.27023\include\xstring
; File c:\program files (x86)\microsoft visual studio\2017\professional\vc\tools\msvc\14.16.27023\include\iosfwd
; File c:\program files (x86)\microsoft visual studio\2017\professional\vc\tools\msvc\14.16.27023\include\xstring
; File c:\program files (x86)\microsoft visual studio\2017\professional\vc\tools\msvc\14.16.27023\include\utility
; File c:\program files (x86)\microsoft visual studio\2017\professional\vc\tools\msvc\14.16.27023\include\xstring
; File c:\program files (x86)\microsoft visual studio\2017\professional\vc\tools\msvc\14.16.27023\include\utility
; File c:\program files (x86)\microsoft visual studio\2017\professional\vc\tools\msvc\14.16.27023\include\xstring
; File c:\program files (x86)\microsoft visual studio\2017\professional\vc\tools\msvc\14.16.27023\include\xmemory0
; File c:\program files (x86)\microsoft visual studio\2017\professional\vc\tools\msvc\14.16.27023\include\xstring
; File c:\program files (x86)\microsoft visual studio\2017\professional\vc\tools\msvc\14.16.27023\include\xmemory0
; File c:\program files (x86)\microsoft visual studio\2017\professional\vc\tools\msvc\14.16.27023\include\iosfwd
; File c:\program files (x86)\microsoft visual studio\2017\professional\vc\tools\msvc\14.16.27023\include\xstring
; File c:\program files (x86)\microsoft visual studio\2017\professional\vc\tools\msvc\14.16.27023\include\xmemory0
; File c:\program files (x86)\microsoft visual studio\2017\professional\vc\tools\msvc\14.16.27023\include\xstring
;	COMDAT ??0?$basic_string@DU?$char_traits@D@std@@V?$allocator@D@2@@std@@QAE@ABV01@@Z
_TEXT	SEGMENT
__Right_size$1$ = 8					; size = 4
__Right$ = 8						; size = 4
??0?$basic_string@DU?$char_traits@D@std@@V?$allocator@D@2@@std@@QAE@ABV01@@Z PROC ; std::basic_string<char,std::char_traits<char>,std::allocator<char> >::basic_string<char,std::char_traits<char>,std::allocator<char> >, COMDAT
; _this$ = ecx

; 2130 : 		{	// construct by copying _Right

  00000	55		 push	 ebp
  00001	8b ec		 mov	 ebp, esp
  00003	53		 push	 ebx
  00004	56		 push	 esi
  00005	8b f1		 mov	 esi, ecx
  00007	57		 push	 edi

; 2399 : 		const size_type _Right_size = _Right_data._Mysize;

  00008	8b 7d 08	 mov	 edi, DWORD PTR __Right$[ebp]

; 1784 : 		_Mysize(0),

  0000b	c7 46 10 00 00
	00 00		 mov	 DWORD PTR [esi+16], 0

; 1785 : 		_Myres(0)

  00012	c7 46 14 00 00
	00 00		 mov	 DWORD PTR [esi+20], 0

; 1825 : 		return (_BUF_SIZE <= _Myres);

  00019	83 7f 14 10	 cmp	 DWORD PTR [edi+20], 16	; 00000010H

; 2399 : 		const size_type _Right_size = _Right_data._Mysize;

  0001d	8b 4f 10	 mov	 ecx, DWORD PTR [edi+16]
  00020	89 4d 08	 mov	 DWORD PTR __Right_size$1$[ebp], ecx

; 1815 : 		if (_Large_string_engaged())

  00023	72 02		 jb	 SHORT $LN31@basic_stri
; File c:\program files (x86)\microsoft visual studio\2017\professional\vc\tools\msvc\14.16.27023\include\xstddef

; 346  : 	return (_Ptr);

  00025	8b 3f		 mov	 edi, DWORD PTR [edi]
$LN31@basic_stri:
; File c:\program files (x86)\microsoft visual studio\2017\professional\vc\tools\msvc\14.16.27023\include\xstring

; 2401 : 		if (_Right_size < this->_BUF_SIZE)

  00027	83 f9 10	 cmp	 ecx, 16			; 00000010H
  0002a	73 1a		 jae	 SHORT $LN20@basic_stri
; File c:\program files (x86)\microsoft visual studio\2017\professional\vc\tools\msvc\14.16.27023\include\iosfwd

; 471  : 		return (static_cast<char *>(_CSTD memcpy(_First1, _First2, _Count)));

  0002c	0f 10 07	 movups	 xmm0, XMMWORD PTR [edi]
; File c:\program files (x86)\microsoft visual studio\2017\professional\vc\tools\msvc\14.16.27023\include\xstring

; 2405 : 			_My_data._Myres = this->_BUF_SIZE - 1;

  0002f	bb 0f 00 00 00	 mov	 ebx, 15			; 0000000fH

; 2132 : 		}

  00034	8b c6		 mov	 eax, esi
  00036	5f		 pop	 edi
; File c:\program files (x86)\microsoft visual studio\2017\professional\vc\tools\msvc\14.16.27023\include\iosfwd

; 471  : 		return (static_cast<char *>(_CSTD memcpy(_First1, _First2, _Count)));

  00037	0f 11 06	 movups	 XMMWORD PTR [esi], xmm0
; File c:\program files (x86)\microsoft visual studio\2017\professional\vc\tools\msvc\14.16.27023\include\xstring

; 2132 : 		}

  0003a	89 4e 10	 mov	 DWORD PTR [esi+16], ecx
  0003d	89 5e 14	 mov	 DWORD PTR [esi+20], ebx
  00040	5e		 pop	 esi
  00041	5b		 pop	 ebx
  00042	5d		 pop	 ebp
  00043	c2 04 00	 ret	 4
$LN20@basic_stri:

; 2410 : 		const size_type _New_capacity = _Min_value(_Right_size | this->_ALLOC_MASK, max_size());

  00046	8b d9		 mov	 ebx, ecx
; File c:\program files (x86)\microsoft visual studio\2017\professional\vc\tools\msvc\14.16.27023\include\utility

; 24   : 	return (_Right < _Left ? _Right : _Left);

  00048	b8 ff ff ff 7f	 mov	 eax, 2147483647		; 7fffffffH
; File c:\program files (x86)\microsoft visual studio\2017\professional\vc\tools\msvc\14.16.27023\include\xstring

; 2410 : 		const size_type _New_capacity = _Min_value(_Right_size | this->_ALLOC_MASK, max_size());

  0004d	83 cb 0f	 or	 ebx, 15			; 0000000fH
; File c:\program files (x86)\microsoft visual studio\2017\professional\vc\tools\msvc\14.16.27023\include\utility

; 24   : 	return (_Right < _Left ? _Right : _Left);

  00050	3b d8		 cmp	 ebx, eax
  00052	0f 47 d8	 cmova	 ebx, eax
; File c:\program files (x86)\microsoft visual studio\2017\professional\vc\tools\msvc\14.16.27023\include\xstring

; 2411 : 		const pointer _New_array = _Al.allocate(_New_capacity + 1); // throws

  00055	8d 4b 01	 lea	 ecx, DWORD PTR [ebx+1]
; File c:\program files (x86)\microsoft visual studio\2017\professional\vc\tools\msvc\14.16.27023\include\xmemory0

; 182  : 	if (_Bytes >= _Big_allocation_threshold)

  00058	81 f9 00 10 00
	00		 cmp	 ecx, 4096		; 00001000H
  0005e	72 23		 jb	 SHORT $LN64@basic_stri

; 93   : 	size_t _Block_size = _Non_user_size + _Bytes;

  00060	8d 41 23	 lea	 eax, DWORD PTR [ecx+35]

; 94   : 	if (_Block_size <= _Bytes)

  00063	83 ca ff	 or	 edx, -1
  00066	3b c1		 cmp	 eax, ecx
  00068	0f 46 c2	 cmovbe	 eax, edx

; 52   : 		return (::operator new(_Bytes));

  0006b	50		 push	 eax
  0006c	e8 00 00 00 00	 call	 ??2@YAPAXI@Z		; operator new
  00071	83 c4 04	 add	 esp, 4

; 101  : 	_STL_VERIFY(_Ptr_container != 0, "invalid argument");	// validate even in release since we're doing p[-1]

  00074	85 c0		 test	 eax, eax
  00076	74 41		 je	 SHORT $LN73@basic_stri

; 102  : 	void * const _Ptr = reinterpret_cast<void *>((_Ptr_container + _Non_user_size)
; 103  : 		& ~(_Big_allocation_alignment - 1));

  00078	8d 48 23	 lea	 ecx, DWORD PTR [eax+35]
  0007b	83 e1 e0	 and	 ecx, -32		; ffffffe0H

; 104  : 	static_cast<uintptr_t *>(_Ptr)[-1] = _Ptr_container;

  0007e	89 41 fc	 mov	 DWORD PTR [ecx-4], eax

; 184  : 		return (_Allocate_manually_vector_aligned<_Traits>(_Bytes));

  00081	eb 13		 jmp	 SHORT $LN63@basic_stri
$LN64@basic_stri:

; 185  : 		}
; 186  :  #endif /* defined(_M_IX86) || defined(_M_X64) */
; 187  : 
; 188  : 	if (_Bytes != 0)

  00083	85 c9		 test	 ecx, ecx
  00085	74 0d		 je	 SHORT $LN65@basic_stri

; 52   : 		return (::operator new(_Bytes));

  00087	51		 push	 ecx
  00088	e8 00 00 00 00	 call	 ??2@YAPAXI@Z		; operator new
  0008d	83 c4 04	 add	 esp, 4

; 190  : 		return (_Traits::_Allocate(_Bytes));

  00090	8b c8		 mov	 ecx, eax
  00092	eb 02		 jmp	 SHORT $LN63@basic_stri
$LN65@basic_stri:

; 191  : 		}
; 192  : 
; 193  : 	return (nullptr);

  00094	33 c9		 xor	 ecx, ecx
$LN63@basic_stri:
; File c:\program files (x86)\microsoft visual studio\2017\professional\vc\tools\msvc\14.16.27023\include\xstring

; 2413 : 		_Traits::copy(_Unfancy(_New_array), _Right_ptr, _Right_size + 1);

  00096	8b 45 08	 mov	 eax, DWORD PTR __Right_size$1$[ebp]
  00099	40		 inc	 eax
; File c:\program files (x86)\microsoft visual studio\2017\professional\vc\tools\msvc\14.16.27023\include\xmemory0

; 879  : 		{	// construct _Objty(_Types...) at _Ptr

  0009a	89 0e		 mov	 DWORD PTR [esi], ecx
; File c:\program files (x86)\microsoft visual studio\2017\professional\vc\tools\msvc\14.16.27023\include\iosfwd

; 471  : 		return (static_cast<char *>(_CSTD memcpy(_First1, _First2, _Count)));

  0009c	50		 push	 eax
  0009d	57		 push	 edi
  0009e	51		 push	 ecx
  0009f	e8 00 00 00 00	 call	 _memcpy
  000a4	8b 4d 08	 mov	 ecx, DWORD PTR __Right_size$1$[ebp]
  000a7	83 c4 0c	 add	 esp, 12			; 0000000cH
; File c:\program files (x86)\microsoft visual studio\2017\professional\vc\tools\msvc\14.16.27023\include\xstring

; 2132 : 		}

  000aa	89 4e 10	 mov	 DWORD PTR [esi+16], ecx
  000ad	8b c6		 mov	 eax, esi
  000af	89 5e 14	 mov	 DWORD PTR [esi+20], ebx
  000b2	5f		 pop	 edi
  000b3	5e		 pop	 esi
  000b4	5b		 pop	 ebx
  000b5	5d		 pop	 ebp
  000b6	c2 04 00	 ret	 4
$LN73@basic_stri:
; File c:\program files (x86)\microsoft visual studio\2017\professional\vc\tools\msvc\14.16.27023\include\xmemory0

; 101  : 	_STL_VERIFY(_Ptr_container != 0, "invalid argument");	// validate even in release since we're doing p[-1]

  000b9	e8 00 00 00 00	 call	 __invalid_parameter_noinfo_noreturn
$LN98@basic_stri:
  000be	cc		 int	 3
??0?$basic_string@DU?$char_traits@D@std@@V?$allocator@D@2@@std@@QAE@ABV01@@Z ENDP ; std::basic_string<char,std::char_traits<char>,std::allocator<char> >::basic_string<char,std::char_traits<char>,std::allocator<char> >
_TEXT	ENDS
; Function compile flags: /Ogtp
;	COMDAT ??1?$_String_alloc@U?$_String_base_types@DV?$allocator@D@std@@@std@@@std@@QAE@XZ
_TEXT	SEGMENT
??1?$_String_alloc@U?$_String_base_types@DV?$allocator@D@std@@@std@@@std@@QAE@XZ PROC ; std::_String_alloc<std::_String_base_types<char,std::allocator<char> > >::~_String_alloc<std::_String_base_types<char,std::allocator<char> > >, COMDAT
; _this$dead$ = ecx
  00000	c3		 ret	 0
??1?$_String_alloc@U?$_String_base_types@DV?$allocator@D@std@@@std@@@std@@QAE@XZ ENDP ; std::_String_alloc<std::_String_base_types<char,std::allocator<char> > >::~_String_alloc<std::_String_base_types<char,std::allocator<char> > >
_TEXT	ENDS
; Function compile flags: /Ogtp
;	COMDAT ??1?$_Compressed_pair@V?$allocator@D@std@@V?$_String_val@U?$_Simple_types@D@std@@@2@$00@std@@QAE@XZ
_TEXT	SEGMENT
??1?$_Compressed_pair@V?$allocator@D@std@@V?$_String_val@U?$_Simple_types@D@std@@@2@$00@std@@QAE@XZ PROC ; std::_Compressed_pair<std::allocator<char>,std::_String_val<std::_Simple_types<char> >,1>::~_Compressed_pair<std::allocator<char>,std::_String_val<std::_Simple_types<char> >,1>, COMDAT
; _this$dead$ = ecx
  00000	c3		 ret	 0
??1?$_Compressed_pair@V?$allocator@D@std@@V?$_String_val@U?$_Simple_types@D@std@@@2@$00@std@@QAE@XZ ENDP ; std::_Compressed_pair<std::allocator<char>,std::_String_val<std::_Simple_types<char> >,1>::~_Compressed_pair<std::allocator<char>,std::_String_val<std::_Simple_types<char> >,1>
_TEXT	ENDS
; Function compile flags: /Ogtp
;	COMDAT ??1?$_String_val@U?$_Simple_types@D@std@@@std@@QAE@XZ
_TEXT	SEGMENT
??1?$_String_val@U?$_Simple_types@D@std@@@std@@QAE@XZ PROC ; std::_String_val<std::_Simple_types<char> >::~_String_val<std::_Simple_types<char> >, COMDAT
; _this$dead$ = ecx
  00000	c3		 ret	 0
??1?$_String_val@U?$_Simple_types@D@std@@@std@@QAE@XZ ENDP ; std::_String_val<std::_Simple_types<char> >::~_String_val<std::_Simple_types<char> >
_TEXT	ENDS
; Function compile flags: /Ogtp
; File c:\program files (x86)\microsoft visual studio\2017\professional\vc\tools\msvc\14.16.27023\include\vector
;	COMDAT ?_Mylast@?$_Vector_alloc@U?$_Vec_base_types@V?$basic_string@DU?$char_traits@D@std@@V?$allocator@D@2@@std@@V?$allocator@V?$basic_string@DU?$char_traits@D@std@@V?$allocator@D@2@@std@@@2@@std@@@std@@QBEABQAV?$basic_string@DU?$char_traits@D@std@@V?$allocator@D@2@@2@XZ
_TEXT	SEGMENT
?_Mylast@?$_Vector_alloc@U?$_Vec_base_types@V?$basic_string@DU?$char_traits@D@std@@V?$allocator@D@2@@std@@V?$allocator@V?$basic_string@DU?$char_traits@D@std@@V?$allocator@D@2@@std@@@2@@std@@@std@@QBEABQAV?$basic_string@DU?$char_traits@D@std@@V?$allocator@D@2@@2@XZ PROC ; std::_Vector_alloc<std::_Vec_base_types<std::basic_string<char,std::char_traits<char>,std::allocator<char> >,std::allocator<std::basic_string<char,std::char_traits<char>,std::allocator<char> > > > >::_Mylast, COMDAT
; _this$ = ecx

; 591  : 		return (_Get_data()._Mylast);

  00000	8d 41 04	 lea	 eax, DWORD PTR [ecx+4]

; 592  : 		}

  00003	c3		 ret	 0
?_Mylast@?$_Vector_alloc@U?$_Vec_base_types@V?$basic_string@DU?$char_traits@D@std@@V?$allocator@D@2@@std@@V?$allocator@V?$basic_string@DU?$char_traits@D@std@@V?$allocator@D@2@@std@@@2@@std@@@std@@QBEABQAV?$basic_string@DU?$char_traits@D@std@@V?$allocator@D@2@@2@XZ ENDP ; std::_Vector_alloc<std::_Vec_base_types<std::basic_string<char,std::char_traits<char>,std::allocator<char> >,std::allocator<std::basic_string<char,std::char_traits<char>,std::allocator<char> > > > >::_Mylast
_TEXT	ENDS
; Function compile flags: /Ogtp
; File c:\program files (x86)\microsoft visual studio\2017\professional\vc\tools\msvc\14.16.27023\include\vector
;	COMDAT ?_Mylast@?$_Vector_alloc@U?$_Vec_base_types@V?$basic_string@DU?$char_traits@D@std@@V?$allocator@D@2@@std@@V?$allocator@V?$basic_string@DU?$char_traits@D@std@@V?$allocator@D@2@@std@@@2@@std@@@std@@QAEAAPAV?$basic_string@DU?$char_traits@D@std@@V?$allocator@D@2@@2@XZ
_TEXT	SEGMENT
?_Mylast@?$_Vector_alloc@U?$_Vec_base_types@V?$basic_string@DU?$char_traits@D@std@@V?$allocator@D@2@@std@@V?$allocator@V?$basic_string@DU?$char_traits@D@std@@V?$allocator@D@2@@std@@@2@@std@@@std@@QAEAAPAV?$basic_string@DU?$char_traits@D@std@@V?$allocator@D@2@@2@XZ PROC ; std::_Vector_alloc<std::_Vec_base_types<std::basic_string<char,std::char_traits<char>,std::allocator<char> >,std::allocator<std::basic_string<char,std::char_traits<char>,std::allocator<char> > > > >::_Mylast, COMDAT
; _this$ = ecx

; 586  : 		return (_Get_data()._Mylast);

  00000	8d 41 04	 lea	 eax, DWORD PTR [ecx+4]

; 587  : 		}

  00003	c3		 ret	 0
?_Mylast@?$_Vector_alloc@U?$_Vec_base_types@V?$basic_string@DU?$char_traits@D@std@@V?$allocator@D@2@@std@@V?$allocator@V?$basic_string@DU?$char_traits@D@std@@V?$allocator@D@2@@std@@@2@@std@@@std@@QAEAAPAV?$basic_string@DU?$char_traits@D@std@@V?$allocator@D@2@@2@XZ ENDP ; std::_Vector_alloc<std::_Vec_base_types<std::basic_string<char,std::char_traits<char>,std::allocator<char> >,std::allocator<std::basic_string<char,std::char_traits<char>,std::allocator<char> > > > >::_Mylast
_TEXT	ENDS
; Function compile flags: /Ogtp
; File c:\program files (x86)\microsoft visual studio\2017\professional\vc\tools\msvc\14.16.27023\include\vector
;	COMDAT ?_Myfirst@?$_Vector_alloc@U?$_Vec_base_types@V?$basic_string@DU?$char_traits@D@std@@V?$allocator@D@2@@std@@V?$allocator@V?$basic_string@DU?$char_traits@D@std@@V?$allocator@D@2@@std@@@2@@std@@@std@@QBEABQAV?$basic_string@DU?$char_traits@D@std@@V?$allocator@D@2@@2@XZ
_TEXT	SEGMENT
?_Myfirst@?$_Vector_alloc@U?$_Vec_base_types@V?$basic_string@DU?$char_traits@D@std@@V?$allocator@D@2@@std@@V?$allocator@V?$basic_string@DU?$char_traits@D@std@@V?$allocator@D@2@@std@@@2@@std@@@std@@QBEABQAV?$basic_string@DU?$char_traits@D@std@@V?$allocator@D@2@@2@XZ PROC ; std::_Vector_alloc<std::_Vec_base_types<std::basic_string<char,std::char_traits<char>,std::allocator<char> >,std::allocator<std::basic_string<char,std::char_traits<char>,std::allocator<char> > > > >::_Myfirst, COMDAT
; _this$ = ecx

; 581  : 		return (_Get_data()._Myfirst);

  00000	8b c1		 mov	 eax, ecx

; 582  : 		}

  00002	c3		 ret	 0
?_Myfirst@?$_Vector_alloc@U?$_Vec_base_types@V?$basic_string@DU?$char_traits@D@std@@V?$allocator@D@2@@std@@V?$allocator@V?$basic_string@DU?$char_traits@D@std@@V?$allocator@D@2@@std@@@2@@std@@@std@@QBEABQAV?$basic_string@DU?$char_traits@D@std@@V?$allocator@D@2@@2@XZ ENDP ; std::_Vector_alloc<std::_Vec_base_types<std::basic_string<char,std::char_traits<char>,std::allocator<char> >,std::allocator<std::basic_string<char,std::char_traits<char>,std::allocator<char> > > > >::_Myfirst
_TEXT	ENDS
; Function compile flags: /Ogtp
; File c:\program files (x86)\microsoft visual studio\2017\professional\vc\tools\msvc\14.16.27023\include\vector
;	COMDAT ?_Myfirst@?$_Vector_alloc@U?$_Vec_base_types@V?$basic_string@DU?$char_traits@D@std@@V?$allocator@D@2@@std@@V?$allocator@V?$basic_string@DU?$char_traits@D@std@@V?$allocator@D@2@@std@@@2@@std@@@std@@QAEAAPAV?$basic_string@DU?$char_traits@D@std@@V?$allocator@D@2@@2@XZ
_TEXT	SEGMENT
?_Myfirst@?$_Vector_alloc@U?$_Vec_base_types@V?$basic_string@DU?$char_traits@D@std@@V?$allocator@D@2@@std@@V?$allocator@V?$basic_string@DU?$char_traits@D@std@@V?$allocator@D@2@@std@@@2@@std@@@std@@QAEAAPAV?$basic_string@DU?$char_traits@D@std@@V?$allocator@D@2@@2@XZ PROC ; std::_Vector_alloc<std::_Vec_base_types<std::basic_string<char,std::char_traits<char>,std::allocator<char> >,std::allocator<std::basic_string<char,std::char_traits<char>,std::allocator<char> > > > >::_Myfirst, COMDAT
; _this$ = ecx

; 576  : 		return (_Get_data()._Myfirst);

  00000	8b c1		 mov	 eax, ecx

; 577  : 		}

  00002	c3		 ret	 0
?_Myfirst@?$_Vector_alloc@U?$_Vec_base_types@V?$basic_string@DU?$char_traits@D@std@@V?$allocator@D@2@@std@@V?$allocator@V?$basic_string@DU?$char_traits@D@std@@V?$allocator@D@2@@std@@@2@@std@@@std@@QAEAAPAV?$basic_string@DU?$char_traits@D@std@@V?$allocator@D@2@@2@XZ ENDP ; std::_Vector_alloc<std::_Vec_base_types<std::basic_string<char,std::char_traits<char>,std::allocator<char> >,std::allocator<std::basic_string<char,std::char_traits<char>,std::allocator<char> > > > >::_Myfirst
_TEXT	ENDS
; Function compile flags: /Ogtp
; File c:\program files (x86)\microsoft visual studio\2017\professional\vc\tools\msvc\14.16.27023\include\vector
;	COMDAT ?_Getal@?$_Vector_alloc@U?$_Vec_base_types@V?$basic_string@DU?$char_traits@D@std@@V?$allocator@D@2@@std@@V?$allocator@V?$basic_string@DU?$char_traits@D@std@@V?$allocator@D@2@@std@@@2@@std@@@std@@QBEABV?$allocator@V?$basic_string@DU?$char_traits@D@std@@V?$allocator@D@2@@std@@@2@XZ
_TEXT	SEGMENT
?_Getal@?$_Vector_alloc@U?$_Vec_base_types@V?$basic_string@DU?$char_traits@D@std@@V?$allocator@D@2@@std@@V?$allocator@V?$basic_string@DU?$char_traits@D@std@@V?$allocator@D@2@@std@@@2@@std@@@std@@QBEABV?$allocator@V?$basic_string@DU?$char_traits@D@std@@V?$allocator@D@2@@std@@@2@XZ PROC ; std::_Vector_alloc<std::_Vec_base_types<std::basic_string<char,std::char_traits<char>,std::allocator<char> >,std::allocator<std::basic_string<char,std::char_traits<char>,std::allocator<char> > > > >::_Getal, COMDAT
; _this$ = ecx

; 550  : 		return (_Mypair._Get_first());

  00000	8b c1		 mov	 eax, ecx

; 551  : 		}

  00002	c3		 ret	 0
?_Getal@?$_Vector_alloc@U?$_Vec_base_types@V?$basic_string@DU?$char_traits@D@std@@V?$allocator@D@2@@std@@V?$allocator@V?$basic_string@DU?$char_traits@D@std@@V?$allocator@D@2@@std@@@2@@std@@@std@@QBEABV?$allocator@V?$basic_string@DU?$char_traits@D@std@@V?$allocator@D@2@@std@@@2@XZ ENDP ; std::_Vector_alloc<std::_Vec_base_types<std::basic_string<char,std::char_traits<char>,std::allocator<char> >,std::allocator<std::basic_string<char,std::char_traits<char>,std::allocator<char> > > > >::_Getal
_TEXT	ENDS
; Function compile flags: /Ogtp
; File c:\program files (x86)\microsoft visual studio\2017\professional\vc\tools\msvc\14.16.27023\include\vector
;	COMDAT ?_Getal@?$_Vector_alloc@U?$_Vec_base_types@V?$basic_string@DU?$char_traits@D@std@@V?$allocator@D@2@@std@@V?$allocator@V?$basic_string@DU?$char_traits@D@std@@V?$allocator@D@2@@std@@@2@@std@@@std@@QAEAAV?$allocator@V?$basic_string@DU?$char_traits@D@std@@V?$allocator@D@2@@std@@@2@XZ
_TEXT	SEGMENT
?_Getal@?$_Vector_alloc@U?$_Vec_base_types@V?$basic_string@DU?$char_traits@D@std@@V?$allocator@D@2@@std@@V?$allocator@V?$basic_string@DU?$char_traits@D@std@@V?$allocator@D@2@@std@@@2@@std@@@std@@QAEAAV?$allocator@V?$basic_string@DU?$char_traits@D@std@@V?$allocator@D@2@@std@@@2@XZ PROC ; std::_Vector_alloc<std::_Vec_base_types<std::basic_string<char,std::char_traits<char>,std::allocator<char> >,std::allocator<std::basic_string<char,std::char_traits<char>,std::allocator<char> > > > >::_Getal, COMDAT
; _this$ = ecx

; 545  : 		return (_Mypair._Get_first());

  00000	8b c1		 mov	 eax, ecx

; 546  : 		}

  00002	c3		 ret	 0
?_Getal@?$_Vector_alloc@U?$_Vec_base_types@V?$basic_string@DU?$char_traits@D@std@@V?$allocator@D@2@@std@@V?$allocator@V?$basic_string@DU?$char_traits@D@std@@V?$allocator@D@2@@std@@@2@@std@@@std@@QAEAAV?$allocator@V?$basic_string@DU?$char_traits@D@std@@V?$allocator@D@2@@std@@@2@XZ ENDP ; std::_Vector_alloc<std::_Vec_base_types<std::basic_string<char,std::char_traits<char>,std::allocator<char> >,std::allocator<std::basic_string<char,std::char_traits<char>,std::allocator<char> > > > >::_Getal
_TEXT	ENDS
; Function compile flags: /Ogtp
; File c:\program files (x86)\microsoft visual studio\2017\professional\vc\tools\msvc\14.16.27023\include\vector
;	COMDAT ?_Orphan_all@?$_Vector_alloc@U?$_Vec_base_types@V?$basic_string@DU?$char_traits@D@std@@V?$allocator@D@2@@std@@V?$allocator@V?$basic_string@DU?$char_traits@D@std@@V?$allocator@D@2@@std@@@2@@std@@@std@@QAEXXZ
_TEXT	SEGMENT
?_Orphan_all@?$_Vector_alloc@U?$_Vec_base_types@V?$basic_string@DU?$char_traits@D@std@@V?$allocator@D@2@@std@@V?$allocator@V?$basic_string@DU?$char_traits@D@std@@V?$allocator@D@2@@std@@@2@@std@@@std@@QAEXXZ PROC ; std::_Vector_alloc<std::_Vec_base_types<std::basic_string<char,std::char_traits<char>,std::allocator<char> >,std::allocator<std::basic_string<char,std::char_traits<char>,std::allocator<char> > > > >::_Orphan_all, COMDAT
; _this$dead$ = ecx

; 535  : 		_Get_data()._Orphan_all();
; 536  : 		}

  00000	c3		 ret	 0
?_Orphan_all@?$_Vector_alloc@U?$_Vec_base_types@V?$basic_string@DU?$char_traits@D@std@@V?$allocator@D@2@@std@@V?$allocator@V?$basic_string@DU?$char_traits@D@std@@V?$allocator@D@2@@std@@@2@@std@@@std@@QAEXXZ ENDP ; std::_Vector_alloc<std::_Vec_base_types<std::basic_string<char,std::char_traits<char>,std::allocator<char> >,std::allocator<std::basic_string<char,std::char_traits<char>,std::allocator<char> > > > >::_Orphan_all
_TEXT	ENDS
; Function compile flags: /Ogtp
; File c:\program files (x86)\microsoft visual studio\2017\professional\vc\tools\msvc\14.16.27023\include\vector
;	COMDAT ?_Orphan_range@?$vector@V?$basic_string@DU?$char_traits@D@std@@V?$allocator@D@2@@std@@V?$allocator@V?$basic_string@DU?$char_traits@D@std@@V?$allocator@D@2@@std@@@2@@std@@ABEXPAV?$basic_string@DU?$char_traits@D@std@@V?$allocator@D@2@@2@0@Z
_TEXT	SEGMENT
___formal$dead$ = 8					; size = 4
___formal$dead$ = 12					; size = 4
?_Orphan_range@?$vector@V?$basic_string@DU?$char_traits@D@std@@V?$allocator@D@2@@std@@V?$allocator@V?$basic_string@DU?$char_traits@D@std@@V?$allocator@D@2@@std@@@2@@std@@ABEXPAV?$basic_string@DU?$char_traits@D@std@@V?$allocator@D@2@@2@0@Z PROC ; std::vector<std::basic_string<char,std::char_traits<char>,std::allocator<char> >,std::allocator<std::basic_string<char,std::char_traits<char>,std::allocator<char> > > >::_Orphan_range, COMDAT
; _this$dead$ = ecx

; 1960 : 		}

  00000	c2 08 00	 ret	 8
?_Orphan_range@?$vector@V?$basic_string@DU?$char_traits@D@std@@V?$allocator@D@2@@std@@V?$allocator@V?$basic_string@DU?$char_traits@D@std@@V?$allocator@D@2@@std@@@2@@std@@ABEXPAV?$basic_string@DU?$char_traits@D@std@@V?$allocator@D@2@@2@0@Z ENDP ; std::vector<std::basic_string<char,std::char_traits<char>,std::allocator<char> >,std::allocator<std::basic_string<char,std::char_traits<char>,std::allocator<char> > > >::_Orphan_range
_TEXT	ENDS
; Function compile flags: /Ogtp
; File c:\program files (x86)\microsoft visual studio\2017\professional\vc\tools\msvc\14.16.27023\include\vector
;	COMDAT ?_Destroy@?$vector@V?$basic_string@DU?$char_traits@D@std@@V?$allocator@D@2@@std@@V?$allocator@V?$basic_string@DU?$char_traits@D@std@@V?$allocator@D@2@@std@@@2@@std@@AAEXPAV?$basic_string@DU?$char_traits@D@std@@V?$allocator@D@2@@2@0@Z
_TEXT	SEGMENT
__First$ = 8						; size = 4
__Last$ = 12						; size = 4
?_Destroy@?$vector@V?$basic_string@DU?$char_traits@D@std@@V?$allocator@D@2@@std@@V?$allocator@V?$basic_string@DU?$char_traits@D@std@@V?$allocator@D@2@@std@@@2@@std@@AAEXPAV?$basic_string@DU?$char_traits@D@std@@V?$allocator@D@2@@2@0@Z PROC ; std::vector<std::basic_string<char,std::char_traits<char>,std::allocator<char> >,std::allocator<std::basic_string<char,std::char_traits<char>,std::allocator<char> > > >::_Destroy, COMDAT
; _this$dead$ = ecx

; 1848 : 		{	// destroy [_First, _Last) using allocator

  00000	55		 push	 ebp
  00001	8b ec		 mov	 ebp, esp

; 1849 : 		_Destroy_range(_First, _Last, this->_Getal());

  00003	8b 55 0c	 mov	 edx, DWORD PTR __Last$[ebp]
  00006	51		 push	 ecx
  00007	8b 4d 08	 mov	 ecx, DWORD PTR __First$[ebp]
  0000a	e8 00 00 00 00	 call	 ??$_Destroy_range@V?$allocator@V?$basic_string@DU?$char_traits@D@std@@V?$allocator@D@2@@std@@@std@@@std@@YAXPAV?$basic_string@DU?$char_traits@D@std@@V?$allocator@D@2@@0@0AAV?$allocator@V?$basic_string@DU?$char_traits@D@std@@V?$allocator@D@2@@std@@@0@@Z ; std::_Destroy_range<std::allocator<std::basic_string<char,std::char_traits<char>,std::allocator<char> > > >
  0000f	83 c4 04	 add	 esp, 4

; 1850 : 		}

  00012	5d		 pop	 ebp
  00013	c2 08 00	 ret	 8
?_Destroy@?$vector@V?$basic_string@DU?$char_traits@D@std@@V?$allocator@D@2@@std@@V?$allocator@V?$basic_string@DU?$char_traits@D@std@@V?$allocator@D@2@@std@@@2@@std@@AAEXPAV?$basic_string@DU?$char_traits@D@std@@V?$allocator@D@2@@2@0@Z ENDP ; std::vector<std::basic_string<char,std::char_traits<char>,std::allocator<char> >,std::allocator<std::basic_string<char,std::char_traits<char>,std::allocator<char> > > >::_Destroy
_TEXT	ENDS
; Function compile flags: /Ogtp
; File c:\program files (x86)\microsoft visual studio\2017\professional\vc\tools\msvc\14.16.27023\include\vector
;	COMDAT ?_Has_unused_capacity@?$vector@V?$basic_string@DU?$char_traits@D@std@@V?$allocator@D@2@@std@@V?$allocator@V?$basic_string@DU?$char_traits@D@std@@V?$allocator@D@2@@std@@@2@@std@@ABE_NXZ
_TEXT	SEGMENT
?_Has_unused_capacity@?$vector@V?$basic_string@DU?$char_traits@D@std@@V?$allocator@D@2@@std@@V?$allocator@V?$basic_string@DU?$char_traits@D@std@@V?$allocator@D@2@@std@@@2@@std@@ABE_NXZ PROC ; std::vector<std::basic_string<char,std::char_traits<char>,std::allocator<char> >,std::allocator<std::basic_string<char,std::char_traits<char>,std::allocator<char> > > >::_Has_unused_capacity, COMDAT
; _this$ = ecx

; 1726 : 		return (this->_Myend() != this->_Mylast());

  00000	8b 41 08	 mov	 eax, DWORD PTR [ecx+8]
  00003	3b 41 04	 cmp	 eax, DWORD PTR [ecx+4]
  00006	0f 95 c0	 setne	 al

; 1727 : 		}

  00009	c3		 ret	 0
?_Has_unused_capacity@?$vector@V?$basic_string@DU?$char_traits@D@std@@V?$allocator@D@2@@std@@V?$allocator@V?$basic_string@DU?$char_traits@D@std@@V?$allocator@D@2@@std@@@2@@std@@ABE_NXZ ENDP ; std::vector<std::basic_string<char,std::char_traits<char>,std::allocator<char> >,std::allocator<std::basic_string<char,std::char_traits<char>,std::allocator<char> > > >::_Has_unused_capacity
_TEXT	ENDS
; Function compile flags: /Ogtp
; File c:\program files (x86)\microsoft visual studio\2017\professional\vc\tools\msvc\14.16.27023\include\xstring
;	COMDAT ??1_Bxty@?$_String_val@U?$_Simple_types@D@std@@@std@@QAE@XZ
_TEXT	SEGMENT
??1_Bxty@?$_String_val@U?$_Simple_types@D@std@@@std@@QAE@XZ PROC ; std::_String_val<std::_Simple_types<char> >::_Bxty::~_Bxty, COMDAT
; _this$dead$ = ecx

; 1862 : 			}

  00000	c3		 ret	 0
??1_Bxty@?$_String_val@U?$_Simple_types@D@std@@@std@@QAE@XZ ENDP ; std::_String_val<std::_Simple_types<char> >::_Bxty::~_Bxty
_TEXT	ENDS
; Function compile flags: /Ogtp
; File c:\program files (x86)\microsoft visual studio\2017\professional\vc\tools\msvc\14.16.27023\include\xstring
;	COMDAT ?_Large_string_engaged@?$_String_val@U?$_Simple_types@D@std@@@std@@QBE_NXZ
_TEXT	SEGMENT
?_Large_string_engaged@?$_String_val@U?$_Simple_types@D@std@@@std@@QBE_NXZ PROC ; std::_String_val<std::_Simple_types<char> >::_Large_string_engaged, COMDAT
; _this$ = ecx

; 1825 : 		return (_BUF_SIZE <= _Myres);

  00000	83 79 14 10	 cmp	 DWORD PTR [ecx+20], 16	; 00000010H
  00004	0f 93 c0	 setae	 al

; 1826 : 		}

  00007	c3		 ret	 0
?_Large_string_engaged@?$_String_val@U?$_Simple_types@D@std@@@std@@QBE_NXZ ENDP ; std::_String_val<std::_Simple_types<char> >::_Large_string_engaged
_TEXT	ENDS
; Function compile flags: /Ogtp
; File c:\program files (x86)\microsoft visual studio\2017\professional\vc\tools\msvc\14.16.27023\include\xstring
;	COMDAT ?_Myptr@?$_String_val@U?$_Simple_types@D@std@@@std@@QBEPBDXZ
_TEXT	SEGMENT
?_Myptr@?$_String_val@U?$_Simple_types@D@std@@@std@@QBEPBDXZ PROC ; std::_String_val<std::_Simple_types<char> >::_Myptr, COMDAT
; _this$ = ecx

; 1825 : 		return (_BUF_SIZE <= _Myres);

  00000	83 79 14 10	 cmp	 DWORD PTR [ecx+20], 16	; 00000010H

; 1814 : 		const value_type * _Result = _Bx._Buf;
; 1815 : 		if (_Large_string_engaged())

  00004	72 03		 jb	 SHORT $LN8@Myptr

; 1816 : 			{
; 1817 : 			_Result = _Unfancy(_Bx._Ptr);
; 1818 : 			}
; 1819 : 
; 1820 : 		return (_Result);

  00006	8b 01		 mov	 eax, DWORD PTR [ecx]

; 1821 : 		}

  00008	c3		 ret	 0
$LN8@Myptr:

; 1816 : 			{
; 1817 : 			_Result = _Unfancy(_Bx._Ptr);
; 1818 : 			}
; 1819 : 
; 1820 : 		return (_Result);

  00009	8b c1		 mov	 eax, ecx

; 1821 : 		}

  0000b	c3		 ret	 0
?_Myptr@?$_String_val@U?$_Simple_types@D@std@@@std@@QBEPBDXZ ENDP ; std::_String_val<std::_Simple_types<char> >::_Myptr
_TEXT	ENDS
; Function compile flags: /Ogtp
; File c:\program files (x86)\microsoft visual studio\2017\professional\vc\tools\msvc\14.16.27023\include\xstring
;	COMDAT ?_Myptr@?$_String_val@U?$_Simple_types@D@std@@@std@@QAEPADXZ
_TEXT	SEGMENT
?_Myptr@?$_String_val@U?$_Simple_types@D@std@@@std@@QAEPADXZ PROC ; std::_String_val<std::_Simple_types<char> >::_Myptr, COMDAT
; _this$ = ecx

; 1825 : 		return (_BUF_SIZE <= _Myres);

  00000	83 79 14 10	 cmp	 DWORD PTR [ecx+20], 16	; 00000010H

; 1803 : 		value_type * _Result = _Bx._Buf;
; 1804 : 		if (_Large_string_engaged())

  00004	72 03		 jb	 SHORT $LN8@Myptr

; 1805 : 			{
; 1806 : 			_Result = _Unfancy(_Bx._Ptr);
; 1807 : 			}
; 1808 : 
; 1809 : 		return (_Result);

  00006	8b 01		 mov	 eax, DWORD PTR [ecx]

; 1810 : 		}

  00008	c3		 ret	 0
$LN8@Myptr:

; 1805 : 			{
; 1806 : 			_Result = _Unfancy(_Bx._Ptr);
; 1807 : 			}
; 1808 : 
; 1809 : 		return (_Result);

  00009	8b c1		 mov	 eax, ecx

; 1810 : 		}

  0000b	c3		 ret	 0
?_Myptr@?$_String_val@U?$_Simple_types@D@std@@@std@@QAEPADXZ ENDP ; std::_String_val<std::_Simple_types<char> >::_Myptr
_TEXT	ENDS
; Function compile flags: /Ogtp
; File c:\program files (x86)\microsoft visual studio\2017\professional\vc\tools\msvc\14.16.27023\include\xmemory0
;	COMDAT ?select_on_container_copy_construction@?$_Default_allocator_traits@V?$allocator@D@std@@@std@@SA?AV?$allocator@D@2@ABV32@@Z
_TEXT	SEGMENT
?select_on_container_copy_construction@?$_Default_allocator_traits@V?$allocator@D@std@@@std@@SA?AV?$allocator@D@2@ABV32@@Z PROC ; std::_Default_allocator_traits<std::allocator<char> >::select_on_container_copy_construction, COMDAT
; ___$ReturnUdt$ = ecx
; __Al$dead$ = edx

; 897  : 		return (_Al);

  00000	8b c1		 mov	 eax, ecx

; 898  : 		}

  00002	c3		 ret	 0
?select_on_container_copy_construction@?$_Default_allocator_traits@V?$allocator@D@std@@@std@@SA?AV?$allocator@D@2@ABV32@@Z ENDP ; std::_Default_allocator_traits<std::allocator<char> >::select_on_container_copy_construction
_TEXT	ENDS
; Function compile flags: /Ogtp
; File c:\program files (x86)\microsoft visual studio\2017\professional\vc\tools\msvc\14.16.27023\include\xstring
;	COMDAT ?_Get_data@?$_String_alloc@U?$_String_base_types@DV?$allocator@D@std@@@std@@@std@@QBEABV?$_String_val@U?$_Simple_types@D@std@@@2@XZ
_TEXT	SEGMENT
?_Get_data@?$_String_alloc@U?$_String_base_types@DV?$allocator@D@std@@@std@@@std@@QBEABV?$_String_val@U?$_Simple_types@D@std@@@2@XZ PROC ; std::_String_alloc<std::_String_base_types<char,std::allocator<char> > >::_Get_data, COMDAT
; _this$ = ecx

; 2048 : 		return (_Mypair._Get_second());

  00000	8b c1		 mov	 eax, ecx

; 2049 : 		}

  00002	c3		 ret	 0
?_Get_data@?$_String_alloc@U?$_String_base_types@DV?$allocator@D@std@@@std@@@std@@QBEABV?$_String_val@U?$_Simple_types@D@std@@@2@XZ ENDP ; std::_String_alloc<std::_String_base_types<char,std::allocator<char> > >::_Get_data
_TEXT	ENDS
; Function compile flags: /Ogtp
; File c:\program files (x86)\microsoft visual studio\2017\professional\vc\tools\msvc\14.16.27023\include\xstring
;	COMDAT ?_Get_data@?$_String_alloc@U?$_String_base_types@DV?$allocator@D@std@@@std@@@std@@QAEAAV?$_String_val@U?$_Simple_types@D@std@@@2@XZ
_TEXT	SEGMENT
?_Get_data@?$_String_alloc@U?$_String_base_types@DV?$allocator@D@std@@@std@@@std@@QAEAAV?$_String_val@U?$_Simple_types@D@std@@@2@XZ PROC ; std::_String_alloc<std::_String_base_types<char,std::allocator<char> > >::_Get_data, COMDAT
; _this$ = ecx

; 2043 : 		return (_Mypair._Get_second());

  00000	8b c1		 mov	 eax, ecx

; 2044 : 		}

  00002	c3		 ret	 0
?_Get_data@?$_String_alloc@U?$_String_base_types@DV?$allocator@D@std@@@std@@@std@@QAEAAV?$_String_val@U?$_Simple_types@D@std@@@2@XZ ENDP ; std::_String_alloc<std::_String_base_types<char,std::allocator<char> > >::_Get_data
_TEXT	ENDS
; Function compile flags: /Ogtp
; File c:\program files (x86)\microsoft visual studio\2017\professional\vc\tools\msvc\14.16.27023\include\xstring
;	COMDAT ?_Getal@?$_String_alloc@U?$_String_base_types@DV?$allocator@D@std@@@std@@@std@@QBEABV?$allocator@D@2@XZ
_TEXT	SEGMENT
?_Getal@?$_String_alloc@U?$_String_base_types@DV?$allocator@D@std@@@std@@@std@@QBEABV?$allocator@D@2@XZ PROC ; std::_String_alloc<std::_String_base_types<char,std::allocator<char> > >::_Getal, COMDAT
; _this$ = ecx

; 2038 : 		return (_Mypair._Get_first());

  00000	8b c1		 mov	 eax, ecx

; 2039 : 		}

  00002	c3		 ret	 0
?_Getal@?$_String_alloc@U?$_String_base_types@DV?$allocator@D@std@@@std@@@std@@QBEABV?$allocator@D@2@XZ ENDP ; std::_String_alloc<std::_String_base_types<char,std::allocator<char> > >::_Getal
_TEXT	ENDS
; Function compile flags: /Ogtp
; File c:\program files (x86)\microsoft visual studio\2017\professional\vc\tools\msvc\14.16.27023\include\xstring
;	COMDAT ?_Getal@?$_String_alloc@U?$_String_base_types@DV?$allocator@D@std@@@std@@@std@@QAEAAV?$allocator@D@2@XZ
_TEXT	SEGMENT
?_Getal@?$_String_alloc@U?$_String_base_types@DV?$allocator@D@std@@@std@@@std@@QAEAAV?$allocator@D@2@XZ PROC ; std::_String_alloc<std::_String_base_types<char,std::allocator<char> > >::_Getal, COMDAT
; _this$ = ecx

; 2033 : 		return (_Mypair._Get_first());

  00000	8b c1		 mov	 eax, ecx

; 2034 : 		}

  00002	c3		 ret	 0
?_Getal@?$_String_alloc@U?$_String_base_types@DV?$allocator@D@std@@@std@@@std@@QAEAAV?$allocator@D@2@XZ ENDP ; std::_String_alloc<std::_String_base_types<char,std::allocator<char> > >::_Getal
_TEXT	ENDS
; Function compile flags: /Ogtp
; File c:\program files (x86)\microsoft visual studio\2017\professional\vc\tools\msvc\14.16.27023\include\xstring
;	COMDAT ?_Orphan_all@?$_String_alloc@U?$_String_base_types@DV?$allocator@D@std@@@std@@@std@@QAEXXZ
_TEXT	SEGMENT
?_Orphan_all@?$_String_alloc@U?$_String_base_types@DV?$allocator@D@std@@@std@@@std@@QAEXXZ PROC ; std::_String_alloc<std::_String_base_types<char,std::allocator<char> > >::_Orphan_all, COMDAT
; _this$dead$ = ecx

; 2023 : 		_Get_data()._Orphan_all();
; 2024 : 		}

  00000	c3		 ret	 0
?_Orphan_all@?$_String_alloc@U?$_String_base_types@DV?$allocator@D@std@@@std@@@std@@QAEXXZ ENDP ; std::_String_alloc<std::_String_base_types<char,std::allocator<char> > >::_Orphan_all
_TEXT	ENDS
; Function compile flags: /Ogtp
; File c:\program files (x86)\microsoft visual studio\2017\professional\vc\tools\msvc\14.16.27023\include\xstring
;	COMDAT ??0?$_String_alloc@U?$_String_base_types@DV?$allocator@D@std@@@std@@@std@@QAE@XZ
_TEXT	SEGMENT
??0?$_String_alloc@U?$_String_base_types@DV?$allocator@D@std@@@std@@@std@@QAE@XZ PROC ; std::_String_alloc<std::_String_base_types<char,std::allocator<char> > >::_String_alloc<std::_String_base_types<char,std::allocator<char> > >, COMDAT
; _this$ = ecx

; 1784 : 		_Mysize(0),

  00000	c7 41 10 00 00
	00 00		 mov	 DWORD PTR [ecx+16], 0

; 1911 : 		}

  00007	8b c1		 mov	 eax, ecx

; 1785 : 		_Myres(0)

  00009	c7 41 14 00 00
	00 00		 mov	 DWORD PTR [ecx+20], 0

; 1911 : 		}

  00010	c3		 ret	 0
??0?$_String_alloc@U?$_String_base_types@DV?$allocator@D@std@@@std@@@std@@QAE@XZ ENDP ; std::_String_alloc<std::_String_base_types<char,std::allocator<char> > >::_String_alloc<std::_String_base_types<char,std::allocator<char> > >
_TEXT	ENDS
; Function compile flags: /Ogtp
; File c:\program files (x86)\microsoft visual studio\2017\professional\vc\tools\msvc\14.16.27023\include\xstring
; File c:\program files (x86)\microsoft visual studio\2017\professional\vc\tools\msvc\14.16.27023\include\xmemory0
; File c:\program files (x86)\microsoft visual studio\2017\professional\vc\tools\msvc\14.16.27023\include\xstring
; File c:\program files (x86)\microsoft visual studio\2017\professional\vc\tools\msvc\14.16.27023\include\xmemory0
; File c:\program files (x86)\microsoft visual studio\2017\professional\vc\tools\msvc\14.16.27023\include\xstring
; File c:\program files (x86)\microsoft visual studio\2017\professional\vc\tools\msvc\14.16.27023\include\iosfwd
; File c:\program files (x86)\microsoft visual studio\2017\professional\vc\tools\msvc\14.16.27023\include\xstring
; File c:\program files (x86)\microsoft visual studio\2017\professional\vc\tools\msvc\14.16.27023\include\xmemory0
; File c:\program files (x86)\microsoft visual studio\2017\professional\vc\tools\msvc\14.16.27023\include\xstring
;	COMDAT ?_Tidy_deallocate@?$basic_string@DU?$char_traits@D@std@@V?$allocator@D@2@@std@@QAEXXZ
_TEXT	SEGMENT
?_Tidy_deallocate@?$basic_string@DU?$char_traits@D@std@@V?$allocator@D@2@@std@@QAEXXZ PROC ; std::basic_string<char,std::char_traits<char>,std::allocator<char> >::_Tidy_deallocate, COMDAT
; _this$ = ecx

; 3984 : 		{	// initialize buffer, deallocating any storage

  00000	56		 push	 esi
  00001	8b f1		 mov	 esi, ecx

; 1825 : 		return (_BUF_SIZE <= _Myres);

  00003	8b 4e 14	 mov	 ecx, DWORD PTR [esi+20]
  00006	83 f9 10	 cmp	 ecx, 16			; 00000010H

; 3985 : 		this->_Orphan_all();
; 3986 : 		auto& _My_data = this->_Get_data();
; 3987 : 		if (_My_data._Large_string_engaged())

  00009	72 27		 jb	 SHORT $LN41@Tidy_deall
; File c:\program files (x86)\microsoft visual studio\2017\professional\vc\tools\msvc\14.16.27023\include\xmemory0

; 992  : 		_Deallocate<_New_alignof<_Ty>>(_Ptr, sizeof(_Ty) * _Count);

  0000b	8b 06		 mov	 eax, DWORD PTR [esi]
; File c:\program files (x86)\microsoft visual studio\2017\professional\vc\tools\msvc\14.16.27023\include\xstring

; 3992 : 			_Al.deallocate(_Ptr, _My_data._Myres + 1);

  0000d	41		 inc	 ecx
; File c:\program files (x86)\microsoft visual studio\2017\professional\vc\tools\msvc\14.16.27023\include\xmemory0

; 201  : 	if (_Bytes >= _Big_allocation_threshold)

  0000e	81 f9 00 10 00
	00		 cmp	 ecx, 4096		; 00001000H
  00014	72 12		 jb	 SHORT $LN40@Tidy_deall

; 118  : 	const uintptr_t _Ptr_container = _Ptr_user[-1];

  00016	8b 50 fc	 mov	 edx, DWORD PTR [eax-4]
  00019	83 c1 23	 add	 ecx, 35			; 00000023H

; 119  : 
; 120  : 	// If the following asserts, it likely means that we are performing
; 121  : 	// an aligned delete on memory coming from an unaligned allocation.
; 122  : 	_STL_ASSERT(_Ptr_user[-2] == _Big_allocation_sentinel, "invalid argument");
; 123  : 
; 124  : 	// Extra paranoia on aligned allocation/deallocation; ensure _Ptr_container is
; 125  : 	// in range [_Min_back_shift, _Non_user_size]
; 126  :   #ifdef _DEBUG
; 127  : 	constexpr uintptr_t _Min_back_shift = 2 * sizeof(void *);
; 128  :   #else /* ^^^ _DEBUG ^^^ // vvv !_DEBUG vvv */
; 129  : 	constexpr uintptr_t _Min_back_shift = sizeof(void *);
; 130  :   #endif /* _DEBUG */
; 131  : 	const uintptr_t _Back_shift = reinterpret_cast<uintptr_t>(_Ptr) - _Ptr_container;

  0001c	2b c2		 sub	 eax, edx

; 132  : 	_STL_VERIFY(_Back_shift >= _Min_back_shift && _Back_shift <= _Non_user_size, "invalid argument");

  0001e	83 c0 fc	 add	 eax, -4			; fffffffcH
  00021	83 f8 1f	 cmp	 eax, 31			; 0000001fH
  00024	77 1f		 ja	 SHORT $LN37@Tidy_deall

; 133  : 	_Ptr = reinterpret_cast<void *>(_Ptr_container);

  00026	8b c2		 mov	 eax, edx
$LN40@Tidy_deall:

; 207  : 	::operator delete(_Ptr, _Bytes);

  00028	51		 push	 ecx
  00029	50		 push	 eax
  0002a	e8 00 00 00 00	 call	 ??3@YAXPAXI@Z		; operator delete
  0002f	83 c4 08	 add	 esp, 8
$LN41@Tidy_deall:
; File c:\program files (x86)\microsoft visual studio\2017\professional\vc\tools\msvc\14.16.27023\include\xstring

; 3995 : 		_My_data._Mysize = 0;

  00032	c7 46 10 00 00
	00 00		 mov	 DWORD PTR [esi+16], 0

; 3996 : 		_My_data._Myres = this->_BUF_SIZE - 1;

  00039	c7 46 14 0f 00
	00 00		 mov	 DWORD PTR [esi+20], 15	; 0000000fH
; File c:\program files (x86)\microsoft visual studio\2017\professional\vc\tools\msvc\14.16.27023\include\iosfwd

; 506  : 		_Left = _Right;

  00040	c6 06 00	 mov	 BYTE PTR [esi], 0
  00043	5e		 pop	 esi
; File c:\program files (x86)\microsoft visual studio\2017\professional\vc\tools\msvc\14.16.27023\include\xstring

; 4000 : 		}

  00044	c3		 ret	 0
$LN37@Tidy_deall:
; File c:\program files (x86)\microsoft visual studio\2017\professional\vc\tools\msvc\14.16.27023\include\xmemory0

; 132  : 	_STL_VERIFY(_Back_shift >= _Min_back_shift && _Back_shift <= _Non_user_size, "invalid argument");

  00045	e8 00 00 00 00	 call	 __invalid_parameter_noinfo_noreturn
$LN46@Tidy_deall:
  0004a	cc		 int	 3
?_Tidy_deallocate@?$basic_string@DU?$char_traits@D@std@@V?$allocator@D@2@@std@@QAEXXZ ENDP ; std::basic_string<char,std::char_traits<char>,std::allocator<char> >::_Tidy_deallocate
_TEXT	ENDS
; Function compile flags: /Ogtp
; File c:\program files (x86)\microsoft visual studio\2017\professional\vc\tools\msvc\14.16.27023\include\xstring
; File c:\program files (x86)\microsoft visual studio\2017\professional\vc\tools\msvc\14.16.27023\include\iosfwd
; File c:\program files (x86)\microsoft visual studio\2017\professional\vc\tools\msvc\14.16.27023\include\xstring
;	COMDAT ?_Tidy_init@?$basic_string@DU?$char_traits@D@std@@V?$allocator@D@2@@std@@QAEXXZ
_TEXT	SEGMENT
?_Tidy_init@?$basic_string@DU?$char_traits@D@std@@V?$allocator@D@2@@std@@QAEXXZ PROC ; std::basic_string<char,std::char_traits<char>,std::allocator<char> >::_Tidy_init, COMDAT
; _this$ = ecx

; 3975 : 		auto& _My_data = this->_Get_data();
; 3976 : 		_My_data._Mysize = 0;

  00000	c7 41 10 00 00
	00 00		 mov	 DWORD PTR [ecx+16], 0

; 3977 : 		_My_data._Myres = this->_BUF_SIZE - 1;

  00007	c7 41 14 0f 00
	00 00		 mov	 DWORD PTR [ecx+20], 15	; 0000000fH
; File c:\program files (x86)\microsoft visual studio\2017\professional\vc\tools\msvc\14.16.27023\include\iosfwd

; 506  : 		_Left = _Right;

  0000e	c6 01 00	 mov	 BYTE PTR [ecx], 0
; File c:\program files (x86)\microsoft visual studio\2017\professional\vc\tools\msvc\14.16.27023\include\xstring

; 3981 : 		}

  00011	c3		 ret	 0
?_Tidy_init@?$basic_string@DU?$char_traits@D@std@@V?$allocator@D@2@@std@@QAEXXZ ENDP ; std::basic_string<char,std::char_traits<char>,std::allocator<char> >::_Tidy_init
_TEXT	ENDS
; Function compile flags: /Ogtp
; File c:\program files (x86)\microsoft visual studio\2017\professional\vc\tools\msvc\14.16.27023\include\xstring
;	COMDAT ?max_size@?$basic_string@DU?$char_traits@D@std@@V?$allocator@D@2@@std@@QBEIXZ
_TEXT	SEGMENT
?max_size@?$basic_string@DU?$char_traits@D@std@@V?$allocator@D@2@@std@@QBEIXZ PROC ; std::basic_string<char,std::char_traits<char>,std::allocator<char> >::max_size, COMDAT
; _this$dead$ = ecx

; 3307 : 		const size_type _Alloc_max = _Alty_traits::max_size(this->_Getal());
; 3308 : 		const size_type _Storage_max = // can always store small string
; 3309 : 			_Max_value(_Alloc_max, static_cast<size_type>(this->_BUF_SIZE));
; 3310 : 		return (_Min_value(

  00000	b8 ff ff ff 7f	 mov	 eax, 2147483647		; 7fffffffH

; 3311 : 			static_cast<size_type>((numeric_limits<difference_type>::max)()),
; 3312 : 			_Storage_max - 1 // -1 is for null terminator and/or npos
; 3313 : 			));
; 3314 : 
; 3315 : 		}

  00005	c3		 ret	 0
?max_size@?$basic_string@DU?$char_traits@D@std@@V?$allocator@D@2@@std@@QBEIXZ ENDP ; std::basic_string<char,std::char_traits<char>,std::allocator<char> >::max_size
_TEXT	ENDS
; Function compile flags: /Ogtp
; File c:\program files (x86)\microsoft visual studio\2017\professional\vc\tools\msvc\14.16.27023\include\utility
;	COMDAT ??$_Max_value@I@std@@YAABIABI0@Z
_TEXT	SEGMENT
??$_Max_value@I@std@@YAABIABI0@Z PROC			; std::_Max_value<unsigned int>, COMDAT
; __Left$ = ecx
; __Right$ = edx

; 33   : 	return (_Left < _Right ? _Right : _Left);

  00000	8b 01		 mov	 eax, DWORD PTR [ecx]
  00002	3b 02		 cmp	 eax, DWORD PTR [edx]
  00004	0f 42 ca	 cmovb	 ecx, edx
  00007	8b c1		 mov	 eax, ecx

; 34   : 	}

  00009	c3		 ret	 0
??$_Max_value@I@std@@YAABIABI0@Z ENDP			; std::_Max_value<unsigned int>
_TEXT	ENDS
; Function compile flags: /Ogtp
; File c:\program files (x86)\microsoft visual studio\2017\professional\vc\tools\msvc\14.16.27023\include\xstring
; File c:\program files (x86)\microsoft visual studio\2017\professional\vc\tools\msvc\14.16.27023\include\xstddef
; File c:\program files (x86)\microsoft visual studio\2017\professional\vc\tools\msvc\14.16.27023\include\iosfwd
; File c:\program files (x86)\microsoft visual studio\2017\professional\vc\tools\msvc\14.16.27023\include\xstring
; File c:\program files (x86)\microsoft visual studio\2017\professional\vc\tools\msvc\14.16.27023\include\iosfwd
; File c:\program files (x86)\microsoft visual studio\2017\professional\vc\tools\msvc\14.16.27023\include\xstring
; File c:\program files (x86)\microsoft visual studio\2017\professional\vc\tools\msvc\14.16.27023\include\utility
; File c:\program files (x86)\microsoft visual studio\2017\professional\vc\tools\msvc\14.16.27023\include\xstring
; File c:\program files (x86)\microsoft visual studio\2017\professional\vc\tools\msvc\14.16.27023\include\xmemory0
; File c:\program files (x86)\microsoft visual studio\2017\professional\vc\tools\msvc\14.16.27023\include\iosfwd
; File c:\program files (x86)\microsoft visual studio\2017\professional\vc\tools\msvc\14.16.27023\include\xstring
; File c:\program files (x86)\microsoft visual studio\2017\professional\vc\tools\msvc\14.16.27023\include\iosfwd
; File c:\program files (x86)\microsoft visual studio\2017\professional\vc\tools\msvc\14.16.27023\include\xstring
; File c:\program files (x86)\microsoft visual studio\2017\professional\vc\tools\msvc\14.16.27023\include\iosfwd
; File c:\program files (x86)\microsoft visual studio\2017\professional\vc\tools\msvc\14.16.27023\include\xstring
; File c:\program files (x86)\microsoft visual studio\2017\professional\vc\tools\msvc\14.16.27023\include\iosfwd
; File c:\program files (x86)\microsoft visual studio\2017\professional\vc\tools\msvc\14.16.27023\include\xstring
; File c:\program files (x86)\microsoft visual studio\2017\professional\vc\tools\msvc\14.16.27023\include\xmemory0
; File c:\program files (x86)\microsoft visual studio\2017\professional\vc\tools\msvc\14.16.27023\include\xstring
; File c:\program files (x86)\microsoft visual studio\2017\professional\vc\tools\msvc\14.16.27023\include\xmemory0
; File c:\program files (x86)\microsoft visual studio\2017\professional\vc\tools\msvc\14.16.27023\include\xstring
;	COMDAT ?assign@?$basic_string@DU?$char_traits@D@std@@V?$allocator@D@2@@std@@QAEAAV12@QBDI@Z
_TEXT	SEGMENT
__Old$1$ = -4						; size = 4
__Ptr$ = 8						; size = 4
$T1 = 12						; size = 4
__Count$ = 12						; size = 4
?assign@?$basic_string@DU?$char_traits@D@std@@V?$allocator@D@2@@std@@QAEAAV12@QBDI@Z PROC ; std::basic_string<char,std::char_traits<char>,std::allocator<char> >::assign, COMDAT
; _this$ = ecx

; 2657 : 		{	// assign [_Ptr, _Ptr + _Count)

  00000	55		 push	 ebp
  00001	8b ec		 mov	 ebp, esp
  00003	51		 push	 ecx
  00004	53		 push	 ebx
  00005	56		 push	 esi
  00006	8b f1		 mov	 esi, ecx
  00008	57		 push	 edi

; 2658 : 		auto& _My_data = this->_Get_data();
; 2659 : 		if (_Count <= _My_data._Myres)

  00009	8b 7d 0c	 mov	 edi, DWORD PTR __Count$[ebp]
  0000c	8b 4e 14	 mov	 ecx, DWORD PTR [esi+20]
  0000f	89 4d fc	 mov	 DWORD PTR __Old$1$[ebp], ecx
  00012	3b f9		 cmp	 edi, ecx
  00014	77 28		 ja	 SHORT $LN2@assign

; 1803 : 		value_type * _Result = _Bx._Buf;

  00016	8b de		 mov	 ebx, esi

; 1825 : 		return (_BUF_SIZE <= _Myres);

  00018	83 f9 10	 cmp	 ecx, 16			; 00000010H

; 1804 : 		if (_Large_string_engaged())

  0001b	72 02		 jb	 SHORT $LN9@assign
; File c:\program files (x86)\microsoft visual studio\2017\professional\vc\tools\msvc\14.16.27023\include\xstddef

; 346  : 	return (_Ptr);

  0001d	8b 1e		 mov	 ebx, DWORD PTR [esi]
$LN9@assign:
; File c:\program files (x86)\microsoft visual studio\2017\professional\vc\tools\msvc\14.16.27023\include\iosfwd

; 495  : 		return (static_cast<char *>(_CSTD memmove(_First1, _First2, _Count)));

  0001f	57		 push	 edi
  00020	ff 75 08	 push	 DWORD PTR __Ptr$[ebp]
; File c:\program files (x86)\microsoft visual studio\2017\professional\vc\tools\msvc\14.16.27023\include\xstring

; 2662 : 			_My_data._Mysize = _Count;

  00023	89 7e 10	 mov	 DWORD PTR [esi+16], edi
; File c:\program files (x86)\microsoft visual studio\2017\professional\vc\tools\msvc\14.16.27023\include\iosfwd

; 495  : 		return (static_cast<char *>(_CSTD memmove(_First1, _First2, _Count)));

  00026	53		 push	 ebx
  00027	e8 00 00 00 00	 call	 _memmove
  0002c	83 c4 0c	 add	 esp, 12			; 0000000cH

; 506  : 		_Left = _Right;

  0002f	c6 04 3b 00	 mov	 BYTE PTR [ebx+edi], 0
; File c:\program files (x86)\microsoft visual studio\2017\professional\vc\tools\msvc\14.16.27023\include\xstring

; 2672 : 		}

  00033	8b c6		 mov	 eax, esi
  00035	5f		 pop	 edi
  00036	5e		 pop	 esi
  00037	5b		 pop	 ebx
  00038	8b e5		 mov	 esp, ebp
  0003a	5d		 pop	 ebp
  0003b	c2 08 00	 ret	 8
$LN2@assign:

; 3889 : 		if (_New_size > max_size())

  0003e	81 ff ff ff ff
	7f		 cmp	 edi, 2147483647		; 7fffffffH
  00044	0f 87 d3 00 00
	00		 ja	 $LN136@assign

; 3869 : 		const size_type _Masked = _Requested | this->_ALLOC_MASK;

  0004a	8b df		 mov	 ebx, edi
  0004c	83 cb 0f	 or	 ebx, 15			; 0000000fH
  0004f	81 fb ff ff ff
	7f		 cmp	 ebx, 2147483647		; 7fffffffH

; 3870 : 		if (_Masked > _Max)

  00055	76 07		 jbe	 SHORT $LN43@assign

; 3871 : 			{	// the mask overflows, settle for max_size()
; 3872 : 			return (_Max);

  00057	bb ff ff ff 7f	 mov	 ebx, 2147483647		; 7fffffffH
  0005c	eb 1e		 jmp	 SHORT $LN42@assign
$LN43@assign:

; 3873 : 			}
; 3874 : 
; 3875 : 		const size_type _Old = _My_data._Myres;
; 3876 : 		if (_Old > _Max - _Old / 2)

  0005e	8b d1		 mov	 edx, ecx
  00060	b8 ff ff ff 7f	 mov	 eax, 2147483647		; 7fffffffH
  00065	d1 ea		 shr	 edx, 1
  00067	2b c2		 sub	 eax, edx
  00069	3b c8		 cmp	 ecx, eax
  0006b	76 07		 jbe	 SHORT $LN44@assign

; 3877 : 			{	// similarly, geometric overflows
; 3878 : 			return (_Max);

  0006d	bb ff ff ff 7f	 mov	 ebx, 2147483647		; 7fffffffH
  00072	eb 08		 jmp	 SHORT $LN42@assign
$LN44@assign:

; 3879 : 			}
; 3880 : 
; 3881 : 		return (_Max_value(_Masked, _Old + _Old / 2));

  00074	8d 04 0a	 lea	 eax, DWORD PTR [edx+ecx]
; File c:\program files (x86)\microsoft visual studio\2017\professional\vc\tools\msvc\14.16.27023\include\utility

; 33   : 	return (_Left < _Right ? _Right : _Left);

  00077	3b d8		 cmp	 ebx, eax
  00079	0f 42 d8	 cmovb	 ebx, eax
$LN42@assign:
; File c:\program files (x86)\microsoft visual studio\2017\professional\vc\tools\msvc\14.16.27023\include\xstring

; 3898 : 		const pointer _New_ptr = _Al.allocate(_New_capacity + 1); // throws

  0007c	8d 4b 01	 lea	 ecx, DWORD PTR [ebx+1]
; File c:\program files (x86)\microsoft visual studio\2017\professional\vc\tools\msvc\14.16.27023\include\xmemory0

; 182  : 	if (_Bytes >= _Big_allocation_threshold)

  0007f	81 f9 00 10 00
	00		 cmp	 ecx, 4096		; 00001000H
  00085	72 25		 jb	 SHORT $LN75@assign

; 93   : 	size_t _Block_size = _Non_user_size + _Bytes;

  00087	8d 41 23	 lea	 eax, DWORD PTR [ecx+35]

; 94   : 	if (_Block_size <= _Bytes)

  0008a	83 ca ff	 or	 edx, -1
  0008d	3b c1		 cmp	 eax, ecx
  0008f	0f 46 c2	 cmovbe	 eax, edx

; 52   : 		return (::operator new(_Bytes));

  00092	50		 push	 eax
  00093	e8 00 00 00 00	 call	 ??2@YAPAXI@Z		; operator new

; 100  : 	const uintptr_t _Ptr_container = reinterpret_cast<uintptr_t>(_Traits::_Allocate(_Block_size));

  00098	8b c8		 mov	 ecx, eax

; 52   : 		return (::operator new(_Bytes));

  0009a	83 c4 04	 add	 esp, 4

; 101  : 	_STL_VERIFY(_Ptr_container != 0, "invalid argument");	// validate even in release since we're doing p[-1]

  0009d	85 c9		 test	 ecx, ecx
  0009f	74 77		 je	 SHORT $LN117@assign

; 102  : 	void * const _Ptr = reinterpret_cast<void *>((_Ptr_container + _Non_user_size)
; 103  : 		& ~(_Big_allocation_alignment - 1));

  000a1	8d 41 23	 lea	 eax, DWORD PTR [ecx+35]
  000a4	83 e0 e0	 and	 eax, -32		; ffffffe0H

; 104  : 	static_cast<uintptr_t *>(_Ptr)[-1] = _Ptr_container;

  000a7	89 48 fc	 mov	 DWORD PTR [eax-4], ecx

; 184  : 		return (_Allocate_manually_vector_aligned<_Traits>(_Bytes));

  000aa	eb 11		 jmp	 SHORT $LN134@assign
$LN75@assign:

; 185  : 		}
; 186  :  #endif /* defined(_M_IX86) || defined(_M_X64) */
; 187  : 
; 188  : 	if (_Bytes != 0)

  000ac	85 c9		 test	 ecx, ecx
  000ae	74 0b		 je	 SHORT $LN76@assign

; 52   : 		return (::operator new(_Bytes));

  000b0	51		 push	 ecx
  000b1	e8 00 00 00 00	 call	 ??2@YAPAXI@Z		; operator new
  000b6	83 c4 04	 add	 esp, 4

; 190  : 		return (_Traits::_Allocate(_Bytes));

  000b9	eb 02		 jmp	 SHORT $LN134@assign
$LN76@assign:

; 191  : 		}
; 192  : 
; 193  : 	return (nullptr);

  000bb	33 c0		 xor	 eax, eax
$LN134@assign:
; File c:\program files (x86)\microsoft visual studio\2017\professional\vc\tools\msvc\14.16.27023\include\iosfwd

; 471  : 		return (static_cast<char *>(_CSTD memcpy(_First1, _First2, _Count)));

  000bd	57		 push	 edi
  000be	ff 75 08	 push	 DWORD PTR __Ptr$[ebp]
; File c:\program files (x86)\microsoft visual studio\2017\professional\vc\tools\msvc\14.16.27023\include\xstring

; 3900 : 		_My_data._Mysize = _New_size;

  000c1	89 45 0c	 mov	 DWORD PTR $T1[ebp], eax
; File c:\program files (x86)\microsoft visual studio\2017\professional\vc\tools\msvc\14.16.27023\include\iosfwd

; 471  : 		return (static_cast<char *>(_CSTD memcpy(_First1, _First2, _Count)));

  000c4	50		 push	 eax
; File c:\program files (x86)\microsoft visual studio\2017\professional\vc\tools\msvc\14.16.27023\include\xstring

; 3900 : 		_My_data._Mysize = _New_size;

  000c5	89 7e 10	 mov	 DWORD PTR [esi+16], edi

; 3901 : 		_My_data._Myres = _New_capacity;

  000c8	89 5e 14	 mov	 DWORD PTR [esi+20], ebx
; File c:\program files (x86)\microsoft visual studio\2017\professional\vc\tools\msvc\14.16.27023\include\iosfwd

; 471  : 		return (static_cast<char *>(_CSTD memcpy(_First1, _First2, _Count)));

  000cb	e8 00 00 00 00	 call	 _memcpy

; 506  : 		_Left = _Right;

  000d0	8b 5d 0c	 mov	 ebx, DWORD PTR $T1[ebp]

; 471  : 		return (static_cast<char *>(_CSTD memcpy(_First1, _First2, _Count)));

  000d3	83 c4 0c	 add	 esp, 12			; 0000000cH
; File c:\program files (x86)\microsoft visual studio\2017\professional\vc\tools\msvc\14.16.27023\include\xstring

; 3903 : 		if (this->_BUF_SIZE <= _Old_capacity)

  000d6	8b 45 fc	 mov	 eax, DWORD PTR __Old$1$[ebp]
; File c:\program files (x86)\microsoft visual studio\2017\professional\vc\tools\msvc\14.16.27023\include\iosfwd

; 506  : 		_Left = _Right;

  000d9	c6 04 3b 00	 mov	 BYTE PTR [ebx+edi], 0
; File c:\program files (x86)\microsoft visual studio\2017\professional\vc\tools\msvc\14.16.27023\include\xstring

; 3903 : 		if (this->_BUF_SIZE <= _Old_capacity)

  000dd	83 f8 10	 cmp	 eax, 16			; 00000010H
  000e0	72 29		 jb	 SHORT $LN21@assign

; 3904 : 			{
; 3905 : 			_Al.deallocate(_My_data._Bx._Ptr, _Old_capacity + 1);

  000e2	8d 48 01	 lea	 ecx, DWORD PTR [eax+1]
; File c:\program files (x86)\microsoft visual studio\2017\professional\vc\tools\msvc\14.16.27023\include\xmemory0

; 992  : 		_Deallocate<_New_alignof<_Ty>>(_Ptr, sizeof(_Ty) * _Count);

  000e5	8b 06		 mov	 eax, DWORD PTR [esi]

; 201  : 	if (_Bytes >= _Big_allocation_threshold)

  000e7	81 f9 00 10 00
	00		 cmp	 ecx, 4096		; 00001000H
  000ed	72 12		 jb	 SHORT $LN120@assign

; 118  : 	const uintptr_t _Ptr_container = _Ptr_user[-1];

  000ef	8b 50 fc	 mov	 edx, DWORD PTR [eax-4]
  000f2	83 c1 23	 add	 ecx, 35			; 00000023H

; 119  : 
; 120  : 	// If the following asserts, it likely means that we are performing
; 121  : 	// an aligned delete on memory coming from an unaligned allocation.
; 122  : 	_STL_ASSERT(_Ptr_user[-2] == _Big_allocation_sentinel, "invalid argument");
; 123  : 
; 124  : 	// Extra paranoia on aligned allocation/deallocation; ensure _Ptr_container is
; 125  : 	// in range [_Min_back_shift, _Non_user_size]
; 126  :   #ifdef _DEBUG
; 127  : 	constexpr uintptr_t _Min_back_shift = 2 * sizeof(void *);
; 128  :   #else /* ^^^ _DEBUG ^^^ // vvv !_DEBUG vvv */
; 129  : 	constexpr uintptr_t _Min_back_shift = sizeof(void *);
; 130  :   #endif /* _DEBUG */
; 131  : 	const uintptr_t _Back_shift = reinterpret_cast<uintptr_t>(_Ptr) - _Ptr_container;

  000f5	2b c2		 sub	 eax, edx

; 132  : 	_STL_VERIFY(_Back_shift >= _Min_back_shift && _Back_shift <= _Non_user_size, "invalid argument");

  000f7	83 c0 fc	 add	 eax, -4			; fffffffcH
  000fa	83 f8 1f	 cmp	 eax, 31			; 0000001fH
  000fd	77 19		 ja	 SHORT $LN117@assign

; 133  : 	_Ptr = reinterpret_cast<void *>(_Ptr_container);

  000ff	8b c2		 mov	 eax, edx
$LN120@assign:

; 207  : 	::operator delete(_Ptr, _Bytes);

  00101	51		 push	 ecx
  00102	50		 push	 eax
  00103	e8 00 00 00 00	 call	 ??3@YAXPAXI@Z		; operator delete
  00108	83 c4 08	 add	 esp, 8
$LN21@assign:
  0010b	5f		 pop	 edi
; File c:\program files (x86)\microsoft visual studio\2017\professional\vc\tools\msvc\14.16.27023\include\xstring

; 2668 : 		return (_Reallocate_for(_Count, [](_Elem * const _New_ptr, const size_type _Count, const _Elem * const _Ptr) {

  0010c	89 1e		 mov	 DWORD PTR [esi], ebx

; 2672 : 		}

  0010e	8b c6		 mov	 eax, esi
  00110	5e		 pop	 esi
  00111	5b		 pop	 ebx
  00112	8b e5		 mov	 esp, ebp
  00114	5d		 pop	 ebp
  00115	c2 08 00	 ret	 8
$LN117@assign:
; File c:\program files (x86)\microsoft visual studio\2017\professional\vc\tools\msvc\14.16.27023\include\xmemory0

; 132  : 	_STL_VERIFY(_Back_shift >= _Min_back_shift && _Back_shift <= _Non_user_size, "invalid argument");

  00118	e8 00 00 00 00	 call	 __invalid_parameter_noinfo_noreturn
$LN136@assign:
; File c:\program files (x86)\microsoft visual studio\2017\professional\vc\tools\msvc\14.16.27023\include\xstring

; 3891 : 			_Xlen();	// result too long

  0011d	e8 00 00 00 00	 call	 ?_Xlen@?$basic_string@DU?$char_traits@D@std@@V?$allocator@D@2@@std@@SAXXZ ; std::basic_string<char,std::char_traits<char>,std::allocator<char> >::_Xlen
$LN132@assign:
  00122	cc		 int	 3
?assign@?$basic_string@DU?$char_traits@D@std@@V?$allocator@D@2@@std@@QAEAAV12@QBDI@Z ENDP ; std::basic_string<char,std::char_traits<char>,std::allocator<char> >::assign
_TEXT	ENDS
; Function compile flags: /Ogtp
; File c:\program files (x86)\microsoft visual studio\2017\professional\vc\tools\msvc\14.16.27023\include\xstring
; File c:\program files (x86)\microsoft visual studio\2017\professional\vc\tools\msvc\14.16.27023\include\iosfwd
; File c:\program files (x86)\microsoft visual studio\2017\professional\vc\tools\msvc\14.16.27023\include\xstring
; File c:\program files (x86)\microsoft visual studio\2017\professional\vc\tools\msvc\14.16.27023\include\iosfwd
; File c:\program files (x86)\microsoft visual studio\2017\professional\vc\tools\msvc\14.16.27023\include\xstring
;	COMDAT ??R<lambda_9366063389c5f42a00a5088cf24e69de>@@QBE@QADIQBD@Z
_TEXT	SEGMENT
__New_ptr$ = 8						; size = 4
__Count$ = 12						; size = 4
__Ptr$ = 16						; size = 4
??R<lambda_9366063389c5f42a00a5088cf24e69de>@@QBE@QADIQBD@Z PROC ; <lambda_9366063389c5f42a00a5088cf24e69de>::operator(), COMDAT
; _this$dead$ = ecx

; 2668 : 		return (_Reallocate_for(_Count, [](_Elem * const _New_ptr, const size_type _Count, const _Elem * const _Ptr) {

  00000	55		 push	 ebp
  00001	8b ec		 mov	 ebp, esp
  00003	56		 push	 esi
; File c:\program files (x86)\microsoft visual studio\2017\professional\vc\tools\msvc\14.16.27023\include\iosfwd

; 471  : 		return (static_cast<char *>(_CSTD memcpy(_First1, _First2, _Count)));

  00004	8b 75 08	 mov	 esi, DWORD PTR __New_ptr$[ebp]
; File c:\program files (x86)\microsoft visual studio\2017\professional\vc\tools\msvc\14.16.27023\include\xstring

; 2668 : 		return (_Reallocate_for(_Count, [](_Elem * const _New_ptr, const size_type _Count, const _Elem * const _Ptr) {

  00007	57		 push	 edi
; File c:\program files (x86)\microsoft visual studio\2017\professional\vc\tools\msvc\14.16.27023\include\iosfwd

; 471  : 		return (static_cast<char *>(_CSTD memcpy(_First1, _First2, _Count)));

  00008	8b 7d 0c	 mov	 edi, DWORD PTR __Count$[ebp]
  0000b	57		 push	 edi
  0000c	ff 75 10	 push	 DWORD PTR __Ptr$[ebp]
  0000f	56		 push	 esi
  00010	e8 00 00 00 00	 call	 _memcpy
  00015	83 c4 0c	 add	 esp, 12			; 0000000cH

; 506  : 		_Left = _Right;

  00018	c6 04 3e 00	 mov	 BYTE PTR [esi+edi], 0
  0001c	5f		 pop	 edi
  0001d	5e		 pop	 esi
; File c:\program files (x86)\microsoft visual studio\2017\professional\vc\tools\msvc\14.16.27023\include\xstring

; 2671 : 			}, _Ptr));

  0001e	5d		 pop	 ebp
  0001f	c2 0c 00	 ret	 12			; 0000000cH
??R<lambda_9366063389c5f42a00a5088cf24e69de>@@QBE@QADIQBD@Z ENDP ; <lambda_9366063389c5f42a00a5088cf24e69de>::operator()
_TEXT	ENDS
; Function compile flags: /Ogtp
; File c:\program files (x86)\microsoft visual studio\2017\professional\vc\tools\msvc\14.16.27023\include\xstring
; File c:\program files (x86)\microsoft visual studio\2017\professional\vc\tools\msvc\14.16.27023\include\xstddef
; File c:\program files (x86)\microsoft visual studio\2017\professional\vc\tools\msvc\14.16.27023\include\iosfwd
; File c:\program files (x86)\microsoft visual studio\2017\professional\vc\tools\msvc\14.16.27023\include\xstring
; File c:\program files (x86)\microsoft visual studio\2017\professional\vc\tools\msvc\14.16.27023\include\iosfwd
; File c:\program files (x86)\microsoft visual studio\2017\professional\vc\tools\msvc\14.16.27023\include\xstring
;	COMDAT ?append@?$basic_string@DU?$char_traits@D@std@@V?$allocator@D@2@@std@@QAEAAV12@QBDI@Z
_TEXT	SEGMENT
__Ptr$ = 8						; size = 4
$T1 = 12						; size = 1
__Count$ = 12						; size = 4
?append@?$basic_string@DU?$char_traits@D@std@@V?$allocator@D@2@@std@@QAEAAV12@QBDI@Z PROC ; std::basic_string<char,std::char_traits<char>,std::allocator<char> >::append, COMDAT
; _this$ = ecx

; 2569 : 		{	// append [_Ptr, _Ptr + _Count)

  00000	55		 push	 ebp
  00001	8b ec		 mov	 ebp, esp
  00003	53		 push	 ebx

; 2570 : 		auto& _My_data = this->_Get_data();
; 2571 : 		const size_type _Old_size = _My_data._Mysize;
; 2572 : 		if (_Count <= _My_data._Myres - _Old_size)

  00004	8b 5d 0c	 mov	 ebx, DWORD PTR __Count$[ebp]
  00007	57		 push	 edi
  00008	8b f9		 mov	 edi, ecx
  0000a	8b 57 14	 mov	 edx, DWORD PTR [edi+20]
  0000d	8b c2		 mov	 eax, edx
  0000f	8b 4f 10	 mov	 ecx, DWORD PTR [edi+16]
  00012	2b c1		 sub	 eax, ecx
  00014	3b d8		 cmp	 ebx, eax
  00016	77 2d		 ja	 SHORT $LN2@append

; 2573 : 			{
; 2574 : 			_My_data._Mysize = _Old_size + _Count;

  00018	8d 04 19	 lea	 eax, DWORD PTR [ecx+ebx]
  0001b	89 47 10	 mov	 DWORD PTR [edi+16], eax

; 1803 : 		value_type * _Result = _Bx._Buf;

  0001e	8b c7		 mov	 eax, edi

; 1825 : 		return (_BUF_SIZE <= _Myres);

  00020	83 fa 10	 cmp	 edx, 16			; 00000010H

; 1804 : 		if (_Large_string_engaged())

  00023	72 02		 jb	 SHORT $LN9@append
; File c:\program files (x86)\microsoft visual studio\2017\professional\vc\tools\msvc\14.16.27023\include\xstddef

; 346  : 	return (_Ptr);

  00025	8b 07		 mov	 eax, DWORD PTR [edi]
$LN9@append:
  00027	56		 push	 esi
; File c:\program files (x86)\microsoft visual studio\2017\professional\vc\tools\msvc\14.16.27023\include\iosfwd

; 495  : 		return (static_cast<char *>(_CSTD memmove(_First1, _First2, _Count)));

  00028	53		 push	 ebx
  00029	ff 75 08	 push	 DWORD PTR __Ptr$[ebp]
; File c:\program files (x86)\microsoft visual studio\2017\professional\vc\tools\msvc\14.16.27023\include\xstring

; 2576 : 			_Traits::move(_Old_ptr + _Old_size, _Ptr, _Count);

  0002c	8d 34 08	 lea	 esi, DWORD PTR [eax+ecx]
; File c:\program files (x86)\microsoft visual studio\2017\professional\vc\tools\msvc\14.16.27023\include\iosfwd

; 495  : 		return (static_cast<char *>(_CSTD memmove(_First1, _First2, _Count)));

  0002f	56		 push	 esi
  00030	e8 00 00 00 00	 call	 _memmove
  00035	83 c4 0c	 add	 esp, 12			; 0000000cH

; 506  : 		_Left = _Right;

  00038	c6 04 1e 00	 mov	 BYTE PTR [esi+ebx], 0
; File c:\program files (x86)\microsoft visual studio\2017\professional\vc\tools\msvc\14.16.27023\include\xstring

; 2578 : 			return (*this);

  0003c	8b c7		 mov	 eax, edi
  0003e	5e		 pop	 esi
  0003f	5f		 pop	 edi

; 2582 : 			[](_Elem * const _New_ptr, const _Elem * const _Old_ptr, const size_type _Old_size,
; 2583 : 				const _Elem * const _Ptr, const size_type _Count) {
; 2584 : 			_Traits::copy(_New_ptr, _Old_ptr, _Old_size);
; 2585 : 			_Traits::copy(_New_ptr + _Old_size, _Ptr, _Count);
; 2586 : 			_Traits::assign(_New_ptr[_Old_size + _Count], _Elem());
; 2587 : 			}, _Ptr, _Count));
; 2588 : 		}

  00040	5b		 pop	 ebx
  00041	5d		 pop	 ebp
  00042	c2 08 00	 ret	 8
$LN2@append:

; 2579 : 			}
; 2580 : 
; 2581 : 		return (_Reallocate_grow_by(_Count,

  00045	53		 push	 ebx
  00046	ff 75 08	 push	 DWORD PTR __Ptr$[ebp]
  00049	c6 45 0c 00	 mov	 BYTE PTR $T1[ebp], 0
  0004d	8b cf		 mov	 ecx, edi
  0004f	ff 75 0c	 push	 DWORD PTR $T1[ebp]
  00052	53		 push	 ebx
  00053	e8 00 00 00 00	 call	 ??$_Reallocate_grow_by@V<lambda_ab246b20b9526e2ef7792587e4298a77>@@PBDI@?$basic_string@DU?$char_traits@D@std@@V?$allocator@D@2@@std@@QAEAAV01@IV<lambda_ab246b20b9526e2ef7792587e4298a77>@@PBDI@Z ; std::basic_string<char,std::char_traits<char>,std::allocator<char> >::_Reallocate_grow_by<<lambda_ab246b20b9526e2ef7792587e4298a77>,char const *,unsigned int>
  00058	5f		 pop	 edi

; 2582 : 			[](_Elem * const _New_ptr, const _Elem * const _Old_ptr, const size_type _Old_size,
; 2583 : 				const _Elem * const _Ptr, const size_type _Count) {
; 2584 : 			_Traits::copy(_New_ptr, _Old_ptr, _Old_size);
; 2585 : 			_Traits::copy(_New_ptr + _Old_size, _Ptr, _Count);
; 2586 : 			_Traits::assign(_New_ptr[_Old_size + _Count], _Elem());
; 2587 : 			}, _Ptr, _Count));
; 2588 : 		}

  00059	5b		 pop	 ebx
  0005a	5d		 pop	 ebp
  0005b	c2 08 00	 ret	 8
?append@?$basic_string@DU?$char_traits@D@std@@V?$allocator@D@2@@std@@QAEAAV12@QBDI@Z ENDP ; std::basic_string<char,std::char_traits<char>,std::allocator<char> >::append
_TEXT	ENDS
; Function compile flags: /Ogtp
; File c:\program files (x86)\microsoft visual studio\2017\professional\vc\tools\msvc\14.16.27023\include\xstring
; File c:\program files (x86)\microsoft visual studio\2017\professional\vc\tools\msvc\14.16.27023\include\iosfwd
; File c:\program files (x86)\microsoft visual studio\2017\professional\vc\tools\msvc\14.16.27023\include\xstring
; File c:\program files (x86)\microsoft visual studio\2017\professional\vc\tools\msvc\14.16.27023\include\iosfwd
; File c:\program files (x86)\microsoft visual studio\2017\professional\vc\tools\msvc\14.16.27023\include\xstring
; File c:\program files (x86)\microsoft visual studio\2017\professional\vc\tools\msvc\14.16.27023\include\iosfwd
; File c:\program files (x86)\microsoft visual studio\2017\professional\vc\tools\msvc\14.16.27023\include\xstring
;	COMDAT ??R<lambda_ab246b20b9526e2ef7792587e4298a77>@@QBE@QADQBDI1I@Z
_TEXT	SEGMENT
__New_ptr$ = 8						; size = 4
__Old_ptr$ = 12						; size = 4
__Old_size$ = 16					; size = 4
__Ptr$ = 20						; size = 4
__Count$ = 24						; size = 4
??R<lambda_ab246b20b9526e2ef7792587e4298a77>@@QBE@QADQBDI1I@Z PROC ; <lambda_ab246b20b9526e2ef7792587e4298a77>::operator(), COMDAT
; _this$dead$ = ecx

; 2583 : 				const _Elem * const _Ptr, const size_type _Count) {

  00000	55		 push	 ebp
  00001	8b ec		 mov	 ebp, esp
  00003	56		 push	 esi
; File c:\program files (x86)\microsoft visual studio\2017\professional\vc\tools\msvc\14.16.27023\include\iosfwd

; 471  : 		return (static_cast<char *>(_CSTD memcpy(_First1, _First2, _Count)));

  00004	8b 75 08	 mov	 esi, DWORD PTR __New_ptr$[ebp]
; File c:\program files (x86)\microsoft visual studio\2017\professional\vc\tools\msvc\14.16.27023\include\xstring

; 2583 : 				const _Elem * const _Ptr, const size_type _Count) {

  00007	57		 push	 edi
; File c:\program files (x86)\microsoft visual studio\2017\professional\vc\tools\msvc\14.16.27023\include\iosfwd

; 471  : 		return (static_cast<char *>(_CSTD memcpy(_First1, _First2, _Count)));

  00008	8b 7d 10	 mov	 edi, DWORD PTR __Old_size$[ebp]
  0000b	57		 push	 edi
  0000c	ff 75 0c	 push	 DWORD PTR __Old_ptr$[ebp]
  0000f	56		 push	 esi
  00010	e8 00 00 00 00	 call	 _memcpy
; File c:\program files (x86)\microsoft visual studio\2017\professional\vc\tools\msvc\14.16.27023\include\xstring

; 2585 : 			_Traits::copy(_New_ptr + _Old_size, _Ptr, _Count);

  00015	03 fe		 add	 edi, esi
; File c:\program files (x86)\microsoft visual studio\2017\professional\vc\tools\msvc\14.16.27023\include\iosfwd

; 471  : 		return (static_cast<char *>(_CSTD memcpy(_First1, _First2, _Count)));

  00017	8b 75 18	 mov	 esi, DWORD PTR __Count$[ebp]
  0001a	56		 push	 esi
  0001b	ff 75 14	 push	 DWORD PTR __Ptr$[ebp]
  0001e	57		 push	 edi
  0001f	e8 00 00 00 00	 call	 _memcpy
  00024	83 c4 18	 add	 esp, 24			; 00000018H

; 506  : 		_Left = _Right;

  00027	c6 04 37 00	 mov	 BYTE PTR [edi+esi], 0
  0002b	5f		 pop	 edi
  0002c	5e		 pop	 esi
; File c:\program files (x86)\microsoft visual studio\2017\professional\vc\tools\msvc\14.16.27023\include\xstring

; 2587 : 			}, _Ptr, _Count));

  0002d	5d		 pop	 ebp
  0002e	c2 14 00	 ret	 20			; 00000014H
??R<lambda_ab246b20b9526e2ef7792587e4298a77>@@QBE@QADQBDI1I@Z ENDP ; <lambda_ab246b20b9526e2ef7792587e4298a77>::operator()
_TEXT	ENDS
; Function compile flags: /Ogtp
; File c:\program files (x86)\microsoft visual studio\2017\professional\vc\tools\msvc\14.16.27023\include\xstring
; File c:\program files (x86)\microsoft visual studio\2017\professional\vc\tools\msvc\14.16.27023\include\xstddef
; File c:\program files (x86)\microsoft visual studio\2017\professional\vc\tools\msvc\14.16.27023\include\xstring
; File c:\program files (x86)\microsoft visual studio\2017\professional\vc\tools\msvc\14.16.27023\include\iosfwd
; File c:\program files (x86)\microsoft visual studio\2017\professional\vc\tools\msvc\14.16.27023\include\xstring
; File c:\program files (x86)\microsoft visual studio\2017\professional\vc\tools\msvc\14.16.27023\include\utility
; File c:\program files (x86)\microsoft visual studio\2017\professional\vc\tools\msvc\14.16.27023\include\xstring
; File c:\program files (x86)\microsoft visual studio\2017\professional\vc\tools\msvc\14.16.27023\include\utility
; File c:\program files (x86)\microsoft visual studio\2017\professional\vc\tools\msvc\14.16.27023\include\xstring
; File c:\program files (x86)\microsoft visual studio\2017\professional\vc\tools\msvc\14.16.27023\include\xmemory0
; File c:\program files (x86)\microsoft visual studio\2017\professional\vc\tools\msvc\14.16.27023\include\xstring
; File c:\program files (x86)\microsoft visual studio\2017\professional\vc\tools\msvc\14.16.27023\include\xmemory0
; File c:\program files (x86)\microsoft visual studio\2017\professional\vc\tools\msvc\14.16.27023\include\iosfwd
; File c:\program files (x86)\microsoft visual studio\2017\professional\vc\tools\msvc\14.16.27023\include\xstring
; File c:\program files (x86)\microsoft visual studio\2017\professional\vc\tools\msvc\14.16.27023\include\iosfwd
; File c:\program files (x86)\microsoft visual studio\2017\professional\vc\tools\msvc\14.16.27023\include\xstring
; File c:\program files (x86)\microsoft visual studio\2017\professional\vc\tools\msvc\14.16.27023\include\xmemory0
; File c:\program files (x86)\microsoft visual studio\2017\professional\vc\tools\msvc\14.16.27023\include\xstring
;	COMDAT ?_Construct_lv_contents@?$basic_string@DU?$char_traits@D@std@@V?$allocator@D@2@@std@@QAEXABV12@@Z
_TEXT	SEGMENT
__New_capacity$1$ = 8					; size = 4
__Right$ = 8						; size = 4
?_Construct_lv_contents@?$basic_string@DU?$char_traits@D@std@@V?$allocator@D@2@@std@@QAEXABV12@@Z PROC ; std::basic_string<char,std::char_traits<char>,std::allocator<char> >::_Construct_lv_contents, COMDAT
; _this$ = ecx

; 2394 : 		{	// assign by copying data stored in _Right

  00000	55		 push	 ebp
  00001	8b ec		 mov	 ebp, esp
  00003	53		 push	 ebx
  00004	56		 push	 esi

; 2395 : 			// pre: this != &_Right
; 2396 : 			// pre: *this owns no memory, iterators orphaned (note: _Buf/_Ptr/_Mysize/_Myres may be garbage init)
; 2397 : 		auto& _My_data = this->_Get_data();
; 2398 : 		auto& _Right_data = _Right._Get_data();
; 2399 : 		const size_type _Right_size = _Right_data._Mysize;

  00005	8b 75 08	 mov	 esi, DWORD PTR __Right$[ebp]
  00008	57		 push	 edi
  00009	8b f9		 mov	 edi, ecx

; 1825 : 		return (_BUF_SIZE <= _Myres);

  0000b	83 7e 14 10	 cmp	 DWORD PTR [esi+20], 16	; 00000010H

; 2395 : 			// pre: this != &_Right
; 2396 : 			// pre: *this owns no memory, iterators orphaned (note: _Buf/_Ptr/_Mysize/_Myres may be garbage init)
; 2397 : 		auto& _My_data = this->_Get_data();
; 2398 : 		auto& _Right_data = _Right._Get_data();
; 2399 : 		const size_type _Right_size = _Right_data._Mysize;

  0000f	8b 5e 10	 mov	 ebx, DWORD PTR [esi+16]

; 1815 : 		if (_Large_string_engaged())

  00012	72 02		 jb	 SHORT $LN13@Construct_
; File c:\program files (x86)\microsoft visual studio\2017\professional\vc\tools\msvc\14.16.27023\include\xstddef

; 346  : 	return (_Ptr);

  00014	8b 36		 mov	 esi, DWORD PTR [esi]
$LN13@Construct_:
; File c:\program files (x86)\microsoft visual studio\2017\professional\vc\tools\msvc\14.16.27023\include\xstring

; 2401 : 		if (_Right_size < this->_BUF_SIZE)

  00016	83 fb 10	 cmp	 ebx, 16			; 00000010H
  00019	73 17		 jae	 SHORT $LN2@Construct_
; File c:\program files (x86)\microsoft visual studio\2017\professional\vc\tools\msvc\14.16.27023\include\iosfwd

; 471  : 		return (static_cast<char *>(_CSTD memcpy(_First1, _First2, _Count)));

  0001b	0f 10 06	 movups	 xmm0, XMMWORD PTR [esi]
  0001e	0f 11 07	 movups	 XMMWORD PTR [edi], xmm0
; File c:\program files (x86)\microsoft visual studio\2017\professional\vc\tools\msvc\14.16.27023\include\xstring

; 2416 : 		}

  00021	89 5f 10	 mov	 DWORD PTR [edi+16], ebx
  00024	c7 47 14 0f 00
	00 00		 mov	 DWORD PTR [edi+20], 15	; 0000000fH
  0002b	5f		 pop	 edi
  0002c	5e		 pop	 esi
  0002d	5b		 pop	 ebx
  0002e	5d		 pop	 ebp
  0002f	c2 04 00	 ret	 4
$LN2@Construct_:

; 2410 : 		const size_type _New_capacity = _Min_value(_Right_size | this->_ALLOC_MASK, max_size());

  00032	8b c3		 mov	 eax, ebx
; File c:\program files (x86)\microsoft visual studio\2017\professional\vc\tools\msvc\14.16.27023\include\utility

; 24   : 	return (_Right < _Left ? _Right : _Left);

  00034	b9 ff ff ff 7f	 mov	 ecx, 2147483647		; 7fffffffH
; File c:\program files (x86)\microsoft visual studio\2017\professional\vc\tools\msvc\14.16.27023\include\xstring

; 2410 : 		const size_type _New_capacity = _Min_value(_Right_size | this->_ALLOC_MASK, max_size());

  00039	83 c8 0f	 or	 eax, 15			; 0000000fH
; File c:\program files (x86)\microsoft visual studio\2017\professional\vc\tools\msvc\14.16.27023\include\utility

; 24   : 	return (_Right < _Left ? _Right : _Left);

  0003c	3b c1		 cmp	 eax, ecx
  0003e	0f 47 c1	 cmova	 eax, ecx
  00041	89 45 08	 mov	 DWORD PTR __New_capacity$1$[ebp], eax
; File c:\program files (x86)\microsoft visual studio\2017\professional\vc\tools\msvc\14.16.27023\include\xstring

; 2411 : 		const pointer _New_array = _Al.allocate(_New_capacity + 1); // throws

  00044	8d 48 01	 lea	 ecx, DWORD PTR [eax+1]
; File c:\program files (x86)\microsoft visual studio\2017\professional\vc\tools\msvc\14.16.27023\include\xmemory0

; 182  : 	if (_Bytes >= _Big_allocation_threshold)

  00047	81 f9 00 10 00
	00		 cmp	 ecx, 4096		; 00001000H
  0004d	72 23		 jb	 SHORT $LN46@Construct_

; 93   : 	size_t _Block_size = _Non_user_size + _Bytes;

  0004f	8d 41 23	 lea	 eax, DWORD PTR [ecx+35]

; 94   : 	if (_Block_size <= _Bytes)

  00052	83 ca ff	 or	 edx, -1
  00055	3b c1		 cmp	 eax, ecx
  00057	0f 46 c2	 cmovbe	 eax, edx

; 52   : 		return (::operator new(_Bytes));

  0005a	50		 push	 eax
  0005b	e8 00 00 00 00	 call	 ??2@YAPAXI@Z		; operator new
  00060	83 c4 04	 add	 esp, 4

; 101  : 	_STL_VERIFY(_Ptr_container != 0, "invalid argument");	// validate even in release since we're doing p[-1]

  00063	85 c0		 test	 eax, eax
  00065	74 3e		 je	 SHORT $LN55@Construct_

; 102  : 	void * const _Ptr = reinterpret_cast<void *>((_Ptr_container + _Non_user_size)
; 103  : 		& ~(_Big_allocation_alignment - 1));

  00067	8d 48 23	 lea	 ecx, DWORD PTR [eax+35]
  0006a	83 e1 e0	 and	 ecx, -32		; ffffffe0H

; 104  : 	static_cast<uintptr_t *>(_Ptr)[-1] = _Ptr_container;

  0006d	89 41 fc	 mov	 DWORD PTR [ecx-4], eax

; 184  : 		return (_Allocate_manually_vector_aligned<_Traits>(_Bytes));

  00070	eb 13		 jmp	 SHORT $LN45@Construct_
$LN46@Construct_:

; 185  : 		}
; 186  :  #endif /* defined(_M_IX86) || defined(_M_X64) */
; 187  : 
; 188  : 	if (_Bytes != 0)

  00072	85 c9		 test	 ecx, ecx
  00074	74 0d		 je	 SHORT $LN47@Construct_

; 52   : 		return (::operator new(_Bytes));

  00076	51		 push	 ecx
  00077	e8 00 00 00 00	 call	 ??2@YAPAXI@Z		; operator new
  0007c	83 c4 04	 add	 esp, 4

; 190  : 		return (_Traits::_Allocate(_Bytes));

  0007f	8b c8		 mov	 ecx, eax
  00081	eb 02		 jmp	 SHORT $LN45@Construct_
$LN47@Construct_:

; 191  : 		}
; 192  : 
; 193  : 	return (nullptr);

  00083	33 c9		 xor	 ecx, ecx
$LN45@Construct_:
; File c:\program files (x86)\microsoft visual studio\2017\professional\vc\tools\msvc\14.16.27023\include\xstring

; 2413 : 		_Traits::copy(_Unfancy(_New_array), _Right_ptr, _Right_size + 1);

  00085	8d 43 01	 lea	 eax, DWORD PTR [ebx+1]
; File c:\program files (x86)\microsoft visual studio\2017\professional\vc\tools\msvc\14.16.27023\include\xmemory0

; 879  : 		{	// construct _Objty(_Types...) at _Ptr

  00088	89 0f		 mov	 DWORD PTR [edi], ecx
; File c:\program files (x86)\microsoft visual studio\2017\professional\vc\tools\msvc\14.16.27023\include\iosfwd

; 471  : 		return (static_cast<char *>(_CSTD memcpy(_First1, _First2, _Count)));

  0008a	50		 push	 eax
  0008b	56		 push	 esi
  0008c	51		 push	 ecx
  0008d	e8 00 00 00 00	 call	 _memcpy
; File c:\program files (x86)\microsoft visual studio\2017\professional\vc\tools\msvc\14.16.27023\include\xstring

; 2415 : 		_My_data._Myres = _New_capacity;

  00092	8b 45 08	 mov	 eax, DWORD PTR __New_capacity$1$[ebp]
; File c:\program files (x86)\microsoft visual studio\2017\professional\vc\tools\msvc\14.16.27023\include\iosfwd

; 471  : 		return (static_cast<char *>(_CSTD memcpy(_First1, _First2, _Count)));

  00095	83 c4 0c	 add	 esp, 12			; 0000000cH
; File c:\program files (x86)\microsoft visual studio\2017\professional\vc\tools\msvc\14.16.27023\include\xstring

; 2416 : 		}

  00098	89 5f 10	 mov	 DWORD PTR [edi+16], ebx
  0009b	89 47 14	 mov	 DWORD PTR [edi+20], eax
  0009e	5f		 pop	 edi
  0009f	5e		 pop	 esi
  000a0	5b		 pop	 ebx
  000a1	5d		 pop	 ebp
  000a2	c2 04 00	 ret	 4
$LN55@Construct_:
; File c:\program files (x86)\microsoft visual studio\2017\professional\vc\tools\msvc\14.16.27023\include\xmemory0

; 101  : 	_STL_VERIFY(_Ptr_container != 0, "invalid argument");	// validate even in release since we're doing p[-1]

  000a5	e8 00 00 00 00	 call	 __invalid_parameter_noinfo_noreturn
$LN79@Construct_:
  000aa	cc		 int	 3
?_Construct_lv_contents@?$basic_string@DU?$char_traits@D@std@@V?$allocator@D@2@@std@@QAEXABV12@@Z ENDP ; std::basic_string<char,std::char_traits<char>,std::allocator<char> >::_Construct_lv_contents
_TEXT	ENDS
; Function compile flags: /Ogtp
; File c:\program files (x86)\microsoft visual studio\2017\professional\vc\tools\msvc\14.16.27023\include\xstring
; File c:\program files (x86)\microsoft visual studio\2017\professional\vc\tools\msvc\14.16.27023\include\iosfwd
; File c:\program files (x86)\microsoft visual studio\2017\professional\vc\tools\msvc\14.16.27023\include\xstring
;	COMDAT ?_Assign_rv_contents_with_alloc_always_equal@?$basic_string@DU?$char_traits@D@std@@V?$allocator@D@2@@std@@QAEX$$QAV12@U?$integral_constant@_N$00@2@@Z
_TEXT	SEGMENT
__Right$ = 8						; size = 4
___formal$ = 12						; size = 1
?_Assign_rv_contents_with_alloc_always_equal@?$basic_string@DU?$char_traits@D@std@@V?$allocator@D@2@@std@@QAEX$$QAV12@U?$integral_constant@_N$00@2@@Z PROC ; std::basic_string<char,std::char_traits<char>,std::allocator<char> >::_Assign_rv_contents_with_alloc_always_equal, COMDAT
; _this$ = ecx

; 2344 : 		{	// assign by stealing _Right's buffer, memcpy optimization

  00000	55		 push	 ebp
  00001	8b ec		 mov	 ebp, esp

; 2345 : 			// pre: this != &_Right
; 2346 : 			// pre: allocator propagation (POCMA) from _Right, if necessary, is complete
; 2347 : 			// pre: *this owns no memory, iterators orphaned (note: _Buf/_Ptr/_Mysize/_Myres may be garbage init)
; 2348 : 		auto& _Right_data = _Right._Get_data();
; 2349 : 
; 2350 : #if _ITERATOR_DEBUG_LEVEL != 0
; 2351 : 		if (_Right_data._Large_string_engaged())
; 2352 : 			{	// take ownership of _Right's iterators along with its buffer
; 2353 : 			this->_Swap_all(_Right);
; 2354 : 			}
; 2355 : 		else
; 2356 : 			{
; 2357 : 			_Right._Orphan_all();
; 2358 : 			}
; 2359 : #endif /* _ITERATOR_DEBUG_LEVEL != 0 */
; 2360 : 
; 2361 : 		const auto _My_data_mem = reinterpret_cast<unsigned char *>(_STD addressof(this->_Get_data()))
; 2362 : 			+ _Memcpy_move_offset;
; 2363 : 		const auto _Right_data_mem = reinterpret_cast<unsigned char *>(_STD addressof(_Right_data))
; 2364 : 			+ _Memcpy_move_offset;
; 2365 : 		_CSTD memcpy(_My_data_mem, _Right_data_mem, _Memcpy_move_size);

  00003	8b 45 08	 mov	 eax, DWORD PTR __Right$[ebp]
  00006	0f 10 00	 movups	 xmm0, XMMWORD PTR [eax]
  00009	0f 11 01	 movups	 XMMWORD PTR [ecx], xmm0
  0000c	f3 0f 7e 40 10	 movq	 xmm0, QWORD PTR [eax+16]
  00011	66 0f d6 41 10	 movq	 QWORD PTR [ecx+16], xmm0

; 3976 : 		_My_data._Mysize = 0;

  00016	c7 40 10 00 00
	00 00		 mov	 DWORD PTR [eax+16], 0

; 3977 : 		_My_data._Myres = this->_BUF_SIZE - 1;

  0001d	c7 40 14 0f 00
	00 00		 mov	 DWORD PTR [eax+20], 15	; 0000000fH
; File c:\program files (x86)\microsoft visual studio\2017\professional\vc\tools\msvc\14.16.27023\include\iosfwd

; 506  : 		_Left = _Right;

  00024	c6 00 00	 mov	 BYTE PTR [eax], 0
; File c:\program files (x86)\microsoft visual studio\2017\professional\vc\tools\msvc\14.16.27023\include\xstring

; 2367 : 		}

  00027	5d		 pop	 ebp
  00028	c2 08 00	 ret	 8
?_Assign_rv_contents_with_alloc_always_equal@?$basic_string@DU?$char_traits@D@std@@V?$allocator@D@2@@std@@QAEX$$QAV12@U?$integral_constant@_N$00@2@@Z ENDP ; std::basic_string<char,std::char_traits<char>,std::allocator<char> >::_Assign_rv_contents_with_alloc_always_equal
_TEXT	ENDS
; Function compile flags: /Ogtp
; File c:\program files (x86)\microsoft visual studio\2017\professional\vc\tools\msvc\14.16.27023\include\xmemory0
;	COMDAT ?allocate@?$allocator@D@std@@QAEPADI@Z
_TEXT	SEGMENT
__Count$ = 8						; size = 4
?allocate@?$allocator@D@std@@QAEPADI@Z PROC		; std::allocator<char>::allocate, COMDAT
; _this$dead$ = ecx

; 996  : 		{	// allocate array of _Count elements

  00000	55		 push	 ebp
  00001	8b ec		 mov	 ebp, esp

; 182  : 	if (_Bytes >= _Big_allocation_threshold)

  00003	8b 4d 08	 mov	 ecx, DWORD PTR __Count$[ebp]
  00006	81 f9 00 10 00
	00		 cmp	 ecx, 4096		; 00001000H
  0000c	72 27		 jb	 SHORT $LN6@allocate

; 93   : 	size_t _Block_size = _Non_user_size + _Bytes;

  0000e	8d 41 23	 lea	 eax, DWORD PTR [ecx+35]

; 94   : 	if (_Block_size <= _Bytes)

  00011	83 ca ff	 or	 edx, -1
  00014	3b c1		 cmp	 eax, ecx
  00016	0f 46 c2	 cmovbe	 eax, edx

; 52   : 		return (::operator new(_Bytes));

  00019	50		 push	 eax
  0001a	e8 00 00 00 00	 call	 ??2@YAPAXI@Z		; operator new

; 100  : 	const uintptr_t _Ptr_container = reinterpret_cast<uintptr_t>(_Traits::_Allocate(_Block_size));

  0001f	8b c8		 mov	 ecx, eax

; 52   : 		return (::operator new(_Bytes));

  00021	83 c4 04	 add	 esp, 4

; 101  : 	_STL_VERIFY(_Ptr_container != 0, "invalid argument");	// validate even in release since we're doing p[-1]

  00024	85 c9		 test	 ecx, ecx
  00026	74 24		 je	 SHORT $LN15@allocate

; 102  : 	void * const _Ptr = reinterpret_cast<void *>((_Ptr_container + _Non_user_size)
; 103  : 		& ~(_Big_allocation_alignment - 1));

  00028	8d 41 23	 lea	 eax, DWORD PTR [ecx+35]
  0002b	83 e0 e0	 and	 eax, -32		; ffffffe0H

; 104  : 	static_cast<uintptr_t *>(_Ptr)[-1] = _Ptr_container;

  0002e	89 48 fc	 mov	 DWORD PTR [eax-4], ecx

; 997  : 		return (static_cast<_Ty *>(_Allocate<_New_alignof<_Ty>>(_Get_size_of_n<sizeof(_Ty)>(_Count))));
; 998  : 		}

  00031	5d		 pop	 ebp
  00032	c2 04 00	 ret	 4
$LN6@allocate:

; 188  : 	if (_Bytes != 0)

  00035	85 c9		 test	 ecx, ecx
  00037	74 0d		 je	 SHORT $LN7@allocate

; 52   : 		return (::operator new(_Bytes));

  00039	51		 push	 ecx
  0003a	e8 00 00 00 00	 call	 ??2@YAPAXI@Z		; operator new
  0003f	83 c4 04	 add	 esp, 4

; 997  : 		return (static_cast<_Ty *>(_Allocate<_New_alignof<_Ty>>(_Get_size_of_n<sizeof(_Ty)>(_Count))));
; 998  : 		}

  00042	5d		 pop	 ebp
  00043	c2 04 00	 ret	 4
$LN7@allocate:

; 193  : 	return (nullptr);

  00046	33 c0		 xor	 eax, eax

; 997  : 		return (static_cast<_Ty *>(_Allocate<_New_alignof<_Ty>>(_Get_size_of_n<sizeof(_Ty)>(_Count))));
; 998  : 		}

  00048	5d		 pop	 ebp
  00049	c2 04 00	 ret	 4
$LN15@allocate:

; 101  : 	_STL_VERIFY(_Ptr_container != 0, "invalid argument");	// validate even in release since we're doing p[-1]

  0004c	e8 00 00 00 00	 call	 __invalid_parameter_noinfo_noreturn
$LN26@allocate:
  00051	cc		 int	 3
?allocate@?$allocator@D@std@@QAEPADI@Z ENDP		; std::allocator<char>::allocate
_TEXT	ENDS
; Function compile flags: /Ogtp
; File c:\program files (x86)\microsoft visual studio\2017\professional\vc\tools\msvc\14.16.27023\include\xmemory0
;	COMDAT ?deallocate@?$allocator@D@std@@QAEXQADI@Z
_TEXT	SEGMENT
__Ptr$ = 8						; size = 4
__Count$ = 12						; size = 4
?deallocate@?$allocator@D@std@@QAEXQADI@Z PROC		; std::allocator<char>::deallocate, COMDAT
; _this$dead$ = ecx

; 990  : 		{	// deallocate object at _Ptr

  00000	55		 push	 ebp
  00001	8b ec		 mov	 ebp, esp

; 991  : 		// no overflow check on the following multiply; we assume _Allocate did that check
; 992  : 		_Deallocate<_New_alignof<_Ty>>(_Ptr, sizeof(_Ty) * _Count);

  00003	8b 4d 0c	 mov	 ecx, DWORD PTR __Count$[ebp]
  00006	8b 45 08	 mov	 eax, DWORD PTR __Ptr$[ebp]

; 201  : 	if (_Bytes >= _Big_allocation_threshold)

  00009	81 f9 00 10 00
	00		 cmp	 ecx, 4096		; 00001000H
  0000f	72 12		 jb	 SHORT $LN15@deallocate

; 118  : 	const uintptr_t _Ptr_container = _Ptr_user[-1];

  00011	8b 50 fc	 mov	 edx, DWORD PTR [eax-4]
  00014	83 c1 23	 add	 ecx, 35			; 00000023H

; 119  : 
; 120  : 	// If the following asserts, it likely means that we are performing
; 121  : 	// an aligned delete on memory coming from an unaligned allocation.
; 122  : 	_STL_ASSERT(_Ptr_user[-2] == _Big_allocation_sentinel, "invalid argument");
; 123  : 
; 124  : 	// Extra paranoia on aligned allocation/deallocation; ensure _Ptr_container is
; 125  : 	// in range [_Min_back_shift, _Non_user_size]
; 126  :   #ifdef _DEBUG
; 127  : 	constexpr uintptr_t _Min_back_shift = 2 * sizeof(void *);
; 128  :   #else /* ^^^ _DEBUG ^^^ // vvv !_DEBUG vvv */
; 129  : 	constexpr uintptr_t _Min_back_shift = sizeof(void *);
; 130  :   #endif /* _DEBUG */
; 131  : 	const uintptr_t _Back_shift = reinterpret_cast<uintptr_t>(_Ptr) - _Ptr_container;

  00017	2b c2		 sub	 eax, edx

; 132  : 	_STL_VERIFY(_Back_shift >= _Min_back_shift && _Back_shift <= _Non_user_size, "invalid argument");

  00019	83 c0 fc	 add	 eax, -4			; fffffffcH
  0001c	83 f8 1f	 cmp	 eax, 31			; 0000001fH
  0001f	77 10		 ja	 SHORT $LN12@deallocate

; 133  : 	_Ptr = reinterpret_cast<void *>(_Ptr_container);

  00021	8b c2		 mov	 eax, edx
$LN15@deallocate:

; 207  : 	::operator delete(_Ptr, _Bytes);

  00023	51		 push	 ecx
  00024	50		 push	 eax
  00025	e8 00 00 00 00	 call	 ??3@YAXPAXI@Z		; operator delete
  0002a	83 c4 08	 add	 esp, 8

; 993  : 		}

  0002d	5d		 pop	 ebp
  0002e	c2 08 00	 ret	 8
$LN12@deallocate:

; 132  : 	_STL_VERIFY(_Back_shift >= _Min_back_shift && _Back_shift <= _Non_user_size, "invalid argument");

  00031	e8 00 00 00 00	 call	 __invalid_parameter_noinfo_noreturn
$LN18@deallocate:
  00036	cc		 int	 3
?deallocate@?$allocator@D@std@@QAEXQADI@Z ENDP		; std::allocator<char>::deallocate
_TEXT	ENDS
; Function compile flags: /Ogtp
; File c:\program files (x86)\microsoft visual studio\2017\professional\vc\tools\msvc\14.16.27023\include\xutility
;	COMDAT ?_Get_first@?$_Compressed_pair@V?$allocator@V?$basic_string@DU?$char_traits@D@std@@V?$allocator@D@2@@std@@@std@@V?$_Vector_val@U?$_Simple_types@V?$basic_string@DU?$char_traits@D@std@@V?$allocator@D@2@@std@@@std@@@2@$00@std@@QBEABV?$allocator@V?$basic_string@DU?$char_traits@D@std@@V?$allocator@D@2@@std@@@2@XZ
_TEXT	SEGMENT
?_Get_first@?$_Compressed_pair@V?$allocator@V?$basic_string@DU?$char_traits@D@std@@V?$allocator@D@2@@std@@@std@@V?$_Vector_val@U?$_Simple_types@V?$basic_string@DU?$char_traits@D@std@@V?$allocator@D@2@@std@@@std@@@2@$00@std@@QBEABV?$allocator@V?$basic_string@DU?$char_traits@D@std@@V?$allocator@D@2@@std@@@2@XZ PROC ; std::_Compressed_pair<std::allocator<std::basic_string<char,std::char_traits<char>,std::allocator<char> > >,std::_Vector_val<std::_Simple_types<std::basic_string<char,std::char_traits<char>,std::allocator<char> > > >,1>::_Get_first, COMDAT
; _this$ = ecx

; 297  : 		return (*this);

  00000	8b c1		 mov	 eax, ecx

; 298  : 		}

  00002	c3		 ret	 0
?_Get_first@?$_Compressed_pair@V?$allocator@V?$basic_string@DU?$char_traits@D@std@@V?$allocator@D@2@@std@@@std@@V?$_Vector_val@U?$_Simple_types@V?$basic_string@DU?$char_traits@D@std@@V?$allocator@D@2@@std@@@std@@@2@$00@std@@QBEABV?$allocator@V?$basic_string@DU?$char_traits@D@std@@V?$allocator@D@2@@std@@@2@XZ ENDP ; std::_Compressed_pair<std::allocator<std::basic_string<char,std::char_traits<char>,std::allocator<char> > >,std::_Vector_val<std::_Simple_types<std::basic_string<char,std::char_traits<char>,std::allocator<char> > > >,1>::_Get_first
_TEXT	ENDS
; Function compile flags: /Ogtp
; File c:\program files (x86)\microsoft visual studio\2017\professional\vc\tools\msvc\14.16.27023\include\xutility
;	COMDAT ?_Get_first@?$_Compressed_pair@V?$allocator@V?$basic_string@DU?$char_traits@D@std@@V?$allocator@D@2@@std@@@std@@V?$_Vector_val@U?$_Simple_types@V?$basic_string@DU?$char_traits@D@std@@V?$allocator@D@2@@std@@@std@@@2@$00@std@@QAEAAV?$allocator@V?$basic_string@DU?$char_traits@D@std@@V?$allocator@D@2@@std@@@2@XZ
_TEXT	SEGMENT
?_Get_first@?$_Compressed_pair@V?$allocator@V?$basic_string@DU?$char_traits@D@std@@V?$allocator@D@2@@std@@@std@@V?$_Vector_val@U?$_Simple_types@V?$basic_string@DU?$char_traits@D@std@@V?$allocator@D@2@@std@@@std@@@2@$00@std@@QAEAAV?$allocator@V?$basic_string@DU?$char_traits@D@std@@V?$allocator@D@2@@std@@@2@XZ PROC ; std::_Compressed_pair<std::allocator<std::basic_string<char,std::char_traits<char>,std::allocator<char> > >,std::_Vector_val<std::_Simple_types<std::basic_string<char,std::char_traits<char>,std::allocator<char> > > >,1>::_Get_first, COMDAT
; _this$ = ecx

; 292  : 		return (*this);

  00000	8b c1		 mov	 eax, ecx

; 293  : 		}

  00002	c3		 ret	 0
?_Get_first@?$_Compressed_pair@V?$allocator@V?$basic_string@DU?$char_traits@D@std@@V?$allocator@D@2@@std@@@std@@V?$_Vector_val@U?$_Simple_types@V?$basic_string@DU?$char_traits@D@std@@V?$allocator@D@2@@std@@@std@@@2@$00@std@@QAEAAV?$allocator@V?$basic_string@DU?$char_traits@D@std@@V?$allocator@D@2@@std@@@2@XZ ENDP ; std::_Compressed_pair<std::allocator<std::basic_string<char,std::char_traits<char>,std::allocator<char> > >,std::_Vector_val<std::_Simple_types<std::basic_string<char,std::char_traits<char>,std::allocator<char> > > >,1>::_Get_first
_TEXT	ENDS
; Function compile flags: /Ogtp
; File c:\program files (x86)\microsoft visual studio\2017\professional\vc\tools\msvc\14.16.27023\include\vector
;	COMDAT ?_Myend@?$_Vector_alloc@U?$_Vec_base_types@V?$basic_string@DU?$char_traits@D@std@@V?$allocator@D@2@@std@@V?$allocator@V?$basic_string@DU?$char_traits@D@std@@V?$allocator@D@2@@std@@@2@@std@@@std@@QBEABQAV?$basic_string@DU?$char_traits@D@std@@V?$allocator@D@2@@2@XZ
_TEXT	SEGMENT
?_Myend@?$_Vector_alloc@U?$_Vec_base_types@V?$basic_string@DU?$char_traits@D@std@@V?$allocator@D@2@@std@@V?$allocator@V?$basic_string@DU?$char_traits@D@std@@V?$allocator@D@2@@std@@@2@@std@@@std@@QBEABQAV?$basic_string@DU?$char_traits@D@std@@V?$allocator@D@2@@2@XZ PROC ; std::_Vector_alloc<std::_Vec_base_types<std::basic_string<char,std::char_traits<char>,std::allocator<char> >,std::allocator<std::basic_string<char,std::char_traits<char>,std::allocator<char> > > > >::_Myend, COMDAT
; _this$ = ecx

; 601  : 		return (_Get_data()._Myend);

  00000	8d 41 08	 lea	 eax, DWORD PTR [ecx+8]

; 602  : 		}

  00003	c3		 ret	 0
?_Myend@?$_Vector_alloc@U?$_Vec_base_types@V?$basic_string@DU?$char_traits@D@std@@V?$allocator@D@2@@std@@V?$allocator@V?$basic_string@DU?$char_traits@D@std@@V?$allocator@D@2@@std@@@2@@std@@@std@@QBEABQAV?$basic_string@DU?$char_traits@D@std@@V?$allocator@D@2@@2@XZ ENDP ; std::_Vector_alloc<std::_Vec_base_types<std::basic_string<char,std::char_traits<char>,std::allocator<char> >,std::allocator<std::basic_string<char,std::char_traits<char>,std::allocator<char> > > > >::_Myend
_TEXT	ENDS
; Function compile flags: /Ogtp
; File c:\program files (x86)\microsoft visual studio\2017\professional\vc\tools\msvc\14.16.27023\include\vector
;	COMDAT ?_Myend@?$_Vector_alloc@U?$_Vec_base_types@V?$basic_string@DU?$char_traits@D@std@@V?$allocator@D@2@@std@@V?$allocator@V?$basic_string@DU?$char_traits@D@std@@V?$allocator@D@2@@std@@@2@@std@@@std@@QAEAAPAV?$basic_string@DU?$char_traits@D@std@@V?$allocator@D@2@@2@XZ
_TEXT	SEGMENT
?_Myend@?$_Vector_alloc@U?$_Vec_base_types@V?$basic_string@DU?$char_traits@D@std@@V?$allocator@D@2@@std@@V?$allocator@V?$basic_string@DU?$char_traits@D@std@@V?$allocator@D@2@@std@@@2@@std@@@std@@QAEAAPAV?$basic_string@DU?$char_traits@D@std@@V?$allocator@D@2@@2@XZ PROC ; std::_Vector_alloc<std::_Vec_base_types<std::basic_string<char,std::char_traits<char>,std::allocator<char> >,std::allocator<std::basic_string<char,std::char_traits<char>,std::allocator<char> > > > >::_Myend, COMDAT
; _this$ = ecx

; 596  : 		return (_Get_data()._Myend);

  00000	8d 41 08	 lea	 eax, DWORD PTR [ecx+8]

; 597  : 		}

  00003	c3		 ret	 0
?_Myend@?$_Vector_alloc@U?$_Vec_base_types@V?$basic_string@DU?$char_traits@D@std@@V?$allocator@D@2@@std@@V?$allocator@V?$basic_string@DU?$char_traits@D@std@@V?$allocator@D@2@@std@@@2@@std@@@std@@QAEAAPAV?$basic_string@DU?$char_traits@D@std@@V?$allocator@D@2@@2@XZ ENDP ; std::_Vector_alloc<std::_Vec_base_types<std::basic_string<char,std::char_traits<char>,std::allocator<char> >,std::allocator<std::basic_string<char,std::char_traits<char>,std::allocator<char> > > > >::_Myend
_TEXT	ENDS
; Function compile flags: /Ogtp
; File c:\program files (x86)\microsoft visual studio\2017\professional\vc\tools\msvc\14.16.27023\include\vector
;	COMDAT ?_Get_data@?$_Vector_alloc@U?$_Vec_base_types@V?$basic_string@DU?$char_traits@D@std@@V?$allocator@D@2@@std@@V?$allocator@V?$basic_string@DU?$char_traits@D@std@@V?$allocator@D@2@@std@@@2@@std@@@std@@QBEABV?$_Vector_val@U?$_Simple_types@V?$basic_string@DU?$char_traits@D@std@@V?$allocator@D@2@@std@@@std@@@2@XZ
_TEXT	SEGMENT
?_Get_data@?$_Vector_alloc@U?$_Vec_base_types@V?$basic_string@DU?$char_traits@D@std@@V?$allocator@D@2@@std@@V?$allocator@V?$basic_string@DU?$char_traits@D@std@@V?$allocator@D@2@@std@@@2@@std@@@std@@QBEABV?$_Vector_val@U?$_Simple_types@V?$basic_string@DU?$char_traits@D@std@@V?$allocator@D@2@@std@@@std@@@2@XZ PROC ; std::_Vector_alloc<std::_Vec_base_types<std::basic_string<char,std::char_traits<char>,std::allocator<char> >,std::allocator<std::basic_string<char,std::char_traits<char>,std::allocator<char> > > > >::_Get_data, COMDAT
; _this$ = ecx

; 560  : 		return (_Mypair._Get_second());

  00000	8b c1		 mov	 eax, ecx

; 561  : 		}

  00002	c3		 ret	 0
?_Get_data@?$_Vector_alloc@U?$_Vec_base_types@V?$basic_string@DU?$char_traits@D@std@@V?$allocator@D@2@@std@@V?$allocator@V?$basic_string@DU?$char_traits@D@std@@V?$allocator@D@2@@std@@@2@@std@@@std@@QBEABV?$_Vector_val@U?$_Simple_types@V?$basic_string@DU?$char_traits@D@std@@V?$allocator@D@2@@std@@@std@@@2@XZ ENDP ; std::_Vector_alloc<std::_Vec_base_types<std::basic_string<char,std::char_traits<char>,std::allocator<char> >,std::allocator<std::basic_string<char,std::char_traits<char>,std::allocator<char> > > > >::_Get_data
_TEXT	ENDS
; Function compile flags: /Ogtp
; File c:\program files (x86)\microsoft visual studio\2017\professional\vc\tools\msvc\14.16.27023\include\vector
;	COMDAT ?_Get_data@?$_Vector_alloc@U?$_Vec_base_types@V?$basic_string@DU?$char_traits@D@std@@V?$allocator@D@2@@std@@V?$allocator@V?$basic_string@DU?$char_traits@D@std@@V?$allocator@D@2@@std@@@2@@std@@@std@@QAEAAV?$_Vector_val@U?$_Simple_types@V?$basic_string@DU?$char_traits@D@std@@V?$allocator@D@2@@std@@@std@@@2@XZ
_TEXT	SEGMENT
?_Get_data@?$_Vector_alloc@U?$_Vec_base_types@V?$basic_string@DU?$char_traits@D@std@@V?$allocator@D@2@@std@@V?$allocator@V?$basic_string@DU?$char_traits@D@std@@V?$allocator@D@2@@std@@@2@@std@@@std@@QAEAAV?$_Vector_val@U?$_Simple_types@V?$basic_string@DU?$char_traits@D@std@@V?$allocator@D@2@@std@@@std@@@2@XZ PROC ; std::_Vector_alloc<std::_Vec_base_types<std::basic_string<char,std::char_traits<char>,std::allocator<char> >,std::allocator<std::basic_string<char,std::char_traits<char>,std::allocator<char> > > > >::_Get_data, COMDAT
; _this$ = ecx

; 555  : 		return (_Mypair._Get_second());

  00000	8b c1		 mov	 eax, ecx

; 556  : 		}

  00002	c3		 ret	 0
?_Get_data@?$_Vector_alloc@U?$_Vec_base_types@V?$basic_string@DU?$char_traits@D@std@@V?$allocator@D@2@@std@@V?$allocator@V?$basic_string@DU?$char_traits@D@std@@V?$allocator@D@2@@std@@@2@@std@@@std@@QAEAAV?$_Vector_val@U?$_Simple_types@V?$basic_string@DU?$char_traits@D@std@@V?$allocator@D@2@@std@@@std@@@2@XZ ENDP ; std::_Vector_alloc<std::_Vec_base_types<std::basic_string<char,std::char_traits<char>,std::allocator<char> >,std::allocator<std::basic_string<char,std::char_traits<char>,std::allocator<char> > > > >::_Get_data
_TEXT	ENDS
; Function compile flags: /Ogtp
; File c:\program files (x86)\microsoft visual studio\2017\professional\vc\tools\msvc\14.16.27023\include\vector
;	COMDAT ?capacity@?$vector@V?$basic_string@DU?$char_traits@D@std@@V?$allocator@D@2@@std@@V?$allocator@V?$basic_string@DU?$char_traits@D@std@@V?$allocator@D@2@@std@@@2@@std@@QBEIXZ
_TEXT	SEGMENT
?capacity@?$vector@V?$basic_string@DU?$char_traits@D@std@@V?$allocator@D@2@@std@@V?$allocator@V?$basic_string@DU?$char_traits@D@std@@V?$allocator@D@2@@std@@@2@@std@@QBEIXZ PROC ; std::vector<std::basic_string<char,std::char_traits<char>,std::allocator<char> >,std::allocator<std::basic_string<char,std::char_traits<char>,std::allocator<char> > > >::capacity, COMDAT
; _this$ = ecx

; 1715 : 		return (static_cast<size_type>(this->_Myend() - this->_Myfirst()));

  00000	8b 51 08	 mov	 edx, DWORD PTR [ecx+8]
  00003	b8 ab aa aa 2a	 mov	 eax, 715827883		; 2aaaaaabH
  00008	2b 11		 sub	 edx, DWORD PTR [ecx]
  0000a	f7 ea		 imul	 edx
  0000c	c1 fa 02	 sar	 edx, 2
  0000f	8b c2		 mov	 eax, edx
  00011	c1 e8 1f	 shr	 eax, 31			; 0000001fH
  00014	03 c2		 add	 eax, edx

; 1716 : 		}

  00016	c3		 ret	 0
?capacity@?$vector@V?$basic_string@DU?$char_traits@D@std@@V?$allocator@D@2@@std@@V?$allocator@V?$basic_string@DU?$char_traits@D@std@@V?$allocator@D@2@@std@@@2@@std@@QBEIXZ ENDP ; std::vector<std::basic_string<char,std::char_traits<char>,std::allocator<char> >,std::allocator<std::basic_string<char,std::char_traits<char>,std::allocator<char> > > >::capacity
_TEXT	ENDS
; Function compile flags: /Ogtp
; File c:\program files (x86)\microsoft visual studio\2017\professional\vc\tools\msvc\14.16.27023\include\xmemory0
;	COMDAT ?deallocate@?$allocator@V?$basic_string@DU?$char_traits@D@std@@V?$allocator@D@2@@std@@@std@@QAEXQAV?$basic_string@DU?$char_traits@D@std@@V?$allocator@D@2@@2@I@Z
_TEXT	SEGMENT
__Ptr$ = 8						; size = 4
__Count$ = 12						; size = 4
?deallocate@?$allocator@V?$basic_string@DU?$char_traits@D@std@@V?$allocator@D@2@@std@@@std@@QAEXQAV?$basic_string@DU?$char_traits@D@std@@V?$allocator@D@2@@2@I@Z PROC ; std::allocator<std::basic_string<char,std::char_traits<char>,std::allocator<char> > >::deallocate, COMDAT
; _this$dead$ = ecx

; 990  : 		{	// deallocate object at _Ptr

  00000	55		 push	 ebp
  00001	8b ec		 mov	 ebp, esp

; 991  : 		// no overflow check on the following multiply; we assume _Allocate did that check
; 992  : 		_Deallocate<_New_alignof<_Ty>>(_Ptr, sizeof(_Ty) * _Count);

  00003	8b 45 0c	 mov	 eax, DWORD PTR __Count$[ebp]
  00006	8d 0c 40	 lea	 ecx, DWORD PTR [eax+eax*2]
  00009	8b 45 08	 mov	 eax, DWORD PTR __Ptr$[ebp]
  0000c	c1 e1 03	 shl	 ecx, 3

; 201  : 	if (_Bytes >= _Big_allocation_threshold)

  0000f	81 f9 00 10 00
	00		 cmp	 ecx, 4096		; 00001000H
  00015	72 12		 jb	 SHORT $LN15@deallocate

; 118  : 	const uintptr_t _Ptr_container = _Ptr_user[-1];

  00017	8b 50 fc	 mov	 edx, DWORD PTR [eax-4]
  0001a	83 c1 23	 add	 ecx, 35			; 00000023H

; 119  : 
; 120  : 	// If the following asserts, it likely means that we are performing
; 121  : 	// an aligned delete on memory coming from an unaligned allocation.
; 122  : 	_STL_ASSERT(_Ptr_user[-2] == _Big_allocation_sentinel, "invalid argument");
; 123  : 
; 124  : 	// Extra paranoia on aligned allocation/deallocation; ensure _Ptr_container is
; 125  : 	// in range [_Min_back_shift, _Non_user_size]
; 126  :   #ifdef _DEBUG
; 127  : 	constexpr uintptr_t _Min_back_shift = 2 * sizeof(void *);
; 128  :   #else /* ^^^ _DEBUG ^^^ // vvv !_DEBUG vvv */
; 129  : 	constexpr uintptr_t _Min_back_shift = sizeof(void *);
; 130  :   #endif /* _DEBUG */
; 131  : 	const uintptr_t _Back_shift = reinterpret_cast<uintptr_t>(_Ptr) - _Ptr_container;

  0001d	2b c2		 sub	 eax, edx

; 132  : 	_STL_VERIFY(_Back_shift >= _Min_back_shift && _Back_shift <= _Non_user_size, "invalid argument");

  0001f	83 c0 fc	 add	 eax, -4			; fffffffcH
  00022	83 f8 1f	 cmp	 eax, 31			; 0000001fH
  00025	77 10		 ja	 SHORT $LN12@deallocate

; 133  : 	_Ptr = reinterpret_cast<void *>(_Ptr_container);

  00027	8b c2		 mov	 eax, edx
$LN15@deallocate:

; 207  : 	::operator delete(_Ptr, _Bytes);

  00029	51		 push	 ecx
  0002a	50		 push	 eax
  0002b	e8 00 00 00 00	 call	 ??3@YAXPAXI@Z		; operator delete
  00030	83 c4 08	 add	 esp, 8

; 993  : 		}

  00033	5d		 pop	 ebp
  00034	c2 08 00	 ret	 8
$LN12@deallocate:

; 132  : 	_STL_VERIFY(_Back_shift >= _Min_back_shift && _Back_shift <= _Non_user_size, "invalid argument");

  00037	e8 00 00 00 00	 call	 __invalid_parameter_noinfo_noreturn
$LN18@deallocate:
  0003c	cc		 int	 3
?deallocate@?$allocator@V?$basic_string@DU?$char_traits@D@std@@V?$allocator@D@2@@std@@@std@@QAEXQAV?$basic_string@DU?$char_traits@D@std@@V?$allocator@D@2@@2@I@Z ENDP ; std::allocator<std::basic_string<char,std::char_traits<char>,std::allocator<char> > >::deallocate
_TEXT	ENDS
; Function compile flags: /Ogtp
; File c:\program files (x86)\microsoft visual studio\2017\professional\vc\tools\msvc\14.16.27023\include\xutility
;	COMDAT ?_Get_second@?$_Compressed_pair@V?$allocator@D@std@@V?$_String_val@U?$_Simple_types@D@std@@@2@$00@std@@QBEABV?$_String_val@U?$_Simple_types@D@std@@@2@XZ
_TEXT	SEGMENT
?_Get_second@?$_Compressed_pair@V?$allocator@D@std@@V?$_String_val@U?$_Simple_types@D@std@@@2@$00@std@@QBEABV?$_String_val@U?$_Simple_types@D@std@@@2@XZ PROC ; std::_Compressed_pair<std::allocator<char>,std::_String_val<std::_Simple_types<char> >,1>::_Get_second, COMDAT
; _this$ = ecx

; 307  : 		return (_Myval2);

  00000	8b c1		 mov	 eax, ecx

; 308  : 		}

  00002	c3		 ret	 0
?_Get_second@?$_Compressed_pair@V?$allocator@D@std@@V?$_String_val@U?$_Simple_types@D@std@@@2@$00@std@@QBEABV?$_String_val@U?$_Simple_types@D@std@@@2@XZ ENDP ; std::_Compressed_pair<std::allocator<char>,std::_String_val<std::_Simple_types<char> >,1>::_Get_second
_TEXT	ENDS
; Function compile flags: /Ogtp
; File c:\program files (x86)\microsoft visual studio\2017\professional\vc\tools\msvc\14.16.27023\include\xutility
;	COMDAT ?_Get_second@?$_Compressed_pair@V?$allocator@D@std@@V?$_String_val@U?$_Simple_types@D@std@@@2@$00@std@@QAEAAV?$_String_val@U?$_Simple_types@D@std@@@2@XZ
_TEXT	SEGMENT
