; Listing generated by Microsoft (R) Optimizing Compiler Version 19.16.27031.1 

	TITLE	c:\users\giulif\downloads\study\git\sysstatus\sysstatus.cpp
	.686P
	.XMM
	include listing.inc
	.model	flat

INCLUDELIB OLDNAMES

PUBLIC	??_C@_0BC@EOODALEL@Unknown?5exception@		; `string'
PUBLIC	??_C@_0CE@OFCPEEHM@YUEN?5DA?5ELECTRONIC?5PRODUCTS?5FAC@ ; `string'
PUBLIC	??_C@_0N@BBHAKCFP@FOOSUNG?5TECH@		; `string'
PUBLIC	??_C@_0CI@BDHNOJJE@Universal?5Electronics?5Inc?4?5?$CIDBA@ ; `string'
PUBLIC	??_C@_0BC@ELLAHEBO@Atmel?5Corporation@		; `string'
PUBLIC	??_C@_07LAHLPDGH@Mitsumi@			; `string'
PUBLIC	??_C@_0BA@GKDJMMLL@Hewlett?5Packard@		; `string'
PUBLIC	??_C@_0BF@CMFLPPM@M31?5Technology?5Corp?4@	; `string'
PUBLIC	??_C@_0BD@NBCHGNBK@Liteconn?5Co?4?0?5Ltd?4@	; `string'
PUBLIC	??_C@_0CM@FLONKIJ@Sanwin?5?$CIHK?$CJ?5Electronic?5Technolo@ ; `string'
PUBLIC	??_C@_0CO@FLHPAOCE@Suzhou?5WEIJU?5Electronics?5Techno@ ; `string'
PUBLIC	??_C@_0BB@MGJGOJNE@Mondokey?5Limited@		; `string'
PUBLIC	??_C@_0BG@DEOCBHFP@Advantest?5Corporation@	; `string'
PUBLIC	??_C@_0BD@JJJMEBLG@iRobot?5Corporation@		; `string'
PUBLIC	??_C@_0CF@LNNLJKDF@Shenzhen?5Huiding?5Technology?5Co?4@ ; `string'
PUBLIC	??_C@_0BM@MEJFLCNJ@Elitegroup?5Computer?5Systems@ ; `string'
PUBLIC	??_C@_0BK@GHOGMBAO@VERTU?5Corporation?5Limited@	; `string'
PUBLIC	??_C@_0P@NCBHMFI@Sibridge?5Tech?4@		; `string'
PUBLIC	??_C@_0CA@HCOKNFP@Presidium?5Instruments?5Pte?4?5Ltd?4@ ; `string'
PUBLIC	??_C@_0DA@NLEDAFLA@Future?5Technology?5Devices?5Inter@ ; `string'
PUBLIC	??_C@_0BD@FGPOPKKG@Power?5Integrations@		; `string'
PUBLIC	??_C@_0CG@GMANIEBL@HIGH?5TEK?5HARNESS?5ENTERPRISE?5CO?4@ ; `string'
PUBLIC	??_C@_0CM@MILEOKEB@Astronics?5Advanced?5Electronic?5S@ ; `string'
PUBLIC	??_C@_0CN@LEICPGF@Yangtze?5Optical?5Fibre?5and?5Cable@ ; `string'
PUBLIC	??_C@_0BH@KGNDOHL@Full?5in?5Hope?5Co?4?0?5Ltd?4@ ; `string'
PUBLIC	??_C@_0BF@PKMDPELO@Quanta?5Computer?5Inc?4@	; `string'
PUBLIC	??_C@_0CB@MNOLJHMM@Viconn?5Technology?5?$CIHK?$CJ?5Co?4?0?5Ltd@ ; `string'
PUBLIC	??_C@_0BA@KPLBOCAE@NEC?5Corporation@		; `string'
PUBLIC	??_C@_0DF@KBADGJOK@BIOMATIQUES?5IDENTIFICATION?5SOLU@ ; `string'
PUBLIC	??_C@_0CM@LNOFLHEK@Cabletech?5Electronics?5?$CIHong?5Kon@ ; `string'
PUBLIC	??_C@_0CJ@PLPMOAKE@Beijing?5Jinke?5XinAn?5Technology?5@ ; `string'
PUBLIC	??_C@_0BE@MHLNPDBP@Black?5Diamond?5Video@	; `string'
PUBLIC	??_C@_0BH@LEHBDMGE@VIA?5Technologies?0?5Inc?4@	; `string'
PUBLIC	??_C@_0L@KHHADJK@Quantec?5SA@			; `string'
PUBLIC	??_C@_0BJ@HBMJFDNE@Seeed?5Technology?5Limited@	; `string'
PUBLIC	??_C@_09ILDBIJFO@Specwerkz@			; `string'
PUBLIC	??_C@_0BB@DMJKNCDK@MCCI?5Corporation@		; `string'
PUBLIC	??_C@_0BB@NAOLNMKN@mce?9systems?5Ltd?4@		; `string'
PUBLIC	??_C@_0BH@CAOGFENG@Voxx?5Accessories?5Corp?4@	; `string'
PUBLIC	??_C@_08JBDBNMBO@Hovercam@			; `string'
PUBLIC	??_C@_0CM@GPMPJMPK@TTAF?5Elektronik?5Sanayi?5ve?5Ticar@ ; `string'
PUBLIC	??_C@_0BH@IDHICNHG@SDJ?5Technologies?0?5Inc?4@	; `string'
PUBLIC	??_C@_0BN@BBBBJNLH@Accumetrics?5Associates?0?5Inc?4@ ; `string'
PUBLIC	??_C@_0BF@FBKKDMPD@Tyrian?5Systems?0?5Inc?4@	; `string'
PUBLIC	??_C@_0BM@FAMHIABA@Esselte?5Leitz?5GmbH?5?$CG?5Co?4?5KG@ ; `string'
PUBLIC	??_C@_0BP@CCGHLJI@Meadowlark?5Optics?5Incorporated@ ; `string'
PUBLIC	??_C@_0M@EIJFGOMC@E?9SEEK?5Inc?4@		; `string'
PUBLIC	??_C@_0N@HBBMPLAJ@BUFFALO?5INC?4@		; `string'
PUBLIC	??_C@_0BL@DCMLCELG@Realta?5Entertainment?5Group@ ; `string'
PUBLIC	??_C@_0BB@BHCNLHHB@Zynaptic?5Limited@		; `string'
PUBLIC	??_C@_0CA@OLPMAFK@Sharkbay?5Technologies?5Pte?4?5Ltd?4@ ; `string'
PUBLIC	??_C@_0BJ@HPLMDDDJ@Pleora?5Technologies?5Inc?4@	; `string'
PUBLIC	??_C@_0BJ@NACMFIML@Vitetech?5Int?8l?5Co?4?0?5Ltd?4@ ; `string'
PUBLIC	??_C@_0DE@PGCKDINF@ShenZhen?5Innovate?9link?5Precisio@ ; `string'
PUBLIC	??_C@_0BP@EJPGPDCC@Giga?9Byte?5Technology?5Co?4?0?5Ltd?4@ ; `string'
PUBLIC	??_C@_0P@DNCLHBIA@ULTRACHIP?5Inc?4@		; `string'
PUBLIC	??_C@_0CJ@CCPKGHJO@DongGuan?5City?5DHE?5Wire?5?$CG?5Cable?5@ ; `string'
PUBLIC	??_C@_0BP@OGAADAEC@SMARTMATIC?5INTERNATIONAL?5CORP?4@ ; `string'
PUBLIC	??_C@_0DD@EONFGNA@Changzhou?5Shi?5Wujin?5Miqi?5East?5E@ ; `string'
PUBLIC	??_C@_0BA@BCGCCHNK@FTK?5Corporation@		; `string'
PUBLIC	??_C@_0CJ@DBDKKFKI@Golden?5Transmart?5International?5@ ; `string'
PUBLIC	??_C@_0BG@CAKHPFKP@Electrogamez?5USA?5Inc?4@	; `string'
PUBLIC	??_C@_0BF@COFMCAMA@Tekron?5International@	; `string'
PUBLIC	??_C@_0BB@HMDKKJBN@Panda?5Ocean?5Inc?4@		; `string'
PUBLIC	??_C@_0CG@KMAMPINN@Shenzhen?5Ourconn?5Technology?5Co?4@ ; `string'
PUBLIC	??_C@_0CD@DIFILODO@G?4SKILL?5Int?8l?5Enterprice?5Co?4?0?5L@ ; `string'
PUBLIC	??_C@_0BJ@BBLEBCKI@Nuvoton?5Technology?5Corp?4@	; `string'
PUBLIC	??_C@_0CI@PBJBEILB@Surplus?5Electronic?5Technology?5C@ ; `string'
PUBLIC	??_C@_0CH@DHPPNOKD@Apollo?5Electrical?5Technology?5Co@ ; `string'
PUBLIC	??_C@_08FIAKBIJJ@MEP?5TECH@			; `string'
PUBLIC	??_C@_0O@FGAHHGKD@BIAMP?5SYSTEMS@		; `string'
PUBLIC	??_C@_0BO@KAAEKANB@Glyph?5Production?5Technologies@ ; `string'
PUBLIC	??_C@_0CL@IOFNGFIH@Dongguan?5City?5Guangye?5Electroni@ ; `string'
PUBLIC	??_C@_0DE@MBFKODKB@SHEN?5ZHEN?5SHI?5YUAN?5AI?5HARDWARE?5@ ; `string'
PUBLIC	??_C@_0BC@NCPGFKEN@Sonoma?5Wire?5Works@		; `string'
PUBLIC	??_C@_0M@DMBLDCEB@iProtoXi?5Oy@			; `string'
PUBLIC	??_C@_0BL@JLOLHNCB@Shin?5Hwa?5Contech?5Co?4?0?5Ltd?4@ ; `string'
PUBLIC	??_C@_0BL@HNBOMKEI@Marquardt?5Mechatronik?5GmbH@ ; `string'
PUBLIC	??_C@_0O@GPHCMPGC@MIRAENANOTECH@		; `string'
PUBLIC	??_C@_0BI@BOMOIKOC@Charon?5Technologies?5LLC@	; `string'
PUBLIC	??_C@_0BH@GLGOEHJJ@iDea?5USA?5Products?5Inc?4@	; `string'
PUBLIC	??_C@_0BD@JGINGPIL@Masimo?5Corporation@		; `string'
PUBLIC	??_C@_0O@ICLJDKCA@Mimetics?5Inc?4@		; `string'
PUBLIC	??_C@_0CD@LNMEEJMI@Shenzhen?5Sen5?5Technology?5Co?4?0?5L@ ; `string'
PUBLIC	??_C@_0BH@PIIGLOJL@Active?5Mind?5Technology@	; `string'
PUBLIC	??_C@_0CJ@HIEOMNPE@IBCONN?5Technologies?5?$CIShenzhen?$CJ?5@ ; `string'
PUBLIC	??_C@_0L@DOPCHCHO@Fugoo?5Inc?4@			; `string'
PUBLIC	??_C@_0BC@JGPKGMHA@Teladin?5Co?4?0?5Ltd?4@	; `string'
PUBLIC	??_C@_0BD@CKJDNNGP@Kent?5Displays?5Inc?4@	; `string'
PUBLIC	??_C@_0BM@CJNOHFGM@Sage?5Microelectronics?5Corp?4@ ; `string'
PUBLIC	??_C@_0BC@JALGBKPD@Yota?5Devices?5Ltd?4@	; `string'
PUBLIC	??_C@_0CI@HPLDADLK@Pan?5Xin?5Precision?5Electronics?5C@ ; `string'
PUBLIC	??_C@_0CC@ENAAKLLF@Oceanwing?5International?5Co?4?0?5Lt@ ; `string'
PUBLIC	??_C@_0CL@KGCDNOHK@Research?5?$CG?5Development?5Center?5?5@ ; `string'
PUBLIC	??_C@_0CB@MMCLOPLO@Shanghai?5DynamiCode?5Company?5Ltd@ ; `string'
PUBLIC	??_C@_0CO@NHBBDDIH@Dongguan?5Digi?9in?5Digital?5Techno@ ; `string'
PUBLIC	??_C@_06LEANDNHK@Vprime@			; `string'
PUBLIC	??_C@_0O@CDIDDBG@Creative?5Labs@		; `string'
PUBLIC	??_C@_0P@CBINLKCB@GENUSION?0?5Inc?4@		; `string'
PUBLIC	??_C@_0BN@HOAFENMH@Wellitec?5Development?5Limited@ ; `string'
PUBLIC	??_C@_0BD@MJLLIIHL@Ineda?5Systems?5Inc?4@	; `string'
PUBLIC	??_C@_0L@KKIKDNPF@Jolla?5Ltd?4@			; `string'
PUBLIC	??_C@_0BK@KLIICOHE@Peraso?5Technologies?0?5Inc?4@ ; `string'
PUBLIC	??_C@_0CH@LCOLLFLN@Nanjing?5Magewell?5Electronics?5Co@ ; `string'
PUBLIC	??_C@_0M@MCPHKEHG@LEAP?5Motion@			; `string'
PUBLIC	??_C@_0BC@FMELJLJG@Tmax?5Digital?5Inc?4@	; `string'
PUBLIC	??_C@_0BD@BLAKEMMK@The?5SmarTV?5Company@	; `string'
PUBLIC	??_C@_0CH@IJLFKJJB@Shenzhen?5Yiwanda?5Electronics?5Co@ ; `string'
PUBLIC	??_C@_0CA@NNFPJDN@Sanofi?9Aventis?5Deutschland?5GmbH@ ; `string'
PUBLIC	??_C@_0O@DLJLHDNK@SoftLab?5?9?5NSK@		; `string'
PUBLIC	??_C@_09BBHONFCE@ZAGG?5Inc?4@			; `string'
PUBLIC	??_C@_0BC@LOIKONEK@Nokia?5Corporation@		; `string'
PUBLIC	??_C@_0BL@LCIDFNGP@Terminus?5Circuits?5Pvt?5Ltd?4@ ; `string'
PUBLIC	??_C@_0BL@EKMIGECI@Cellwise?5Holding?5Co?4?0?5Ltd?4@ ; `string'
PUBLIC	??_C@_0BJ@OMCAGFMI@SHIH?5HUA?5TECHNOLOGY?5LTD?4@ ; `string'
PUBLIC	??_C@_0BH@NMHMOMNM@Dollar?5Connection?5Ltd?4@	; `string'
PUBLIC	??_C@_0BO@KBNIJBFJ@OBSIDIAN?5RESEARCH?5CORPORATION@ ; `string'
PUBLIC	??_C@_08DNIHDIBM@Inuitive@			; `string'
PUBLIC	??_C@_0BP@IOJCEKJ@ENERMAX?5TECHNOLOGY?5CORPORATION@ ; `string'
PUBLIC	??_C@_0BG@KPGMCBHJ@Britelite?5Enterprises@	; `string'
PUBLIC	??_C@_0BJ@PBJGGOPP@Tecvox?5Connectivity?0?5LLC@	; `string'
PUBLIC	??_C@_0BC@MCIOINLF@Power?5Probe?0?5Inc?4@	; `string'
PUBLIC	??_C@_0M@PLMBFEFA@Miselu?5Inc?4@		; `string'
PUBLIC	??_C@_0O@KKEBBLNP@Wilocity?5Ltd?4@		; `string'
PUBLIC	??_C@_0CK@IDFAGKLM@FingerQ?5Macao?5Commercial?5Offsho@ ; `string'
PUBLIC	??_C@_0N@GMINFFHN@Nitero?0?5Inc?4@		; `string'
PUBLIC	??_C@_0BC@CHFHJJHL@Xacti?5Corporation@		; `string'
PUBLIC	??_C@_0BA@JMLEHFBM@Printrbot?0?5Inc?4@		; `string'
PUBLIC	??_C@_0BB@HFHEPOBE@COMOTA?5Co?4?0?5Ltd?4@	; `string'
PUBLIC	??_C@_0CE@MAEFHCII@Shenzhen?5Zowee?5Technology?5Co?4?0?5@ ; `string'
PUBLIC	??_C@_0CE@JDKPEMPD@Imaging?5Solutions?5Group?5of?5NY?0?5@ ; `string'
PUBLIC	??_C@_0BE@FECCLEDH@Williams?5Sound?0?5LLC@	; `string'
PUBLIC	??_C@_0BK@CMDOPKDP@HashFast?5Technologies?5LLC@	; `string'
PUBLIC	??_C@_0BC@DPKKEBHA@Krypton?5Solutions@		; `string'
PUBLIC	??_C@_0CO@CKMMCADD@Shenzhen?5DTEC?5Electronic?5Techno@ ; `string'
PUBLIC	??_C@_05HMOEOKL@DUALO@				; `string'
PUBLIC	??_C@_0DG@JPDEBJJP@Singeen?5Electronics?5Technologie@ ; `string'
PUBLIC	??_C@_0BK@NLOPDBDL@SHIGA?5MEC?5Company?5Limited@ ; `string'
PUBLIC	??_C@_0BL@ENHANOON@ADPlaus?5Technology?5Limited@ ; `string'
PUBLIC	??_C@_0O@OGFEGMLJ@Choy?8s?5Import@		; `string'
PUBLIC	??_C@_0BD@FMJCOJDA@Unwired?5Technology@		; `string'
PUBLIC	??_C@_0BD@NGPFIJGG@WINTOUCH?5Co?4?0?5Ltd?4@	; `string'
PUBLIC	??_C@_0BE@HIFLHKGA@MESTEC?5Technologies@	; `string'
PUBLIC	??_C@_0CG@NHGMKJBI@Union?5Electric?5Plug?5?$CG?5Connector@ ; `string'
PUBLIC	??_C@_0BH@BMMLIJOO@Tekinvest?5Holding?5Ltd?4@	; `string'
PUBLIC	??_C@_0O@KBLAAA@The?5Eye?5Tribe@		; `string'
PUBLIC	??_C@_0DH@DOJBOOAF@Dongguan?5Haitai?5Precision?5Elect@ ; `string'
PUBLIC	??_C@_0M@HIPFEPEC@Canova?5Tech@			; `string'
PUBLIC	??_C@_0CI@BLMGKMKN@Shenzhen?5Carbetter?5Technology?5C@ ; `string'
PUBLIC	??_C@_0BJ@PABKADHE@PN?5Devices?5Int?8l?5Limited@ ; `string'
PUBLIC	??_C@_0DA@MGMHGHJM@Gowin?5Technology?5International?5@ ; `string'
PUBLIC	??_C@_0P@ONPNMHGL@X?4O?4Ware?0?5Inc?4@		; `string'
PUBLIC	??_C@_0BF@DABAPGE@TOPTICA?5Photonics?5AG@	; `string'
PUBLIC	??_C@_0CP@PHPIBLMN@IMBEL?5?9?5Industria?5de?5Material?5B@ ; `string'
PUBLIC	??_C@_0O@MCBAPFNP@Silicon?5Works@		; `string'
PUBLIC	??_C@_0L@LIDEGHFG@Canopy?5Co?4@			; `string'
PUBLIC	??_C@_06OCAFANDG@TazTag@			; `string'
PUBLIC	??_C@_0CH@IOJGIKGH@Shenzhen?5Jiali?5Asia?5Industry?5Co@ ; `string'
PUBLIC	??_C@_0CD@CCJOOIOC@HANRICO?5ANFU?5ELECTRONICS?5CO?4?0?5L@ ; `string'
PUBLIC	??_C@_0L@JMLDMEEO@Molex?5Inc?4@			; `string'
PUBLIC	??_C@_0BK@BGJHIBOH@Fujitsu?5Component?5Limited@	; `string'
PUBLIC	??_C@_0BH@PDGAJDKJ@Advanced?5Micro?5Devices@	; `string'
PUBLIC	??_C@_0BL@KCFEHCNK@Lexmark?5International?5Inc?4@ ; `string'
PUBLIC	??_C@_0BI@LOPMEJIG@Alps?5Electric?5Co?4?0?5Ltd?4@ ; `string'
PUBLIC	??_C@_0BC@NEDOGEDE@Texas?5Instruments@		; `string'
PUBLIC	??_C@_0CB@JOFOMFLH@Silicon?5Integrated?5Systems?5Corp@ ; `string'
PUBLIC	??_C@_0BC@CIDHCDNI@KYE?5Systems?5Corp?4@	; `string'
PUBLIC	??_C@_0BK@EAFCJGLH@Renesas?5Electronics?5Corp?4@ ; `string'
PUBLIC	??_C@_0BG@EOBPLLNH@Microsoft?5Corporation@	; `string'
PUBLIC	??_C@_0BD@CABKABLN@Primax?5Electronics@		; `string'
PUBLIC	??_C@_05CFGIIEPJ@EATON@				; `string'
PUBLIC	??_C@_0BO@JJGMGNMK@Wieson?5Technologies?5Co?4?0?5Ltd?4@ ; `string'
PUBLIC	??_C@_0BE@JEFPHDAK@American?5Megatrends@	; `string'
PUBLIC	??_C@_0O@NMJDEFAN@Logitech?5Inc?4@		; `string'
PUBLIC	??_C@_0BE@FBFHEDN@Semtech?5Corporation@		; `string'
PUBLIC	??_C@_0BA@JMLOFGEB@LSI?5Corporation@		; `string'
PUBLIC	??_C@_0BC@JKCENOI@Plantronics?0?5Inc?4@		; `string'
PUBLIC	??_C@_0BE@OKFLBHJF@Kyocera?5Corporation@	; `string'
PUBLIC	??_C@_0BD@KBJBCOHP@STMicroelectronics@		; `string'
PUBLIC	??_C@_0BC@OEHDDJBP@Foxconn?5?1?5Hon?5Hai@	; `string'
PUBLIC	??_C@_0O@KONCBIDB@ITE?5Tech?5Inc?4@		; `string'
PUBLIC	??_C@_0BM@FKEBEEJL@Samsung?5Semiconductor?0?5Inc?4@ ; `string'
PUBLIC	??_C@_0BD@LBNNEMMM@Yamaha?5Corporation@		; `string'
PUBLIC	??_C@_0O@EDCNNFOI@Hitachi?0?5Ltd?4@		; `string'
PUBLIC	??_C@_09OEADKIBB@Visioneer@			; `string'
PUBLIC	??_C@_0L@GLDEECEB@Canon?5Inc?4@			; `string'
PUBLIC	??_C@_0BC@GNNADKEG@Nikon?5Corporation@		; `string'
PUBLIC	??_C@_0BC@HJPMHLJH@Pan?5International@		; `string'
PUBLIC	??_C@_0BG@FGCLJBBL@Cypress?5Semiconductor@	; `string'
PUBLIC	??_C@_0P@POFNKNIM@ROHM?5Co?4?0?5Ltd?4@		; `string'
PUBLIC	??_C@_0BJ@IBBFBLCL@Compal?5Electronics?0?5Inc?4@ ; `string'
PUBLIC	??_C@_0BC@LODEJCJJ@Seiko?5Epson?5Corp?4@	; `string'
PUBLIC	??_C@_0BG@NAOBNEME@I?9O?5Data?5Device?0?5Inc?4@	; `string'
PUBLIC	??_C@_0N@MFGIPGKK@Fujitsu?5Ltd?4@		; `string'
PUBLIC	??_C@_0BF@DGJHAIHG@FUJIFILM?5Corporation@	; `string'
PUBLIC	??_C@_0M@CIDIGMJE@ST?9Ericsson@			; `string'
PUBLIC	??_C@_0BA@BIJNEFLL@Mentor?5Graphics@		; `string'
PUBLIC	??_C@_0BK@GLLPJAAH@Microchip?5Technology?5Inc?4@ ; `string'
PUBLIC	??_C@_0BL@BJMPMCDF@Holtek?5Semiconductor?0?5Inc?4@ ; `string'
PUBLIC	??_C@_0BG@HPBJICLA@Panasonic?5Corporation@	; `string'
PUBLIC	??_C@_0BC@NGIIFMHF@Sharp?5Corporation@		; `string'
PUBLIC	??_C@_0BB@LFOEADKM@Exar?5Corporation@		; `string'
PUBLIC	??_C@_0BE@OGMMMEDN@Identive?5Group?5Inc?4@	; `string'
PUBLIC	??_C@_0BO@CGAOADOO@Samsung?5Electronics?5Co?4?0?5Ltd?4@ ; `string'
PUBLIC	??_C@_0BO@EFCPDDGG@Tokyo?5Electron?5Device?5Limited@ ; `string'
PUBLIC	??_C@_0BO@DEPAFADD@Chicony?5Electronics?5Co?4?0?5Ltd?4@ ; `string'
PUBLIC	??_C@_0BI@JIJDPPMO@Newnex?5Technology?5Corp?4@	; `string'
PUBLIC	??_C@_0BJ@LIIOOGBH@Brother?5Industries?0?5Ltd?4@ ; `string'
PUBLIC	??_C@_0M@LAOEDIBA@PFU?5Limited@			; `string'
PUBLIC	??_C@_0N@HPKDLJPE@Fujikura?1DDK@		; `string'
PUBLIC	??_C@_0L@IBNCPFMK@Acer?0?5Inc?4@		; `string'
PUBLIC	??_C@_0BE@OMIFCFDP@Hosiden?5Corporation@	; `string'
PUBLIC	??_C@_0BL@EOOICECH@Belkin?5International?0?5Inc?4@ ; `string'
PUBLIC	??_C@_0CG@MHMGALMF@Longwell?5Electronics?1Longwell?5C@ ; `string'
PUBLIC	??_C@_0BI@IEJECICL@Star?5Micronics?5Co?4?0?5LTD@ ; `string'
PUBLIC	??_C@_0BK@CJECLAIC@American?5Power?5Conversion@	; `string'
PUBLIC	??_C@_0CH@IKHGDMKC@Taiwan?5Semiconductor?5Manufactur@ ; `string'
PUBLIC	??_C@_0BP@MPHIFDML@ACON?0?5Advanced?9Connectek?0?5Inc?4@ ; `string'
PUBLIC	??_C@_0BF@OEIMDHJB@PLX?5Technology?0?5Inc?4@	; `string'
PUBLIC	??_C@_0BH@OKBFFENA@Wacom?5Technology?5Corp?4@	; `string'
PUBLIC	??_C@_0P@JMAENH@Synopsys?0?5Inc?4@		; `string'
PUBLIC	??_C@_0BB@FOPBDEC@Sony?5Corporation@		; `string'
PUBLIC	??_C@_0BF@BLKLAKEJ@Fuji?5Xerox?5Co?4?0?5Ltd?4@	; `string'
PUBLIC	??_C@_0BM@FGPDBDMF@ATEN?5International?5Co?4?5Ltd?4@ ; `string'
PUBLIC	??_C@_0BN@LLCBPJLE@Cadence?5Design?5Systems?0?5Inc?4@ ; `string'
PUBLIC	??_C@_0BA@PCAMLHGM@WACOM?5Co?4?0?5Ltd?4@	; `string'
PUBLIC	??_C@_0BB@OEOLOEBO@EIZO?5Corporation@		; `string'
PUBLIC	??_C@_0BB@LBOBFJIK@Elecom?5Co?4?0?5Ltd?4@	; `string'
PUBLIC	??_C@_0BH@BPNCPPJL@Conexant?5Systems?0?5Inc?4@	; `string'
PUBLIC	??_C@_0CC@JDHIHHMP@BAFO?1Quality?5Computer?5Accessori@ ; `string'
PUBLIC	??_C@_0P@DLENFJNK@Y?9E?5Data?0?5Inc?4@		; `string'
PUBLIC	??_C@_08DBEKGGBP@AVM?5GmbH@			; `string'
PUBLIC	??_C@_0BD@CDPILELF@Roland?5Corporation@		; `string'
PUBLIC	??_C@_0BE@PNCFOBBM@RATOC?5Systems?0?5Inc?4@	; `string'
PUBLIC	??_C@_0BD@CKEFINHN@Alcor?5Micro?0?5Corp?4@	; `string'
PUBLIC	??_C@_0BC@LGOLJEOJ@OMRON?5Corporation@		; `string'
PUBLIC	??_C@_05EENIFCCI@LaCie@				; `string'
PUBLIC	??_C@_0BO@PALNNPFJ@OmniVision?5Technologies?0?5Inc?4@ ; `string'
PUBLIC	??_C@_05EBJDGKGA@Apple@				; `string'
PUBLIC	??_C@_0BH@BEKADALE@Y?4C?4?5Cable?5U?4S?4A?4?0?5Inc@ ; `string'
PUBLIC	??_C@_0DH@GPJFFKGK@Tyco?5Electronics?5Corp?4?0?5a?5TE?5Co@ ; `string'
PUBLIC	??_C@_0CA@ILGCAFHO@Kawasaki?5Microelectronics?0?5Inc?4@ ; `string'
PUBLIC	??_C@_0O@JJANANCF@Qualcomm?0?5Inc@		; `string'
PUBLIC	??_C@_0CP@IMDHJGED@Foxlink?1Cheng?5Uei?5Precision?5Ind@ ; `string'
PUBLIC	??_C@_0BD@DNOMCPDN@Ricoh?5Company?5Ltd?4@	; `string'
PUBLIC	??_C@_0BM@OADDMKLB@Microtek?5International?5Inc?4@ ; `string'
PUBLIC	??_C@_0BE@JPKFBBCH@Symbol?5Technologies@	; `string'
PUBLIC	??_C@_0BE@CKIEML@Genesys?5Logic?0?5Inc?4@	; `string'
PUBLIC	??_C@_0BI@KBGKOOGJ@Fuji?5Electric?5Co?4?0?5Ltd?4@ ; `string'
PUBLIC	??_C@_0BI@NBAANMIA@Unixtar?5Technology?5Inc?4@	; `string'
PUBLIC	??_C@_0O@FPONFABH@Datalogic?5ADC@		; `string'
PUBLIC	??_C@_0BD@PJDPEADK@LeCroy?5Corporation@		; `string'
PUBLIC	??_C@_0BP@HAMNADII@Novatek?5Microelectronics?5Corp?4@ ; `string'
PUBLIC	??_C@_0BH@LJAJLGJE@SMK?5Manufacturing?5Inc?4@	; `string'
PUBLIC	??_C@_0CE@IBGJKEKA@Joinsoon?5Electronics?5Mfg?4?5Co?4?0?5@ ; `string'
PUBLIC	??_C@_0CD@BNDJFIFN@TransAct?5Technologies?5Incorpora@ ; `string'
PUBLIC	??_C@_0BH@OFHNPHHH@Seiko?5Instruments?5Inc?4@	; `string'
PUBLIC	??_C@_0BE@EBACAFBC@JPC?1MAIN?5SUPER?5Inc?4@	; `string'
PUBLIC	??_C@_0P@GAMNDPPF@Chrontel?0?5Inc?4@		; `string'
PUBLIC	??_C@_0CH@PMGKCBAF@Analog?5Devices?0?5Inc?4?5Developmen@ ; `string'
PUBLIC	??_C@_0BL@EBDNAMPI@Ji?9Haw?5Industrial?5Co?4?0?5Ltd@ ; `string'
PUBLIC	??_C@_0BC@HBOMJHJG@Suyin?5Corporation@		; `string'
PUBLIC	??_C@_0BP@BBNBDGIM@Space?5Shuttle?5Hi?9Tech?5Co?4?0Ltd?4@ ; `string'
PUBLIC	??_C@_0BL@JPOIGLAH@Glory?5Mark?5Electronic?5Ltd?4@ ; `string'
PUBLIC	??_C@_0BJ@HLMOOHDB@Tekcon?5Electronics?5Corp?4@	; `string'
PUBLIC	??_C@_0BE@DBNMJIBL@Sigma?5Designs?0?5Inc?4@	; `string'
PUBLIC	??_C@_0DD@MJJJJEAM@Good?5Way?5Technology?5Co?4?0?5Ltd?4?5?$CG@ ; `string'
PUBLIC	??_C@_0CA@PAFBBAIH@TSAY?9E?5?$CIBVI?$CJ?5International?5Inc?4@ ; `string'
PUBLIC	??_C@_0BJ@PKNBNCAJ@Hamamatsu?5Photonics?5K?4K?4@ ; `string'
PUBLIC	??_C@_0BJ@BPDLABPC@Total?5Technologies?0?5Ltd?4@ ; `string'
PUBLIC	??_C@_0BK@PDKHMLGO@Prolific?5Technology?0?5Inc?4@ ; `string'
PUBLIC	??_C@_09JOKCKELG@Dell?5Inc?4@			; `string'
PUBLIC	??_C@_0BM@LFPCEBHN@Golden?5Bridge?5Electech?5Inc?4@ ; `string'
PUBLIC	??_C@_0BA@EMAGANPI@Tektronix?0?5Inc?4@		; `string'
PUBLIC	??_C@_0CC@NHGJCBNO@Greatland?5Electronics?5Taiwan?5Lt@ ; `string'
PUBLIC	??_C@_0P@DFEICALO@Testronic?5Labs@		; `string'
PUBLIC	??_C@_0BD@MFHNCDAI@Pixela?5Corporation@		; `string'
PUBLIC	??_C@_0BF@KBMIOCIB@Oki?5Data?5Corporation@	; `string'
PUBLIC	??_C@_0BC@PBNHDNIB@Leoco?5Corporation@		; `string'
PUBLIC	??_C@_0BJ@IAMJELKE@Bizlink?5Technology?0?5Inc?4@ ; `string'
PUBLIC	??_C@_0L@IGNPDHHH@SIIG?0?5Inc?4@		; `string'
PUBLIC	??_C@_0P@OJHCGLE@Synaptics?5Inc?4@		; `string'
PUBLIC	??_C@_0CA@FPPDHAGC@Mitsubishi?5Electric?5Corporation@ ; `string'
PUBLIC	??_C@_0BM@BIPBCEJB@Heisei?5Technology?5Co?4?0?5Ltd?4@ ; `string'
PUBLIC	??_C@_0CA@MKILJNBK@Oki?5Electric?5Industry?5Co?4?0?5Ltd?4@ ; `string'
PUBLIC	??_C@_0BM@JIAGMEHO@Comoss?5Electronic?5Co?4?0?5Ltd?4@ ; `string'
PUBLIC	??_C@_0BP@JCFMJDGG@Magic?5Control?5Technology?5Corp?4@ ; `string'
PUBLIC	??_C@_0O@NNOCEOFA@Imation?5Corp?4@		; `string'
PUBLIC	??_C@_0BA@IFGJOCOG@Sunix?5Co?4?0?5Ltd?4@	; `string'
PUBLIC	??_C@_0BL@PJBMJABB@Lorom?5Industrial?5Co?4?0?5Ltd?4@ ; `string'
PUBLIC	??_C@_0BK@PCICHEDF@Cyber?5Power?5Systems?0?5Inc?4@ ; `string'
PUBLIC	??_C@_0CD@HFGLNKOO@Jess?9Link?5Products?5Co?4?0?5Ltd?4?5?$CIJ@ ; `string'
PUBLIC	??_C@_0BA@FCBANMAL@HID?5Global?5GmbH@		; `string'
PUBLIC	??_C@_0BI@OBNCJIEM@Fairchild?5Semiconductor@	; `string'
PUBLIC	??_C@_0BE@KACIGGGG@SanDisk?5Corporation@	; `string'
PUBLIC	??_C@_0CB@LGBOFDFN@Copartner?5Technology?5Corporatio@ ; `string'
PUBLIC	??_C@_0BL@MPFKAMGD@National?5Technical?5Systems@ ; `string'
PUBLIC	??_C@_0O@OCMFCBHB@Plustek?0?5Inc?4@		; `string'
PUBLIC	??_C@_0BE@NJLEDFOB@OLYMPUS?5CORPORATION@	; `string'
PUBLIC	??_C@_0BH@MGBHEDBN@TIME?5Interconnect?5Ltd?4@	; `string'
PUBLIC	??_C@_0BN@EGFACLDP@AVerMedia?5Technologies?0?5Inc?4@ ; `string'
PUBLIC	??_C@_0BL@FNDINGLK@Carry?5Technology?5Co?4?0?5Ltd?4@ ; `string'
PUBLIC	??_C@_0BJ@JKHOIPCI@Casio?5Computer?5Co?4?0?5Ltd?4@ ; `string'
PUBLIC	??_C@_0BJ@ODMCNPPD@Arasan?5Chip?5Systems?5Inc?4@ ; `string'
PUBLIC	??_C@_0CA@BNLONGOH@David?5Electronics?5Company?0?5Ltd?4@ ; `string'
PUBLIC	??_C@_0BE@OPFGKFFJ@Century?5Corporation@	; `string'
PUBLIC	??_C@_0BO@CAINGGKC@Evermuch?5Technology?5Co?4?0?5Ltd?4@ ; `string'
PUBLIC	??_C@_0CB@POAJBKGF@Action?5Star?5Enterprise?5Co?4?0?5Ltd@ ; `string'
PUBLIC	??_C@_0O@COHJMHME@Wipro?5Limited@		; `string'
PUBLIC	??_C@_0BB@CEKEIHLM@MEC?5IMEX?5INC?1HPT@		; `string'
PUBLIC	??_C@_0BA@EMBEKEAB@Lauterbach?5GmbH@		; `string'
PUBLIC	??_C@_0BP@PNBHHOAN@Icron?5Technologies?5Corporation@ ; `string'
PUBLIC	??_C@_0BH@CFIMBAIC@RadioShack?5Corporation@	; `string'
PUBLIC	??_C@_0BO@JNLBBKDI@TAI?5TWUN?5ENTERPRISE?5CO?4?0?5LTD?4@ ; `string'
PUBLIC	??_C@_0M@BEPEDALH@Spyrus?5Inc?4@		; `string'
PUBLIC	??_C@_0BE@PMKDDGDC@Pioneer?5Corporation@	; `string'
PUBLIC	??_C@_0L@NMFIDNE@Gemalto?5SA@			; `string'
PUBLIC	??_C@_0BJ@DEEADHEC@FARADAY?5Technology?5Corp?4@	; `string'
PUBLIC	??_C@_0BF@DGGIOLK@Audio?9Technica?5Corp?4@	; `string'
PUBLIC	??_C@_0BO@BNPBHCJB@Silicon?5Motion?0?5Inc?4?5?9?5Taiwan@ ; `string'
PUBLIC	??_C@_0BF@OCKCLCDJ@Garmin?5International@	; `string'
PUBLIC	??_C@_0BE@JMAMIBAH@Toshiba?5Corporation@	; `string'
PUBLIC	??_C@_0BF@FDMCHING@Pixart?5Imaging?0?5Inc?4@	; `string'
PUBLIC	??_C@_0M@DPPDGGNF@Plextor?5LLC@			; `string'
PUBLIC	??_C@_0BG@PLHGNMC@J?4S?4T?4?5Mfg?4?5Co?4?0?5Ltd?4@ ; `string'
PUBLIC	??_C@_0BM@LKMMOGNE@Kingston?5Technology?5Company@ ; `string'
PUBLIC	??_C@_06HLMMPIBG@NVIDIA@			; `string'
PUBLIC	??_C@_0BL@KLPBIJLK@Agilent?5Technologies?0?5Inc?4@ ; `string'
PUBLIC	??_C@_0BH@DIONPOBP@Medialogic?5Corporation@	; `string'
PUBLIC	??_C@_0O@LKCCNLNO@Polycom?0?5Inc?4@		; `string'
PUBLIC	??_C@_0BH@NHOGNCFH@Contech?5Research?0?5Inc?4@	; `string'
PUBLIC	??_C@_0CA@NGELPCKK@Lin?5Shiung?5Enterprise?5Co?4?0?5Ltd?4@ ; `string'
PUBLIC	??_C@_0BF@PGLGBHIA@Intersil?5Corporation@	; `string'
PUBLIC	??_C@_0BN@OHPOFJEM@Japan?5Cash?5Machine?5Co?4?0?5Ltd?4@ ; `string'
PUBLIC	??_C@_0BC@JHLIIJEE@NISCA?5Corporation@		; `string'
PUBLIC	??_C@_0BE@OJFDPOOK@Workbit?5Corporation@	; `string'
PUBLIC	??_C@_0CD@HNEJNPKP@Electronics?5Testing?5Center?0?5Tai@ ; `string'
PUBLIC	??_C@_0BG@LAHNEDCJ@A?9FOUR?5TECH?5CO?4?0?5LTD?4@ ; `string'
PUBLIC	??_C@_06NEOADGIL@Altera@			; `string'
PUBLIC	??_C@_0BN@HOMOCJPC@Cambridge?5Silicon?5Radio?5Ltd?4@ ; `string'
PUBLIC	??_C@_0BB@HPCCBBBB@HOYA?5Corporation@		; `string'
PUBLIC	??_C@_0BF@EKKNDOHK@Physio?9Control?0?5Inc?4@	; `string'
PUBLIC	??_C@_0BK@IKEGAKKP@Hirose?5Electric?5Co?4?0?5Ltd?4@ ; `string'
PUBLIC	??_C@_0BD@LHJHCFAG@COMPUTEX?5Co?4?0?5Ltd?4@	; `string'
PUBLIC	??_C@_0BN@FBNECLJJ@Mimaki?5Engineering?5Co?4?0?5Ltd?4@ ; `string'
PUBLIC	??_C@_0P@KBOGHGP@Broadcom?5Corp?4@		; `string'
PUBLIC	??_C@_0BG@IJFMHNNO@Green?5House?5Co?4?0?5Ltd?4@	; `string'
PUBLIC	??_C@_0CP@BLIFGEAH@Japan?5Aviation?5Electronics?5Indu@ ; `string'
PUBLIC	??_C@_0BF@BPGMFHBM@Young?5Chang?5Co?4?5Ltd?4@	; `string'
PUBLIC	??_C@_0BM@KFMMGOHA@Wincor?5Nixdorf?5GmbH?5?$CG?5Co?5KG@ ; `string'
PUBLIC	??_C@_0BO@IKBKKFPF@Rohde?5?$CG?5Schwarz?5GmbH?5?$CG?5Co?4?5KG@ ; `string'
PUBLIC	??_C@_0CC@EIBHCLN@SANYO?5Semiconductor?5Company?5Mic@ ; `string'
PUBLIC	??_C@_0BE@HMAJKJ@Vimicro?5Corporation@		; `string'
PUBLIC	??_C@_0BC@MFIELINC@Allion?5Labs?0?5Inc?4@	; `string'
PUBLIC	??_C@_0BG@HEOGBEPO@ASUSTek?5Computer?5Inc?4@	; `string'
PUBLIC	??_C@_0BO@KKOFHFLP@Yokogawa?5Electric?5Corporation@ ; `string'
PUBLIC	??_C@_0BP@IGDJFEE@Pan?9Asia?5Electronics?5Co?4?0?5Ltd?4@ ; `string'
PUBLIC	??_C@_0BJ@MJIIIHDL@Musical?5Electronics?5Ltd?4@	; `string'
PUBLIC	??_C@_0BN@IGCLCEEO@Sinbon?5Electronics?5Co?4?0?5Ltd?4@ ; `string'
PUBLIC	??_C@_0BK@DICOBJHO@Maxim?5Integrated?5Products@	; `string'
PUBLIC	??_C@_0BN@DBGBIANO@ASIX?5Electronics?5Corporation@ ; `string'
PUBLIC	??_C@_0BP@JGDEFBDO@Murata?5Manufacturing?5Co?4?0?5Ltd?4@ ; `string'
PUBLIC	??_C@_0BH@PKPGHPEE@Seagate?5Technology?5LLC@	; `string'
PUBLIC	??_C@_0BM@OODBLDMG@Realtek?5Semiconductor?5Corp?4@ ; `string'
PUBLIC	??_C@_0M@PBGCMNLB@Ericsson?5AB@			; `string'
PUBLIC	??_C@_0BI@GAPKJOJF@Elka?5International?5Ltd?4@	; `string'
PUBLIC	??_C@_0BG@BDCJOHPC@Taiyo?5Yuden?5Co?4?0?5Ltd?4@	; `string'
PUBLIC	??_C@_08EDJBOCE@Aeroflex@			; `string'
PUBLIC	??_C@_0BL@IIBBHDLP@Sonix?5Technology?5Co?4?0?5Ltd?4@ ; `string'
PUBLIC	??_C@_0CA@KMAKLJKD@Dong?5Guan?5Shinko?5Wire?5Co?4?0?5Ltd?4@ ; `string'
PUBLIC	??_C@_0BH@FHGKBINA@Chant?5Sincere?5Co?4?0?5Ltd@	; `string'
PUBLIC	??_C@_0BN@KANEMGNF@Whanam?5Electronics?5Co?4?0?5Ltd?4@ ; `string'
PUBLIC	??_C@_0BN@PNHCHLDH@Solid?5State?5System?5Co?4?0?5Ltd?4@ ; `string'
PUBLIC	??_C@_0BN@KPNGPOOH@Honda?5Tsushin?5Kogyo?5Co?4?0?5Ltd@ ; `string'
PUBLIC	??_C@_0BD@PCKEPBKO@Motorola?5Solutions@		; `string'
PUBLIC	??_C@_0BO@DKFGFGHA@Singatron?5Enterprise?5Co?4?5Ltd?4@ ; `string'
PUBLIC	??_C@_0BM@NGPEIKDH@emsys?5Embedded?5Systems?5GmbH@ ; `string'
PUBLIC	??_C@_0BC@ECMAKMHG@Intel?5Corporation@		; `string'
PUBLIC	??_C@_0L@OACAMJJG@Z?9Com?5INC?4@		; `string'
PUBLIC	??_C@_0BM@OOCFEMN@e?9CONN?5ELECTRONIC?5CO?4?0?5LTD?4@ ; `string'
PUBLIC	??_C@_0BE@KPNEJJKA@ENE?5Technology?5Inc?4@	; `string'
PUBLIC	??_C@_0N@IDKBGBCG@NALTEC?0?5Inc?4@		; `string'
PUBLIC	??_C@_0P@MAHCGCHE@NF?5Corporation@		; `string'
PUBLIC	??_C@_0BD@KEPOILEK@Grape?5Systems?5Inc?4@	; `string'
PUBLIC	??_C@_0BF@GHDJEHFK@Volex?5?$CIAsia?$CJ?5Pte?5Ltd@ ; `string'
PUBLIC	??_C@_0CH@DILBGHLF@MEILU?5ELECTRONICS?5?$CISHENZHEN?$CJ?5CO@ ; `string'
PUBLIC	??_C@_0BH@JNDMIFOJ@Hirakawa?5Hewtech?5Corp?4@	; `string'
PUBLIC	??_C@_0CF@DEKDBPDL@Taiwan?5Line?5Tek?5Electronic?5Co?4?0@ ; `string'
PUBLIC	??_C@_0BI@BKFMOADO@Dolby?5Laboratories?5Inc?4@	; `string'
PUBLIC	??_C@_0BJ@ICKBMN@C?9MEDIA?5ELECTRONICS?5INC?4@	; `string'
PUBLIC	??_C@_0CB@CBEHKKIA@Sure?9Fire?5Electrical?5Corporatio@ ; `string'
PUBLIC	??_C@_0N@BBFDLJEL@IOGEAR?0?5Inc?4@		; `string'
PUBLIC	??_C@_0CD@LDGCJJON@Micro?9Star?5International?5Co?4?0?5L@ ; `string'
PUBLIC	??_C@_0BN@MEJNGPFO@Contek?5Electronics?5Co?4?0?5Ltd?4@ ; `string'
PUBLIC	??_C@_0CH@HKHHADBM@Power?5Quotient?5International?5Co@ ; `string'
PUBLIC	??_C@_0BH@JAOPMIJP@Custom?5Engineering?5SPA@	; `string'
PUBLIC	??_C@_0BO@MECAJMAF@Liou?5Yuane?5International?5Ltd?4@ ; `string'
PUBLIC	??_C@_0CB@BNIAIBOP@Smart?5Modular?5Technologies?0?5Inc@ ; `string'
PUBLIC	??_C@_0DB@OJLHPIE@Shenzhen?5Bao?5Hing?5Electric?5Wire@ ; `string'
PUBLIC	??_C@_0BN@DKLMDFEK@Neltron?5Industrial?5Co?4?0?5Ltd?4@ ; `string'
PUBLIC	??_C@_0BN@PNJNPPHF@Megawin?5Technology?5Co?4?0?5Ltd?4@ ; `string'
PUBLIC	??_C@_0BP@FIEIALAE@Hsi?9Chin?5Electronics?5Co?4?0?5Ltd?4@ ; `string'
PUBLIC	??_C@_0O@DBHJNIK@MediaTek?5Inc?4@		; `string'
PUBLIC	??_C@_03PPOOIEPP@CRU@				; `string'
PUBLIC	??_C@_0BC@PLHJNEDE@ADTEC?5CORPORATION@		; `string'
PUBLIC	??_C@_0BF@LFNPLID@Ours?5Technology?5Inc?4@	; `string'
PUBLIC	??_C@_0BJ@FFOINCNP@Y?9S?5ELECTRONIC?5CO?4?0?5LTD?4@ ; `string'
PUBLIC	??_C@_0BJ@EEJFEJAC@Sweetray?5Industrial?5Ltd?4@	; `string'
PUBLIC	??_C@_0BC@NLMJJEGP@Axell?5Corporation@		; `string'
PUBLIC	??_C@_0BO@HGLIFDP@InnoVISION?5Multimedia?5Limited@ ; `string'
PUBLIC	??_C@_0BN@LAJGACMM@TaiSol?5Electronics?5Co?4?0?5Ltd?4@ ; `string'
PUBLIC	??_C@_0BP@OLFMJOLO@Sunrich?5Technology?5?$CIH?4K?4?$CJ?5Ltd?4@ ; `string'
PUBLIC	??_C@_0CE@LHKAEIDJ@CSL?5Wire?5?$CG?5Plug?5?$CIShen?5Zhen?$CJ?5Com@ ; `string'
PUBLIC	??_C@_0BJ@BFCEICOB@Funai?5Electric?5Co?4?0?5Ltd?4@ ; `string'
PUBLIC	??_C@_0BF@HHKPOBJN@Good?5Man?5Corporation@	; `string'
PUBLIC	??_C@_0CA@JKBEBDIB@YFC?9BonEagle?5Electric?5Co?4?0?5Ltd?4@ ; `string'
PUBLIC	??_C@_0BJ@KJGCCIGG@Nien?9Yi?5Industrial?5Corp?4@ ; `string'
PUBLIC	??_C@_0BL@PCHAGLHO@WORLDWIDE?5CABLE?5OPTO?5CORP?4@ ; `string'
PUBLIC	??_C@_0CA@JJBCDJBC@Taiyo?5Cable?5?$CIDongguan?$CJ?5Co?4?5Ltd?4@ ; `string'
PUBLIC	??_C@_0CJ@GLJCMOOM@Kawai?5Musical?5Instruments?5Mfg?4?5@ ; `string'
PUBLIC	??_C@_0DE@KCDILGEE@GuangZhou?5Chief?5Tech?5Electronic@ ; `string'
PUBLIC	??_C@_0N@CHAEBCC@UQUEST?0?5LTD?4@		; `string'
PUBLIC	??_C@_0BD@KEDKNNLF@Yazaki?5Corporation@		; `string'
PUBLIC	??_C@_0BD@NPCAKEK@CviLux?5Corporation@		; `string'
PUBLIC	??_C@_0BL@OGPLHBON@Sony?5Mobile?5Communications@ ; `string'
PUBLIC	??_C@_0CJ@MNOHKIGC@CHI?5SHING?5COMPUTER?5ACCESSORIES?5@ ; `string'
PUBLIC	??_C@_0BB@FNNKEBO@Speed?5Tech?5Corp?4@		; `string'
PUBLIC	??_C@_0BE@PPCAGGEP@LG?5Electronics?5Inc?4@	; `string'
PUBLIC	??_C@_0BC@KLMPEDJE@Newly?5Corporation@		; `string'
PUBLIC	??_C@_0CB@MAFJOCHL@WENZHOU?5YIHUA?5CONNECTOR?5CO?4?0LTD@ ; `string'
PUBLIC	??_C@_0BL@DIDNCHDM@Targus?5Group?5International@ ; `string'
PUBLIC	??_C@_0BB@MCAPDOMI@ON?5Semiconductor@		; `string'
PUBLIC	??_C@_0CD@OEFJDFLG@Western?5Digital?5Technologies?0?5I@ ; `string'
PUBLIC	??_C@_0DF@EJNCJCJN@Freeway?5Electronic?5Wire?5?$CG?5Cable@ ; `string'
PUBLIC	??_C@_0BH@GGINDOFM@CANON?5ELECTRONICS?5INC?4@	; `string'
PUBLIC	??_C@_0BC@JLIOEOBP@PANTECH?5CO?4?0?5LTD?4@	; `string'
PUBLIC	??_C@_0BP@HEECLKMJ@Grand?9tek?5Technology?5Co?4?0?5Ltd?4@ ; `string'
PUBLIC	??_C@_0BC@MMEHCLPH@Robert?5Bosch?5GmbH@		; `string'
PUBLIC	??_C@_0BA@JBGEKCBJ@Lotes?5Co?4?0?5Ltd?4@	; `string'
PUBLIC	??_C@_0N@MADBCNBC@Cables?5To?5Go@		; `string'
PUBLIC	??_C@_0DB@OABIDDLN@Universal?5Global?5Scientific?5Ind@ ; `string'
PUBLIC	??_C@_0BL@GMIJPDAF@Princeton?5Technology?5Corp?4@ ; `string'
PUBLIC	??_C@_0BL@BEPCHFBK@Silicon?5Laboratories?0?5Inc?4@ ; `string'
PUBLIC	??_C@_0L@BEMBIFEP@Kycon?5Inc?4@			; `string'
PUBLIC	??_C@_0CA@BFJDJKMK@Actions?5Semiconductor?5Co?4?0?5Ltd?4@ ; `string'
PUBLIC	??_C@_09GOLPFLPD@Moxa?5Inc?4@			; `string'
PUBLIC	??_C@_0DF@NDHMOMGK@Golden?5Bright?5?$CISichuan?$CJ?5Electro@ ; `string'
PUBLIC	??_C@_0BK@DEMMBJPB@VSO?5ELECTRONICS?5CO?4?0?5LTD?4@ ; `string'
PUBLIC	??_C@_0CO@HLACDLIC@Master?5Hill?5Electric?5Wire?5and?5C@ ; `string'
PUBLIC	??_C@_0BG@JFAAFJPO@Tenx?5Technology?0?5Inc?4@	; `string'
PUBLIC	??_C@_0BP@NKCLDENL@Alpha?5Imaging?5Technology?5Corp?4@ ; `string'
PUBLIC	??_C@_0CB@BGNNABKD@Sheng?5Yih?5Technologies?5Co?4?0?5Ltd@ ; `string'
PUBLIC	??_C@_0BF@FDIEEFFD@Sierra?5Wireless?5Inc?4@	; `string'
PUBLIC	??_C@_0CG@JCFADKIE@DONG?5GUAN?5JALINK?5ELECTRONICES?5C@ ; `string'
PUBLIC	??_C@_0BH@LNLMLHPJ@GlobalMedia?5Group?0?5LLC@	; `string'
PUBLIC	??_C@_0BH@HFAICOFB@ATECH?5FLASH?5TECHNOLOGY@	; `string'
PUBLIC	??_C@_0BO@MNCEAPFD@SKYCABLE?5ENTERPRISE?5CO?4?0?5LTD?4@ ; `string'
PUBLIC	??_C@_0BI@KKGDFIOD@NYKO?5Technologies?0?5Inc?4@	; `string'
PUBLIC	??_C@_0BL@FCGNNKPJ@ADATA?5Technology?5Co?4?0?5Ltd?4@ ; `string'
PUBLIC	??_C@_0BI@BANJHMOB@Aristocrat?5Technologies@	; `string'
PUBLIC	??_C@_0M@HPCCHOFJ@Bel?5Stewart@			; `string'
PUBLIC	??_C@_0BM@FDHCJPEM@MARVELL?5SEMICONDUCTOR?0?5INC?4@ ; `string'
PUBLIC	??_C@_0BC@CDINJBKA@RISO?5KAGAKU?5CORP?4@	; `string'
PUBLIC	??_C@_0BO@JGPGOHBM@Honey?5Bee?5?$CIHong?5Kong?$CJ?5Limited@ ; `string'
PUBLIC	??_C@_0CP@OPCIAOPO@Zhejiang?5Xinya?5Electronic?5Techn@ ; `string'
PUBLIC	??_C@_0BP@JPNNFCKE@LINE?5TECH?5INDUSTRIAL?5CO?4?0?5LTD?4@ ; `string'
PUBLIC	??_C@_0BN@DKNOJINI@Better?5Holdings?5?$CIHK?$CJ?5Limited@ ; `string'
PUBLIC	??_C@_0BF@FPEFMCEM@Konica?5Minolta?0?5Inc?4@	; `string'
PUBLIC	??_C@_0BP@ODBMNHOP@Katsuragawa?5Electric?5Co?4?0?5Ltd?4@ ; `string'
PUBLIC	??_C@_0M@IPAHGEJP@Swissbit?5AG@			; `string'
PUBLIC	??_C@_0BM@DKMEKHIM@Pericom?5Semiconductor?5Corp?4@ ; `string'
PUBLIC	??_C@_0CG@BGIJPEKA@JyeTai?5Precision?5Industrial?5Co?4@ ; `string'
PUBLIC	??_C@_0BN@BNPLLCII@AzureWave?5Technologies?0?5Inc?4@ ; `string'
PUBLIC	??_C@_0O@EADKLFFK@ALEREON?0?5INC?4@		; `string'
PUBLIC	??_C@_0BD@MJPGJJIB@Initio?5Corporation@		; `string'
PUBLIC	??_C@_0BJ@PODMPDKE@Phison?5Electronics?5Corp?4@	; `string'
PUBLIC	??_C@_0BA@EBAJJPHC@Telechips?0?5Inc?4@		; `string'
PUBLIC	??_C@_0BN@KECIKNAF@ABILITY?5ENTERPRISE?5CO?4?0?5LTD?4@ ; `string'
PUBLIC	??_C@_0BM@KIAEGNEO@Sensor?5Technology?5Co?4?0?5Ltd?4@ ; `string'
PUBLIC	??_C@_0BA@EJBEDMD@DSP?5Group?0?5Ltd?4@		; `string'
PUBLIC	??_C@_0N@JLOFKNJM@EVATRONIX?5SA@		; `string'
PUBLIC	??_C@_0BH@BDFMJCOJ@Panstrong?5Company?5Ltd?4@	; `string'
PUBLIC	??_C@_0BA@GIDLPKMM@CTK?5Corporation@		; `string'
PUBLIC	??_C@_0BF@POKLDLPA@ATP?5Electronics?5Inc?4@	; `string'
PUBLIC	??_C@_0BC@LNFIEHCE@StarTech?4com?5Ltd?4@	; `string'
PUBLIC	??_C@_0BN@OBOFFJMJ@MOAI?5ELECTRONICS?5CORPORATION@ ; `string'
PUBLIC	??_C@_07HKBKGGAL@Ellisys@			; `string'
PUBLIC	??_C@_0BE@MEIKBKHJ@Skymedi?5Corporation@	; `string'
PUBLIC	??_C@_0BP@NFMNNPJJ@VeriSilicon?5Holdings?5Co?4?0?5Ltd?4@ ; `string'
PUBLIC	??_C@_0BJ@NNBEAIKI@JMicron?5Technology?5Corp?4@	; `string'
PUBLIC	??_C@_0CF@KFFNHPKK@HLDS?5?$CIHitachi?9LG?5Data?5Storage?0?5@ ; `string'
PUBLIC	??_C@_0BN@PJAMMHJM@Phihong?5Technology?5Co?4?0?5Ltd?4@ ; `string'
PUBLIC	??_C@_0BG@FDFFBPKH@PNY?5Technologies?5Inc?4@	; `string'
PUBLIC	??_C@_0CI@PJGLCGBH@Rapid?5Conn?0?5Connect?5County?5Hold@ ; `string'
PUBLIC	??_C@_0BF@KCLHJFIN@D?5?$CG?5M?5Holdings?0?5Inc?4@ ; `string'
PUBLIC	??_C@_0BM@MLLCLJKN@Sunf?5Pu?5Technology?5Co?4?0?5Ltd@ ; `string'
PUBLIC	??_C@_0BM@PJFBNPPK@ALLTOP?5TECHNOLOGY?5CO?4?0?5LTD?4@ ; `string'
PUBLIC	??_C@_0BN@MGGPMLNL@Palconn?5Technology?5Co?4?0?5Ltd?4@ ; `string'
PUBLIC	??_C@_0CE@PGJPGLLG@Kunshan?5Guoji?5Electronics?5Co?4?0?5@ ; `string'
PUBLIC	??_C@_0BO@KPCEMMAE@Freescale?5Semiconductor?0?5Inc?4@ ; `string'
PUBLIC	??_C@_0CL@HBACFJJO@Shen?5Zhen?5Teamspower?5Electronic@ ; `string'
PUBLIC	??_C@_0BO@HKNGFKOP@Apexone?5Microelectronics?5Inc?4@ ; `string'
PUBLIC	??_C@_0BO@FIJNAGLJ@Seong?5Ji?5Industrial?5Co?4?0?5Ltd?4@ ; `string'
PUBLIC	??_C@_06DGDFLKMM@Samtec@			; `string'
PUBLIC	??_C@_0N@GNFMIBKN@Soft?5DB?5Inc?4@		; `string'
PUBLIC	??_C@_0BO@CCKIBDCK@HongLin?5Electronics?5Co?4?0?5Ltd?4@ ; `string'
PUBLIC	??_C@_0M@OMFDOLIG@Total?5Phase@			; `string'
PUBLIC	??_C@_0CI@LPNLCPKP@Shenzhen?5Zhengerya?5Technology?5C@ ; `string'
PUBLIC	??_C@_0CK@GHEMOGNO@Dongguan?5ChingLung?5Wire?5?$CG?5Cable@ ; `string'
PUBLIC	??_C@_0BH@EKGKEMKL@silex?5technology?0?5Inc?4@	; `string'
PUBLIC	??_C@_0BL@MBCLBNK@CANON?5IMAGING?5SYSTEMS?5INC?4@ ; `string'
PUBLIC	??_C@_0BC@LFEKPOAD@Roche?5Diagnostics@		; `string'
PUBLIC	??_C@_0BF@BACBMICM@MQP?5Electronics?5Ltd?4@	; `string'
PUBLIC	??_C@_0BI@EFCFBFPB@ASMedia?5Technology?5Inc?4@	; `string'
PUBLIC	??_C@_0BE@LLHADAIP@UD?5electronic?5corp?4@	; `string'
PUBLIC	??_C@_0CC@KBPLCNPO@Shenzhen?5Alex?5Connector?5Co?4?0?5Lt@ ; `string'
PUBLIC	??_C@_0BN@MGLGHCII@System?5Level?5Solutions?0?5Inc?4@ ; `string'
PUBLIC	??_C@_0BP@PDCKJENN@Spreadtrum?5Communications?5Inc?4@ ; `string'
PUBLIC	??_C@_0CH@GLPFKNO@ShenZhen?5Litkconn?5Technology?5Co@ ; `string'
PUBLIC	??_C@_0DI@DPFEGAEM@Dongguan?5Yangming?5Precision?5of?5@ ; `string'
PUBLIC	??_C@_0CA@FKGCAAGK@Hip?5Hing?5Cable?5?$CG?5Plug?5Mfy?4?5Ltd?4@ ; `string'
PUBLIC	??_C@_0BG@PLILAAEO@DisplayLink?5?$CIUK?$CJ?5Ltd?4@ ; `string'
PUBLIC	??_C@_06EOFPOMJG@Lenovo@			; `string'
PUBLIC	??_C@_0L@IGMLMAAK@K?4K?4?5Rocky@		; `string'
PUBLIC	??_C@_0CF@KAKIFJIN@Dongguan?5YuQiu?5Electronics?5Co?4?0@ ; `string'
PUBLIC	??_C@_0BO@DPMJHMBK@Gwo?5Jinn?5Industries?5Co?4?0?5Ltd?4@ ; `string'
PUBLIC	??_C@_0BF@MMEONNIC@Galaxy?5Far?5East?5Corp@	; `string'
PUBLIC	??_C@_0BC@HBKKPCPF@Linkiss?5Co?4?0?5Ltd?4@	; `string'
PUBLIC	??_C@_0M@INPJKDFM@Google?5Inc?4@		; `string'
PUBLIC	??_C@_0CF@DABKNPLD@Fitilink?5Integrated?5Technology?0@ ; `string'
PUBLIC	??_C@_0BJ@FNMFPLIK@Nordic?5Semiconductor?5ASA@	; `string'
PUBLIC	??_C@_0CF@NLNPHLHC@Shenzhen?5Xianhe?5Technology?5Co?4?0@ ; `string'
PUBLIC	??_C@_0CJ@FJMLIAEB@Ningbo?5Broad?5Telecommunication?5@ ; `string'
PUBLIC	??_C@_0BB@PCAKKDFD@Irisguard?5UK?5Ltd@		; `string'
PUBLIC	??_C@_06CHAGPIBB@Lab126@			; `string'
PUBLIC	??_C@_0BB@PPNLBENA@BIOS?5Corporation@		; `string'
PUBLIC	??_C@_0BI@EPIBIIDM@Nuconn?5Technology?5Corp?4@	; `string'
PUBLIC	??_C@_0BC@LGPAAFDD@Dexxon?5Data?5Media@		; `string'
PUBLIC	??_C@_0CJ@HAKCLNCA@Industrial?5Technology?5Research?5@ ; `string'
PUBLIC	??_C@_0CJ@GONBANIC@Pak?5Heng?5Technology?5?$CIShenzhen?$CJ?5@ ; `string'
PUBLIC	??_C@_0BE@PPEHNAPN@Best?5Buy?5China?5Ltd?4@	; `string'
PUBLIC	??_C@_0BE@BIONMJOM@USB?9IF?5non?9workshop@	; `string'
PUBLIC	??_C@_0BI@PPNCKFLJ@Amphenol?5East?5Asia?5Ltd?4@	; `string'
PUBLIC	??_C@_0O@OPAGGINC@Astec?5America@		; `string'
PUBLIC	??_C@_0BL@EKBPAFBH@Topdisk?5Technology?5Limited@ ; `string'
PUBLIC	??_C@_0BJ@KAKHDDLA@TERMINUS?5TECHNOLOGY?5INC?4@	; `string'
PUBLIC	??_C@_0BF@IBCFPAGK@Global?5Unichip?5Corp?4@	; `string'
PUBLIC	??_C@_0BG@IOFCBCHK@Bayer?5Health?5Care?5LLC@	; `string'
PUBLIC	??_C@_0BN@GMHKDAOP@Proconn?5Technology?5Co?4?0?5Ltd?4@ ; `string'
PUBLIC	??_C@_0BH@HJFKHBGL@Simula?5Technology?5Inc?4@	; `string'
PUBLIC	??_C@_0BA@KBMPMKDN@SGS?5Taiwan?5Ltd?4@		; `string'
PUBLIC	??_C@_0BA@GPGHJPOJ@Leica?5Camera?5AG@		; `string'
PUBLIC	??_C@_0CJ@FEGEHHGG@Asia?5Tai?5Technology?5?$CIDongguan?$CJ?5@ ; `string'
PUBLIC	??_C@_0CJ@EENODCNA@Johnson?5Component?5?$CG?5Equipments?5@ ; `string'
PUBLIC	??_C@_0M@BNPJBJHO@Salcomp?5Plc@			; `string'
PUBLIC	??_C@_0CI@ENEIOO@High?5Top?5Precision?5Electronic?5C@ ; `string'
PUBLIC	??_C@_0CD@KCEJLGKF@SHEN?5ZHEN?5REX?5TECHNOLOGY?5CO?4?0?5L@ ; `string'
PUBLIC	??_C@_0BI@BAHHJBOM@Octekconn?5Incorporation@	; `string'
PUBLIC	??_C@_0BD@DPNOIOGL@ViXS?5Systems?0?5Inc?4@	; `string'
PUBLIC	??_C@_0BN@ODKKJGBD@Plastron?5Precision?5Co?4?0?5Ltd?4@ ; `string'
PUBLIC	??_C@_0DA@EOOOBNLE@The?5Hong?5Kong?5Standards?5and?5Tes@ ; `string'
PUBLIC	??_C@_0CI@GNFBMNPP@ShenMing?5Electron?5?$CIDong?5Guan?$CJ?5C@ ; `string'
PUBLIC	??_C@_0O@IPLHGMF@Amlogic?0?5Inc?4@		; `string'
PUBLIC	??_C@_0BO@IHCMPCEB@Shenzhen?5Yuanchuan?5Electronic@ ; `string'
PUBLIC	??_C@_0P@JGHIOJAI@Ford?5Motor?5Co?4@		; `string'
PUBLIC	??_C@_0CA@FCJOHAEE@Contac?5Cable?5Industrial?5Limited@ ; `string'
PUBLIC	??_C@_0CD@HFOIMFJ@Sunplus?5Innovation?5Technology?5I@ ; `string'
PUBLIC	??_C@_0CH@KIMIGBPK@Orient?5Semiconductor?5Electronic@ ; `string'
PUBLIC	??_C@_0BO@IHAPHGGJ@Lanterra?5Industrial?5Co?4?0?5Ltd?4@ ; `string'
PUBLIC	??_C@_0CC@GEFGPOJP@SHENZHEN?5DNS?5INDUSTRIES?5CO?4?0?5LT@ ; `string'
PUBLIC	??_C@_08PDBDCLGF@LS?5Mtron@			; `string'
PUBLIC	??_C@_0BD@DCHINJIL@NONIN?5MEDICAL?5INC?4@	; `string'
PUBLIC	??_C@_0DA@PPLCBMMB@Philips?5?$CG?5Lite?9ON?5Digital?5Solut@ ; `string'
PUBLIC	??_C@_0BJ@GEGPHPDK@ALPINE?5ELECTRONICS?0?5INC?4@ ; `string'
PUBLIC	??_C@_0P@BICMBKIN@LEGRAND?5FRANCE@		; `string'
PUBLIC	??_C@_0BL@CHCFPHFA@Aces?5Electronics?5Co?4?0?5Ltd?4@ ; `string'
PUBLIC	??_C@_0BB@EIGDHDFJ@OPEX?5CORPORATION@		; `string'
PUBLIC	??_C@_0DA@BKKOBFJG@Telecommunications?5Technology?5A@ ; `string'
PUBLIC	??_C@_0CL@OJLMBANN@NINGBO?5HENTEK?5DRAGON?5ELECTRONIC@ ; `string'
PUBLIC	??_C@_0BH@GIIFDIFG@Johnson?5Controls?0?5Inc?4@	; `string'
PUBLIC	??_C@_0CA@GDMPIAIK@Horng?5Tong?5Enterprise?5Co?4?0?5Ltd?4@ ; `string'
PUBLIC	??_C@_0BD@JJOGFDJ@DRAGON?5JOY?5LIMITED@		; `string'
PUBLIC	??_C@_0BC@KIFIHBOP@Qisda?5Corporation@		; `string'
PUBLIC	??_C@_0BF@EEHMEIJP@Pegatron?5Corporation@	; `string'
PUBLIC	??_C@_0BC@HAMMCKPN@Fresco?5Logic?5Inc?4@	; `string'
PUBLIC	??_C@_0BL@MMCBELAO@QIXING?5INDUSTRIAL?5?$CIHK?$CJ?5CO?4@ ; `string'
PUBLIC	??_C@_0BL@NKBOOFNF@Walta?5Electronic?5Co?4?0?5Ltd?4@ ; `string'
PUBLIC	??_C@_0DE@IMGLKMI@Yueqing?5Changling?5Electronic?5In@ ; `string'
PUBLIC	??_C@_0CH@EKHHMHEC@Shenzhen?5My?9Power?5Technology?5Co@ ; `string'
PUBLIC	??_C@_0DD@IDOJMHNI@NINGBO?5SHUNSHENG?5COMMUNICATION?5@ ; `string'
PUBLIC	??_C@_0BK@FNCNBIIF@Parade?5Technologies?0?5Inc?4@ ; `string'
PUBLIC	??_C@_0CE@EGHGGAJG@Document?5Capture?5Technologies?0?5@ ; `string'
PUBLIC	??_C@_0BH@NMLKIBDM@GDA?5Technologies?0?5Inc?4@	; `string'
PUBLIC	??_C@_0CD@BBLGIHKL@Actions?5Microelectronics?5Co?4?0?5L@ ; `string'
PUBLIC	??_C@_0CK@INFLCDIC@Telecommunication?5Metrology?5Cen@ ; `string'
PUBLIC	??_C@_0CO@IHINPAOL@SHEN?5ZHEN?5FORMAN?5PRECISION?5INDU@ ; `string'
PUBLIC	??_C@_0BJ@FEMBFAJG@Point?5Grey?5Research?5Inc?4@ ; `string'
PUBLIC	??_C@_0BD@LIIMMKIN@KOBIAN?5CANADA?5INC?4@	; `string'
PUBLIC	??_C@_0CB@BKOLJNN@HUNG?5TA?5H?4T?4ENTERPRISE?5CO?4?0?5LTD@ ; `string'
PUBLIC	??_C@_0BH@JAAJJDAF@Etron?5Technology?0?5Inc?4@	; `string'
PUBLIC	??_C@_0BO@OPAJPFGF@COMLINK?5ELECTRONICS?5CO?4?0?5LTD?4@ ; `string'
PUBLIC	??_C@_0CH@JAHIBMAB@HIBEST?5Electronic?5?$CIDongGuan?$CJ?5Co@ ; `string'
PUBLIC	??_C@_0BG@EHNBGDFF@Other?5World?5Computing@	; `string'
PUBLIC	??_C@_0BL@BINCEHIC@Concraft?5Holding?5Co?4?0?5Ltd?4@ ; `string'
PUBLIC	??_C@_0CH@IFPLLPOK@WIN?5WIN?5PRECISION?5INDUSTRIAL?5CO@ ; `string'
PUBLIC	??_C@_0L@PIBOCPGJ@Gefen?5Inc?4@			; `string'
PUBLIC	??_C@_0BK@LCFIOKDG@AIRTIES?5WIRELESS?5NETWORKS@	; `string'
PUBLIC	??_C@_0CD@IALAEKLI@JIANGXI?5SHIP?5ELECTRONICS?5CO?4?0?5L@ ; `string'
PUBLIC	??_C@_0CG@LKIHKKAD@Cal?9Comp?5Electronics?5?$CG?5Communic@ ; `string'
PUBLIC	??_C@_0CE@MEDMJIF@Chang?5Yang?5Electronics?5Company?5@ ; `string'
PUBLIC	??_C@_0BD@GGCBPHPK@Innostor?5Co?4?0?5Ltd?4@	; `string'
PUBLIC	??_C@_0CI@NHHBKKBH@Dongguan?5Goldconn?5Electronics?5C@ ; `string'
PUBLIC	??_C@_0CC@LPIGCLDE@Morning?5Star?5Industrial?5Co?4?0?5Lt@ ; `string'
PUBLIC	??_C@_0CB@EHEKJNGP@Owl?5Computing?5Technologies?0?5Inc@ ; `string'
PUBLIC	??_C@_0BE@KDFCKAEG@Unify?5GmbH?5?$CG?5Co?4?5KG@	; `string'
PUBLIC	??_C@_0BD@GMPBKEIC@NXP?5Semiconductors@		; `string'
PUBLIC	??_C@_0CA@CAPPIABK@NIAN?5YEONG?5ENTERPRISE?5CO?4?0?5LTD?4@ ; `string'
PUBLIC	??_C@_0DB@KONADFN@Changzhou?5Wujin?5BEST?5Electronic@ ; `string'
PUBLIC	??_C@_0BD@BJBLIGAM@D?9Link?5Corporation@	; `string'
PUBLIC	??_C@_0CI@GOBPPKNF@Belkin?5Electronic?5?$CIChangzhou?$CJ?5C@ ; `string'
PUBLIC	??_C@_0CF@DHGBCKNB@Freeport?5Resources?5Enterprises?5@ ; `string'
PUBLIC	??_C@_0BG@PIIFGLBL@DETAS?5TECHNOLOGY?5LTD?4@	; `string'
PUBLIC	??_C@_0CI@FBHBCILE@Shenzhen?5Tronixin?5Electronics?5C@ ; `string'
PUBLIC	??_C@_0CJ@OEPJLPBL@Unicorn?5Electronics?5Components?5@ ; `string'
PUBLIC	??_C@_0BK@DJALMDKA@CESI?5Technology?5Co?4?0?5Ltd?4@ ; `string'
PUBLIC	??_C@_0N@JJLIGBFN@Luxshare?9ICT@		; `string'
PUBLIC	??_C@_0BA@CFCNDLPN@CE?5LINK?5LIMITED@		; `string'
PUBLIC	??_C@_0BP@FNHFFJPK@Microconn?5Electronic?5Co?4?0?5Ltd?4@ ; `string'
PUBLIC	??_C@_0CF@MCDKIGNK@Shenzhen?5CARVE?5Electronics?5Co?4?0@ ; `string'
PUBLIC	??_C@_0BK@EIBNNPGD@FENGHUA?5KINGSUN?5CO?4?0?5LTD?4@ ; `string'
PUBLIC	??_C@_0DE@EMOPPBDG@Sumitomo?5Electric?5Ind?4?0?5Ltd?4?0?5O@ ; `string'
PUBLIC	??_C@_0N@DAENHNHN@XIMEA?5s?4r?4o?4@		; `string'
PUBLIC	??_C@_0P@GBIKBMAL@VIA?5Labs?0?5Inc?4@		; `string'
PUBLIC	??_C@_0CF@GAGJPPB@Shenzhen?5Linoya?5Electronic?5Co?4?0@ ; `string'
PUBLIC	??_C@_0CK@LALHIFNG@Dong?5Guan?5City?5Wanhong?5Electric@ ; `string'
PUBLIC	??_C@_0CJ@CNOJBLBI@Amphenol?5AssembleTech?5?$CIXiamen?$CJ?5@ ; `string'
PUBLIC	??_C@_0BD@LDDEGFID@Y?5Soft?5Corporation@	; `string'
PUBLIC	??_C@_0BI@FBCKNBLM@JVC?5KENWOOD?5Corporation@	; `string'
PUBLIC	??_C@_0BM@BKHGEKPK@Transcend?5Information?0?5Inc?4@ ; `string'
PUBLIC	??_C@_0BF@BAPBHHHN@TMC?1Allion?5Test?5Labs@	; `string'
PUBLIC	??_C@_08EPBIMIG@CalDigit@			; `string'
PUBLIC	??_C@_0DB@LAFBKCJH@Dongguan?5Teconn?5Electronics?5Tec@ ; `string'
PUBLIC	??_C@_0BP@PBMDMJMJ@Netcom?5Technology?5?$CIHK?$CJ?5Limited@ ; `string'
PUBLIC	??_C@_0BP@FAJGPKNC@Compupack?5Technology?5Co?4?0?5Ltd?4@ ; `string'
PUBLIC	??_C@_0CG@OHNMOHEM@Wuerth?9Elektronik?5eiSos?5GmbH?5?$CG?5@ ; `string'
PUBLIC	??_C@_0BE@BEMCGCHG@Shin?5Shin?5Co?4?0?5Ltd?4@	; `string'
PUBLIC	??_C@_0CB@CHMCCAAM@3eYamaichi?5Electronics?5Co?4?0?5Ltd@ ; `string'
PUBLIC	??_C@_0CG@NEPAELKJ@Wiretek?5International?5Investmen@ ; `string'
PUBLIC	??_C@_0BG@FFGBANPN@Plugable?5Technologies@	; `string'
PUBLIC	??_C@_0BN@DJPOBBOH@T?9CONN?5PRECISION?5CORPORATION@ ; `string'
PUBLIC	??_C@_0BD@PEIOBOIA@Granite?5River?5Labs@	; `string'
PUBLIC	??_C@_0BG@JFNFEMAF@Digital?5EMC?5Co?4?0?5Ltd?4@	; `string'
PUBLIC	??_C@_0CO@GPGEJOEG@Sun?5Fair?5Electric?5Wire?5?$CG?5Cable?5@ ; `string'
PUBLIC	??_C@_0CH@JIBHMNOD@Hotron?5Precision?5Electronic?5Ind@ ; `string'
PUBLIC	??_C@_0BN@LAOLKJDB@Trigence?5Semiconductor?0?5Inc?4@ ; `string'
PUBLIC	??_C@_0BH@JCNJIDNH@Motorola?5Mobility?5Inc?4@	; `string'
PUBLIC	??_C@_0CI@KOHELOKO@Karming?5Electronic?5?$CIShenzhen?$CJ?5C@ ; `string'
PUBLIC	??_C@_0O@PFEHLJC@Phase?5One?5A?1S@		; `string'
PUBLIC	??_C@_0O@LJFFELIC@Miltope?5Corp?4@		; `string'
PUBLIC	??_C@_0CF@DNEMFNPO@Kunshan?5Jiahua?5Electronics?5Co?4?0@ ; `string'
PUBLIC	??_C@_0BL@CONNOJEO@Avery?5Design?5Systems?0?5Inc?4@ ; `string'
PUBLIC	??_C@_0BI@LPLOPAA@Huawei?5Device?5Co?4?0?5Ltd?4@ ; `string'
PUBLIC	??_C@_09GCGEMCFF@Tensorcom@			; `string'
PUBLIC	??_C@_0O@DNELPEDJ@Zenverge?5Inc?4@		; `string'
PUBLIC	??_C@_0CM@MLMJGOMM@Shenzhen?5Autone?9Tronic?5Technolo@ ; `string'
PUBLIC	??_C@_0BP@GJOKBILK@KangXiang?5Electronic?5Co?4?0?5Ltd?4@ ; `string'
PUBLIC	??_C@_0BP@CBFBKCKO@IXT?5Systems?5International?5Ltd?4@ ; `string'
PUBLIC	??_C@_0BJ@OHNJGPJN@Marunix?5Electron?5Limited@	; `string'
PUBLIC	??_C@_0CH@GCMJJPNA@DONGGUAN?5LICHENG?5ELECTRONICS?5CO@ ; `string'
PUBLIC	??_C@_0CF@CFJNEAJP@BitifEye?5Digital?5Test?5Solutions@ ; `string'
PUBLIC	??_C@_0CN@EJBOGONI@ChuangYi?5Hardware?5Precision?5Mou@ ; `string'
PUBLIC	??_C@_0O@BNIKCMOM@INSIDE?5Secure@		; `string'
PUBLIC	??_C@_0BH@KJMMFBKI@Incasolution?5Co?4?0?5Ltd?4@	; `string'
PUBLIC	??_C@_0BM@GMFHMCEF@The?5Silanna?5Group?5Pty?4?5Ltd?4@ ; `string'
PUBLIC	??_C@_0CK@PEDMBLOK@Dongguan?5City?5Qirui?5Electronics@ ; `string'
PUBLIC	??_C@_0BC@MIHCGNOI@Minebea?5Co?4?0?5Ltd?4@	; `string'
PUBLIC	??_C@_06HHAPBGEJ@BAANTO@			; `string'
PUBLIC	??_C@_0BL@LPJGBHEM@Velosti?5Technology?5Limited@ ; `string'
PUBLIC	??_C@_0BC@FEINIIOM@Anton?1Bauer?0?5Inc?4@	; `string'
PUBLIC	??_C@_0CE@BAFKLNDB@WuJiang?5XinYa?5Electronics?5Co?4?0?5@ ; `string'
PUBLIC	??_C@_0BH@EHAGJFEE@Fullconn?5Industry?5Inc?4@	; `string'
PUBLIC	??_C@_0BK@CFHJHDDG@SYNCONN?5INTERCONNECT?5INC?4@ ; `string'
PUBLIC	??_C@_0CH@IDDOGDKP@Shenzhen?5Pangngai?5Industrial?5Co@ ; `string'
PUBLIC	??_C@_0CE@JOMBCIJH@Shenzhen?5Deren?5Electronic?5Co?4?0?5@ ; `string'
PUBLIC	??_C@_0M@NMCNEDLC@Lytro?0?5Inc?4@		; `string'
PUBLIC	??_C@_0BL@DEJKGIMK@Smith?5Micro?5Software?0?5Inc?4@ ; `string'
PUBLIC	??_C@_0BO@ONHDIMLP@ZEN?5FACTORY?5GROUP?5?$CIASIA?$CJ?5LTD?4@ ; `string'
PUBLIC	??_C@_0BO@KGBBCJH@Chain?9In?5Electronic?5Co?4?0?5Ltd?4@ ; `string'
PUBLIC	??_C@_0CN@BNJPCKEF@TOP?5Exactitude?5Industry?5?$CIShenZh@ ; `string'
PUBLIC	??_C@_0CP@FBCGPDBL@ShenZhen?5Hogend?5Precision?5Techn@ ; `string'
PUBLIC	??_C@_0BD@PLHJJNHE@Norel?5Systems?5Ltd?4@	; `string'
PUBLIC	??_C@_0O@KMBODLJH@ASSA?5ABLOY?5AB@		; `string'
PUBLIC	??_C@_0CG@NMMKCBIB@DongGuan?5LongTao?5Electronic?5Co?4@ ; `string'
PUBLIC	??_C@_0BI@MHBLLANG@Weida?5Hi?9Tech?5Co?4?0?5Ltd?4@ ; `string'
PUBLIC	??_C@_0CI@CBMJJLAP@Dongguan?5Wisechamp?5Electronic?5C@ ; `string'
PUBLIC	??_C@_0BH@NLMAPGEN@Sequans?5Communications@	; `string'
PUBLIC	??_C@_0P@GGHEMJJH@ALGOLTEK?0?5INC?4@		; `string'
PUBLIC	??_C@_0CC@LNBMPCHG@Top?5Victory?5Investments?5Ltd?4?5?$CIH@ ; `string'
PUBLIC	??_C@_0CF@LHOCOHOF@DongGuan?5Elinke?5Industrial?5Co?4?0@ ; `string'
PUBLIC	??_C@_0BK@DKIKJOEB@Corning?5Cable?5Systems?5LLC@ ; `string'
PUBLIC	??_C@_0CI@EJBKCNKI@Zhe?5Jiang?5Huasheng?5Technology?5C@ ; `string'
PUBLIC	??_C@_0CG@OAMKINAC@Dongguan?5Jinyue?5Electronics?5Co?4@ ; `string'
PUBLIC	??_C@_0BM@BOLFLJP@RICOH?5IMAGING?5COMPANY?0?5LTD?4@ ; `string'
PUBLIC	??_C@_0CC@GLDMKJH@DongGuan?5HYX?5Industrial?5Co?4?0?5Lt@ ; `string'
PUBLIC	??_C@_0BE@HOIKDMEJ@Advanced?5Silicon?5SA@	; `string'
PUBLIC	??_C@_0BJ@FPNGMFON@INTELLIGENT?5ENERGY?0?5LTD?4@ ; `string'
PUBLIC	??_C@_0O@KCHFFECA@EISST?5Limited@		; `string'
PUBLIC	??_C@_0CO@FNFDMCAN@JXT?5Precision?5Electronics?5Techn@ ; `string'
PUBLIC	??_C@_0CA@PHDNLNGC@Inno?5Audio?5?$CG?5Video?5?$CIHK?$CJ?5Limited@ ; `string'
PUBLIC	??_C@_0BO@PHCBCBDD@Electronics?5For?5Imaging?0?5Inc?4@ ; `string'
PUBLIC	??_C@_0DB@HNELJFDJ@Shenzhen?5Yuwenfa?5Electronic?5Tec@ ; `string'
PUBLIC	??_C@_0BB@LEBIHPBN@Innovative?5Logic@		; `string'
PUBLIC	??_C@_09BGJCNJFM@Basler?5AG@			; `string'
PUBLIC	??_C@_0CG@INIEIBBC@BESTMEDIA?5CD?9Recordable?5GmbH?5?$CG?5@ ; `string'
PUBLIC	??_C@_0BD@LIHAOBJB@UNIREX?5CORPORATION@		; `string'
PUBLIC	??_C@_0CF@IPDEOKJG@Zhejiang?5Senda?5Electronics?5Co?4?0@ ; `string'
PUBLIC	??_C@_0BF@BKLIFGG@Integral?5Memory?5Plc?4@	; `string'
PUBLIC	??_C@_0BG@BKPEFBBD@Broadway?5System?0?5Inc?4@	; `string'
PUBLIC	??_C@_0CJ@EHDKCLMM@Morning?5Star?5Digital?5Connector?5@ ; `string'
PUBLIC	??_C@_0BC@EBEJIPHO@MITACHI?5CO?4?0?5LTD?4@	; `string'
PUBLIC	??_C@_0BJ@FPADBEEC@Inhon?5Computer?5Co?4?0?5Ltd?4@ ; `string'
PUBLIC	??_C@_0CA@HMOFPNPP@HGST?0?5a?5Western?5Digital?5Company@ ; `string'
PUBLIC	??_C@_07NFANNNEC@UNKNOWN@			; `string'
PUBLIC	??_C@_0BF@GIOJHHEG@Win32_1394Controller@	; `string'
PUBLIC	??_C@_04FABLJDN@Name@				; `string'
PUBLIC	??_C@_0M@HHJKGII@PNPDeviceID@			; `string'
PUBLIC	??_C@_08JLPEJKOE@DeviceID@			; `string'
PUBLIC	??_C@_0N@BBNLMPJO@Manufacturer@			; `string'
PUBLIC	??_C@_0N@MFGCECDI@Availability@			; `string'
PUBLIC	??_C@_07OJKFJLLK@Caption@			; `string'
PUBLIC	??_C@_0BH@JDEEEDCN@ConfigManagerErrorCode@	; `string'
PUBLIC	??_C@_0BI@OBNCDCBF@ConfigManagerUserConfig@	; `string'
PUBLIC	??_C@_0M@OHKMKKDH@Description@			; `string'
PUBLIC	??_C@_0N@FJHLDHMG@ErrorCleared@			; `string'
PUBLIC	??_C@_0BB@KIDBLMK@ErrorDescription@		; `string'
PUBLIC	??_C@_0M@NBIJNNJJ@InstallDate@			; `string'
PUBLIC	??_C@_0O@NDKHIJAE@LastErrorCode@		; `string'
PUBLIC	??_C@_0BE@JDLAPHJE@MaxNumberControlled@		; `string'
PUBLIC	??_C@_0BM@NFDEHNHA@PowerManagementCapabilities@	; `string'
PUBLIC	??_C@_0BJ@CFOPGMLH@PowerManagementSupported@	; `string'
PUBLIC	??_C@_0BC@JHPOAJCM@ProtocolSupported@		; `string'
PUBLIC	??_C@_06PGDKHFME@Status@			; `string'
PUBLIC	??_C@_0L@PKEHCAEI@StatusInfo@			; `string'
PUBLIC	??_C@_0BA@HADKHLAI@TimeOfLastReset@		; `string'
PUBLIC	??_C@_0BA@FKIDHCEN@Win32_BaseBoard@		; `string'
PUBLIC	??_C@_03PJHNOEGB@Tag@				; `string'
PUBLIC	??_C@_07HMDPOHHF@Product@			; `string'
PUBLIC	??_C@_05NFIJOKEG@Model@				; `string'
PUBLIC	??_C@_07NGFJPNPN@Version@			; `string'
PUBLIC	??_C@_0O@GLLHAKAI@ConfigOptions@		; `string'
PUBLIC	??_C@_05BOMFGPKE@Depth@				; `string'
PUBLIC	??_C@_06HCAKHJJK@Height@			; `string'
PUBLIC	??_C@_06ODJMJFLN@Weight@			; `string'
PUBLIC	??_C@_05IBAMDCFI@Width@				; `string'
PUBLIC	??_C@_0N@CCJNCHMP@HostingBoard@			; `string'
PUBLIC	??_C@_0N@FCOIALPI@HotSwappable@			; `string'
PUBLIC	??_C@_0BF@DMENANMJ@OtherIdentifyingInfo@	; `string'
PUBLIC	??_C@_0L@MIOPIENN@PartNumber@			; `string'
PUBLIC	??_C@_09HKGEBMAI@PoweredOn@			; `string'
PUBLIC	??_C@_09DADBKOHO@Removable@			; `string'
PUBLIC	??_C@_0M@KLOLJEDG@Replaceable@			; `string'
PUBLIC	??_C@_0BI@NLNEBFOD@RequirementsDescription@	; `string'
PUBLIC	??_C@_0BG@KNNEFNEE@RequiresDaughterBoard@	; `string'
PUBLIC	??_C@_0N@FPJJBBNM@SerialNumber@			; `string'
PUBLIC	??_C@_03LMAAELJP@SKU@				; `string'
PUBLIC	??_C@_0L@NLNCHAIH@SlotLayout@			; `string'
PUBLIC	??_C@_0BE@DAJBDDHL@SpecialRequirements@		; `string'
PUBLIC	??_C@_0O@CLAKILND@Win32_Battery@		; `string'
PUBLIC	??_C@_0O@PKGMNGNM@BatteryStatus@		; `string'
PUBLIC	??_C@_0O@IKADLBCG@TimeOnBattery@		; `string'
PUBLIC	??_C@_0BB@HMDCOCCC@TimeToFullCharge@		; `string'
PUBLIC	??_C@_0BE@HNKJKBND@BatteryRechargeTime@		; `string'
PUBLIC	??_C@_09CAHFAGKL@Chemistry@			; `string'
PUBLIC	??_C@_0P@IFPGNGPN@DesignCapacity@		; `string'
PUBLIC	??_C@_0O@PBABLEFL@DesignVoltage@		; `string'
PUBLIC	??_C@_0BJ@CDCEHMEP@EstimatedChargeRemaining@	; `string'
PUBLIC	??_C@_0BB@NPKJIND@EstimatedRunTime@		; `string'
PUBLIC	??_C@_0BE@NEEKJBPN@ExpectedBatteryLife@		; `string'
PUBLIC	??_C@_0N@DDGBNILM@ExpectedLife@			; `string'
PUBLIC	??_C@_0BD@HADPLBCE@FullChargeCapacity@		; `string'
PUBLIC	??_C@_0BA@KENPOHHF@MaxRechargeTime@		; `string'
PUBLIC	??_C@_0BE@IIEJDIAD@SmartBatteryVersion@		; `string'
PUBLIC	??_C@_0L@JLLHHBAL@Win32_BIOS@			; `string'
PUBLIC	??_C@_0BE@DHLHFABD@BiosCharacteristics@		; `string'
PUBLIC	??_C@_0M@JNJNMLGA@BIOSVersion@			; `string'
PUBLIC	??_C@_0M@PIEABBJI@BuildNumber@			; `string'
PUBLIC	??_C@_07FOHBHJJA@CodeSet@			; `string'
PUBLIC	??_C@_0BA@LAFEEKJE@CurrentLanguage@		; `string'
PUBLIC	??_C@_0BD@IAKLNJOL@IdentificationCode@		; `string'
PUBLIC	??_C@_0BF@JGHHIKJK@InstallableLanguages@	; `string'
PUBLIC	??_C@_0BA@OPCNKLIC@ListOfLanguages@		; `string'
PUBLIC	??_C@_0O@LMGDODCH@OtherTargetOS@		; `string'
PUBLIC	??_C@_0M@PLCFCEDN@PrimaryBIOS@			; `string'
PUBLIC	??_C@_0M@FEKFCCJH@ReleaseDate@			; `string'
PUBLIC	??_C@_0BC@GDJFCIN@SMBIOSBIOSVersion@		; `string'
PUBLIC	??_C@_0BD@GHLLPFOK@SMBIOSMajorVersion@		; `string'
PUBLIC	??_C@_0BD@NBGOPAJG@SMBIOSMinorVersion@		; `string'
PUBLIC	??_C@_0O@BHMENNOL@SMBIOSPresent@		; `string'
PUBLIC	??_C@_0BC@MBHIKAHO@SoftwareElementID@		; `string'
PUBLIC	??_C@_0BF@GFDCFGAP@SoftwareElementState@	; `string'
PUBLIC	??_C@_09HPFDNOIF@Win32_Bus@			; `string'
PUBLIC	??_C@_06KNDINCOD@BusNum@			; `string'
PUBLIC	??_C@_07FFFMBEEK@BusType@			; `string'
PUBLIC	??_C@_0BB@KBKCBBFJ@Win32_CDROMDrive@		; `string'
PUBLIC	??_C@_05FHDOJGAA@Drive@				; `string'
PUBLIC	??_C@_0L@PEPMOJNO@VolumeName@			; `string'
PUBLIC	??_C@_0BD@KNELKJMD@VolumeSerialNumber@		; `string'
PUBLIC	??_C@_0N@FNJCOOAL@Capabilities@			; `string'
PUBLIC	??_C@_0BH@EPMKAGLN@CapabilityDescriptions@	; `string'
PUBLIC	??_C@_0BC@MBGAHHAB@CompressionMethod@		; `string'
PUBLIC	??_C@_0BB@GHOHONOE@DefaultBlockSize@		; `string'
PUBLIC	??_C@_0P@HKGKOHLF@DriveIntegrity@		; `string'
PUBLIC	??_C@_0BB@PNCBAHDK@ErrorMethodology@		; `string'
PUBLIC	??_C@_0BA@KMBBNBII@FileSystemFlags@		; `string'
PUBLIC	??_C@_0BC@JDDJOAMF@FileSystemFlagsEx@		; `string'
PUBLIC	??_C@_0N@HEPDBKFE@MaxBlockSize@			; `string'
PUBLIC	??_C@_0BH@GKGMNPDK@MaximumComponentLength@	; `string'
PUBLIC	??_C@_0N@HBNKJHPM@MaxMediaSize@			; `string'
PUBLIC	??_C@_0M@BKHKLNGH@MediaLoaded@			; `string'
PUBLIC	??_C@_09HPDNNFFF@MediaType@			; `string'
PUBLIC	??_C@_0BJ@FCFAAAMD@MfrAssignedRevisionLevel@	; `string'
PUBLIC	??_C@_0N@DELMGCCC@MinBlockSize@			; `string'
PUBLIC	??_C@_0O@IIJMNCFJ@NeedsCleaning@		; `string'
PUBLIC	??_C@_0BH@COPKOGMD@NumberOfMediaSupported@	; `string'
PUBLIC	??_C@_0O@MEKHAACN@RevisionLevel@		; `string'
PUBLIC	??_C@_07IMFLOLAO@SCSIBus@			; `string'
PUBLIC	??_C@_0BA@FGFDLPLK@SCSILogicalUnit@		; `string'
PUBLIC	??_C@_08IICBNDDA@SCSIPort@			; `string'
PUBLIC	??_C@_0N@BGGJIJCI@SCSITargetId@			; `string'
PUBLIC	??_C@_04EBKMHHBE@Size@				; `string'
PUBLIC	??_C@_0N@GFEIEMMN@TransferRate@			; `string'
PUBLIC	??_C@_0BB@ILOPCCAP@Win32_DMAChannel@		; `string'
PUBLIC	??_C@_04HOKNCALA@Port@				; `string'
PUBLIC	??_C@_0L@PGAIMACF@DMAChannel@			; `string'
PUBLIC	??_C@_0M@HJPEAMBM@AddressSize@			; `string'
PUBLIC	??_C@_09LDKFCLB@BurstMode@			; `string'
PUBLIC	??_C@_08IOOBKHAJ@ByteMode@			; `string'
PUBLIC	??_C@_0O@BPLPAGKN@ChannelTiming@		; `string'
PUBLIC	??_C@_0BA@HBAKOKJE@MaxTransferSize@		; `string'
PUBLIC	??_C@_0P@HFMGHLOP@TransferWidths@		; `string'
PUBLIC	??_C@_0M@MOIPDDOB@TypeCTiming@			; `string'
PUBLIC	??_C@_08HKOOHOAE@WordMode@			; `string'
PUBLIC	??_C@_0BA@DGOGJGDP@Win32_DriverVXD@		; `string'
PUBLIC	??_C@_07DFGIDBBA@Control@			; `string'
PUBLIC	??_C@_0BG@IOIHNNJK@DeviceDescriptorBlock@	; `string'
PUBLIC	??_C@_0BA@JOJBKDJN@LanguageEdition@		; `string'
PUBLIC	??_C@_06CGGMGNDK@PM_API@			; `string'
PUBLIC	??_C@_0BB@CCKMONLJ@ServiceTableSize@		; `string'
PUBLIC	??_C@_0BG@LEBBIDOP@TargetOperatingSystem@	; `string'
PUBLIC	??_C@_07JENHGIOM@V86_API@			; `string'
PUBLIC	??_C@_0BH@GBOCBJMM@Win32_FloppyController@	; `string'
PUBLIC	??_C@_0BC@MGJAFBFH@Win32_FloppyDrive@		; `string'
PUBLIC	??_C@_0P@MCPBPNON@Win32_HeatPipe@		; `string'
PUBLIC	??_C@_0O@PBOKHICP@ActiveCooling@		; `string'
PUBLIC	??_C@_0BE@FMCMMJCA@Win32_IDEController@		; `string'
PUBLIC	??_C@_0BF@EEIPINHM@Win32_InfraredDevice@	; `string'
PUBLIC	??_C@_0BC@MGLAEOHD@Win32_IRQResource@		; `string'
PUBLIC	??_C@_08PPIOJEA@Hardware@			; `string'
PUBLIC	??_C@_09PKFILKGD@Shareable@			; `string'
PUBLIC	??_C@_0N@NCNNCPPP@TriggerLevel@			; `string'
PUBLIC	??_C@_0M@NKHMGHID@TriggerType@			; `string'
PUBLIC	??_C@_06BOOCMPNK@Vector@			; `string'
PUBLIC	??_C@_0P@IGJIBAJA@Win32_Keyboard@		; `string'
PUBLIC	??_C@_06KMHOJANB@Layout@			; `string'
PUBLIC	??_C@_0BF@DODFNOHG@NumberOfFunctionKeys@	; `string'
PUBLIC	??_C@_08EOCJLAAL@IsLocked@			; `string'
PUBLIC	??_C@_08FJIAHGMM@Password@			; `string'
PUBLIC	??_C@_0BI@DKDNDIIN@Win32_MotherboardDevice@	; `string'
PUBLIC	??_C@_0P@GCEIIPJN@PrimaryBusType@		; `string'
PUBLIC	??_C@_0P@EJGNFGBG@RevisionNumber@		; `string'
PUBLIC	??_C@_0BB@MKKJDBAN@SecondaryBusType@		; `string'
PUBLIC	??_C@_0BE@ILPPNPBM@Win32_OnBoardDevice@		; `string'
PUBLIC	??_C@_0L@PMICFDLL@DeviceType@			; `string'
PUBLIC	??_C@_07DOAOMMKG@Enabled@			; `string'
PUBLIC	??_C@_0BH@CNGPGCKD@Win32_PCMCIAController@	; `string'
PUBLIC	??_C@_0BA@EHCOOLPP@Win32_PnPEntity@		; `string'
PUBLIC	??_C@_07LMLHFMEG@Service@			; `string'
PUBLIC	??_C@_09GPHNMGJN@ClassGuid@			; `string'
PUBLIC	??_C@_0N@EEHHOFBP@CompatibleID@			; `string'
PUBLIC	??_C@_0L@MCPBCGGP@HardwareID@			; `string'
PUBLIC	??_C@_0BF@MJMHBKMK@Win32_PointingDevice@	; `string'
PUBLIC	??_C@_0N@HMDMLBLH@PointingType@			; `string'
PUBLIC	??_C@_0BA@EHILAMBM@NumberOfButtons@		; `string'
PUBLIC	??_C@_0BA@PLLFIHNG@DeviceInterface@		; `string'
PUBLIC	??_C@_0N@OGCCLEJJ@HardwareType@			; `string'
PUBLIC	??_C@_0L@DEGCDBKP@Handedness@			; `string'
PUBLIC	??_C@_0BF@FLDPHBAC@DoubleSpeedThreshold@	; `string'
PUBLIC	??_C@_0M@LNGELFEC@InfFileName@			; `string'
PUBLIC	??_C@_0L@KHOEHLLF@InfSection@			; `string'
PUBLIC	??_C@_0BD@MJAHKLJJ@QuadSpeedThreshold@		; `string'
PUBLIC	??_C@_0L@KGPBCGJE@Resolution@			; `string'
PUBLIC	??_C@_0L@NEGJIGMA@SampleRate@			; `string'
PUBLIC	??_C@_05MKJLCFN@Synch@				; `string'
PUBLIC	??_C@_0BE@BFHBBNBL@Win32_PortConnector@		; `string'
PUBLIC	??_C@_0BM@OAEDMMAI@ExternalReferenceDesignator@	; `string'
PUBLIC	??_C@_0BM@JBGCGAG@InternalReferenceDesignator@	; `string'
PUBLIC	??_C@_08BOPEOHEK@PortType@			; `string'
PUBLIC	??_C@_0O@CPCPFFAH@ConnectorType@		; `string'
PUBLIC	??_C@_0BA@KNNOFNF@ConnectorPinout@		; `string'
PUBLIC	??_C@_0BD@JJNGNMBL@Win32_PortResource@		; `string'
PUBLIC	??_C@_05NNNCCOHC@Alias@				; `string'
PUBLIC	??_C@_0BE@HLKMDILE@Win32_PrinterDriver@		; `string'
PUBLIC	??_C@_0BA@PFCCEOEE@DefaultDataType@		; `string'
PUBLIC	??_C@_0L@EAJLGPDF@DriverPath@			; `string'
PUBLIC	??_C@_08CKKAOMLK@FilePath@			; `string'
PUBLIC	??_C@_0L@LKBOBDBI@ConfigFile@			; `string'
PUBLIC	??_C@_08JFJMIJHO@DataFile@			; `string'
PUBLIC	??_C@_0M@PJPGFADP@MonitorName@			; `string'
PUBLIC	??_C@_0BC@MLDLGMGB@SupportedPlatform@		; `string'
PUBLIC	??_C@_07JFPHJDHA@InfName@			; `string'
PUBLIC	??_C@_08GLFJHHAH@HelpFile@			; `string'
PUBLIC	??_C@_0P@NBBGILI@DependentFiles@		; `string'
PUBLIC	??_C@_06ENMIEFDD@OEMUrl@			; `string'
PUBLIC	??_C@_07LCDJNPHI@Started@			; `string'
PUBLIC	??_C@_09IAGOJBFI@StartMode@			; `string'
PUBLIC	??_C@_0BA@OJJOBJJP@Win32_Processor@		; `string'
PUBLIC	??_C@_0N@MDJPNJNL@Architecture@			; `string'
PUBLIC	??_C@_0O@FFCOPHIP@NumberOfCores@		; `string'
PUBLIC	??_C@_0O@MJOHKFKO@MaxClockSpeed@		; `string'
PUBLIC	??_C@_0BK@OBFFNDNO@NumberOfLogicalProcessors@	; `string'
PUBLIC	??_C@_06BOFMEHLD@Family@			; `string'
PUBLIC	??_C@_0M@DJKFFMLN@L2CacheSize@			; `string'
PUBLIC	??_C@_0N@NBPCHGPE@L2CacheSpeed@			; `string'
PUBLIC	??_C@_0M@PICLIDHN@L3CacheSize@			; `string'
PUBLIC	??_C@_0N@EKFHDKJL@L3CacheSpeed@			; `string'
PUBLIC	??_C@_0N@IPOPOCBB@AddressWidth@			; `string'
PUBLIC	??_C@_09OJECCCEO@CpuStatus@			; `string'
PUBLIC	??_C@_0BC@JFANJPME@CurrentClockSpeed@		; `string'
PUBLIC	??_C@_0P@IHAGOHLC@CurrentVoltage@		; `string'
PUBLIC	??_C@_09KNGBBIL@DataWidth@			; `string'
PUBLIC	??_C@_08JALCBBMK@ExtClock@			; `string'
PUBLIC	??_C@_05KOHFLOFG@Level@				; `string'
PUBLIC	??_C@_0P@HLLBIGKP@LoadPercentage@		; `string'
PUBLIC	??_C@_0BH@LLAHKBOJ@OtherFamilyDescription@	; `string'
PUBLIC	??_C@_0M@DHKOOBFD@ProcessorId@			; `string'
PUBLIC	??_C@_0O@DAODMABE@ProcessorType@		; `string'
PUBLIC	??_C@_08DNLDHPFP@Revision@			; `string'
PUBLIC	??_C@_04EBAMNOLK@Role@				; `string'
PUBLIC	??_C@_0BC@GCIFEBIL@SocketDesignation@		; `string'
PUBLIC	??_C@_08HPJGCEAH@Stepping@			; `string'
PUBLIC	??_C@_08HJBCPKNB@UniqueId@			; `string'
PUBLIC	??_C@_0O@KHACBBMN@UpgradeMethod@		; `string'
PUBLIC	??_C@_0M@DEJHGOJI@VoltageCaps@			; `string'
PUBLIC	??_C@_0BF@OGHHAMBD@Win32_SCSIController@	; `string'
PUBLIC	??_C@_0L@DJBCKAGE@DriverName@			; `string'
PUBLIC	??_C@_0BA@BJODOJJC@HardwareVersion@		; `string'
PUBLIC	??_C@_0BD@LPBNFPJD@ControllerTimeouts@		; `string'
PUBLIC	??_C@_09DJCHLIFB@DeviceMap@			; `string'
PUBLIC	??_C@_05FNNGFGLF@Index@				; `string'
PUBLIC	??_C@_0N@OLJPFNHL@MaxDataWidth@			; `string'
PUBLIC	??_C@_0BA@IDEAMGMB@MaxTransferRate@		; `string'
PUBLIC	??_C@_0BF@OGNJDJGP@ProtectionManagement@	; `string'
PUBLIC	??_C@_0BB@DLHLCIMJ@Win32_SerialPort@		; `string'
PUBLIC	??_C@_0M@BFAJGJNN@MaxBaudRate@			; `string'
PUBLIC	??_C@_0N@KFNBCBNP@ProviderType@			; `string'
PUBLIC	??_C@_06JCOMDNII@Binary@			; `string'
PUBLIC	??_C@_0BH@PKAPBGLB@MaximumInputBufferSize@	; `string'
PUBLIC	??_C@_0BI@EAKFLPF@MaximumOutputBufferSize@	; `string'
PUBLIC	??_C@_0BB@NCMHEECO@OSAutoDiscovered@		; `string'
PUBLIC	??_C@_0BB@CCEBCKAP@SettableBaudRate@		; `string'
PUBLIC	??_C@_0BB@BOCNMDDI@SettableDataBits@		; `string'
PUBLIC	??_C@_0BE@FMKJPGFK@SettableFlowControl@		; `string'
PUBLIC	??_C@_0P@MOHECAJ@SettableParity@		; `string'
PUBLIC	??_C@_0BE@NMPLPPIE@SettableParityCheck@		; `string'
PUBLIC	??_C@_0N@OBGEBGNG@SettableRLSD@			; `string'
PUBLIC	??_C@_0BB@EPIEMKMF@SettableStopBits@		; `string'
PUBLIC	??_C@_0BC@EEEMKCBH@Supports16BitMode@		; `string'
PUBLIC	??_C@_0P@GODDIGIP@SupportsDTRDSR@		; `string'
PUBLIC	??_C@_0BI@LJLLOLPH@SupportsElapsedTimeouts@	; `string'
PUBLIC	??_C@_0BE@JOEIKOLI@SupportsIntTimeouts@		; `string'
PUBLIC	??_C@_0BE@JCPAAGPO@SupportsParityCheck@		; `string'
PUBLIC	??_C@_0N@GBIJPBEE@SupportsRLSD@			; `string'
PUBLIC	??_C@_0P@NGNOBJLG@SupportsRTSCTS@		; `string'
PUBLIC	??_C@_0BK@GGENNCGN@SupportsSpecialCharacters@	; `string'
PUBLIC	??_C@_0BA@OPAGJFHI@SupportsXOnXOff@		; `string'
PUBLIC	??_C@_0BD@GDEAPHBI@SupportsXOnXOffSet@		; `string'
PUBLIC	??_C@_0BO@BPJAPEGK@Win32_SerialPortConfiguration@ ; `string'
PUBLIC	??_C@_08FCNNIBJG@BaudRate@			; `string'
PUBLIC	??_C@_0M@PAFDOFKP@BitsPerByte@			; `string'
PUBLIC	??_C@_06OKNHBMNM@Parity@			; `string'
PUBLIC	??_C@_08DPBIGBFM@StopBits@			; `string'
PUBLIC	??_C@_06OICOCAHF@IsBusy@			; `string'
PUBLIC	??_C@_0BG@DFLLPBBO@AbortReadWriteOnError@	; `string'
PUBLIC	??_C@_0BC@OGEDEEBA@BinaryModeEnabled@		; `string'
PUBLIC	??_C@_0BD@MCBMPIAJ@ContinueXMitOnXOff@		; `string'
PUBLIC	??_C@_0BC@BMKJGEMK@CTSOutflowControl@		; `string'
PUBLIC	??_C@_0BB@LNMOOKGE@DiscardNULLBytes@		; `string'
PUBLIC	??_C@_0BC@HDHNIDHE@DSROutflowControl@		; `string'
PUBLIC	??_C@_0P@FDLAEJMA@DSRSensitivity@		; `string'
PUBLIC	??_C@_0BD@HKACMHPL@DTRFlowControlType@		; `string'
PUBLIC	??_C@_0N@HDNBGKMG@EOFCharacter@			; `string'
PUBLIC	??_C@_0BG@HECEEKCN@ErrorReplaceCharacter@	; `string'
PUBLIC	??_C@_0BI@MDNCEDD@ErrorReplacementEnabled@	; `string'
PUBLIC	??_C@_0P@ELDMBJ@EventCharacter@			; `string'
PUBLIC	??_C@_0BD@KACACAPH@ParityCheckEnabled@		; `string'
PUBLIC	??_C@_0BD@HDDKDMKB@RTSFlowControlType@		; `string'
PUBLIC	??_C@_09CMMJGBDB@SettingID@			; `string'
PUBLIC	??_C@_0O@IABHIILA@XOffCharacter@		; `string'
PUBLIC	??_C@_0BC@PIOKAKHD@XOffXMitThreshold@		; `string'
PUBLIC	??_C@_0N@LMKFMCPA@XOnCharacter@			; `string'
PUBLIC	??_C@_0BB@OHGPOKOF@XOnXMitThreshold@		; `string'
PUBLIC	??_C@_0BF@FMELJHC@XOnXOffInFlowControl@		; `string'
PUBLIC	??_C@_0BG@LCMFOHKE@XOnXOffOutFlowControl@	; `string'
PUBLIC	??_C@_0BC@INJPMPPD@Win32_SoundDevice@		; `string'
PUBLIC	??_C@_0M@MNPNDAHP@ProductName@			; `string'
PUBLIC	??_C@_0O@GILLNKKD@MPU401Address@		; `string'
PUBLIC	??_C@_0O@GHJKPLAG@DMABufferSize@		; `string'
PUBLIC	??_C@_0BE@KNIHCNGM@Win32_USBController@		; `string'
PUBLIC	??_C@_0BG@IOBPPLKC@Win32_VideoController@	; `string'
PUBLIC	??_C@_0BE@FEOPMOOE@CurrentBitsPerPixel@		; `string'
PUBLIC	??_C@_0BM@OFHJCNEB@CurrentHorizontalResolution@	; `string'
PUBLIC	??_C@_0BK@LFIAOAGD@CurrentVerticalResolution@	; `string'
PUBLIC	??_C@_0BG@NCBMILGB@CurrentNumberOfColors@	; `string'
PUBLIC	??_C@_0BD@JKLPINND@CurrentRefreshRate@		; `string'
PUBLIC	??_C@_0BA@CDIHNLEF@CurrentScanMode@		; `string'
PUBLIC	??_C@_0BH@IKBJPLJ@CurrentNumberOfColumns@	; `string'
PUBLIC	??_C@_0BE@BKBIMFEG@CurrentNumberOfRows@		; `string'
PUBLIC	??_C@_0BC@GFHBBCIN@VideoArchitecture@		; `string'
PUBLIC	??_C@_0BA@COFLHODM@VideoMemoryType@		; `string'
PUBLIC	??_C@_09LIEAKBEG@VideoMode@			; `string'
PUBLIC	??_C@_0BF@MAGAOPPB@VideoModeDescription@	; `string'
PUBLIC	??_C@_0P@OMEGAAG@VideoProcessor@		; `string'
PUBLIC	??_C@_0BC@PEHKLIOA@ColorTableEntries@		; `string'
PUBLIC	??_C@_0BF@JCFFEIIM@NumberOfColorPlanes?$DL@	; `string'
PUBLIC	??_C@_0BD@DECAKEGH@NumberOfVideoPages@		; `string'
PUBLIC	??_C@_0BF@FKKNOPFN@SystemPaletteEntries@	; `string'
PUBLIC	??_C@_0BI@DFJMJFBI@AcceleratorCapabilities@	; `string'
PUBLIC	??_C@_0BF@LPCADEJI@AdapterCompatibility@	; `string'
PUBLIC	??_C@_0P@MPKKGADB@AdapterDACType@		; `string'
PUBLIC	??_C@_0L@CKHNOAKJ@AdapterRAM@			; `string'
PUBLIC	??_C@_0M@HMKFJKEG@InfFilename@			; `string'
PUBLIC	??_C@_0O@KKIKAADI@DriverVersion@		; `string'
PUBLIC	??_C@_0BD@HBMCPLLH@DeviceSpecificPens@		; `string'
PUBLIC	??_C@_0L@HJOBJMDE@DitherType@			; `string'
PUBLIC	??_C@_0L@GAFFCADK@DriverDate@			; `string'
PUBLIC	??_C@_09MBIABGHL@ICMIntent@			; `string'
PUBLIC	??_C@_09OGGCGCBA@ICMMethod@			; `string'
PUBLIC	??_C@_0BI@NCJGCGIA@InstalledDisplayDrivers@	; `string'
PUBLIC	??_C@_0BD@KFJBBNPN@MaxMemorySupported@		; `string'
PUBLIC	??_C@_0P@DHIEOPKP@MaxRefreshRate@		; `string'
PUBLIC	??_C@_0P@BADPIIJO@MinRefreshRate@		; `string'
PUBLIC	??_C@_0L@NCAJOFAD@Monochrome@			; `string'
PUBLIC	??_C@_0BN@FJFLBOEO@ReservedSystemPaletteEntries@ ; `string'
PUBLIC	??_C@_0BF@HGGDLIIF@SpecificationVersion@	; `string'
PUBLIC	??_C@_0BA@CJPFNKBD@Win32_DiskDrive@		; `string'
PUBLIC	??_C@_0L@BLANPANH@Partitions@			; `string'
PUBLIC	??_C@_09GDNFOKKF@Signature@			; `string'
PUBLIC	??_C@_0P@MMMIFHLL@BytesPerSector@		; `string'
PUBLIC	??_C@_0BB@HMBACBBL@FirmwareRevision@		; `string'
PUBLIC	??_C@_0O@IHENGMAG@InterfaceType@		; `string'
PUBLIC	??_C@_0BA@CCMKCJPC@SectorsPerTrack@		; `string'
PUBLIC	??_C@_0P@NEMACPGO@TotalCylinders@		; `string'
PUBLIC	??_C@_0L@PLGEACLG@TotalHeads@			; `string'
PUBLIC	??_C@_0N@BJMAPGKO@TotalSectors@			; `string'
PUBLIC	??_C@_0M@BHKEFGGG@TotalTracks@			; `string'
PUBLIC	??_C@_0BC@KOKBEBBE@TracksPerCylinder@		; `string'
PUBLIC	??_C@_0BE@GBMGFCLI@Win32_DiskPartition@		; `string'
PUBLIC	??_C@_04KOACHJEN@Type@				; `string'
PUBLIC	??_C@_08GBCOMNMP@Bootable@			; `string'
PUBLIC	??_C@_0O@GKABHDFN@BootPartition@		; `string'
PUBLIC	??_C@_0BB@GMPNKCND@PrimaryPartition@		; `string'
PUBLIC	??_C@_06IOEANFCI@Access@			; `string'
PUBLIC	??_C@_09JFLKFGKE@BlockSize@			; `string'
PUBLIC	??_C@_0P@PGINBNEO@NumberOfBlocks@		; `string'
PUBLIC	??_C@_0O@NMDEFEE@HiddenSectors@			; `string'
PUBLIC	??_C@_07ODOLMOGH@Purpose@			; `string'
PUBLIC	??_C@_0BB@CLPKNLNO@RewritePartition@		; `string'
PUBLIC	??_C@_0P@HEMAHOJD@StartingOffset@		; `string'
PUBLIC	??_C@_0BE@JBJLNBAC@Win32_PhysicalMedia@		; `string'
PUBLIC	??_C@_0BB@GANKFIKA@MediaDescription@		; `string'
PUBLIC	??_C@_0BC@FNAKMFAB@CreationClassName@		; `string'
PUBLIC	??_C@_08PINBMPEF@Capacity@			; `string'
PUBLIC	??_C@_0P@CNPPDDMA@WriteProtectOn@		; `string'
PUBLIC	??_C@_0N@NINPCONM@CleanerMedia@			; `string'
PUBLIC	??_C@_0BA@GLDDIFFN@Win32_TapeDrive@		; `string'
PUBLIC	??_C@_02HOGEDOAB@Id@				; `string'
PUBLIC	??_C@_0M@COKFBABJ@Compression@			; `string'
PUBLIC	??_C@_03NLPJKHLD@ECC@				; `string'
PUBLIC	??_C@_0BD@IDPNAMKG@EOTWarningZoneSize@		; `string'
PUBLIC	??_C@_0N@PNICBLFI@FeaturesHigh@			; `string'
PUBLIC	??_C@_0M@GCKGDCME@FeaturesLow@			; `string'
PUBLIC	??_C@_0BC@NKLHGLCM@MaxPartitionCount@		; `string'
PUBLIC	??_C@_07DDDGKLAD@Padding@			; `string'
PUBLIC	??_C@_0P@OCFCAPCK@ReportSetMarks@		; `string'
PUBLIC	??_C@_0BC@BKKBKJDE@Win32_CacheMemory@		; `string'
PUBLIC	??_C@_0BE@FGEPBFNL@AdditionalErrorData@		; `string'
PUBLIC	??_C@_0O@BJAAJMNJ@Associativity@		; `string'
PUBLIC	??_C@_0L@GKCEABFB@CacheSpeed@			; `string'
PUBLIC	??_C@_09LDLPEFB@CacheType@			; `string'
PUBLIC	??_C@_0N@FNMLGPI@MaxCacheSize@			; `string'
PUBLIC	??_C@_0BB@HJBOPHEK@CorrectableError@		; `string'
PUBLIC	??_C@_0M@JJECGOOK@CurrentSRAM@			; `string'
PUBLIC	??_C@_0O@DMEOEBEF@EndingAddress@		; `string'
PUBLIC	??_C@_0M@PJGEGKNG@ErrorAccess@			; `string'
PUBLIC	??_C@_0N@BEELHEFJ@ErrorAddress@			; `string'
PUBLIC	??_C@_0BB@OEAEPHLK@ErrorCorrectType@		; `string'
PUBLIC	??_C@_09GOCFECJA@ErrorData@			; `string'
PUBLIC	??_C@_0P@LPKOAMHJ@ErrorDataOrder@		; `string'
PUBLIC	??_C@_09EPPHMMOH@ErrorInfo@			; `string'
PUBLIC	??_C@_0BA@DBMDPLBE@ErrorResolution@		; `string'
PUBLIC	??_C@_09LMOKKAAG@ErrorTime@			; `string'
PUBLIC	??_C@_0BC@FEODMBII@ErrorTransferSize@		; `string'
PUBLIC	??_C@_0L@NIIIAJJG@FlushTimer@			; `string'
PUBLIC	??_C@_0O@BJDNNDOA@InstalledSize@		; `string'
PUBLIC	??_C@_08BFDFHGHF@LineSize@			; `string'
PUBLIC	??_C@_08KDOEBHGA@Location@			; `string'
PUBLIC	??_C@_0BG@GMMANAIM@OtherErrorDescription@	; `string'
PUBLIC	??_C@_0L@OICKBPFP@ReadPolicy@			; `string'
PUBLIC	??_C@_0BC@CACAEAGO@ReplacementPolicy@		; `string'
PUBLIC	??_C@_0BA@JKJCLFJA@StartingAddress@		; `string'
PUBLIC	??_C@_0O@LOONNFKJ@SupportedSRAM@		; `string'
PUBLIC	??_C@_0BD@EHELDMNK@SystemLevelAddress@		; `string'
PUBLIC	??_C@_0M@GMGLDKG@WritePolicy@			; `string'
PUBLIC	??_C@_0BK@CHMJMDKA@Win32_DeviceMemoryAddress@	; `string'
PUBLIC	??_C@_0L@NKIIONIP@MemoryType@			; `string'
PUBLIC	??_C@_0BC@NBCNDILJ@Win32_MemoryArray@		; `string'
PUBLIC	??_C@_0BB@CCADGENH@ErrorGranularity@		; `string'
PUBLIC	??_C@_0BD@MHIIAMPP@Win32_MemoryDevice@		; `string'
PUBLIC	??_C@_0BF@CGHJBIMG@Win32_PhysicalMemory@	; `string'
PUBLIC	??_C@_09ELEBPJGH@BankLabel@			; `string'
PUBLIC	??_C@_0O@DKGGAIKL@DeviceLocator@		; `string'
PUBLIC	??_C@_0L@JPOMKNPI@FormFactor@			; `string'
PUBLIC	??_C@_0BE@GAJMAAIE@InterleaveDataDepth@		; `string'
PUBLIC	??_C@_0BD@OOBFBMPB@InterleavePosition@		; `string'
PUBLIC	??_C@_0O@MJAFBIEI@PositionInRow@		; `string'
PUBLIC	??_C@_05HOIAGEJD@Speed@				; `string'
PUBLIC	??_C@_0L@EONKMHCB@TotalWidth@			; `string'
PUBLIC	??_C@_0L@NHBAOOAD@TypeDetail@			; `string'
PUBLIC	??_C@_0BK@FKMONDCJ@Win32_PhysicalMemoryArray@	; `string'
PUBLIC	??_C@_0O@EOCLGIEK@MemoryDevices@		; `string'
PUBLIC	??_C@_0M@LPAFCHAO@MaxCapacity@			; `string'
PUBLIC	??_C@_0BG@BDKPEMKD@MemoryErrorCorrection@	; `string'
PUBLIC	??_C@_03GMFFJGJI@Use@				; `string'
PUBLIC	??_C@_0BD@CLOLHCII@Win32_SMBIOSMemory@		; `string'
PUBLIC	??_C@_0BL@GIIBFPAF@Win32_SystemMemoryResource@	; `string'
PUBLIC	??_C@_0BF@GMDCFJKK@Win32_ComputerSystem@	; `string'
PUBLIC	??_C@_0L@GEHHDFHH@SystemType@			; `string'
PUBLIC	??_C@_0BD@KEFEPCEP@NumberOfProcessors@		; `string'
PUBLIC	??_C@_08KAFEAHEM@UserName@			; `string'
PUBLIC	??_C@_0BE@BPKIAGEB@AdminPasswordStatus@		; `string'
PUBLIC	??_C@_0BJ@GMKDMOMC@AutomaticManagedPagefile@	; `string'
PUBLIC	??_C@_0BJ@CCCKPNOE@AutomaticResetBootOption@	; `string'
PUBLIC	??_C@_0BJ@HFJMLPDD@AutomaticResetCapability@	; `string'
PUBLIC	??_C@_0BC@LOIFGJNH@BootOptionOnLimit@		; `string'
PUBLIC	??_C@_0BF@NHNHHNLM@BootOptionOnWatchDog@	; `string'
PUBLIC	??_C@_0BB@KCAGDBFG@BootROMSupported@		; `string'
PUBLIC	??_C@_0M@FAIFADKE@BootupState@			; `string'
PUBLIC	??_C@_0BD@NPOFELCJ@ChassisBootupState@		; `string'
PUBLIC	??_C@_0BA@KEBGPOLH@CurrentTimeZone@		; `string'
PUBLIC	??_C@_0BB@PNOOHJBN@DaylightInEffect@		; `string'
PUBLIC	??_C@_0M@HMDMJNAL@DNSHostName@			; `string'
PUBLIC	??_C@_06HFDFFJHI@Domain@			; `string'
PUBLIC	??_C@_0L@DHGJAMBB@DomainRole@			; `string'
PUBLIC	??_C@_0BK@DMLHGPE@EnableDaylightSavingsTime@	; `string'
PUBLIC	??_C@_0BG@OFHEPCGG@FrontPanelResetStatus@	; `string'
PUBLIC	??_C@_0BC@MOGIEFCC@InfraredSupported@		; `string'
PUBLIC	??_C@_0BA@FHFMLOBH@InitialLoadInfo@		; `string'
PUBLIC	??_C@_0BH@NPMFKEOG@KeyboardPasswordStatus@	; `string'
PUBLIC	??_C@_0N@FDMFJCLB@LastLoadInfo@			; `string'
PUBLIC	??_C@_0L@INCFKHMA@NameFormat@			; `string'
PUBLIC	??_C@_0BJ@OJMPPEPI@NetworkServerModeEnabled@	; `string'
PUBLIC	??_C@_0O@KFCLFAME@OEMLogoBitmap@		; `string'
PUBLIC	??_C@_0P@DEDOEGFN@OEMStringArray@		; `string'
PUBLIC	??_C@_0N@BDBDHMKI@PartOfDomain@			; `string'
PUBLIC	??_C@_0BA@BAAGJACJ@PauseAfterReset@		; `string'
PUBLIC	??_C@_0N@EOPDJAGI@PCSystemType@			; `string'
PUBLIC	??_C@_0BG@MGBDJIM@PowerOnPasswordStatus@	; `string'
PUBLIC	??_C@_0L@PFLEPOFF@PowerState@			; `string'
PUBLIC	??_C@_0BB@PGEJAGBJ@PowerSupplyState@		; `string'
PUBLIC	??_C@_0BE@GNDJOKHP@PrimaryOwnerContact@		; `string'
PUBLIC	??_C@_0BB@CIHLIHGG@PrimaryOwnerName@		; `string'
PUBLIC	??_C@_0BA@JGMMLHGF@ResetCapability@		; `string'
PUBLIC	??_C@_0L@NDDNCBN@ResetCount@			; `string'
PUBLIC	??_C@_0L@ODMHPMJN@ResetLimit@			; `string'
PUBLIC	??_C@_05CPOHHMHJ@Roles@				; `string'
PUBLIC	??_C@_0BK@GHHBNFKI@SupportContactDescription@	; `string'
PUBLIC	??_C@_0BD@MJBJDOPG@SystemStartupDelay@		; `string'
PUBLIC	??_C@_0BF@HNHDCNN@SystemStartupOptions@		; `string'
PUBLIC	??_C@_0BF@IKJAHOGK@SystemStartupSetting@	; `string'
PUBLIC	??_C@_0N@HHACICKK@ThermalState@			; `string'
PUBLIC	??_C@_0BE@LPDNMOEG@TotalPhysicalMemory@		; `string'
PUBLIC	??_C@_0L@FAPFOCCC@WakeUpType@			; `string'
PUBLIC	??_C@_09CLAAHCGK@Workgroup@			; `string'
PUBLIC	??_C@_0BM@IEKJLBKB@Win32_ComputerSystemProduct@	; `string'
PUBLIC	??_C@_06LGGLFMPE@Vendor@			; `string'
PUBLIC	??_C@_04NOKDILIH@UUID@				; `string'
PUBLIC	??_C@_0BC@IBEJLMDM@IdentifyingNumber@		; `string'
PUBLIC	??_C@_09ODBEMGCH@SKUNumber@			; `string'
PUBLIC	??_C@_0O@LCAALOJJ@Win32_Product@		; `string'
PUBLIC	??_C@_09IHHILKBJ@ProductID@			; `string'
PUBLIC	??_C@_0P@CAOEPKFE@AssignmentType@		; `string'
PUBLIC	??_C@_0BA@DLLPKNMD@InstallLocation@		; `string'
PUBLIC	??_C@_0N@FNHIHJOE@InstallState@			; `string'
PUBLIC	??_C@_08LMOOJGEG@HelpLink@			; `string'
PUBLIC	??_C@_0O@PPCFOOHH@HelpTelephone@		; `string'
PUBLIC	??_C@_0O@GCCHCBIO@InstallSource@		; `string'
PUBLIC	??_C@_08BENDAOKD@Language@			; `string'
PUBLIC	??_C@_0N@ONDNCIN@LocalPackage@			; `string'
PUBLIC	??_C@_0N@LIDMIFHK@PackageCache@			; `string'
PUBLIC	??_C@_0M@OMMGPPBL@PackageCode@			; `string'
PUBLIC	??_C@_0M@PLFIHHBG@PackageName@			; `string'
PUBLIC	??_C@_08KOFIEIPM@RegOwner@			; `string'
PUBLIC	??_C@_0L@BDBMLIBF@RegCompany@			; `string'
PUBLIC	??_C@_0L@LNLOEOEC@Transforms@			; `string'
PUBLIC	??_C@_0N@CIJCJNDA@URLInfoAbout@			; `string'
PUBLIC	??_C@_0O@FDAGMPND@URLUpdateInfo@		; `string'
PUBLIC	??_C@_09JCLOCIPO@WordCount@			; `string'
PUBLIC	??_C@_0BK@FHHANEEI@Win32_QuickFixEngineering@	; `string'
PUBLIC	??_C@_08GFKGEEBB@HotFixID@			; `string'
PUBLIC	??_C@_0M@NMGHOPGA@InstalledBy@			; `string'
PUBLIC	??_C@_0M@NBDMPIKF@InstalledOn@			; `string'
PUBLIC	??_C@_0M@PIGNGIJB@FixComments@			; `string'
PUBLIC	??_C@_0BE@FBEKBLIJ@ServicePackInEffect@		; `string'
PUBLIC	??_C@_0BE@DKANKDCG@Win32_Refrigeration@		; `string'
PUBLIC	??_C@_0P@OGGGECNI@Win32_Registry@		; `string'
PUBLIC	??_C@_0M@MLALLFJB@CurrentSize@			; `string'
PUBLIC	??_C@_0M@JHEHBNHB@MaximumSize@			; `string'
PUBLIC	??_C@_0N@JHIKPPPP@ProposedSize@			; `string'
PUBLIC	??_C@_0BE@DHOOODEL@Win32_SystemAccount@		; `string'
PUBLIC	??_C@_03OMFNLMOB@SID@				; `string'
PUBLIC	??_C@_0N@FPKOIMIG@LocalAccount@			; `string'
PUBLIC	??_C@_07JDPBNNMM@SIDType@			; `string'
PUBLIC	??_C@_0BD@GGPCAOMO@Win32_SystemDriver@		; `string'
PUBLIC	??_C@_0M@MLHPPPJP@DisplayName@			; `string'
PUBLIC	??_C@_08LHLJMCNC@PathName@			; `string'
PUBLIC	??_C@_0M@MEIJGDEJ@AcceptPause@			; `string'
PUBLIC	??_C@_0L@MPAKMMDG@AcceptStop@			; `string'
PUBLIC	??_C@_0BA@DKLNMHH@DesktopInteract@		; `string'
PUBLIC	??_C@_0N@GPBKMKLE@ErrorControl@			; `string'
PUBLIC	??_C@_08FHJJFIAP@ExitCode@			; `string'
PUBLIC	??_C@_0BI@JAIDFKNN@ServiceSpecificExitCode@	; `string'
PUBLIC	??_C@_0M@CFFFGGEC@ServiceType@			; `string'
PUBLIC	??_C@_09CIMAKHDE@StartName@			; `string'
PUBLIC	??_C@_05JNKNAC@State@				; `string'
PUBLIC	??_C@_05KFFLJNBG@TagId@				; `string'
PUBLIC	??_C@_0BG@COLMHJCF@Win32_SystemEnclosure@	; `string'
PUBLIC	??_C@_0N@MLFAOMIG@ChassisTypes@			; `string'
PUBLIC	??_C@_0N@FBKDMIBE@AudibleAlarm@			; `string'
PUBLIC	??_C@_0BC@OICCILBJ@BreachDescription@		; `string'
PUBLIC	??_C@_0BI@OIOFCGCN@CableManagementStrategy@	; `string'
PUBLIC	??_C@_0BK@DMAHAAAM@CurrentRequiredOrProduced@	; `string'
PUBLIC	??_C@_0P@FPMIANAI@HeatGeneration@		; `string'
PUBLIC	??_C@_0M@FLPBGKMO@LockPresent@			; `string'
PUBLIC	??_C@_0BD@BOLIJOBH@NumberOfPowerCords@		; `string'
PUBLIC	??_C@_0P@IFAJDLJO@SecurityBreach@		; `string'
PUBLIC	??_C@_0P@LBCDFKMM@SecurityStatus@		; `string'
PUBLIC	??_C@_0BE@CDEDGENH@ServiceDescriptions@		; `string'
PUBLIC	??_C@_0BC@MJACHPAA@ServicePhilosophy@		; `string'
PUBLIC	??_C@_0P@GDBINLPP@SMBIOSAssetTag@		; `string'
PUBLIC	??_C@_0BB@EPPDMJMG@TypeDescriptions@		; `string'
PUBLIC	??_C@_0N@BGAIBJKD@VisibleAlarm@			; `string'
PUBLIC	??_C@_0BB@IINEGLLN@Win32_SystemSlot@		; `string'
PUBLIC	??_C@_0BA@JKMEMADA@SlotDesignation@		; `string'
PUBLIC	??_C@_0N@OHNMFPEL@CurrentUsage@			; `string'
PUBLIC	??_C@_0O@JIADPBNP@HeightAllowed@		; `string'
PUBLIC	??_C@_0O@ICFBEHEI@LengthAllowed@		; `string'
PUBLIC	??_C@_09KGLBDKHB@PMESignal@			; `string'
PUBLIC	??_C@_0BD@MJCDBDLK@PurposeDescription@		; `string'
PUBLIC	??_C@_06LOOAMPBO@Shared@			; `string'
PUBLIC	??_C@_0P@MHGKENBB@SpecialPurpose@		; `string'
PUBLIC	??_C@_0BA@HLMBNLEL@SupportsHotPlug@		; `string'
PUBLIC	??_C@_0O@OPICFFNJ@ThermalRating@		; `string'
PUBLIC	??_C@_0BH@BMAHGALK@VccMixedVoltageSupport@	; `string'
PUBLIC	??_C@_0BH@LMHCBHLE@VppMixedVoltageSupport@	; `string'
PUBLIC	??_C@_0BF@IPHNLIOA@Win32_NetworkAdapter@	; `string'
PUBLIC	??_C@_0L@MLCHOGMM@MACAddress@			; `string'
PUBLIC	??_C@_0BA@PKOOKBHK@PhysicalAdapter@		; `string'
PUBLIC	??_C@_0M@IOFGKGDC@ServiceName@			; `string'
PUBLIC	??_C@_0BA@FMEGGBNH@NetConnectionID@		; `string'
PUBLIC	??_C@_0BE@OHJLPIPO@NetConnectionStatus@		; `string'
PUBLIC	??_C@_08MFFAALKH@MaxSpeed@			; `string'
PUBLIC	??_C@_04MEIDEPGF@GUID@				; `string'
PUBLIC	??_C@_0BB@HCIBJPII@NetworkAddresses@		; `string'
PUBLIC	??_C@_0BB@CPOCLJND@PermanentAddress@		; `string'
PUBLIC	??_C@_0M@CBMGKKGD@AdapterType@			; `string'
PUBLIC	??_C@_0O@JDINGPBK@AdapterTypeID@		; `string'
PUBLIC	??_C@_09MMNBJFFE@AutoSense@			; `string'
PUBLIC	??_C@_09HBJECKPO@Installed@			; `string'
PUBLIC	??_C@_0P@LMPBIBLI@InterfaceIndex@		; `string'
PUBLIC	??_C@_0L@COBEMNCH@NetEnabled@			; `string'
PUBLIC	??_C@_0CC@CIAMNGGL@Win32_NetworkAdapterConfigurati@ ; `string'
PUBLIC	??_C@_09NIGMFFPO@IPAddress@			; `string'
PUBLIC	??_C@_0L@BJOKJMLN@DHCPServer@			; `string'
PUBLIC	??_C@_0BB@HACNIBBH@DefaultIPGateway@		; `string'
PUBLIC	??_C@_09FBHLGFBK@DNSDomain@			; `string'
PUBLIC	??_C@_08EKHHNDLH@IPSubnet@			; `string'
PUBLIC	??_C@_0BF@NNMMFFI@ArpAlwaysSourceRoute@		; `string'
PUBLIC	??_C@_0BA@DHDIOMKI@ArpUseEtherSNAP@		; `string'
PUBLIC	??_C@_0N@OAKOAPMO@DatabasePath@			; `string'
PUBLIC	??_C@_0BE@GOBIIDKA@DeadGWDetectEnabled@		; `string'
PUBLIC	??_C@_0L@JFBEJJHM@DefaultTOS@			; `string'
PUBLIC	??_C@_0L@EIDNNLHD@DefaultTTL@			; `string'
PUBLIC	??_C@_0M@HIMIFMFA@DHCPEnabled@			; `string'
PUBLIC	??_C@_0BB@BOGKHOEE@DHCPLeaseExpires@		; `string'
PUBLIC	??_C@_0BC@MIONLOAH@DHCPLeaseObtained@		; `string'
PUBLIC	??_C@_0BL@NEHFNDKH@DNSDomainSuffixSearchOrder@	; `string'
PUBLIC	??_C@_0BM@LEBEBEIJ@DNSEnabledForWINSResolution@	; `string'
PUBLIC	??_C@_0BF@CIMMNJEP@DNSServerSearchOrder@	; `string'
PUBLIC	??_C@_0BN@OACMHJBD@DomainDNSRegistrationEnabled@ ; `string'
PUBLIC	??_C@_0BE@GGFBGHJP@ForwardBufferMemory@		; `string'
PUBLIC	??_C@_0BL@EIIPDLGE@FullDNSRegistrationEnabled@	; `string'
PUBLIC	??_C@_0BC@JPOLFPNM@GatewayCostMetric@		; `string'
PUBLIC	??_C@_09LFCMALKM@IGMPLevel@			; `string'
PUBLIC	??_C@_0BD@KDBLHBOO@IPConnectionMetric@		; `string'
PUBLIC	??_C@_09KIFLBGKF@IPEnabled@			; `string'
PUBLIC	??_C@_0BI@LBDHONDJ@IPFilterSecurityEnabled@	; `string'
PUBLIC	??_C@_0BG@IJANIIKC@IPPortSecurityEnabled@	; `string'
PUBLIC	??_C@_0BH@HHIPIHMF@IPSecPermitIPProtocols@	; `string'
PUBLIC	??_C@_0BE@JOIOPHFJ@IPSecPermitTCPPorts@		; `string'
PUBLIC	??_C@_0BE@IDDAOKAD@IPSecPermitUDPPorts@		; `string'
PUBLIC	??_C@_0BD@EFBIPBIB@IPUseZeroBroadcast@		; `string'
PUBLIC	??_C@_0L@JNAHKDDE@IPXAddress@			; `string'
PUBLIC	??_C@_0L@ONDAOAGP@IPXEnabled@			; `string'
PUBLIC	??_C@_0N@EAKCLKKB@IPXFrameType@			; `string'
PUBLIC	??_C@_0N@FHNNAGIP@IPXMediaType@			; `string'
PUBLIC	??_C@_0BB@HFHJDNKD@IPXNetworkNumber@		; `string'
PUBLIC	??_C@_0BE@KIGHGIHN@IPXVirtualNetNumber@		; `string'
PUBLIC	??_C@_0BC@HLLJNCGL@KeepAliveInterval@		; `string'
PUBLIC	??_C@_0O@HNPIKCNH@KeepAliveTime@		; `string'
PUBLIC	??_C@_03BLLMIPHO@MTU@				; `string'
PUBLIC	??_C@_0BC@CHJCENM@NumForwardPackets@		; `string'
PUBLIC	??_C@_0BF@DPKIODPI@PMTUBHDetectEnabled?$DL@	; `string'
PUBLIC	??_C@_0BF@KBFAFCNG@PMTUDiscoveryEnabled@	; `string'
PUBLIC	??_C@_0BE@MJKNHDFN@TcpipNetbiosOptions@		; `string'
PUBLIC	??_C@_0BN@NBAJINBE@TcpMaxConnectRetransmissions@ ; `string'
PUBLIC	??_C@_0BK@ICGANMDC@TcpMaxDataRetransmissions@	; `string'
PUBLIC	??_C@_0BC@CEGEJAFC@TcpNumConnections@		; `string'
PUBLIC	??_C@_0BL@JOFENPLC@TcpUseRFC1122UrgentPointer@	; `string'
PUBLIC	??_C@_0O@CIEPJIDD@TcpWindowSize@		; `string'
PUBLIC	??_C@_0BI@MIGGLKDO@WINSEnableLMHostsLookup@	; `string'
PUBLIC	??_C@_0BD@POPKKJKC@WINSHostLookupFile@		; `string'
PUBLIC	??_C@_0BC@BECMMLFM@WINSPrimaryServer@		; `string'
PUBLIC	??_C@_0M@CMEBCDLL@WINSScopeID@			; `string'
PUBLIC	??_C@_0BE@CHHDIDN@WINSSecondaryServer@		; `string'
PUBLIC	??_C@_0BK@BBOKMFIH@Win32_NetworkLoginProfile@	; `string'
PUBLIC	??_C@_08FPDCFGEH@FullName@			; `string'
PUBLIC	??_C@_0O@PKMMPAKN@HomeDirectory@		; `string'
PUBLIC	??_C@_0BD@GBDEODMP@HomeDirectoryDrive@		; `string'
PUBLIC	??_C@_0M@NDLIHBHJ@LogonServer@			; `string'
PUBLIC	??_C@_06HAPGBBDI@UserId@			; `string'
PUBLIC	??_C@_08LFHMHDM@UserType@			; `string'
PUBLIC	??_C@_0M@KEGPAPIK@UserComment@			; `string'
PUBLIC	??_C@_0P@FLJOKOM@AccountExpires@		; `string'
PUBLIC	??_C@_0BD@JGGENGAP@AuthorizationFlags@		; `string'
PUBLIC	??_C@_0BB@OBONNEPA@BadPasswordCount@		; `string'
PUBLIC	??_C@_08BHOPBADB@Caption?$DL@			; `string'
PUBLIC	??_C@_08DOHJINHB@CodePage@			; `string'
PUBLIC	??_C@_07JABLCLAF@Comment@			; `string'
PUBLIC	??_C@_0M@NALIBBDH@CountryCode@			; `string'
PUBLIC	??_C@_05BOOEKJH@Flags@				; `string'
PUBLIC	??_C@_0L@NKJIFPDG@LastLogoff@			; `string'
PUBLIC	??_C@_09JEOPKIAO@LastLogon@			; `string'
PUBLIC	??_C@_0L@HFGJFNDM@LogonHours@			; `string'
PUBLIC	??_C@_0P@BDLNENEK@MaximumStorage@		; `string'
PUBLIC	??_C@_0P@FMELCCCP@NumberOfLogons@		; `string'
PUBLIC	??_C@_0L@PBGCNDPG@Parameters@			; `string'
PUBLIC	??_C@_0M@HKNCEPDC@PasswordAge@			; `string'
PUBLIC	??_C@_0BA@HLOHOKEI@PasswordExpires@		; `string'
PUBLIC	??_C@_0P@CIBDNLPH@PrimaryGroupId@		; `string'
PUBLIC	??_C@_0L@FILALLBE@Privileges@			; `string'
PUBLIC	??_C@_07EELFDIBP@Profile@			; `string'
PUBLIC	??_C@_0L@GHILPLPE@ScriptPath@			; `string'
PUBLIC	??_C@_0N@LMMEGDEF@UnitsPerWeek@			; `string'
PUBLIC	??_C@_0N@LMIHDJBC@Workstations@			; `string'
PUBLIC	??_C@_0BG@IFKJCFNC@Win32_NetworkProtocol@	; `string'
PUBLIC	??_C@_0BG@IODJFDPJ@ConnectionlessService@	; `string'
PUBLIC	??_C@_0BD@ECGOALCK@GuaranteesDelivery@		; `string'
PUBLIC	??_C@_0BF@FAHCIDLD@GuaranteesSequencing@	; `string'
PUBLIC	??_C@_0BD@FFCOFDOJ@MaximumAddressSize@		; `string'
PUBLIC	??_C@_0BD@IBPHBINL@MaximumMessageSize@		; `string'
PUBLIC	??_C@_0BA@NLEIFDG@MessageOriented@		; `string'
PUBLIC	??_C@_0BD@PCBKNDJA@MinimumAddressSize@		; `string'
PUBLIC	??_C@_0BF@DJOBDJFP@PseudoStreamOriented@	; `string'
PUBLIC	??_C@_0BF@ONDNBOBK@SupportsBroadcasting@	; `string'
PUBLIC	??_C@_0BE@OAOGNDFG@SupportsConnectData@		; `string'
PUBLIC	??_C@_0BH@KMFDMCNH@SupportsDisconnectData@	; `string'
PUBLIC	??_C@_0BD@BJHEFNDH@SupportsEncryption@		; `string'
PUBLIC	??_C@_0BG@MJFBKLBP@SupportsExpeditedData@	; `string'
PUBLIC	??_C@_0BH@PFGLDBHN@SupportsFragmentation?$DL@	; `string'
PUBLIC	??_C@_0BI@FGBPBAKA@SupportsGracefulClosing@	; `string'
PUBLIC	??_C@_0BM@MDHHIPIM@SupportsGuaranteedBandwidth@	; `string'
PUBLIC	??_C@_0BF@BHPPOJFK@SupportsMulticasting@	; `string'
PUBLIC	??_C@_0BJ@MNHPDIFA@SupportsQualityofService@	; `string'
PUBLIC	??_C@_0BA@MBMLPGOB@Win32_CodecFile@		; `string'
PUBLIC	??_C@_08BHIEONMC@FileSize@			; `string'
PUBLIC	??_C@_08PICKODJL@FileType@			; `string'
PUBLIC	??_C@_0L@OHPKPJND@AccessMask@			; `string'
PUBLIC	??_C@_07CNOHFBBG@Archive@			; `string'
PUBLIC	??_C@_0L@FBPJPEIN@Compressed@			; `string'
PUBLIC	??_C@_0N@GPGLEEKJ@CreationDate@			; `string'
PUBLIC	??_C@_09KLPLELGE@Encrypted@			; `string'
PUBLIC	??_C@_0BB@CPNPJAMG@EncryptionMethod@		; `string'
PUBLIC	??_C@_06PDIOKLEE@FSName@			; `string'
PUBLIC	??_C@_05MBDCODDP@Group@				; `string'
PUBLIC	??_C@_06FHBILLDG@Hidden@			; `string'
PUBLIC	??_C@_0L@PCJCDOJK@InUseCount@			; `string'
PUBLIC	??_C@_0N@BLGOKNC@LastAccessed@			; `string'
PUBLIC	??_C@_0N@JFOMFNHF@LastModified@			; `string'
PUBLIC	??_C@_08PMHOKLA@Readable@			; `string'
PUBLIC	??_C@_06JIODDOFH@System@			; `string'
PUBLIC	??_C@_09HKGIPMHJ@Writeable@			; `string'
PUBLIC	??_C@_0BG@OEFCBCCA@Win32_SoftwareFeature@	; `string'
PUBLIC	??_C@_08OBOKCFEP@Accesses@			; `string'
PUBLIC	??_C@_0L@PLFFHFAH@Attributes@			; `string'
PUBLIC	??_C@_07PKCEDPHO@LastUse@			; `string'
PUBLIC	??_C@_0BC@DPAOPBJD@Win32_BaseService@		; `string'
PUBLIC	??_C@_0BI@EMHOOOGN@Win32_BootConfiguration@	; `string'
PUBLIC	??_C@_0O@KLLIKPKC@BootDirectory@		; `string'
PUBLIC	??_C@_0BC@BJLIMIEA@ConfigurationPath@		; `string'
PUBLIC	??_C@_09PABAEPFH@LastDrive@			; `string'
PUBLIC	??_C@_0BB@FHBPINGK@ScratchDirectory@		; `string'
PUBLIC	??_C@_0O@FDHFFDED@TempDirectory@		; `string'
PUBLIC	??_C@_0O@MLAGCNDM@Win32_Desktop@		; `string'
PUBLIC	??_C@_0M@EEKAPENF@BorderWidth@			; `string'
PUBLIC	??_C@_0L@GMHAONPD@CoolSwitch@			; `string'
PUBLIC	??_C@_0BA@NKDGIFD@CursorBlinkRate@		; `string'
PUBLIC	??_C@_0BA@CNEMFCKH@DragFullWindows@		; `string'
PUBLIC	??_C@_0BA@MJNOPNAD@GridGranularity@		; `string'
PUBLIC	??_C@_0M@FALLBHKM@IconSpacing@			; `string'
PUBLIC	??_C@_0BC@HAAMKFAI@IconTitleFaceName@		; `string'
PUBLIC	??_C@_0O@COINDPHH@IconTitleSize@		; `string'
PUBLIC	??_C@_0O@HLNDODKM@IconTitleWrap@		; `string'
PUBLIC	??_C@_07NOCIGAPP@Pattern@			; `string'
PUBLIC	??_C@_0BC@KENIIHPI@ScreenSaverActive@		; `string'
PUBLIC	??_C@_0BG@OPEGFPLM@ScreenSaverExecutable@	; `string'
PUBLIC	??_C@_0BC@ENMGOCGL@ScreenSaverSecure@		; `string'
PUBLIC	??_C@_0BD@LIKEHLGN@ScreenSaverTimeout@		; `string'
PUBLIC	??_C@_09FAKNONCF@Wallpaper@			; `string'
PUBLIC	??_C@_0BD@MNOICNPG@WallpaperStretched@		; `string'
PUBLIC	??_C@_0P@HLGPBKPI@WallpaperTiled@		; `string'
PUBLIC	??_C@_0BF@CJJIHFON@Win32_DesktopMonitor@	; `string'
PUBLIC	??_C@_0N@EJILFHEF@ScreenHeight@			; `string'
PUBLIC	??_C@_0M@GOACCFHI@ScreenWidth@			; `string'
PUBLIC	??_C@_0BG@JHIHGKIO@PixelsPerXLogicalInch@	; `string'
PUBLIC	??_C@_0BG@EKBBLDAL@PixelsPerYLogicalInch@	; `string'
PUBLIC	??_C@_0BE@EAJFLPNK@MonitorManufacturer@		; `string'
PUBLIC	??_C@_0M@FCPFJAEP@MonitorType@			; `string'
PUBLIC	??_C@_09LPCHGGLO@Bandwidth@			; `string'
PUBLIC	??_C@_0M@GAHMDPOP@DisplayType@			; `string'
PUBLIC	??_C@_09BEHCCOGC@Win32_Fan@			; `string'
PUBLIC	??_C@_0N@HOGGFFKF@DesiredSpeed@			; `string'
PUBLIC	??_C@_0O@ODMHJIAL@VariableSpeed@		; `string'
PUBLIC	??_C@_0BG@MCGAGLCL@Win32_OperatingSystem@	; `string'
PUBLIC	??_C@_0P@NOCBMKBI@OSArchitecture@		; `string'
PUBLIC	??_C@_09LLAGGHGM@BuildType@			; `string'
PUBLIC	??_C@_0L@EGALIDNG@CSDVersion@			; `string'
PUBLIC	??_C@_0BI@MCMKKPJH@ServicePackMajorVersion@	; `string'
PUBLIC	??_C@_0BI@HEBPKKOL@ServicePackMinorVersion@	; `string'
PUBLIC	??_C@_0P@HNONGDKL@OSProductSuite@		; `string'
PUBLIC	??_C@_06MNBFCOOH@OSType@			; `string'
PUBLIC	??_C@_0N@MHPBIIPD@Organization@			; `string'
PUBLIC	??_C@_0P@DAFCPCAO@RegisteredUser@		; `string'
PUBLIC	??_C@_0M@GGPOPAAP@ProductType@			; `string'
PUBLIC	??_C@_0L@BLKKOICB@BootDevice@			; `string'
PUBLIC	??_C@_0N@LCIKLBMI@SystemDevice@			; `string'
PUBLIC	??_C@_0M@JBPIDKPO@SystemDrive@			; `string'
PUBLIC	??_C@_0BA@FNJMICPB@SystemDirectory@		; `string'
PUBLIC	??_C@_0BB@IEJHMEDK@WindowsDirectory@		; `string'
PUBLIC	??_C@_0L@IOMOHLID@OSLanguage@			; `string'
PUBLIC	??_C@_0CC@LDMHMPMB@DataExecutionPrevention_Availab@ ; `string'
PUBLIC	??_C@_0CK@PHHDEHCB@DataExecutionPrevention_32BitAp@ ; `string'
PUBLIC	??_C@_0CA@KCIFHCEN@DataExecutionPrevention_Drivers@ ; `string'
PUBLIC	??_C@_0CG@FOLHLACL@DataExecutionPrevention_Support@ ; `string'
PUBLIC	??_C@_05GCIPIGEI@Debug@				; `string'
PUBLIC	??_C@_0M@DGCHPHG@Distributed@			; `string'
PUBLIC	??_C@_0BA@LIJDDPMD@EncryptionLevel@		; `string'
PUBLIC	??_C@_0BL@LKLGBOHP@ForegroundApplicationBoost@	; `string'
PUBLIC	??_C@_0BD@KJPLACJD@FreePhysicalMemory@		; `string'
PUBLIC	??_C@_0BH@GDCHGEBO@FreeSpaceInPagingFiles@	; `string'
PUBLIC	??_C@_0BC@HEKPKJCK@FreeVirtualMemory@		; `string'
PUBLIC	??_C@_0BB@GLODIIPC@LargeSystemCache@		; `string'
PUBLIC	??_C@_0P@DKHNBJBB@LastBootUpTime@		; `string'
PUBLIC	??_C@_0O@GFNPHCJN@LocalDateTime@		; `string'
PUBLIC	??_C@_06BMNFLCFO@Locale@			; `string'
PUBLIC	??_C@_0BF@BJJFAIPL@MaxNumberOfProcesses@	; `string'
PUBLIC	??_C@_0BF@OEEDDGBK@MaxProcessMemorySize@	; `string'
PUBLIC	??_C@_0N@FEFLNODO@MUILanguages@			; `string'
PUBLIC	??_C@_0BG@MGHJNMGE@NumberOfLicensedUsers@	; `string'
PUBLIC	??_C@_0BC@FILGLGHH@NumberOfProcesses@		; `string'
PUBLIC	??_C@_0O@PBBGLGFJ@NumberOfUsers@		; `string'
PUBLIC	??_C@_0BD@GLJCNHGP@OperatingSystemSKU@		; `string'
PUBLIC	??_C@_0BF@KAMHDIPP@OtherTypeDescription@	; `string'
PUBLIC	??_C@_0L@KNGIFFNB@PAEEnabled@			; `string'
PUBLIC	??_C@_0O@NNCCMBIG@PlusProductID@		; `string'
PUBLIC	??_C@_0BC@LMIHOAGL@PlusVersionNumber@		; `string'
PUBLIC	??_C@_07NAEHBBNL@Primary@			; `string'
PUBLIC	??_C@_0BI@BKJHEEOL@SizeStoredInPagingFiles@	; `string'
PUBLIC	??_C@_09IIJPJFOC@SuiteMask@			; `string'
PUBLIC	??_C@_0BD@PBNAJGBH@TotalSwapSpaceSize@		; `string'
PUBLIC	??_C@_0BH@IBKKELEK@TotalVirtualMemorySize@	; `string'
PUBLIC	??_C@_0BH@EOFEPLNL@TotalVisibleMemorySize@	; `string'
PUBLIC	??_C@_0P@GFMPEM@Win32_PageFile@			; `string'
PUBLIC	??_C@_09LCEICGML@FreeSpace@			; `string'
PUBLIC	??_C@_0M@EONNPILK@InitialSize@			; `string'
PUBLIC	??_C@_0BD@CPCJFLPJ@Win32_ParallelPort@		; `string'
PUBLIC	??_C@_0L@LICOLOBE@DMASupport@			; `string'
PUBLIC	??_C@_0M@GFHBIAHO@Win32_Proxy@			; `string'
PUBLIC	??_C@_0BA@LEMEMCNN@ProxyPortNumber@		; `string'
PUBLIC	??_C@_0M@BCMAAPLG@ProxyServer@			; `string'
PUBLIC	??_C@_0L@FFDIDHBB@ServerName@			; `string'
PUBLIC	??_C@_0M@MCIKNCEL@Win32_Share@			; `string'
PUBLIC	??_C@_04HMIIHGGM@Path@				; `string'
PUBLIC	??_C@_0P@IBLGFEE@MaximumAllowed@		; `string'
PUBLIC	??_C@_0N@PEAHLPLG@AllowMaximum@			; `string'
PUBLIC	??_C@_0BP@BGMJPOID@Win32_WindowsProductActivation@ ; `string'
PUBLIC	??_C@_0BD@HINAAJAB@ActivationRequired@		; `string'
PUBLIC	??_C@_0BB@FFPKNIIL@IsNotificationOn@		; `string'
PUBLIC	??_C@_0BK@MHMKFBPN@RemainingEvaluationPeriod@	; `string'
PUBLIC	??_C@_0BF@GDCPFLAD@RemainingGracePeriod@	; `string'
PUBLIC	??_C@_0BB@BBHCGAKO@Win32_WMISetting@		; `string'
PUBLIC	??_C@_0BK@HACJICBD@ASPScriptDefaultNamespace@	; `string'
PUBLIC	??_C@_0BB@HHJGCMCA@ASPScriptEnabled@		; `string'
PUBLIC	??_C@_0BA@FCAEOBFB@AutorecoverMofs@		; `string'
PUBLIC	??_C@_0P@LBFHKJDL@AutoStartWin9X@		; `string'
PUBLIC	??_C@_0P@HCBDPJED@BackupInterval@		; `string'
PUBLIC	??_C@_0P@HCKKJOFA@BackupLastTime@		; `string'
PUBLIC	??_C@_0N@DMPKCKPJ@BuildVersion@			; `string'
PUBLIC	??_C@_0BC@PJAEIMII@DatabaseDirectory@		; `string'
PUBLIC	??_C@_0BA@GMIIIOHB@DatabaseMaxSize@		; `string'
PUBLIC	??_C@_0BL@FLALGEND@EnableAnonWin9xConnections@	; `string'
PUBLIC	??_C@_0N@OBNHEDLP@EnableEvents@			; `string'
PUBLIC	??_C@_0BP@DHLDKHJI@EnableStartupHeapPreallocation@ ; `string'
PUBLIC	??_C@_0BN@FBHHPGGC@HighThresholdOnClientObjects@ ; `string'
PUBLIC	??_C@_0BG@LKICGCBK@HighThresholdOnEvents@	; `string'
PUBLIC	??_C@_0BG@MDEOBFAH@InstallationDirectory@	; `string'
PUBLIC	??_C@_0BN@GKEEMEKI@LastStartupHeapPreallocation@ ; `string'
PUBLIC	??_C@_0BB@FALFKNPE@LoggingDirectory@		; `string'
PUBLIC	??_C@_0N@FMFGOJPB@LoggingLevel@			; `string'
PUBLIC	??_C@_0BM@NGNJMOHJ@LowThresholdOnClientObjects@	; `string'
PUBLIC	??_C@_0BF@PHEPMKDN@LowThresholdOnEvents@	; `string'
PUBLIC	??_C@_0P@CEPALFMK@MaxLogFileSize@		; `string'
PUBLIC	??_C@_0BH@PBKELOKA@MaxWaitOnClientObjects@	; `string'
PUBLIC	??_C@_0BA@NHHFPHIJ@MaxWaitOnEvents@		; `string'
PUBLIC	??_C@_0BI@NOBDNJPM@MofSelfInstallDirectory@	; `string'
PUBLIC	??_C@_0BL@CLHPKLFC@Win32_PrinterConfiguration@	; `string'
PUBLIC	??_C@_0L@MJJCDBO@BitsPerPel@			; `string'
PUBLIC	??_C@_07KLCNEDPB@Collate@			; `string'
PUBLIC	??_C@_05PDOBBJNA@Color@				; `string'
PUBLIC	??_C@_06BLCAIJFC@Copies@			; `string'
PUBLIC	??_C@_0L@FHIBJDML@DeviceName@			; `string'
PUBLIC	??_C@_0N@DJPIPGBF@DisplayFlags@			; `string'
PUBLIC	??_C@_0BB@FJLGFJEJ@DisplayFrequency@		; `string'
PUBLIC	??_C@_06KIOALPNI@Duplex@			; `string'
PUBLIC	??_C@_08EOPEEPJC@FormName@			; `string'
PUBLIC	??_C@_0BF@FOMIFJDP@HorizontalResolution@	; `string'
PUBLIC	??_C@_09ENKMJEBL@LogPixels@			; `string'
PUBLIC	??_C@_0M@LHPCLPIO@Orientation@			; `string'
PUBLIC	??_C@_0M@ICHOFLKL@PaperLength@			; `string'
PUBLIC	??_C@_09KFDMKFMI@PaperSize@			; `string'
PUBLIC	??_C@_0L@OINDMHF@PaperWidth@			; `string'
PUBLIC	??_C@_0L@FDBJOBNL@PelsHeight@			; `string'
PUBLIC	??_C@_09CGGAMGGM@PelsWidth@			; `string'
PUBLIC	??_C@_0N@CLBFGPBN@PrintQuality@			; `string'
PUBLIC	??_C@_05MAGIBEFI@Scale@				; `string'
PUBLIC	??_C@_08KMMMDKPE@TTOption@			; `string'
PUBLIC	??_C@_0BD@FGMLFAJH@VerticalResolution@		; `string'
PUBLIC	??_C@_0M@IMNEHNOF@XResolution@			; `string'
PUBLIC	??_C@_0M@BHHBDBIK@YResolution@			; `string'
PUBLIC	??_C@_0BI@NLCFKEJK@Win32_NetworkConnection@	; `string'
PUBLIC	??_C@_0BA@FLFAPDFG@ConnectionState@		; `string'
PUBLIC	??_C@_0P@LNPCDAPC@ConnectionType@		; `string'
PUBLIC	??_C@_0L@CCMICFHJ@RemotePath@			; `string'
PUBLIC	??_C@_09CLGGKACF@LocalName@			; `string'
PUBLIC	??_C@_0L@FLEBOKCI@RemoteName@			; `string'
PUBLIC	??_C@_0L@LNKKEMJM@Persistent@			; `string'
PUBLIC	??_C@_0N@ONCOBKP@ProviderName@			; `string'
PUBLIC	??_C@_0N@EPHJOCBJ@ResourceType@			; `string'
PUBLIC	??_C@_0N@NNCPDPIH@Win32_Volume@			; `string'
PUBLIC	??_C@_05IEIONIFO@Label@				; `string'
PUBLIC	??_C@_0M@EHMJIHII@DriveLetter@			; `string'
PUBLIC	??_C@_09NKILGKMH@DriveType@			; `string'
PUBLIC	??_C@_0L@FPFLHALM@FileSystem@			; `string'
PUBLIC	??_C@_09HICOCIIF@Automount@			; `string'
PUBLIC	??_C@_0M@FMPADJNN@DirtyBitSet@			; `string'
PUBLIC	??_C@_0BA@JDIBBDEO@IndexingEnabled@		; `string'
PUBLIC	??_C@_0BG@ELFKDNP@MaximumFileNameLength@	; `string'
PUBLIC	??_C@_0O@HEHOMNCC@QuotasEnabled@		; `string'
PUBLIC	??_C@_0BB@MPFPEDFA@QuotasIncomplete@		; `string'
PUBLIC	??_C@_0BB@JJBCJECG@QuotasRebuilding@		; `string'
PUBLIC	??_C@_0BD@BJDMHPHA@SupportsDiskQuotas@		; `string'
PUBLIC	??_C@_0BN@DMMADKEM@SupportsFileBasedCompression@ ; `string'
PUBLIC	??_C@_0CI@FFMDGJKG@Win32_PerfRawData_PerfDisk_Phys@ ; `string'
PUBLIC	??_C@_0BE@EFDGHEPA@AvgDiskBytesPerRead@		; `string'
PUBLIC	??_C@_0BJ@BDMNCNHC@AvgDiskBytesPerRead_Base@	; `string'
PUBLIC	??_C@_0BI@NOBLAOA@AvgDiskBytesPerTransfer@	; `string'
PUBLIC	??_C@_0BN@DKGECFBJ@AvgDiskBytesPerTransfer_Base@ ; `string'
PUBLIC	??_C@_0BF@POONAKDE@AvgDiskBytesPerWrite@	; `string'
PUBLIC	??_C@_0BK@CFFBJGE@AvgDiskBytesPerWrite_Base@	; `string'
PUBLIC	??_C@_0BD@CKOOLAI@AvgDiskQueueLength@		; `string'
PUBLIC	??_C@_0BH@NCJLEAHB@AvgDiskReadQueueLength@	; `string'
PUBLIC	??_C@_0BD@LLDDCMMH@AvgDiskSecPerRead?$DL@	; `string'
PUBLIC	??_C@_0BH@OOEPJOH@AvgDiskSecPerRead_Base@	; `string'
PUBLIC	??_C@_0BG@JDCFEBPA@AvgDiskSecPerTransfer@	; `string'
PUBLIC	??_C@_0BL@BNDKFKFB@AvgDiskSecPerTransfer_Base@	; `string'
PUBLIC	??_C@_0BD@MEJEANKD@AvgDiskSecPerWrite@		; `string'
PUBLIC	??_C@_0BI@ICCNFHHL@AvgDiskSecPerWrite_Base@	; `string'
PUBLIC	??_C@_0BI@LJILLEEA@AvgDiskWriteQueueLength@	; `string'
PUBLIC	??_C@_0BH@CFGDHLM@CurrentDiskQueueLength@	; `string'
PUBLIC	??_C@_0BA@BBEHMIEJ@DiskBytesPerSec@		; `string'
PUBLIC	??_C@_0BE@IJJNINGL@DiskReadBytesPerSec@		; `string'
PUBLIC	??_C@_0BA@GPEPCNFG@DiskReadsPerSec@		; `string'
PUBLIC	??_C@_0BE@INHPJNPE@DiskTransfersPerSec@		; `string'
PUBLIC	??_C@_0BF@BLPLIECA@DiskWriteBytesPerSec@	; `string'
PUBLIC	??_C@_0BB@FFLCGPKG@DiskWritesPerSec@		; `string'
PUBLIC	??_C@_0BB@EEOEKLCO@Frequency_Object@		; `string'
PUBLIC	??_C@_0BD@IONDPFD@Frequency_PerfTime@		; `string'
PUBLIC	??_C@_0BD@MECIOMGA@Frequency_Sys100NS@		; `string'
PUBLIC	??_C@_0BE@KMHMAHCP@PercentDiskReadTime@		; `string'
PUBLIC	??_C@_0BJ@JDFDIKDL@PercentDiskReadTime_Base@	; `string'
PUBLIC	??_C@_0BA@HPDMAPLN@PercentDiskTime@		; `string'
PUBLIC	??_C@_0BF@CHKOMNLI@PercentDiskTime_Base@	; `string'
PUBLIC	??_C@_0BF@DOKCNDOL@PercentDiskWriteTime@	; `string'
PUBLIC	??_C@_0BK@OCJABKEM@PercentDiskWriteTime_Base@	; `string'
PUBLIC	??_C@_0BA@LOOKHAGM@PercentIdleTime@		; `string'
PUBLIC	??_C@_0BF@PLICIEBG@PercentIdleTime_Base@	; `string'
PUBLIC	??_C@_0O@JFLPIICD@SplitIOPerSec@		; `string'
PUBLIC	??_C@_0BB@JNCIMECH@Timestamp_Object@		; `string'
PUBLIC	??_C@_0BD@ECCCBBP@Timestamp_PerfTime@		; `string'
PUBLIC	??_C@_0BD@MIOHPCCM@Timestamp_Sys100NS@		; `string'
PUBLIC	??_C@_0CH@LGANEOML@Win32_PerfRawData_PerfDisk_Logi@ ; `string'
PUBLIC	??_C@_0O@EJBHEMAA@FreeMegabytes@		; `string'
PUBLIC	??_C@_0BC@IJGACNJB@AvgDiskSecPerRead@		; `string'
PUBLIC	??_C@_0BB@FDAACFPN@PercentFreeSpace@		; `string'
PUBLIC	??_C@_0BG@KEJCKNPB@PercentFreeSpace_Base@	; `string'
PUBLIC	??_C@_0CF@MIMNIAPF@Win32_PerfRawData_PerfNet_Redir@ ; `string'
PUBLIC	??_C@_0BE@IEAMAKJB@BytesReceivedPerSec@		; `string'
PUBLIC	??_C@_0BH@GKKKHEEC@BytesTransmittedPerSec@	; `string'
PUBLIC	??_C@_0BB@NADCFLBJ@BytesTotalPerSec@		; `string'
PUBLIC	??_C@_0O@GPMHHPHG@PacketsPerSec@		; `string'
PUBLIC	??_C@_0BG@PFNBEMLM@PacketsReceivedPerSec@	; `string'
PUBLIC	??_C@_0BJ@EHOOHGK@PacketsTransmittedPerSec@	; `string'
PUBLIC	??_C@_0N@IJGODAGI@ConnectsCore@			; `string'
PUBLIC	??_C@_0BF@MNEGHJGM@ConnectsLanManager20@	; `string'
PUBLIC	??_C@_0BF@NEFNEICN@ConnectsLanManager21@	; `string'
PUBLIC	??_C@_0BC@EOFEMAHF@ConnectsWindowsNT@		; `string'
PUBLIC	??_C@_0BA@DJMJIEBG@CurrentCommands@		; `string'
PUBLIC	??_C@_0BJ@CAIAAECL@FileDataOperationsPerSec@	; `string'
PUBLIC	??_C@_0BJ@BKIGCPAP@FileReadOperationsPerSec@	; `string'
PUBLIC	??_C@_0BK@PGBFPAJ@FileWriteOperationsPerSec@	; `string'
PUBLIC	??_C@_0BE@OGCPPNJJ@NetworkErrorsPerSec@		; `string'
PUBLIC	??_C@_0BF@LPDAMOL@ReadBytesCachePerSec@		; `string'
PUBLIC	??_C@_0BH@IAHICFAL@ReadBytesNetworkPerSec@	; `string'
PUBLIC	??_C@_0BJ@ILOCGCLG@ReadBytesNonPagingPerSec@	; `string'
PUBLIC	??_C@_0BG@OLGMIDCE@ReadBytesPagingPerSec@	; `string'
PUBLIC	??_C@_0BL@CFIGOGID@ReadOperationsRandomPerSec@	; `string'
PUBLIC	??_C@_0BC@JALNAJBD@ReadPacketsPerSec@		; `string'
PUBLIC	??_C@_0BH@JCFIFLJN@ReadPacketsSmallPerSec@	; `string'
PUBLIC	??_C@_0BC@MGHKCLNK@ReadsDeniedPerSec@		; `string'
PUBLIC	??_C@_0BB@FFKFENGC@ReadsLargePerSec@		; `string'
PUBLIC	??_C@_0BC@GAMKMMKB@ServerDisconnects@		; `string'
PUBLIC	??_C@_0BB@LGLKKLGK@ServerReconnects@		; `string'
PUBLIC	??_C@_0P@EPIIEJNA@ServerSessions@		; `string'
PUBLIC	??_C@_0BD@BALBBJPI@ServerSessionsHung@		; `string'
PUBLIC	??_C@_0BG@GCNKDHCE@WriteBytesCachePerSec@	; `string'
PUBLIC	??_C@_0BI@HNBBGOIH@WriteBytesNetworkPerSec@	; `string'
PUBLIC	??_C@_0BK@PNNKNAIA@WriteBytesNonPagingPerSec@	; `string'
PUBLIC	??_C@_0BH@OANOHFDO@WriteBytesPagingPerSec@	; `string'
PUBLIC	??_C@_0BM@IJPFNDGO@WriteOperationsRandomPerSec@	; `string'
PUBLIC	??_C@_0BD@NEABLLFJ@WritePacketsPerSec@		; `string'
PUBLIC	??_C@_0BI@GPDBBABB@WritePacketsSmallPerSec@	; `string'
PUBLIC	??_C@_0BC@LMECNINB@WriteDeniedPerSec@		; `string'
PUBLIC	??_C@_0BB@HAMOOOJ@WriteLargePerSec@		; `string'
PUBLIC	??_C@_0BP@LHEMPHPB@Win32_PerfRawData_PerfOS_Cache@ ; `string'
PUBLIC	??_C@_0BF@MGINILGA@AsyncCopyReadsPerSec@	; `string'
PUBLIC	??_C@_0BE@CAOOLPND@AsyncDataMapsPerSec@		; `string'
PUBLIC	??_C@_0BF@GKOKALKG@AsyncFastReadsPerSec@	; `string'
PUBLIC	??_C@_0BE@OMOFBJFA@AsyncMDLReadsPerSec@		; `string'
PUBLIC	??_C@_0BE@PNDFACCO@AsyncPinReadsPerSec@		; `string'
PUBLIC	??_C@_0BE@FFJCEMDJ@CopyReadHitsPercent@		; `string'
PUBLIC	??_C@_0BJ@FGOEJAHL@CopyReadHitsPercent_Base@	; `string'
PUBLIC	??_C@_0BA@BIHGDHJL@CopyReadsPerSec@		; `string'
PUBLIC	??_C@_0BC@MJKDEPG@DataFlushesPerSec@		; `string'
PUBLIC	??_C@_0BF@JDDABGEO@DataFlushPagesPerSec@	; `string'
PUBLIC	??_C@_0BD@KOAAJIJA@DataMapHitsPercent@		; `string'
PUBLIC	??_C@_0BI@ILDKBHLK@DataMapHitsPercent_Base@	; `string'
PUBLIC	??_C@_0BC@OOMEAEEA@DataMapPinsPerSec@		; `string'
PUBLIC	??_C@_0BH@JDIGEHGG@DataMapPinsPerSec_Base@	; `string'
PUBLIC	??_C@_0P@GAMMIBDO@DataMapsPerSec@		; `string'
PUBLIC	??_C@_0BL@HBAEFMGM@FastReadNotPossiblesPerSec@	; `string'
PUBLIC	??_C@_0BN@JGPDPBED@FastReadResourceMissesPerSec@ ; `string'
PUBLIC	??_C@_0BA@LEBBLHFN@FastReadsPerSec@		; `string'
PUBLIC	??_C@_0BH@JCPDBLIF@LazyWriteFlushesPerSec@	; `string'
PUBLIC	??_C@_0BF@GOGJJNKE@LazyWritePagesPerSec@	; `string'
PUBLIC	??_C@_0BD@PNDPPHMH@MDLReadHitsPercent@		; `string'
PUBLIC	??_C@_0BI@NMONEPAO@MDLReadHitsPercent_Base@	; `string'
PUBLIC	??_C@_0P@KMMHCHLN@MDLReadsPerSec@		; `string'
PUBLIC	??_C@_0BD@INCEIJBE@PinReadHitsPercent@		; `string'
PUBLIC	??_C@_0BI@KGBEKIEP@PinReadHitsPercent_Base@	; `string'
PUBLIC	??_C@_0P@LNBHDMMD@PinReadsPerSec@		; `string'
PUBLIC	??_C@_0BB@NGKOLIIB@ReadAheadsPerSec@		; `string'
PUBLIC	??_C@_0BE@PJJLELAC@SyncCopyReadsPerSec@		; `string'
PUBLIC	??_C@_0BD@IDCIAAHF@SyncDataMapsPerSec@		; `string'
PUBLIC	??_C@_0BE@FFPMMLME@SyncFastReadsPerSec@		; `string'
PUBLIC	??_C@_0BD@EPCDKGPG@SyncMDLReadsPerSec@		; `string'
PUBLIC	??_C@_0BD@FOPDLNII@SyncPinReadsPerSec@		; `string'
PUBLIC	??_C@_0CA@MENAEGKE@Win32_PerfRawData_PerfOS_Memory@ ; `string'
PUBLIC	??_C@_0P@HPKKNIPF@AvailableBytes@		; `string'
PUBLIC	??_C@_0BA@DKABBPEK@AvailableKBytes@		; `string'
PUBLIC	??_C@_0BA@FJNBCKHA@AvailableMBytes@		; `string'
PUBLIC	??_C@_0L@ECJIAGHC@CacheBytes@			; `string'
PUBLIC	??_C@_0P@BPAGOPIK@CacheBytesPeak@		; `string'
PUBLIC	??_C@_0BC@ONMHHFEO@CacheFaultsPerSec@		; `string'
PUBLIC	??_C@_0M@HHOMCEFN@CommitLimit@			; `string'
PUBLIC	??_C@_0P@FAEGOFEG@CommittedBytes@		; `string'
PUBLIC	??_C@_0BH@BIADJNEE@DemandZeroFaultsPerSec@	; `string'
PUBLIC	??_C@_0BL@MIKHIOLC@FreeSystemPageTableEntries@	; `string'
PUBLIC	??_C@_0BB@HOEEGAIG@PageFaultsPerSec@		; `string'
PUBLIC	??_C@_0BA@BHCICMAP@PageReadsPerSec@		; `string'
PUBLIC	??_C@_0BB@NHNEKMAP@PagesInputPerSec@		; `string'
PUBLIC	??_C@_0BC@PGIEMCPC@PagesOutputPerSec@		; `string'
PUBLIC	??_C@_0M@PJBDCOH@PagesPerSec@			; `string'
PUBLIC	??_C@_0BB@EHHNOBPH@PageWritesPerSec@		; `string'
PUBLIC	??_C@_0BL@EHMKCOHH@PercentCommittedBytesInUse@	; `string'
PUBLIC	??_C@_0CA@DKFDEGAA@PercentCommittedBytesInUse_Base@ ; `string'
PUBLIC	??_C@_0BD@GAOJBHDB@PoolNonpagedAllocs@		; `string'
PUBLIC	??_C@_0BC@GMPJEGLC@PoolNonpagedBytes@		; `string'
PUBLIC	??_C@_0BA@LDKKFHCE@PoolPagedAllocs@		; `string'
PUBLIC	??_C@_0P@PJENKINF@PoolPagedBytes@		; `string'
PUBLIC	??_C@_0BH@OMBHLDMN@PoolPagedResidentBytes@	; `string'
PUBLIC	??_C@_0BJ@NPNGHFJN@SystemCacheResidentBytes@	; `string'
PUBLIC	??_C@_0BI@KPKNFENK@SystemCodeResidentBytes@	; `string'
PUBLIC	??_C@_0BF@JBGABIBK@SystemCodeTotalBytes@	; `string'
PUBLIC	??_C@_0BK@MNCINJBF@SystemDriverResidentBytes@	; `string'
PUBLIC	??_C@_0BH@KPIDEMMH@SystemDriverTotalBytes@	; `string'
PUBLIC	??_C@_0BH@KEMPGDKK@TransitionFaultsPerSec@	; `string'
PUBLIC	??_C@_0BC@KBPIOBBH@WriteCopiesPerSec@		; `string'
PUBLIC	??_C@_0CB@OFCHCPMB@Win32_PerfRawData_PerfOS_Object@ ; `string'
PUBLIC	??_C@_09BNGODGIH@Processes@			; `string'
PUBLIC	??_C@_07CMIGFCHA@Threads@			; `string'
PUBLIC	??_C@_07LDPBBEEB@Mutexes@			; `string'
PUBLIC	??_C@_06HEBKAGDH@Events@			; `string'
PUBLIC	??_C@_0L@GLBCAKLN@Semaphores@			; `string'
PUBLIC	??_C@_08FBPDBPOE@Sections@			; `string'
PUBLIC	??_C@_0CE@MFJPDLKO@Win32_PerfRawData_PerfOS_Paging@ ; `string'
PUBLIC	??_C@_0N@CKGFJCHF@PercentUsage@			; `string'
PUBLIC	??_C@_0BB@JKLALBIF@PercentUsagePeak@		; `string'
PUBLIC	??_C@_0CD@BCJODFFP@Win32_PerfRawData_PerfOS_Proces@ ; `string'
PUBLIC	??_C@_0BF@EMKPKJGP@PercentProcessorTime@	; `string'
PUBLIC	??_C@_0BA@JCLIOML@PercentUserTime@		; `string'
PUBLIC	??_C@_0BE@DLJADCBG@C1TransitionsPerSec@		; `string'
PUBLIC	??_C@_0BE@JIMGLELP@C2TransitionsPerSec@		; `string'
PUBLIC	??_C@_0BE@EPCEDEOH@C3TransitionsPerSec@		; `string'
PUBLIC	??_C@_07BHCICOFH@DPCRate@			; `string'
PUBLIC	??_C@_0BB@KHEGFAIJ@DPCsQueuedPerSec@		; `string'
PUBLIC	??_C@_0BB@FCICDGPJ@InterruptsPerSec@		; `string'
PUBLIC	??_C@_0O@PJFMGMCN@PercentC1Time@		; `string'
PUBLIC	??_C@_0O@HPMIBOID@PercentC2Time@		; `string'
PUBLIC	??_C@_0O@LEJEMNCG@PercentC3Time@		; `string'
PUBLIC	??_C@_0P@LMLLFJEI@PercentDPCTime@		; `string'
PUBLIC	??_C@_0BF@GMGAHOLM@PercentInterruptTime@	; `string'
PUBLIC	??_C@_0BG@FPNGHOGK@PercentPrivilegedTime@	; `string'
PUBLIC	??_C@_0CA@OICKPIAK@Win32_PerfRawData_PerfOS_System@ ; `string'
PUBLIC	??_C@_0BG@KHFHJKMP@AlignmentFixupsPerSec@	; `string'
PUBLIC	??_C@_0BG@GIPKJDB@ContextSwitchesPerSec@	; `string'
PUBLIC	??_C@_0BK@DHKAACDP@ExceptionDispatchesPerSec@	; `string'
PUBLIC	??_C@_0BH@EMNLAEFK@FileControlBytesPerSec@	; `string'
PUBLIC	??_C@_0BM@PIKKJCOI@FileControlOperationsPerSec@	; `string'
PUBLIC	??_C@_0BE@NKKLPLAB@FileReadBytesPerSec@		; `string'
PUBLIC	??_C@_0BF@LGMPDKBA@FileWriteBytesPerSec@	; `string'
PUBLIC	??_C@_0BJ@PHDBHNCO@FloatingEmulationsPerSec@	; `string'
PUBLIC	??_C@_0BK@NGGOKLMO@PercentRegistryQuotaInUse@	; `string'
PUBLIC	??_C@_0BF@NPGOAGED@ProcessorQueueLength@	; `string'
PUBLIC	??_C@_0BC@HMBPBBJB@SystemCallsPerSec@		; `string'
PUBLIC	??_C@_0N@JBKHOEPE@SystemUpTime@			; `string'
PUBLIC	??_C@_0BD@ENAKGAAL@Win32_CurrentProbe@		; `string'
PUBLIC	??_C@_0P@IDBBEDLI@CurrentReading@		; `string'
PUBLIC	??_C@_08NLCOAFEI@Accuracy@			; `string'
PUBLIC	??_C@_09BKMALBOE@Tolerance@			; `string'
PUBLIC	??_C@_0P@OAFFNBPO@NominalReading@		; `string'
PUBLIC	??_C@_09EDCPMBJN@NormalMax@			; `string'
PUBLIC	??_C@_09FBKECFPC@NormalMin@			; `string'
PUBLIC	??_C@_0BH@NMAIJHFM@LowerThresholdCritical@	; `string'
PUBLIC	??_C@_0BE@NPMAGCMK@LowerThresholdFatal@		; `string'
PUBLIC	??_C@_0BK@LBKIMOJN@LowerThresholdNonCritical@	; `string'
PUBLIC	??_C@_0BH@FKDKGMLL@UpperThresholdCritical@	; `string'
PUBLIC	??_C@_0BE@HGEJIDLL@UpperThresholdFatal@		; `string'
PUBLIC	??_C@_0BK@CCJKGBMI@UpperThresholdNonCritical@	; `string'
PUBLIC	??_C@_0M@EIBDACPL@MaxReadable@			; `string'
PUBLIC	??_C@_0M@NIGABCBB@MinReadable@			; `string'
PUBLIC	??_C@_08JLKOPNJP@IsLinear@			; `string'
PUBLIC	??_C@_0BG@GEFEDJOA@Win32_PortableBattery@	; `string'
PUBLIC	??_C@_0BA@EMGHNHBI@ManufactureDate@		; `string'
PUBLIC	??_C@_0BD@EBMPMBCC@CapacityMultiplier@		; `string'
PUBLIC	??_C@_0BA@LLOCDJF@MaxBatteryError@		; `string'
PUBLIC	??_C@_0BI@LFKNNEKA@SystemCreationClassName@	; `string'
PUBLIC	??_C@_0L@MPHEPFAH@SystemName@			; `string'
PUBLIC	??_C@_0BH@HMHAIEPK@Win32_TemperatureProbe@	; `string'
PUBLIC	??_C@_0BD@HAJJDCII@Win32_VoltageProbe@		; `string'
PUBLIC	??_C@_09BAECPDM@?$DO?$DO?5MonIPs@		; `string'
PUBLIC	??_C@_09CLAHNHIH@?$DM?$DM?5MonIPs@		; `string'
PUBLIC	??_C@_02BBAHNLBA@?$CFp@				; `string'
PUBLIC	??_C@_0BA@GBPLBEEL@SysStatus_Trace@		; `string'
PUBLIC	??_C@_03LBAKCJJ@dbg@				; `string'
PUBLIC	??_C@_03GLILPAEP@wnd@				; `string'
PUBLIC	??_C@_03NMGDDAFL@wmi@				; `string'
PUBLIC	??_C@_0CP@CLGPPHLF@?$CF?44d?9?$CF?42d?9?$CF?42d?5?$CF?42d?3?$CF?42d?3?$CF?42d?4?$CF@ ; `string'
PUBLIC	??_C@_09OGNGBBJO@?$CFs?4?$CFs?4log@		; `string'
PUBLIC	??_C@_09BJLKJKJF@?$CFs?4?$CFs_old@		; `string'
PUBLIC	??_C@_0O@FHDHJHFN@SysStatus_Log@		; `string'
PUBLIC	??_C@_0EH@MFNKNCE@?$AN?6?$CF?44d?9?$CF?42d?9?$CF?42d?5?$CF?42d?3?$CF?42d?3?$CF?42d@ ; `string'
PUBLIC	??_C@_05OLKONLEL@?7?$CFs?$AN?6@			; `string'
PUBLIC	??_C@_06BEJGOBHG@?$CFs?4log@			; `string'
PUBLIC	??_C@_0BH@NMAKEFMG@TID?5?$CF?45lu?5ID?5?$CF?45i?5?$CFs?$AN?6@ ; `string'
PUBLIC	??_C@_0BE@GIEOINGB@?$DO?$DO?5ChkLogFileSz?0?5?$CFu@ ; `string'
PUBLIC	??_C@_0BJ@LGJHGBPF@?9?9?5ChkLogFileSz?0?5Opng?5?$CFs@ ; `string'
PUBLIC	??_C@_0BK@HOHICOFN@?9?9?5ChkLogFileSz?0?5?$CFs?5Sz?5?$CFu@ ; `string'
PUBLIC	??_C@_0M@HKKOHPEB@?$CFs?4?$CF?43d?4log@		; `string'
PUBLIC	??_C@_0CA@MGCLJDML@?9?9?5ChkLogFileSz?0?5Trying?5opng?5?$CFs@ ; `string'
PUBLIC	??_C@_0CD@DNFINAJK@?9?9?5ChkLogFileSz?0?5Last?5file?5fnd?3@ ; `string'
PUBLIC	??_C@_0CL@JDMPMEKE@?9?9?5ChkLogFileSz?0?5Removing?5?$CFs?5?9?5@ ; `string'
PUBLIC	??_C@_0CD@KIGAJNDH@?9?9?5ChkLogFileSz?0?5Renaming?5?$CFs?5?9?$DO@ ; `string'
PUBLIC	??_C@_0L@HLBMFDAN@?$CFs?4000?4log@		; `string'
PUBLIC	??_C@_0CE@EHOHNGJO@?9?9?5ChkLogFileSz?0?5Remaining?5?$CFs?5?9@ ; `string'
PUBLIC	??_C@_0BA@GCOGCGED@?$DM?$DM?5ChkLogFileSz@	; `string'
PUBLIC	??_C@_0L@MNPEAJCA@netmsg?4dll@			; `string'
PUBLIC	??_C@_04KKAJCPFA@Err?5@				; `string'
PUBLIC	??_C@_05EIGEDBOH@?5Msg?5@			; `string'
PUBLIC	??_C@_0BM@GCCDOOIB@?$CFs?5?$FLVID?3?$CFs?5PID?3?$CFs?5SN?3?$CFs?$FN?5?$CFs@ ; `string'
PUBLIC	??_C@_0BK@LNKKODAK@?9?9?5New?5DeviceName?5nullptr@ ; `string'
PUBLIC	??_C@_04CFJMJGDJ@?$CF?42X@			; `string'
PUBLIC	??_C@_0FI@PPGABHKA@?9?9?5Prevented?5attempt?5to?5set?5unh@ ; `string'
PUBLIC	??_C@_0N@MDJJJHMB@kernel32?4dll@		; `string'
PUBLIC	??_C@_0BM@EBDAABIF@SetUnhandledExceptionFilter@	; `string'
PUBLIC	??_C@_0CF@MLLEOGPJ@?$CFs_?$CF?44d?9?$CF?42d?9?$CF?42d_?$CF?42d?9?$CF?42d?9?$CF?42@ ; `string'
PUBLIC	??_C@_0DE@KOKEPHBJ@CreateMiniDump?0?5Created?5MiniDum@ ; `string'
PUBLIC	??_C@_0DD@IPHAABKL@CreateMiniDump?0?5Failed?5to?5creat@ ; `string'
PUBLIC	??_C@_0GA@GFOAHNCA@AppUnhndldExcptFltr?0?5Attempt?5to@ ; `string'
PUBLIC	??_C@_0CB@KLGENLFB@?$CFs?0?5?$CF02llu?3?$CF02llu?3?$CF02llu?0?5?$CF?43f?5@ ; `string'
PUBLIC	??_C@_0BN@GOPGHHGJ@?$CF02llu?3?$CF02llu?3?$CF02llu?0?5?$CF?43f?5s@ ; `string'
PUBLIC	??_C@_0DA@DAMKDCLP@?9?9?5SetThrdName?0?5Tp?5?$CFp?0?5Name?5?$CFs?0@ ; `string'
PUBLIC	??_C@_0DN@OLKMHNED@?$DO?$DO?5StartThrd?0?5Name?5?$CFs?0?5Func?5?$CFp?0@ ; `string'
PUBLIC	??_C@_0BP@FDECIAPH@?9?9?5StartThrd?0?5?$CFs?5Id?5?$CFu?0?5Hnd?5?$CFp@ ; `string'
PUBLIC	??_C@_0CB@LFOPNEOO@?9?9?5StartThrd?0?5No?5?$CFs?5thrd?5create@ ; `string'
PUBLIC	??_C@_0BB@POKBMEDO@?$DM?$DM?5StartThrd?0?5?$CFp@ ; `string'
PUBLIC	??_C@_0BH@BDJONOMH@?$DM?$DM?5StartThrd?0?5ret?5True@ ; `string'
PUBLIC	??_C@_0BI@EBHNNPDK@?$DM?$DM?5StartThrd?0?5ret?5False@ ; `string'
PUBLIC	??_C@_0BJ@JJOKMIHG@?$DO?$DO?5EndPendgThrd?0?5Hndl?5?$CFp@ ; `string'
PUBLIC	??_C@_1BE@GJOFHIHD@?$AAn?$AAt?$AAd?$AAl?$AAl?$AA?4?$AAd?$AAl?$AAl@ ; `string'
PUBLIC	??_C@_0BH@FCCILLCE@RtlFreeUserThreadStack@	; `string'
PUBLIC	??_C@_0BA@OFOICJDM@?$DM?$DM?5EndPendgThrd@	; `string'
PUBLIC	??_C@_0GE@BJAJHKCK@?9?9?5WndProcMsg?0?5Wnd?5?$CFp?0?5Msg?50x?$CF?4@ ; `string'
PUBLIC	??_C@_0BK@GJJBBOEE@Session?5Closure?5Requested@	; `string'
PUBLIC	??_C@_0M@LLINGCEN@End?5Session@			; `string'
PUBLIC	??_C@_09KECABMHK@SysStatus@			; `string'
PUBLIC	??_C@_0CF@OJAKBKAK@User?5Defined?5?$CFs?0?5Size?5?$CFu?0?5DevTy@ ; `string'
PUBLIC	??_C@_03BBKEAIF@?$DP?$DP?$DP@			; `string'
PUBLIC	??_C@_09LGELGNNP@?$CCArrived?$CC@		; `string'
PUBLIC	??_C@_0BC@MMAEKGNO@?$CCRemoval?5Request?$CC@	; `string'
PUBLIC	??_C@_0BC@ENLMBDFJ@?$CCRemoval?5Aborted?$CC@	; `string'
PUBLIC	??_C@_0BC@MCANMMCL@?$CCRemoval?5Pending?$CC@	; `string'
PUBLIC	??_C@_09BCLHCEGD@?$CCRemoved?$CC@		; `string'
PUBLIC	??_C@_0BP@PNOLPDFB@Device?5?$CFs?0?5Size?5?$CFu?0?5DevType?5?$CFu@ ; `string'
PUBLIC	??_C@_0BM@HKOFJDPP@Usb?5CHANGE?5Dev?5?$DM?$CFs?5GUID?5?$CFs?$DO@ ; `string'
PUBLIC	??_C@_0M@FPDKOEDO@USB?5ARRIVAL@			; `string'
PUBLIC	??_C@_0M@ENJCMGFB@USB?5?5REMOVE@		; `string'
PUBLIC	??_C@_0CG@OJJDNJOH@Volume?5CHANGE?5?$DMFlags?5?$CFp?0?5UnitMa@ ; `string'
PUBLIC	??_C@_0CA@FNGBCCOE@Oem?5CHANGE?5?$DMId?5?$CFp?0?5SuppFunc?5?$CFp?$DO@ ; `string'
PUBLIC	??_C@_0BE@FJDGCJID@DevNode?5CHANGE?5?$DM?$CFp?$DO@ ; `string'
PUBLIC	??_C@_0BB@LPBNHOKC@Port?5CHANGE?5?$DM?$CFs?$DO@	; `string'
PUBLIC	??_C@_0CD@BNLENJBO@Net?5CHANGE?5?$DMResource?5?$CFp?0?5Flags?5@ ; `string'
PUBLIC	??_C@_0EN@GBOFOCLM@Handle?5CHANGE?5?$DMHandle?5?$CFp?0?5NameO@ ; `string'
PUBLIC	??_C@_0CK@KDAHPGC@Would?5you?5like?5to?5close?5this?5ap@ ; `string'
PUBLIC	??_C@_0P@BIPEBJDO@Exit?5Requested@		; `string'
PUBLIC	??_C@_0DC@MBHJGPCP@Would?5you?5like?5to?5quickly?5close@ ; `string'
PUBLIC	??_C@_0BF@CDGGKCEM@Quick?5Exit?5Requested@	; `string'
PUBLIC	??_C@_0L@EMLHDHFB@?$DO?$DO?5ThrdMsg@		; `string'
PUBLIC	??_C@_0BA@JDKJFHEL@SysStatusWClass@		; `string'
PUBLIC	??_C@_0BG@GPCBDAOG@?$DM?$DM?5ThrdMsg?0?5RegCls?5?$CFs@ ; `string'
PUBLIC	??_C@_0BJ@JFGPBNIN@?$DM?$DM?5ThrdMsg?0?5CreateWnd?5?$CFs@ ; `string'
PUBLIC	??_C@_0L@BACOFOKN@?$DM?$DM?5ThrdMsg@		; `string'
PUBLIC	??_C@_0BA@PGPPJDLP@?$DO?$DO?5ThrdUSB?5?$CI?$CFp?$CJ@ ; `string'
PUBLIC	??_C@_0BP@GBFCDAOJ@?$DM?$DM?5ThrdUSB?0?5New?5USB?5class?5null@ ; `string'
PUBLIC	??_C@_0L@FFDNLHNK@?$DM?$DM?5ThrdUSB@		; `string'
PUBLIC	??_C@_0BB@JFPIPLLP@?$DO?$DO?5ProcInfo?5?$CI?$CFp?$CJ@ ; `string'
PUBLIC	??_C@_0CP@FFOKNKOI@Processes?5Information?0?5Number?5o@ ; `string'
PUBLIC	??_C@_0OJ@OBBIANJK@?$DO?5?5?5?5?5?5ProcessID?0?5Process?5Name?0@ ; `string'
PUBLIC	??_C@_09EEKGDCPH@?$DMunknown?$DO@		; `string'
PUBLIC	??_C@_0EJ@NBLNGMHL@?$DO?5?$CF?43d?0?5?$CF05u?0?5?$CFs?0?5?$CFu?0?5?$CF02d?3?$CF02d@ ; `string'
PUBLIC	??_C@_0CF@LGHCMJEF@ProcessInfo?0?5OpenProcess?$CIPID?5?$CFl@ ; `string'
PUBLIC	??_C@_0EA@JFLIEPEA@?$DO?5?$CF?43d?0?5?$CF05u?0?5?$DMunknown?$DO?0?5?$DP?0?5?$DP?$DP?3@ ; `string'
PUBLIC	??_C@_0BO@MOIJAHHG@ProcessInfo?0?5EnumProcesses?5?$CFs@ ; `string'
PUBLIC	??_C@_0M@LHLIHEIP@?$DM?$DM?5ProcInfo@		; `string'
PUBLIC	??_C@_0BC@BGHHFGNO@?$DO?$DO?5HwProfile?5?$CI?$CFp?$CJ@ ; `string'
PUBLIC	??_C@_0DA@OIKPBLGF@Hardware?5Profile?0?5DockInfo?5?$CFp?0?5@ ; `string'
PUBLIC	??_C@_0CC@OJDBEDNI@HwProfile?0?5GetCurrentHwProfile?5@ ; `string'
PUBLIC	??_C@_0N@DNDAOIDK@?$DM?$DM?5HwProfile@		; `string'
PUBLIC	??_C@_0BK@DFNBACLA@GetCurrentProcessorNumber@	; `string'
PUBLIC	??_C@_08PNLNEKOB@kernel32@			; `string'
PUBLIC	??_C@_0EH@HJFNKFOJ@?9?9?5CurrentProcessorNumber?0?5GetC@ ; `string'
PUBLIC	??_C@_0BA@KIDPDIJO@?$DO?$DO?5SysInfo?5?$CI?$CFp?$CJ@ ; `string'
PUBLIC	??_C@_0BD@EBOFFHEB@x64?5?$CIAMD?5or?5Intel?$CJ@	; `string'
PUBLIC	??_C@_0BE@BAGOKCHN@Intel?5Itanium?9based@	; `string'
PUBLIC	??_C@_03NDFEINMN@x86@				; `string'
PUBLIC	??_C@_07NBCGADJA@Unknown@			; `string'
PUBLIC	??_C@_0FN@KGKHOIOF@Computer?3?5?$CFs?0?5Processor?$CIs?$CJ?5?$CFu?5?$CF@ ; `string'
PUBLIC	??_C@_0L@EJPMBDJN@?$DM?$DM?5SysInfo@		; `string'
PUBLIC	??_C@_0P@JFFCKGPB@?$DO?$DO?5OSInfo?5?$CI?$CFp?$CJ@ ; `string'
PUBLIC	??_C@_0BC@LGEIIGCP@Domain?5Controller@		; `string'
PUBLIC	??_C@_06LGMEBDBC@Server@			; `string'
PUBLIC	??_C@_0M@CILGCIDH@Workstation@			; `string'
PUBLIC	??_C@_0EG@OPOFGEHK@OSInfo?0?5Version?5?$CFu?4?$CFu?4?$CFu?0?5Platf@ ; `string'
PUBLIC	??_C@_0BN@NMBMIHHC@OSInfo?0?5VerifyVersionInfo?5?$CFs@ ; `string'
PUBLIC	??_C@_0CK@HOFAFFOO@OSInfo?0?5Version?5?$CFu?4?$CFu?4?$CFu?0?5Platf@ ; `string'
PUBLIC	??_C@_09EHLFKBJE@?$DM?$DM?5OSInfo@		; `string'
PUBLIC	??_C@_0P@CFMOGLIC@?$DO?$DO?5SysMem?5?$CI?$CFp?$CJ@ ; `string'
PUBLIC	??_C@_0O@OAHOAHIO@System?5Memory@		; `string'
PUBLIC	??_C@_0BB@DIEGGMCF@Usage?3?5?$CFu?$CF?$CF?5used@ ; `string'
PUBLIC	??_C@_0CC@JHNBDNDC@Physical?3?5?$CFu?5MB?5used?0?5?$CFu?5MB?5ava@ ; `string'
PUBLIC	??_C@_0CC@PBKOHCPF@Pagefile?3?5?$CFu?5MB?5used?0?5?$CFu?5MB?5ava@ ; `string'
PUBLIC	??_C@_0DB@BKHHAKDB@Virtual?3?5?$CFu?5MB?5used?0?5?$CFu?5MB?5avai@ ; `string'
PUBLIC	??_C@_09CIJKANFC@?$DM?$DM?5SysMem@		; `string'
PUBLIC	??_C@_0BB@FODCFBGJ@?$DO?$DO?5SysTimes?5?$CI?$CFp?$CJ@ ; `string'
PUBLIC	??_C@_0N@HHJCFDFH@System?5Times@		; `string'
PUBLIC	??_C@_0CE@PJKLEAEE@Kernel?5time?3?5?$CF02d?3?$CF02d?3?$CF02d?5?$CI?$CFu@ ; `string'
PUBLIC	??_C@_0CC@JKEHGGOG@User?5time?3?5?$CF02d?3?$CF02d?3?$CF02d?5?$CI?$CFu?5s@ ; `string'
PUBLIC	??_C@_0BN@JFNEHINJ@Idle?3?5?$CF02d?3?$CF02d?3?$CF02d?5?$CI?$CFu?5s?$CJ?4@ ; `string'
PUBLIC	??_C@_0DP@OCMJGDEB@Processor?3?5?$CFI64u?5counts?0?5?$CFI64u?5@ ; `string'
PUBLIC	??_C@_0M@FNBLPGFN@?$DM?$DM?5SysTimes@		; `string'
PUBLIC	??_C@_09MOKIPJGJ@NoRootDir@			; `string'
PUBLIC	??_C@_05OCBIINAK@Fixed@				; `string'
PUBLIC	??_C@_06MHHFENDB@Remote@			; `string'
PUBLIC	??_C@_05JIFOIGMJ@CDRom@				; `string'
PUBLIC	??_C@_07CPJGKNJN@RamDisk@			; `string'
PUBLIC	??_C@_0BA@KFINEJGA@?$DO?$DO?5LogDrvs?5?$CI?$CFp?$CJ@ ; `string'
PUBLIC	??_C@_0CA@BGDEGNDO@Logical?5Drivers?5?$CFu?$CI?$CFu?$CJ?5?$CI0x?$CF?48X?$CJ@ ; `string'
PUBLIC	??_C@_0BJ@BENIJAPK@?$DO?$DO?5?$CF?43d?0?5?$CFs?3?5Type?5?$CFs?$CI?$CFu?$CJ@ ; `string'
PUBLIC	??_C@_0GE@JMDLMJNN@?5?5?5VolumeInfo?0?5Name?5?$CFs?0?5SerialN@ ; `string'
PUBLIC	??_C@_0GJ@NOKMBBI@?5?5?5FreeSpace?0?5SectorsPerCluster@ ; `string'
PUBLIC	??_C@_0L@GICAALNI@?$DM?$DM?5LogDrvs@		; `string'
PUBLIC	??_C@_0BA@GBCPBHIM@?$DO?$DO?5SysDirs?5?$CI?$CFp?$CJ@ ; `string'
PUBLIC	??_C@_0BD@OAHOLNHD@System?5Directories@		; `string'
PUBLIC	??_C@_09LGICPEGI@SysDir?5?$CFs@			; `string'
PUBLIC	??_C@_0M@JFNOOIEA@TempPath?5?$CFs@		; `string'
PUBLIC	??_C@_09PEBHDCJJ@WinDir?5?$CFs@			; `string'
PUBLIC	??_C@_0N@JJNMAABC@WinSysDir?5?$CFs@		; `string'
PUBLIC	??_C@_0L@NBODLJGE@?$DM?$DM?5SysDirs@		; `string'
PUBLIC	??_C@_0BH@MFPGFEAK@?$DO?$DO?5SysLogProcInfo?5?$CI?$CFp?$CJ@ ; `string'
PUBLIC	??_C@_0BP@KHGALBC@GetLogicalProcessorInformation@ ; `string'
PUBLIC	??_C@_0DO@CNICBAHJ@?$DM?$DM?5SysLogProcInfo?0?5Out?0?5Unsupp?5@ ; `string'
PUBLIC	??_C@_0CG@LHEIAGGO@?9?9?5SysLogProcInfo?0?5Allocation?5f@ ; `string'
PUBLIC	??_C@_0BL@KHIEGLFN@?9?9?5SysLogProcInfo?0?5GLPI?5?$CFs@ ; `string'
PUBLIC	??_C@_0EC@BGADHKMF@?9?9?5SysLogProcInfo?0?5Unsupp?5LOGIC@ ; `string'
PUBLIC	??_C@_0CB@ECHENMHH@Logical?5Processor?$CIs?$CJ?5Informatio@ ; `string'
PUBLIC	??_C@_0BJ@CBGNJNLO@Number?5of?5NUMA?5nodes?3?5?$CFd@ ; `string'
PUBLIC	??_C@_0CK@CIFFOGGE@Number?5of?5physical?5processor?5pa@ ; `string'
PUBLIC	??_C@_0BO@JLJNFPPO@Number?5of?5processor?5cores?3?5?$CFd@ ; `string'
PUBLIC	??_C@_0CB@NEBFNBCF@Number?5of?5logical?5processors?3?5?$CF@ ; `string'
PUBLIC	??_C@_0CO@JLHKKOJE@Number?5of?5processor?5L1?1L2?1L3?5ca@ ; `string'
PUBLIC	??_C@_0BC@BKCMKMCI@?$DM?$DM?5SysLogProcInfo@	; `string'
PUBLIC	??_C@_0BA@HKMBGJGH@?$DO?$DO?5DevDrvs?5?$CI?$CFp?$CJ@ ; `string'
PUBLIC	??_C@_0BO@PHKHDLGJ@Device?5Drivers?0?5Number?5of?3?5?$CFd@ ; `string'
PUBLIC	??_C@_0BA@DGAJHBGD@?$DO?5?$CF?43zu?0?5?$CFs?0?5?$CFs@ ; `string'
PUBLIC	??_C@_0DF@CJPNLIJE@DevDrvs?0?5EnumDeviceDrivers?5?$CFs?5?$CI@ ; `string'
PUBLIC	??_C@_0L@NHDPJOBN@?$DM?$DM?5DevDrvs@		; `string'
PUBLIC	??_C@_0BB@LPGMBLGN@?$DO?$DO?5PerfInfo?5?$CI?$CFp?$CJ@ ; `string'
PUBLIC	??_C@_0BI@ECNHKKAA@Performance?5Information@	; `string'
PUBLIC	??_C@_0CE@ONMEHFLA@Commit?3?5Total?5?$CFu?0?5Limit?5?$CFu?0?5Pea@ ; `string'
PUBLIC	??_C@_0CB@KFDPCIGB@Physical?3?5Total?5?$CFu?0?5Available?5?$CF@ ; `string'
PUBLIC	??_C@_0BA@DCNNFMJH@System?5Cache?5?$CFu@	; `string'
PUBLIC	??_C@_0CI@POMBEGEK@Kernel?3?5Total?5?$CFu?0?5Paged?5?$CFu?0?5Non@ ; `string'
PUBLIC	??_C@_0N@HEDGONEI@Page?5Size?5?$CFu@		; `string'
PUBLIC	??_C@_0CD@DBCKLHBG@Process?5?$CFu?0?5Handles?5?$CFu?0?5Threads@ ; `string'
PUBLIC	??_C@_0CA@JENOJKFE@PerfInfo?0?5GetPerformanceInfo?5?$CFs@ ; `string'
PUBLIC	??_C@_0M@JHACCAAA@?$DM?$DM?5PerfInfo@		; `string'
PUBLIC	??_C@_0P@CKNBFJNB@?$DO?$DO?5GetPtrsList@	; `string'
PUBLIC	??_C@_0BL@CMACENMK@?$DM?$DM?5GetPtrsList?0?5No?5Printer@ ; `string'
PUBLIC	??_C@_0CB@CEENFMON@?$DM?$DM?5GetPtrsList?0?5new?5PtrInfo?5nul@ ; `string'
PUBLIC	??_C@_0CA@CCAKGGPA@?$DM?$DM?5GetPtrsList?0?5EnumPrinters?5?$CFs@ ; `string'
PUBLIC	??_C@_0CF@POBEDBNN@?$DM?$DM?5GetPtrsList?0?5new?5PrtInfoList@ ; `string'
PUBLIC	??_C@_0BL@DODNOLI@Printers?5Information?5?$CI?$CFd?$CJ?3@ ; `string'
PUBLIC	??_C@_0FD@LPLLHANM@?$DO?5?5?5?5?5Printer?0?5Port?0?5Driver?0?5Pr@ ; `string'
PUBLIC	??_C@_0P@EABBNIJO@?$DMLocalPrinter?$DO@		; `string'
PUBLIC	??_C@_0DB@OBDCAEAF@?$DO?5?$CF?42d?3?5?2?2?$CFs?2?$CFs?0?5?5?$CFs?0?5?$CFs?0?5?$CFs?0?5?$CF@ ; `string'
PUBLIC	??_C@_0P@GDDJCMON@?$DM?$DM?5GetPtrsList@	; `string'
PUBLIC	??_C@_0CA@MEDOMPCD@?$DO?$DO?5GetBinList?0?5Name?5?$CFs?0?5Port?5?$CFs@ ; `string'
PUBLIC	??_C@_0DE@FGDAMBLB@?$DM?$DM?5GetBinList?0?5DeviceCapabiliti@ ; `string'
PUBLIC	??_C@_0CJ@MFGEJMEH@?$DM?$DM?5GetBinList?0?5?$DM?$CFs?$DO?5new?5DC_BINS@ ; `string'
PUBLIC	??_C@_0DD@GBLOLICC@?$DM?$DM?5GetBinList?0?5?$DM?$CFs?$DO?5new?5PTRDATA@ ; `string'
PUBLIC	??_C@_0DC@FCIPFBFM@?$DM?$DM?5GetBinList?0?5DeviceCapabiliti@ ; `string'
PUBLIC	??_C@_0CN@HGGHLGCE@?9?9?5GetBinList?0?5?$DM?$CFs?$DO?5new?5DC_BINN@ ; `string'
PUBLIC	??_C@_0DG@HABDBBMM@?9?9?5GetBinList?0?5DeviceCapabiliti@ ; `string'
PUBLIC	??_C@_0BH@CEPOJCOE@?$DM?$DM?5GetBinList?0?5List?5?$CFp@ ; `string'
PUBLIC	??_C@_0CC@ONAFHJDF@?$DO?$DO?5GetPaperList?0?5Name?5?$CFs?0?5Port?5@ ; `string'
PUBLIC	??_C@_0DI@CDPGKELL@?$DM?$DM?5GetPaperList?0?5DeviceCapabili@ ; `string'
PUBLIC	??_C@_0CN@BIOGLDPF@?$DM?$DM?5GetPaperList?0?5?$DM?$CFs?$DO?5new?5DC_PA@ ; `string'
PUBLIC	??_C@_0DF@MINJLAHF@?$DM?$DM?5GetPaperList?0?5?$DM?$CFs?$DO?5new?5PTRDA@ ; `string'
PUBLIC	??_C@_0DG@CIOANDHH@?$DM?$DM?5GetPaperList?0?5DeviceCapabili@ ; `string'
PUBLIC	??_C@_0DA@NJCIHNJI@?9?9?5GetPaperList?0?5?$DM?$CFs?$DO?5new?5DC_PA@ ; `string'
PUBLIC	??_C@_0DJ@BNKOAMAF@?9?9?5GetPaperList?0?5DeviceCapabili@ ; `string'
PUBLIC	??_C@_0DB@DLBCIEDL@?9?9?5GetPaperList?0?5?$DM?$CFs?$DO?5new?5DC_PA@ ; `string'
PUBLIC	??_C@_0DK@CGKLJHJE@?9?9?5GetPaperList?0?5DeviceCapabili@ ; `string'
PUBLIC	??_C@_0BJ@HGBNGAMD@?$DM?$DM?5GetPaperList?0?5List?5?$CFp@ ; `string'
PUBLIC	??_C@_0CG@PBHDOEPC@?$DO?$DO?5GetMediaTypeList?0?5Name?5?$CFs?0?5P@ ; `string'
PUBLIC	??_C@_0EA@NNAOKLFO@?$DM?$DM?5GetMediaTypeList?0?5DeviceCapa@ ; `string'
PUBLIC	??_C@_0DF@EKPICGIC@?9?9?5GetMediaTypeList?0?5?$DM?$CFs?$DO?5new?5D@ ; `string'
PUBLIC	??_C@_0DJ@IAEPPFOH@?$DM?$DM?5GetMediaTypeList?0?5?$DM?$CFs?$DO?5new?5P@ ; `string'
PUBLIC	??_C@_0DO@OFONMAMJ@?$DM?$DM?5GetMediaTypeList?0?5DeviceCapa@ ; `string'
PUBLIC	??_C@_0DJ@CAKMLHPC@?9?9?5GetMediaTypeList?0?5?$DM?$CFs?$DO?5new?5D@ ; `string'
PUBLIC	??_C@_0EC@ONNFKLG@?9?9?5GetMediaTypeList?0?5DeviceCapa@ ; `string'
PUBLIC	??_C@_0BN@IBLEBHCE@?$DM?$DM?5GetMediaTypeList?0?5List?5?$CFp@ ; `string'
PUBLIC	??_C@_0BA@EKNEIKHO@?$DO?$DO?5PtrInfo?5?$CI?$CFp?$CJ@ ; `string'
PUBLIC	??_C@_0BH@ENEDNFCI@?$DM?$DM?5PtrInfo?0?5No?5Printer@ ; `string'
PUBLIC	??_C@_0BN@HOILGMMA@?$DM?$DM?5PtrInfo?0?5PtrInfoList?5null@ ; `string'
PUBLIC	??_C@_0CG@GNJLFBNH@Info?5from?5?$CFs?0?5Port?5?$CFs?0?5Driver?5?$CF@ ; `string'
PUBLIC	??_C@_0DM@DLHDGDPE@?9?9?5PtrInfo?0?5DeviceCapabilities?$CI@ ; `string'
PUBLIC	??_C@_0DB@OINKGGOI@?9?9?5PtrInfo?0?5?$DM?$CFs?$DO?5new?5DC_ENUMRES@ ; `string'
PUBLIC	??_C@_0DK@HALEOHFL@?9?9?5PtrInfo?0?5DeviceCapabilities?$CI@ ; `string'
PUBLIC	??_C@_0BJ@PLJPAGFI@DC_ENUMRESOLUTIONS?5?$CI?$CFd?$CJ?3@ ; `string'
PUBLIC	??_C@_0P@OBKMFCDP@?$DO?$CF?42d?3?5?$CFu?5x?5?$CFu@ ; `string'
PUBLIC	??_C@_0BL@IBIADDJ@DC_BINS?0?5DC_BINNAMES?5?$CI?$CFd?$CJ?3@ ; `string'
PUBLIC	??_C@_0O@KDMGFAIN@?$DO?$CF?42d?3?5?$CFu?0?5?$CFs@ ; `string'
PUBLIC	??_C@_0CP@BNOBPGPC@?9?9?5PtrInfo?0?5Catch?5unhndld?5excpe@ ; `string'
PUBLIC	??_C@_0CN@GKNAEPGN@DC_PAPERS?0?5DC_PAPERNAMES?0?5DC_PA@ ; `string'
PUBLIC	??_C@_0BJ@ENBLCNAO@?$DO?$CF?42d?3?5?$CFu?0?5?$CFs?0?5?$CF?45d?5?$CF?45d@ ; `string'
PUBLIC	??_C@_0DB@CMDEFNNK@?9?9?5PtrInfo?0?5Catch?5unhndld?5excpe@ ; `string'
PUBLIC	??_C@_0BC@NAFPPPIH@DC_ORIENTATION?5?$CFd@	; `string'
PUBLIC	??_C@_0N@GOBEBGOJ@DC_COPIES?5?$CFd@		; `string'
PUBLIC	??_C@_0O@CECDKEDL@DC_COLLATE?5?$CFd@		; `string'
PUBLIC	??_C@_0BC@CPGDDBNJ@DC_COLORDEVICE?5?$CFd@	; `string'
PUBLIC	??_C@_0N@JAMONLMJ@DC_DUPLEX?5?$CFd@		; `string'
PUBLIC	??_C@_0N@BOEFEHCB@DC_DRIVER?5?$CFd@		; `string'
PUBLIC	??_C@_0O@BHGLDB@DC_VERSION?5?$CFd@		; `string'
PUBLIC	??_C@_0N@FMBEEHK@DC_FIELDS?5?$CFu@		; `string'
PUBLIC	??_C@_0CC@HHEJCDLL@DC_MAXEXTENT?3?5Length?5?$CFu?0?5Width?5@ ; `string'
PUBLIC	??_C@_0CC@FIJGGACG@DC_MINEXTENT?3?5Length?5?$CFu?0?5Width?5@ ; `string'
PUBLIC	??_C@_0L@ICJGKLML@DC_SIZE?5?$CFd@		; `string'
PUBLIC	??_C@_0N@ONNHJAOP@DC_STAPLE?5?$CFd@		; `string'
PUBLIC	??_C@_0P@MLIHNHLK@DC_TRUETYPE?5?$CFd@		; `string'
PUBLIC	??_C@_0DA@BHONBGKL@?9?9?5PtrInfo?0?5DeviceCapabilities?$CI@ ; `string'
PUBLIC	??_C@_0CF@DGNIMKMD@?9?9?5PtrInfo?0?5?$DM?$CFs?$DO?5new?5DC_NUP?5mem@ ; `string'
PUBLIC	??_C@_0CO@CJKPCGLF@?9?9?5PtrInfo?0?5DeviceCapabilities?$CI@ ; `string'
PUBLIC	??_C@_0N@EHIGBDLP@DC_NUP?5?$CI?$CFd?$CJ?3@	; `string'
PUBLIC	??_C@_09MFCBGNBM@?$DO?$CF?42d?3?5?$CFu@		; `string'
PUBLIC	??_C@_0DN@GGKKNNDH@?9?9?5PtrInfo?0?5DeviceCapabilities?$CI@ ; `string'
PUBLIC	??_C@_0DC@MCOOCAIH@?9?9?5PtrInfo?0?5?$DM?$CFs?$DO?5new?5DC_FILEDEP@ ; `string'
PUBLIC	??_C@_0DL@NOJMDJGA@?9?9?5PtrInfo?0?5DeviceCapabilities?$CI@ ; `string'
PUBLIC	??_C@_0BK@NAHDGPCH@DC_FILEDEPENDENCIES?5?$CI?$CFd?$CJ?3@ ; `string'
PUBLIC	??_C@_09JDHLMKJK@?$DO?$CF?42d?3?5?$CFs@		; `string'
PUBLIC	??_C@_0DH@GEGMAAP@?9?9?5PtrInfo?0?5DeviceCapabilities?$CI@ ; `string'
PUBLIC	??_C@_0CM@KMOLCCC@?9?9?5PtrInfo?0?5?$DM?$CFs?$DO?5new?5DC_MEDIARE@ ; `string'
PUBLIC	??_C@_0DF@POBLKCNL@?9?9?5PtrInfo?0?5DeviceCapabilities?$CI@ ; `string'
PUBLIC	??_C@_0BE@JHLOAEJA@DC_MEDIAREADY?5?$CI?$CFd?$CJ?3@ ; `string'
PUBLIC	??_C@_0CH@OFCLBKDH@DC_MEDIATYPES?0?5DC_MEDIATYPENAME@ ; `string'
PUBLIC	??_C@_0DF@CIBLFONP@?9?9?5PtrInfo?0?5Catch?5unhndld?5excpe@ ; `string'
PUBLIC	??_C@_0DI@PACCMPGC@?9?9?5PtrInfo?0?5DeviceCapabilities?$CI@ ; `string'
PUBLIC	??_C@_0CN@FDCGHEM@?9?9?5PtrInfo?0?5?$DM?$CFs?$DO?5new?5DC_PERSONA@ ; `string'
PUBLIC	??_C@_0DG@NKFBLOLE@?9?9?5PtrInfo?0?5DeviceCapabilities?$CI@ ; `string'
PUBLIC	??_C@_0BF@JJAELOOF@DC_PERSONALITY?5?$CI?$CFd?$CJ?3@ ; `string'
PUBLIC	??_C@_08JFBLCBEM@DEVMODE?3@			; `string'
PUBLIC	??_C@_0BA@KDNAKNNN@?$DO?5DeviceName?5?$CFs@	; `string'
PUBLIC	??_C@_0BB@GFIGJBOF@?$DO?5SpecVersion?5?$CFd@	; `string'
PUBLIC	??_C@_0BD@FHCKIAEA@?$DO?5DriverVersion?5?$CFd@	; `string'
PUBLIC	??_C@_09EJHHAJLO@?$DO?5Size?5?$CFd@		; `string'
PUBLIC	??_C@_0BB@NFLJLFB@?$DO?5DriverExtra?5?$CFd@	; `string'
PUBLIC	??_C@_0BG@JDMKIO@?$DO?5DriverFields?50x?$CF?48X@ ; `string'
PUBLIC	??_C@_0M@PJOJJBEC@?$DO?5Orient?5?$CFd@		; `string'
PUBLIC	??_C@_0P@MIJBPCPJ@?$DO?5PaperSize?5?$CFd@	; `string'
PUBLIC	??_C@_0BB@NFCPDFAH@?$DO?5PaperLength?5?$CFd@	; `string'
PUBLIC	??_C@_0BA@EJLKBGAF@?$DO?5PaperWidth?5?$CFd@	; `string'
PUBLIC	??_C@_0L@CIICACOJ@?$DO?5Scale?5?$CFd@		; `string'
PUBLIC	??_C@_0M@MCOJLIEN@?$DO?5Copies?5?$CFd@		; `string'
PUBLIC	??_C@_0BD@PBLNKDE@?$DO?5DefaultSource?5?$CFd@	; `string'
PUBLIC	??_C@_0BB@FEEDGEPE@?$DO?5PrintQulity?5?$CFd@	; `string'
PUBLIC	??_C@_0L@OGGOANCL@?$DO?5Color?5?$CFd@		; `string'
PUBLIC	??_C@_0M@DMDDHFGN@?$DO?5Duplex?5?$CFd@		; `string'
PUBLIC	??_C@_0BB@ODANIHPJ@?$DO?5YResolution?5?$CFd@	; `string'
PUBLIC	??_C@_0O@ODMOOLLN@?$DO?5TTOption?5?$CFd@	; `string'
PUBLIC	??_C@_0N@DEPFBBGA@?$DO?5Collate?5?$CFd@		; `string'
PUBLIC	??_C@_0O@NAFNONHG@?$DO?5FormName?5?$CFs@	; `string'
PUBLIC	??_C@_0P@HBAMONIO@?$DO?5LogPixels?5?$CFd@	; `string'
PUBLIC	??_C@_0BA@IJGBMLDF@?$DO?5BitsPerPel?5?$CFu@	; `string'
PUBLIC	??_C@_0P@GJDEABGN@?$DO?5PelsWidth?5?$CFu@	; `string'
PUBLIC	??_C@_0BA@FJKIIKDN@?$DO?5PelsHeight?5?$CFd@	; `string'
PUBLIC	??_C@_0P@BALKIIFI@?$DO?5ICMMethod?5?$CFu@	; `string'
PUBLIC	??_C@_0P@FBGPJDBI@?$DO?5ICMIntent?5?$CFu@	; `string'
PUBLIC	??_C@_0P@DGLLLDPA@?$DO?5MediaType?5?$CFu@	; `string'
PUBLIC	??_C@_0BA@IBDIEDAP@?$DO?5DitherType?5?$CFu@	; `string'
PUBLIC	??_C@_0P@ODIJDFHK@?$DO?5Reserved1?5?$CFu@	; `string'
PUBLIC	??_C@_0P@KECJEPKK@?$DO?5Reserved2?5?$CFu@	; `string'
PUBLIC	??_C@_0BC@ILEBHAGL@?$DO?5PanningWidth?5?$CFu@	; `string'
PUBLIC	??_C@_0BD@ODPAHJGJ@?$DO?5PanningHeight?5?$CFu@	; `string'
PUBLIC	??_C@_0BL@NKEHJDBP@?9?9?5PtrInfo?0?5OpenPrinter?5?$CFs@ ; `string'
PUBLIC	??_C@_0M@CPAOAHIM@DeviceCaps?3@			; `string'
PUBLIC	??_C@_0BD@JDPBNNPN@?$DO?5DRIVERVERSION?5?$CFd@	; `string'
PUBLIC	??_C@_0BA@KDKPJOH@?$DO?5TECHNOLOGY?5?$CFd@	; `string'
PUBLIC	??_C@_0O@HMCMNAPC@?$DO?5HORZSIZE?5?$CFd@	; `string'
PUBLIC	??_C@_0O@LDGIGNAG@?$DO?5VERTSIZE?5?$CFd@	; `string'
PUBLIC	??_C@_0N@IFBEPCKP@?$DO?5HORZRES?5?$CFd@		; `string'
PUBLIC	??_C@_0N@HLDMJPJJ@?$DO?5VERTRES?5?$CFd@		; `string'
PUBLIC	??_C@_0P@CHMKJDGJ@?$DO?5BITSPIXEL?5?$CFd@	; `string'
PUBLIC	??_C@_0M@DABMECAD@?$DO?5PLANES?5?$CFd@		; `string'
PUBLIC	??_C@_0BA@GCBODPHK@?$DO?5NUMBRUSHES?5?$CFd@	; `string'
PUBLIC	??_C@_0N@HHCKOKCG@?$DO?5NUMPENS?5?$CFd@		; `string'
PUBLIC	??_C@_0BA@IJEEOFOD@?$DO?5NUMMARKERS?5?$CFd@	; `string'
PUBLIC	??_C@_0O@HIAAJLOF@?$DO?5NUMFONTS?5?$CFd@	; `string'
PUBLIC	??_C@_0P@CDPEOCLN@?$DO?5NUMCOLORS?5?$CFd@	; `string'
PUBLIC	??_C@_0BB@BIAFAHJC@?$DO?5PDEVICESIZE?5?$CFd@	; `string'
PUBLIC	??_C@_0P@MJKILKAG@?$DO?5CURVECAPS?5?$CFd@	; `string'
PUBLIC	??_C@_0O@NIBLPDAA@?$DO?5LINECAPS?5?$CFd@	; `string'
PUBLIC	??_C@_0BD@NDEFMMIK@?$DO?5POLYGONALCAPS?5?$CFd@	; `string'
PUBLIC	??_C@_0O@EJBOFNFI@?$DO?5TEXTCAPS?5?$CFd@	; `string'
PUBLIC	??_C@_0O@NPFDNMHE@?$DO?5CLIPCAPS?5?$CFd@	; `string'
PUBLIC	??_C@_0BA@OCKGHOJF@?$DO?5RASTERCAPS?5?$CFd@	; `string'
PUBLIC	??_C@_0N@DGFFNBBI@?$DO?5ASPECTX?5?$CFd@		; `string'
PUBLIC	??_C@_0N@LDFPIKI@?$DO?5ASPECTY?5?$CFd@		; `string'
PUBLIC	??_C@_0O@KAIPPGFP@?$DO?5ASPECTXY?5?$CFd@	; `string'
PUBLIC	??_C@_0BA@NDEAPPCA@?$DO?5LOGPIXELSX?5?$CFd@	; `string'
PUBLIC	??_C@_0BA@OOCANGJA@?$DO?5LOGPIXELSY?5?$CFd@	; `string'
PUBLIC	??_C@_0BB@KNEJGJKJ@?$DO?5SIZEPALETTE?5?$CFd@	; `string'
PUBLIC	??_C@_0BB@KMMENDMI@?$DO?5NUMRESERVED?5?$CFd@	; `string'
PUBLIC	??_C@_0O@GGNNNIFP@?$DO?5COLORRES?5?$CFd@	; `string'
PUBLIC	??_C@_0BD@HDEIPKKB@?$DO?5PHYSICALWIDTH?5?$CFd@	; `string'
PUBLIC	??_C@_0BE@BHEFJOBO@?$DO?5PHYSICALHEIGHT?5?$CFd@	; `string'
PUBLIC	??_C@_0BF@PADOFFNF@?$DO?5PHYSICALOFFSETX?5?$CFd@ ; `string'
PUBLIC	??_C@_0BF@MNFOHMGF@?$DO?5PHYSICALOFFSETY?5?$CFd@ ; `string'
PUBLIC	??_C@_0BE@LLMKMDFO@?$DO?5SCALINGFACTORX?5?$CFd@	; `string'
PUBLIC	??_C@_0BE@IGKKOKOO@?$DO?5SCALINGFACTORY?5?$CFd@	; `string'
PUBLIC	??_C@_0O@KHHELDLL@?$DO?5VREFRESH?5?$CFd@	; `string'
PUBLIC	??_C@_0BE@COAHGLLD@?$DO?5DESKTOPVERTRES?5?$CFd@	; `string'
PUBLIC	??_C@_0BE@NACPAGIF@?$DO?5DESKTOPHORZRES?5?$CFd@	; `string'
PUBLIC	??_C@_0BC@JFPGOKHF@?$DO?5BLTALIGNMENT?5?$CFd@	; `string'
PUBLIC	??_C@_0BE@BAMFBECL@?$DO?5SHADEBLENDCAPS?5?$CFd@	; `string'
PUBLIC	??_C@_0BD@DKIEMMJN@?$DO?5COLORMGMTCAPS?5?$CFd@	; `string'
PUBLIC	??_C@_09IGELCPAM@Layout?5?$CFu@			; `string'
PUBLIC	??_C@_0O@FBFECABI@DEFAULT?5FONT?3@		; `string'
PUBLIC	??_C@_0M@JCFCFHLH@?$DO?5Height?5?$CFd@		; `string'
PUBLIC	??_C@_0L@KBIDCEMN@?$DO?5Width?5?$CFd@		; `string'
PUBLIC	??_C@_0P@DLDGLOB@?$DO?5Escapment?5?$CFd@	; `string'
PUBLIC	??_C@_0BB@DFLFEINK@?$DO?5Orientation?5?$CFd@	; `string'
PUBLIC	??_C@_0M@EEPHINNC@?$DO?5Weight?5?$CFd@		; `string'
PUBLIC	??_C@_0P@FOGJLDPM@?$DO?5Italic?5?$CF?42Xh@	; `string'
PUBLIC	??_C@_0BC@IHAMIHEE@?$DO?5Underline?5?$CF?42Xh@	; `string'
PUBLIC	??_C@_0BC@MFABLFLO@?$DO?5StrikeOut?5?$CF?42Xh@	; `string'
PUBLIC	??_C@_0BA@CJMDNNAL@?$DO?5CharSet?5?$CF?42Xh@	; `string'
PUBLIC	??_C@_0BF@IIGPOAFP@?$DO?5OutPrecision?5?$CF?42Xh@ ; `string'
PUBLIC	??_C@_0BG@FHJOGBNN@?$DO?5ClipPrecision?5?$CF?42Xh@ ; `string'
PUBLIC	??_C@_0BA@PONLFNLB@?$DO?5Quality?5?$CF?42Xh@	; `string'
PUBLIC	??_C@_0BH@FCEMNLND@?$DO?5PitchAndFamily?5?$CF?42Xh@ ; `string'
PUBLIC	??_C@_0O@PBJPIOLO@?$DO?5FaceName?5?$CFs@	; `string'
PUBLIC	??_C@_0BN@PNGCEDEF@?9?9?5PtrInfo?0?5new?5LOGFONT?5null@ ; `string'
PUBLIC	??_C@_0BI@CCOPIFBO@?9?9?5PtrInfo?0?5CreateIC?5?$CFs@ ; `string'
PUBLIC	??_C@_0L@GNPIKGBL@?$DM?$DM?5PtrInfo@		; `string'
PUBLIC	??_C@_04HPMIDMKH@True@				; `string'
PUBLIC	??_C@_05MKDOIIA@False@				; `string'
PUBLIC	??_C@_0BJ@JNNHNEI@?$DO?$DO?5GetSysIPAddrs?0?5?$CFp?0?5?$CFs@ ; `string'
PUBLIC	??_C@_0BD@JGGPHJBD@IP?5Addresses?5?$CI?$CFu?$CJ?3@ ; `string'
PUBLIC	??_C@_09BDGNKGNI@?$DO?5?$CF02u?5?$CFs@		; `string'
PUBLIC	??_C@_0BB@CMFNMPNL@?$DM?$DM?5GetSysIPAddrs@	; `string'
PUBLIC	??_C@_0O@BHNLPBFJ@?$DO?$DO?5GetSysDets@		; `string'
PUBLIC	??_C@_09NLLCGGEI@HwProfile@			; `string'
PUBLIC	??_C@_07JFBHEENG@SysInfo@			; `string'
PUBLIC	??_C@_06HKOPCFLK@OSInfo@			; `string'
PUBLIC	??_C@_0BA@JCIBBNDO@SysLogPrcsrInfo@		; `string'
PUBLIC	??_C@_07NAIOOCP@SysDirs@			; `string'
PUBLIC	??_C@_0O@JGOJIALP@?$DM?$DM?5GetSysDets@		; `string'
PUBLIC	??_C@_0N@DKCIAKLO@?$DO?$DO?5GetSysSts@		; `string'
PUBLIC	??_C@_08LMMJIFBC@SysTimes@			; `string'
PUBLIC	??_C@_06BFMAIJHM@SysMem@			; `string'
PUBLIC	??_C@_08HGNAFDEP@PerfInfo@			; `string'
PUBLIC	??_C@_08FGGKAHMA@ProcInfo@			; `string'
PUBLIC	??_C@_0N@LGEPCBGK@?$DM?$DM?5GetSysSts@		; `string'
PUBLIC	??_C@_07LEMLFMJD@LogDrvs@			; `string'
PUBLIC	??_C@_03IONNGCBN@USB@				; `string'
PUBLIC	??_C@_08IHNDGAAK@DevDrvrs@			; `string'
PUBLIC	??_C@_07LBBDPBFA@PtrInfo@			; `string'
PUBLIC	??_C@_0BH@HFGKIIBM@?$DO?$DO?5ThrdWMISysPerf?5?$CI?$CFp?$CJ@ ; `string'
PUBLIC	??_C@_0BC@DBJGMMHB@?$DM?$DM?5ThrdWMISysPerf@	; `string'
PUBLIC	??_C@_0BG@GEAKCKEN@?$DO?$DO?5ThrdWMIHwSnsr?5?$CI?$CFp?$CJ@ ; `string'
PUBLIC	??_C@_0BB@MKNOIMND@?$DM?$DM?5ThrdWMIHwSnsr@	; `string'
PUBLIC	??_C@_0BH@LBINOCLF@?$DO?$DO?5ThrdWMISysVols?5?$CI?$CFp?$CJ@ ; `string'
PUBLIC	??_C@_0BC@PAGGLBNL@?$DM?$DM?5ThrdWMISysVols@	; `string'
PUBLIC	??_C@_0N@LKBNMLDB@?$DO?$DO?5GetWMISts@		; `string'
PUBLIC	??_C@_0L@KDFOBJKP@WMISysPerf@			; `string'
PUBLIC	??_C@_09NAIFMJBP@WMIHwSnsr@			; `string'
PUBLIC	??_C@_0L@GCKOGEAF@WMISysVols@			; `string'
PUBLIC	??_C@_0N@DGHKOAOF@?$DM?$DM?5GetWMISts@		; `string'
PUBLIC	??_C@_06CKGENIKG@Enable@			; `string'
PUBLIC	??_C@_07MIKIFGAL@Disable@			; `string'
PUBLIC	??_C@_0BM@PMAFNLMJ@?$DO?$DO?5ModifyPrivilege?3?5?$CFs?5?8?$CFs?8@ ; `string'
PUBLIC	??_C@_0CI@FBLPGCLK@?$DM?$DM?5ModifyPrivilege?0?5OpenProcess@ ; `string'
PUBLIC	??_C@_0CN@CCHLMIMA@?$DM?$DM?5ModifyPrivilege?0?5AdjustToken@ ; `string'
PUBLIC	??_C@_0BD@NDFMDBME@?$DM?$DM?5ModifyPrivilege@	; `string'
PUBLIC	??_C@_0BC@CGDDBBID@?$DO?$DO?5AdjtProcRights@	; `string'
PUBLIC	??_C@_0BE@COMAOBFG@SeSecurityPrivilege@		; `string'
PUBLIC	??_C@_0DN@CNCGHAJP@?9?9?5AdjtProcRights?0?5Successfully@ ; `string'
PUBLIC	??_C@_0BG@PKIMIEFE@?9?9?5AdjtProcRights?0?5?$CFs@ ; `string'
PUBLIC	??_C@_0BC@PHNLOKMH@?$DM?$DM?5AdjtProcRights@	; `string'
PUBLIC	??_C@_07GKIGKNOK@runonce@			; `string'
PUBLIC	??_C@_07KNKAAJIE@sysinfo@			; `string'
PUBLIC	??_C@_08DDBLHJBD@nowindow@			; `string'
PUBLIC	??_C@_05NAPFDJNG@timer@				; `string'
PUBLIC	??_C@_07MMCGMGHO@logsize@			; `string'
PUBLIC	??_C@_09OBKGEPKB@appendlog@			; `string'
PUBLIC	??_C@_06BCHOJLEN@logdir@			; `string'
PUBLIC	??_C@_0N@MHPPNGIP@?$CFs?2SysStatus@		; `string'
PUBLIC	??_C@_0M@NLCNCKHJ@?$CFsSysStatus@		; `string'
PUBLIC	??_C@_0L@PGBNDJPK@?$DO?$DO?5WinMain@		; `string'
PUBLIC	??_C@_0BG@FONLKPFK@SysStatus?0?5CmdLine?5?$CFs@	; `string'
PUBLIC	??_C@_07MMMFAJOG@ThrdMsg@			; `string'
PUBLIC	??_C@_06NNJPAOHJ@ThrWMI@			; `string'
PUBLIC	??_C@_03CCLAEDDF@Yes@				; `string'
PUBLIC	??_C@_02JINPPBEP@No@				; `string'
PUBLIC	??_C@_0BH@ICNNMNOE@Net?5Alive?$DP?5?$CFs?0?5Type?5?$CFu@ ; `string'
PUBLIC	??_C@_0M@MNGEFCAN@Net?5Chkg?5?$CFs@		; `string'
PUBLIC	??_C@_0CA@IBENHIJM@?9?9?5?$CF02llu?3?$CF02llu?3?$CF02llu?0?5?$CF?43f?5s@ ; `string'
PUBLIC	??_C@_0CG@DLNNNFPM@SysStatus?5?9?5Running?5for?5?$CF02llu?3@ ; `string'
PUBLIC	??_C@_0BM@DDANBCKI@?9?9?5WinMain?0?5Wait?5ThrdMsg?5?$CFu@ ; `string'
PUBLIC	??_C@_06EMJDEMAB@?$CF?49f?5s@			; `string'
PUBLIC	??_C@_0BM@NMJKDPPO@invalid?5vector?$DMT?$DO?5subscript@ ; `string'
PUBLIC	?ghWnd@@3PAUHWND__@@A				; ghWnd
PUBLIC	??_R0?AVruntime_error@std@@@8			; std::runtime_error `RTTI Type Descriptor'
PUBLIC	??_R4exception@std@@6B@				; std::exception::`RTTI Complete Object Locator'
PUBLIC	?gbShutdown@@3HA				; gbShutdown
PUBLIC	??_R4runtime_error@std@@6B@			; std::runtime_error::`RTTI Complete Object Locator'
PUBLIC	??_R1A@?0A@EA@runtime_error@std@@8		; std::runtime_error::`RTTI Base Class Descriptor at (0,-1,0,64)'
PUBLIC	?gbForceChecking@@3HA				; gbForceChecking
PUBLIC	??_R1A@?0A@EA@exception@std@@8			; std::exception::`RTTI Base Class Descriptor at (0,-1,0,64)'
PUBLIC	?gszLogFilePrefix@@3PADA			; gszLogFilePrefix
PUBLIC	??_R2exception@std@@8				; std::exception::`RTTI Base Class Array'
PUBLIC	__TI2?AVruntime_error@std@@
PUBLIC	??_7exception@std@@6B@				; std::exception::`vftable'
PUBLIC	__CT??_R0?AVruntime_error@std@@@8??0runtime_error@std@@QAE@ABV01@@Z12
PUBLIC	??_R3exception@std@@8				; std::exception::`RTTI Class Hierarchy Descriptor'
PUBLIC	??_7runtime_error@std@@6B@			; std::runtime_error::`vftable'
PUBLIC	?gbTerminate@@3HA				; gbTerminate
PUBLIC	__CT??_R0?AVexception@std@@@8??0exception@std@@QAE@ABV01@@Z12
PUBLIC	__CTA2?AVruntime_error@std@@
PUBLIC	??_R2runtime_error@std@@8			; std::runtime_error::`RTTI Base Class Array'
PUBLIC	?gpPrinterInfoList@@3PAU_printer_info_list_@@A	; gpPrinterInfoList
PUBLIC	??_R0?AVexception@std@@@8			; std::exception `RTTI Type Descriptor'
PUBLIC	?gTickStart@@3_KA				; gTickStart
PUBLIC	??_R3runtime_error@std@@8			; std::runtime_error::`RTTI Class Hierarchy Descriptor'
PUBLIC	?ghInstance@@3PAUHINSTANCE__@@A			; ghInstance
EXTRN	__imp__SetUnhandledExceptionFilter@4:PROC
EXTRN	_malloc:PROC
EXTRN	__imp__GetComputerNameA@8:PROC
EXTRN	__imp__DocumentPropertiesA@24:PROC
EXTRN	__imp__GetProcessTimes@20:PROC
EXTRN	__imp__GetProcessHandleCount@8:PROC
EXTRN	__imp__GetMessageA@16:PROC
EXTRN	__imp__SetEntriesInAclA@16:PROC
EXTRN	__imp__AdjustTokenPrivileges@24:PROC
EXTRN	__imp__QueryPerformanceCounter@4:PROC
EXTRN	__imp__DispatchMessageA@4:PROC
EXTRN	_isdigit:PROC
EXTRN	??_7type_info@@6B@:QWORD			; type_info::`vftable'
EXTRN	__Query_perf_counter:PROC
EXTRN	__imp__FormatMessageA@28:PROC
EXTRN	__imp__DestroyWindow@4:PROC
EXTRN	__imp__K32EnumProcessModules@16:PROC
EXTRN	_strchr:PROC
EXTRN	__imp__K32GetPerformanceInfo@8:PROC
EXTRN	_strstr:PROC
EXTRN	__imp__WideCharToMultiByte@32:PROC
EXTRN	__imp__GetLayout@4:PROC
EXTRN	__imp__FreeLibrary@4:PROC
EXTRN	__imp__GetModuleHandleW@4:PROC
EXTRN	__imp__GlobalMemoryStatusEx@4:PROC
EXTRN	__imp__GetCurrentHwProfileA@4:PROC
EXTRN	__imp__OpenPrinterA@12:PROC
EXTRN	__imp__GetCurrentProcessId@0:PROC
EXTRN	__imp__PostMessageA@16:PROC
EXTRN	_atoi:PROC
EXTRN	_free:PROC
EXTRN	__imp__GetFileSize@8:PROC
EXTRN	__imp__LocalFree@4:PROC
EXTRN	__imp__UnregisterWaitEx@8:PROC
EXTRN	__imp__GetProcAddress@8:PROC
EXTRN	??_U@YAPAXI@Z:PROC				; operator new[]
EXTRN	__imp__GetLogicalDriveStringsA@8:PROC
EXTRN	__strlwr:PROC
EXTRN	__imp__K32EnumProcesses@12:PROC
EXTRN	__imp__GetLocalTime@4:PROC
EXTRN	__imp__IsNetworkAlive@4:PROC
EXTRN	__imp__ShowWindow@8:PROC
EXTRN	__imp__IsWindow@4:PROC
EXTRN	__imp__GetWindowsDirectoryA@8:PROC
EXTRN	__imp__LookupPrivilegeValueA@12:PROC
EXTRN	__imp__GetSystemInfo@4:PROC
EXTRN	__imp__RaiseException@16:PROC
EXTRN	__imp__K32GetModuleBaseNameA@16:PROC
EXTRN	__imp__CloseHandle@4:PROC
EXTRN	__imp__QueryPerformanceFrequency@4:PROC
EXTRN	__imp__GetVersionExA@4:PROC
EXTRN	__imp__LoadLibraryA@4:PROC
EXTRN	__imp__TerminateThread@8:PROC
EXTRN	__imp__GetSystemDirectoryA@8:PROC
EXTRN	__imp__FileTimeToSystemTime@8:PROC
EXTRN	__imp__PathRemoveExtensionA@4:PROC
EXTRN	__imp__CreateFileA@28:PROC
EXTRN	__imp__CreateWellKnownSid@16:PROC
EXTRN	__imp__RegisterDeviceNotificationA@12:PROC
EXTRN	__imp__K32GetProcessMemoryInfo@12:PROC
EXTRN	_rename:PROC
EXTRN	__imp__CreateICA@16:PROC
EXTRN	_strncpy:PROC
EXTRN	__imp__GetDiskFreeSpaceA@20:PROC
EXTRN	__imp__GetTempPathA@8:PROC
EXTRN	__imp__Sleep@4:PROC
EXTRN	__imp__GetExitCodeThread@8:PROC
EXTRN	__imp__GetDeviceCaps@8:PROC
EXTRN	__imp__SetWindowTextA@8:PROC
EXTRN	_atexit:PROC
EXTRN	__imp__MessageBoxA@16:PROC
EXTRN	__imp__OpenProcess@12:PROC
EXTRN	__imp__GetSystemWindowsDirectoryA@8:PROC
EXTRN	__imp__DeleteDC@4:PROC
EXTRN	__imp__GetModuleHandleA@4:PROC
EXTRN	___std_exception_copy:PROC
EXTRN	__imp__RegisterClassA@4:PROC
EXTRN	__imp__DefWindowProcA@16:PROC
EXTRN	__imp__CreateWindowExA@48:PROC
EXTRN	__imp__GetCurrentThreadId@0:PROC
EXTRN	__imp__TranslateMessage@4:PROC
EXTRN	__imp__GetVolumeInformationA@32:PROC
EXTRN	__imp__OpenProcessToken@12:PROC
EXTRN	__imp__K32GetDeviceDriverBaseNameA@12:PROC
EXTRN	__beginthreadex:PROC
EXTRN	_remove:PROC
EXTRN	?_Xout_of_range@std@@YAXPBD@Z:PROC		; std::_Xout_of_range
EXTRN	__imp__ClosePrinter@4:PROC
EXTRN	__imp__BuildTrusteeWithSidA@8:PROC
EXTRN	__Query_perf_frequency:PROC
EXTRN	__imp__SetFilePointer@16:PROC
EXTRN	__imp__SetSecurityInfo@28:PROC
EXTRN	__imp__GetSystemTimes@12:PROC
EXTRN	__imp__LoadLibraryExA@12:PROC
EXTRN	__imp__GetDriveTypeA@4:PROC
EXTRN	__imp__OutputDebugStringA@4:PROC
EXTRN	__endthreadex:PROC
EXTRN	___report_rangecheckfailure:PROC
EXTRN	__imp__PostQuitMessage@4:PROC
EXTRN	__imp__WriteFile@20:PROC
EXTRN	__imp__K32GetDeviceDriverFileNameA@12:PROC
EXTRN	__imp__GetCurrentProcess@0:PROC
EXTRN	__imp__DeviceCapabilitiesA@20:PROC
EXTRN	__imp__VerifyVersionInfoA@16:PROC
EXTRN	__imp__GetCurrentObject@8:PROC
EXTRN	__imp__MiniDumpWriteDump@28:PROC
EXTRN	__imp__WriteProcessMemory@20:PROC
EXTRN	__imp__UnregisterDeviceNotification@4:PROC
EXTRN	__imp__GetObjectA@12:PROC
EXTRN	__imp__GetLogicalDrives@0:PROC
EXTRN	__imp__GetSecurityInfo@32:PROC
EXTRN	__imp__EnumPrintersA@28:PROC
EXTRN	??_V@YAXPAX@Z:PROC				; operator delete[]
EXTRN	___std_exception_destroy:PROC
EXTRN	_exit:PROC
EXTRN	__imp__K32EnumDeviceDrivers@12:PROC
EXTRN	__except_handler4:PROC
?ghWnd@@3PAUHWND__@@A DD 01H DUP (?)			; ghWnd
?gbShutdown@@3HA DD 01H DUP (?)				; gbShutdown
?gbForceChecking@@3HA DD 01H DUP (?)			; gbForceChecking
?gszLogFilePrefix@@3PADA DB 0400H DUP (?)		; gszLogFilePrefix
?gbTerminate@@3HA DD 01H DUP (?)			; gbTerminate
?gpPrinterInfoList@@3PAU_printer_info_list_@@A DD 01H DUP (?) ; gpPrinterInfoList
	ALIGN	8

?gTickStart@@3_KA DQ 01H DUP (?)			; gTickStart
?ghInstance@@3PAUHINSTANCE__@@A DD 01H DUP (?)		; ghInstance
_BSS	ENDS
;	COMDAT ??_R3runtime_error@std@@8
rdata$r	SEGMENT
??_R3runtime_error@std@@8 DD 00H			; std::runtime_error::`RTTI Class Hierarchy Descriptor'
	DD	00H
	DD	02H
	DD	FLAT:??_R2runtime_error@std@@8
CONST	ENDS
;	COMDAT ??_R0?AVexception@std@@@8
data$r	SEGMENT
??_R0?AVexception@std@@@8 DD FLAT:??_7type_info@@6B@	; std::exception `RTTI Type Descriptor'
	DD	00H
	DB	'.?AVexception@std@@', 00H
data$r	ENDS
;	COMDAT ??_R2runtime_error@std@@8
rdata$r	SEGMENT
??_R2runtime_error@std@@8 DD FLAT:??_R1A@?0A@EA@runtime_error@std@@8 ; std::runtime_error::`RTTI Base Class Array'
	DD	FLAT:??_R1A@?0A@EA@exception@std@@8
rdata$r	ENDS
;	COMDAT __CTA2?AVruntime_error@std@@
xdata$x	SEGMENT
__CTA2?AVruntime_error@std@@ DD 02H
	DD	FLAT:__CT??_R0?AVruntime_error@std@@@8??0runtime_error@std@@QAE@ABV01@@Z12
	DD	FLAT:__CT??_R0?AVexception@std@@@8??0exception@std@@QAE@ABV01@@Z12
xdata$x	ENDS
;	COMDAT __CT??_R0?AVexception@std@@@8??0exception@std@@QAE@ABV01@@Z12
xdata$x	SEGMENT
__CT??_R0?AVexception@std@@@8??0exception@std@@QAE@ABV01@@Z12 DD 00H
	DD	FLAT:??_R0?AVexception@std@@@8
	DD	00H
	DD	0ffffffffH
	ORG $+4
	DD	0cH
	DD	FLAT:??0exception@std@@QAE@ABV01@@Z
xdata$x	ENDS
;	COMDAT ??_7runtime_error@std@@6B@
CONST	SEGMENT
??_7runtime_error@std@@6B@ DD FLAT:??_R4runtime_error@std@@6B@ ; std::runtime_error::`vftable'
	DD	FLAT:??_Eruntime_error@std@@UAEPAXI@Z
	DD	FLAT:?what@exception@std@@UBEPBDXZ
CONST	ENDS
;	COMDAT ??_R3exception@std@@8
rdata$r	SEGMENT
??_R3exception@std@@8 DD 00H				; std::exception::`RTTI Class Hierarchy Descriptor'
	DD	00H
	DD	01H
	DD	FLAT:??_R2exception@std@@8
rdata$r	ENDS
;	COMDAT __CT??_R0?AVruntime_error@std@@@8??0runtime_error@std@@QAE@ABV01@@Z12
xdata$x	SEGMENT
__CT??_R0?AVruntime_error@std@@@8??0runtime_error@std@@QAE@ABV01@@Z12 DD 00H
	DD	FLAT:??_R0?AVruntime_error@std@@@8
	DD	00H
	DD	0ffffffffH
	ORG $+4
	DD	0cH
	DD	FLAT:??0runtime_error@std@@QAE@ABV01@@Z
xdata$x	ENDS
;	COMDAT ??_7exception@std@@6B@
CONST	SEGMENT
??_7exception@std@@6B@ DD FLAT:??_R4exception@std@@6B@	; std::exception::`vftable'
	DD	FLAT:??_Eexception@std@@UAEPAXI@Z
	DD	FLAT:?what@exception@std@@UBEPBDXZ
CONST	ENDS
;	COMDAT __TI2?AVruntime_error@std@@
xdata$x	SEGMENT
__TI2?AVruntime_error@std@@ DD 00H
	DD	FLAT:??1runtime_error@std@@UAE@XZ
	DD	00H
	DD	FLAT:__CTA2?AVruntime_error@std@@
xdata$x	ENDS
;	COMDAT ??_R2exception@std@@8
rdata$r	SEGMENT
??_R2exception@std@@8 DD FLAT:??_R1A@?0A@EA@exception@std@@8 ; std::exception::`RTTI Base Class Array'
rdata$r	ENDS
;	COMDAT ??_R1A@?0A@EA@exception@std@@8
rdata$r	SEGMENT
??_R1A@?0A@EA@exception@std@@8 DD FLAT:??_R0?AVexception@std@@@8 ; std::exception::`RTTI Base Class Descriptor at (0,-1,0,64)'
	DD	00H
	DD	00H
	DD	0ffffffffH
	DD	00H
	DD	040H
	DD	FLAT:??_R3exception@std@@8
rdata$r	ENDS
;	COMDAT ??_R1A@?0A@EA@runtime_error@std@@8
rdata$r	SEGMENT
??_R1A@?0A@EA@runtime_error@std@@8 DD FLAT:??_R0?AVruntime_error@std@@@8 ; std::runtime_error::`RTTI Base Class Descriptor at (0,-1,0,64)'
	DD	01H
	DD	00H
	DD	0ffffffffH
	DD	00H
	DD	040H
	DD	FLAT:??_R3runtime_error@std@@8
rdata$r	ENDS
;	COMDAT ??_R4runtime_error@std@@6B@
rdata$r	SEGMENT
??_R4runtime_error@std@@6B@ DD 00H			; std::runtime_error::`RTTI Complete Object Locator'
	DD	00H
	DD	00H
	DD	FLAT:??_R0?AVruntime_error@std@@@8
	DD	FLAT:??_R3runtime_error@std@@8
rdata$r	ENDS
;	COMDAT ??_R4exception@std@@6B@
rdata$r	SEGMENT
??_R4exception@std@@6B@ DD 00H				; std::exception::`RTTI Complete Object Locator'
	DD	00H
	DD	00H
	DD	FLAT:??_R0?AVexception@std@@@8
	DD	FLAT:??_R3exception@std@@8
rdata$r	ENDS
;	COMDAT ??_R0?AVruntime_error@std@@@8
data$r	SEGMENT
??_R0?AVruntime_error@std@@@8 DD FLAT:??_7type_info@@6B@ ; std::runtime_error `RTTI Type Descriptor'
	DD	00H
	DB	'.?AVruntime_error@std@@', 00H
data$r	ENDS
;	COMDAT ??_C@_0BM@NMJKDPPO@invalid?5vector?$DMT?$DO?5subscript@
CONST	SEGMENT
??_C@_0BM@NMJKDPPO@invalid?5vector?$DMT?$DO?5subscript@ DB 'invalid vecto'
	DB	'r<T> subscript', 00H			; `string'
CONST	ENDS
;	COMDAT ??_C@_06EMJDEMAB@?$CF?49f?5s@
CONST	SEGMENT
??_C@_06EMJDEMAB@?$CF?49f?5s@ DB '%.9f s', 00H		; `string'
CONST	ENDS
;	COMDAT ??_C@_0BM@DDANBCKI@?9?9?5WinMain?0?5Wait?5ThrdMsg?5?$CFu@
CONST	SEGMENT
??_C@_0BM@DDANBCKI@?9?9?5WinMain?0?5Wait?5ThrdMsg?5?$CFu@ DB '-- WinMain,'
	DB	' Wait ThrdMsg %u', 00H			; `string'
CONST	ENDS
;	COMDAT ??_C@_0CG@DLNNNFPM@SysStatus?5?9?5Running?5for?5?$CF02llu?3@
CONST	SEGMENT
??_C@_0CG@DLNNNFPM@SysStatus?5?9?5Running?5for?5?$CF02llu?3@ DB 'SysStatu'
	DB	's - Running for %02llu:%02llu', 00H		; `string'
CONST	ENDS
;	COMDAT ??_C@_0CA@IBENHIJM@?9?9?5?$CF02llu?3?$CF02llu?3?$CF02llu?0?5?$CF?43f?5s@
CONST	SEGMENT
??_C@_0CA@IBENHIJM@?9?9?5?$CF02llu?3?$CF02llu?3?$CF02llu?0?5?$CF?43f?5s@ DB '-'
	DB	'- %02llu:%02llu:%02llu, %.3f s', 00H	; `string'
CONST	ENDS
;	COMDAT ??_C@_0M@MNGEFCAN@Net?5Chkg?5?$CFs@
CONST	SEGMENT
??_C@_0M@MNGEFCAN@Net?5Chkg?5?$CFs@ DB 'Net Chkg %s', 00H ; `string'
CONST	ENDS
;	COMDAT ??_C@_0BH@ICNNMNOE@Net?5Alive?$DP?5?$CFs?0?5Type?5?$CFu@
CONST	SEGMENT
??_C@_0BH@ICNNMNOE@Net?5Alive?$DP?5?$CFs?0?5Type?5?$CFu@ DB 'Net Alive? %'
	DB	's, Type %u', 00H				; `string'
CONST	ENDS
;	COMDAT ??_C@_02JINPPBEP@No@
CONST	SEGMENT
??_C@_02JINPPBEP@No@ DB 'No', 00H			; `string'
CONST	ENDS
;	COMDAT ??_C@_03CCLAEDDF@Yes@
CONST	SEGMENT
??_C@_03CCLAEDDF@Yes@ DB 'Yes', 00H			; `string'
CONST	ENDS
;	COMDAT ??_C@_06NNJPAOHJ@ThrWMI@
CONST	SEGMENT
??_C@_06NNJPAOHJ@ThrWMI@ DB 'ThrWMI', 00H		; `string'
CONST	ENDS
;	COMDAT ??_C@_07MMMFAJOG@ThrdMsg@
CONST	SEGMENT
??_C@_07MMMFAJOG@ThrdMsg@ DB 'ThrdMsg', 00H		; `string'
CONST	ENDS
;	COMDAT ??_C@_0BG@FONLKPFK@SysStatus?0?5CmdLine?5?$CFs@
CONST	SEGMENT
??_C@_0BG@FONLKPFK@SysStatus?0?5CmdLine?5?$CFs@ DB 'SysStatus, CmdLine %s'
	DB	00H						; `string'
CONST	ENDS
;	COMDAT ??_C@_0L@PGBNDJPK@?$DO?$DO?5WinMain@
CONST	SEGMENT
??_C@_0L@PGBNDJPK@?$DO?$DO?5WinMain@ DB '>> WinMain', 00H ; `string'
CONST	ENDS
;	COMDAT ??_C@_0M@NLCNCKHJ@?$CFsSysStatus@
CONST	SEGMENT
??_C@_0M@NLCNCKHJ@?$CFsSysStatus@ DB '%sSysStatus', 00H	; `string'
CONST	ENDS
;	COMDAT ??_C@_0N@MHPPNGIP@?$CFs?2SysStatus@
CONST	SEGMENT
??_C@_0N@MHPPNGIP@?$CFs?2SysStatus@ DB '%s\SysStatus', 00H ; `string'
CONST	ENDS
;	COMDAT ??_C@_06BCHOJLEN@logdir@
CONST	SEGMENT
??_C@_06BCHOJLEN@logdir@ DB 'logdir', 00H		; `string'
CONST	ENDS
;	COMDAT ??_C@_09OBKGEPKB@appendlog@
CONST	SEGMENT
??_C@_09OBKGEPKB@appendlog@ DB 'appendlog', 00H		; `string'
CONST	ENDS
;	COMDAT ??_C@_07MMCGMGHO@logsize@
CONST	SEGMENT
??_C@_07MMCGMGHO@logsize@ DB 'logsize', 00H		; `string'
CONST	ENDS
;	COMDAT ??_C@_05NAPFDJNG@timer@
CONST	SEGMENT
??_C@_05NAPFDJNG@timer@ DB 'timer', 00H			; `string'
CONST	ENDS
;	COMDAT ??_C@_08DDBLHJBD@nowindow@
CONST	SEGMENT
??_C@_08DDBLHJBD@nowindow@ DB 'nowindow', 00H		; `string'
CONST	ENDS
;	COMDAT ??_C@_07KNKAAJIE@sysinfo@
CONST	SEGMENT
??_C@_07KNKAAJIE@sysinfo@ DB 'sysinfo', 00H		; `string'
CONST	ENDS
;	COMDAT ??_C@_07GKIGKNOK@runonce@
CONST	SEGMENT
??_C@_07GKIGKNOK@runonce@ DB 'runonce', 00H		; `string'
CONST	ENDS
;	COMDAT ??_C@_0BC@PHNLOKMH@?$DM?$DM?5AdjtProcRights@
CONST	SEGMENT
??_C@_0BC@PHNLOKMH@?$DM?$DM?5AdjtProcRights@ DB '<< AdjtProcRights', 00H ; `string'
CONST	ENDS
;	COMDAT ??_C@_0BG@PKIMIEFE@?9?9?5AdjtProcRights?0?5?$CFs@
CONST	SEGMENT
??_C@_0BG@PKIMIEFE@?9?9?5AdjtProcRights?0?5?$CFs@ DB '-- AdjtProcRights, '
	DB	'%s', 00H					; `string'
CONST	ENDS
;	COMDAT ??_C@_0DN@CNCGHAJP@?9?9?5AdjtProcRights?0?5Successfully@
CONST	SEGMENT
??_C@_0DN@CNCGHAJP@?9?9?5AdjtProcRights?0?5Successfully@ DB '-- AdjtProcR'
	DB	'ights, Successfully adjusted the process rights.', 00H ; `string'
CONST	ENDS
;	COMDAT ??_C@_0BE@COMAOBFG@SeSecurityPrivilege@
CONST	SEGMENT
??_C@_0BE@COMAOBFG@SeSecurityPrivilege@ DB 'SeSecurityPrivilege', 00H ; `string'
CONST	ENDS
;	COMDAT ??_C@_0BC@CGDDBBID@?$DO?$DO?5AdjtProcRights@
CONST	SEGMENT
??_C@_0BC@CGDDBBID@?$DO?$DO?5AdjtProcRights@ DB '>> AdjtProcRights', 00H ; `string'
CONST	ENDS
;	COMDAT ??_C@_0BD@NDFMDBME@?$DM?$DM?5ModifyPrivilege@
CONST	SEGMENT
??_C@_0BD@NDFMDBME@?$DM?$DM?5ModifyPrivilege@ DB '<< ModifyPrivilege', 00H ; `string'
CONST	ENDS
;	COMDAT ??_C@_0CN@CCHLMIMA@?$DM?$DM?5ModifyPrivilege?0?5AdjustToken@
CONST	SEGMENT
??_C@_0CN@CCHLMIMA@?$DM?$DM?5ModifyPrivilege?0?5AdjustToken@ DB '<< Modif'
	DB	'yPrivilege, AdjustTokenPrivileges %s', 00H	; `string'
CONST	ENDS
;	COMDAT ??_C@_0CI@FBLPGCLK@?$DM?$DM?5ModifyPrivilege?0?5OpenProcess@
CONST	SEGMENT
??_C@_0CI@FBLPGCLK@?$DM?$DM?5ModifyPrivilege?0?5OpenProcess@ DB '<< Modif'
	DB	'yPrivilege, OpenProcessToken %s', 00H	; `string'
CONST	ENDS
;	COMDAT ??_C@_0BM@PMAFNLMJ@?$DO?$DO?5ModifyPrivilege?3?5?$CFs?5?8?$CFs?8@
CONST	SEGMENT
??_C@_0BM@PMAFNLMJ@?$DO?$DO?5ModifyPrivilege?3?5?$CFs?5?8?$CFs?8@ DB '>> '
	DB	'ModifyPrivilege: %s ''%s''', 00H		; `string'
CONST	ENDS
;	COMDAT ??_C@_07MIKIFGAL@Disable@
CONST	SEGMENT
??_C@_07MIKIFGAL@Disable@ DB 'Disable', 00H		; `string'
CONST	ENDS
;	COMDAT ??_C@_06CKGENIKG@Enable@
CONST	SEGMENT
??_C@_06CKGENIKG@Enable@ DB 'Enable', 00H		; `string'
CONST	ENDS
;	COMDAT ??_C@_0N@DGHKOAOF@?$DM?$DM?5GetWMISts@
CONST	SEGMENT
??_C@_0N@DGHKOAOF@?$DM?$DM?5GetWMISts@ DB '<< GetWMISts', 00H ; `string'
CONST	ENDS
;	COMDAT ??_C@_0L@GCKOGEAF@WMISysVols@
CONST	SEGMENT
??_C@_0L@GCKOGEAF@WMISysVols@ DB 'WMISysVols', 00H	; `string'
CONST	ENDS
;	COMDAT ??_C@_09NAIFMJBP@WMIHwSnsr@
CONST	SEGMENT
??_C@_09NAIFMJBP@WMIHwSnsr@ DB 'WMIHwSnsr', 00H		; `string'
CONST	ENDS
;	COMDAT ??_C@_0L@KDFOBJKP@WMISysPerf@
CONST	SEGMENT
??_C@_0L@KDFOBJKP@WMISysPerf@ DB 'WMISysPerf', 00H	; `string'
CONST	ENDS
;	COMDAT ??_C@_0N@LKBNMLDB@?$DO?$DO?5GetWMISts@
CONST	SEGMENT
??_C@_0N@LKBNMLDB@?$DO?$DO?5GetWMISts@ DB '>> GetWMISts', 00H ; `string'
CONST	ENDS
;	COMDAT ??_C@_0BC@PAGGLBNL@?$DM?$DM?5ThrdWMISysVols@
CONST	SEGMENT
??_C@_0BC@PAGGLBNL@?$DM?$DM?5ThrdWMISysVols@ DB '<< ThrdWMISysVols', 00H ; `string'
CONST	ENDS
;	COMDAT ??_C@_0BH@LBINOCLF@?$DO?$DO?5ThrdWMISysVols?5?$CI?$CFp?$CJ@
CONST	SEGMENT
??_C@_0BH@LBINOCLF@?$DO?$DO?5ThrdWMISysVols?5?$CI?$CFp?$CJ@ DB '>> ThrdWM'
	DB	'ISysVols (%p)', 00H				; `string'
CONST	ENDS
;	COMDAT ??_C@_0BB@MKNOIMND@?$DM?$DM?5ThrdWMIHwSnsr@
CONST	SEGMENT
??_C@_0BB@MKNOIMND@?$DM?$DM?5ThrdWMIHwSnsr@ DB '<< ThrdWMIHwSnsr', 00H ; `string'
CONST	ENDS
;	COMDAT ??_C@_0BG@GEAKCKEN@?$DO?$DO?5ThrdWMIHwSnsr?5?$CI?$CFp?$CJ@
CONST	SEGMENT
??_C@_0BG@GEAKCKEN@?$DO?$DO?5ThrdWMIHwSnsr?5?$CI?$CFp?$CJ@ DB '>> ThrdWMI'
	DB	'HwSnsr (%p)', 00H				; `string'
CONST	ENDS
;	COMDAT ??_C@_0BC@DBJGMMHB@?$DM?$DM?5ThrdWMISysPerf@
CONST	SEGMENT
??_C@_0BC@DBJGMMHB@?$DM?$DM?5ThrdWMISysPerf@ DB '<< ThrdWMISysPerf', 00H ; `string'
CONST	ENDS
;	COMDAT ??_C@_0BH@HFGKIIBM@?$DO?$DO?5ThrdWMISysPerf?5?$CI?$CFp?$CJ@
CONST	SEGMENT
??_C@_0BH@HFGKIIBM@?$DO?$DO?5ThrdWMISysPerf?5?$CI?$CFp?$CJ@ DB '>> ThrdWM'
	DB	'ISysPerf (%p)', 00H				; `string'
CONST	ENDS
;	COMDAT ??_C@_07LBBDPBFA@PtrInfo@
CONST	SEGMENT
??_C@_07LBBDPBFA@PtrInfo@ DB 'PtrInfo', 00H		; `string'
CONST	ENDS
;	COMDAT ??_C@_08IHNDGAAK@DevDrvrs@
CONST	SEGMENT
??_C@_08IHNDGAAK@DevDrvrs@ DB 'DevDrvrs', 00H		; `string'
CONST	ENDS
;	COMDAT ??_C@_03IONNGCBN@USB@
CONST	SEGMENT
??_C@_03IONNGCBN@USB@ DB 'USB', 00H			; `string'
CONST	ENDS
;	COMDAT ??_C@_07LEMLFMJD@LogDrvs@
CONST	SEGMENT
??_C@_07LEMLFMJD@LogDrvs@ DB 'LogDrvs', 00H		; `string'
CONST	ENDS
;	COMDAT ??_C@_0N@LGEPCBGK@?$DM?$DM?5GetSysSts@
CONST	SEGMENT
??_C@_0N@LGEPCBGK@?$DM?$DM?5GetSysSts@ DB '<< GetSysSts', 00H ; `string'
CONST	ENDS
;	COMDAT ??_C@_08FGGKAHMA@ProcInfo@
CONST	SEGMENT
??_C@_08FGGKAHMA@ProcInfo@ DB 'ProcInfo', 00H		; `string'
CONST	ENDS
;	COMDAT ??_C@_08HGNAFDEP@PerfInfo@
CONST	SEGMENT
??_C@_08HGNAFDEP@PerfInfo@ DB 'PerfInfo', 00H		; `string'
CONST	ENDS
;	COMDAT ??_C@_06BFMAIJHM@SysMem@
CONST	SEGMENT
??_C@_06BFMAIJHM@SysMem@ DB 'SysMem', 00H		; `string'
CONST	ENDS
;	COMDAT ??_C@_08LMMJIFBC@SysTimes@
CONST	SEGMENT
??_C@_08LMMJIFBC@SysTimes@ DB 'SysTimes', 00H		; `string'
CONST	ENDS
;	COMDAT ??_C@_0N@DKCIAKLO@?$DO?$DO?5GetSysSts@
CONST	SEGMENT
??_C@_0N@DKCIAKLO@?$DO?$DO?5GetSysSts@ DB '>> GetSysSts', 00H ; `string'
CONST	ENDS
;	COMDAT ??_C@_0O@JGOJIALP@?$DM?$DM?5GetSysDets@
CONST	SEGMENT
??_C@_0O@JGOJIALP@?$DM?$DM?5GetSysDets@ DB '<< GetSysDets', 00H ; `string'
CONST	ENDS
;	COMDAT ??_C@_07NAIOOCP@SysDirs@
CONST	SEGMENT
??_C@_07NAIOOCP@SysDirs@ DB 'SysDirs', 00H		; `string'
CONST	ENDS
;	COMDAT ??_C@_0BA@JCIBBNDO@SysLogPrcsrInfo@
CONST	SEGMENT
??_C@_0BA@JCIBBNDO@SysLogPrcsrInfo@ DB 'SysLogPrcsrInfo', 00H ; `string'
CONST	ENDS
;	COMDAT ??_C@_06HKOPCFLK@OSInfo@
CONST	SEGMENT
??_C@_06HKOPCFLK@OSInfo@ DB 'OSInfo', 00H		; `string'
CONST	ENDS
;	COMDAT ??_C@_07JFBHEENG@SysInfo@
CONST	SEGMENT
??_C@_07JFBHEENG@SysInfo@ DB 'SysInfo', 00H		; `string'
CONST	ENDS
;	COMDAT ??_C@_09NLLCGGEI@HwProfile@
CONST	SEGMENT
??_C@_09NLLCGGEI@HwProfile@ DB 'HwProfile', 00H		; `string'
CONST	ENDS
;	COMDAT ??_C@_0O@BHNLPBFJ@?$DO?$DO?5GetSysDets@
CONST	SEGMENT
??_C@_0O@BHNLPBFJ@?$DO?$DO?5GetSysDets@ DB '>> GetSysDets', 00H ; `string'
CONST	ENDS
;	COMDAT ??_C@_0BB@CMFNMPNL@?$DM?$DM?5GetSysIPAddrs@
CONST	SEGMENT
??_C@_0BB@CMFNMPNL@?$DM?$DM?5GetSysIPAddrs@ DB '<< GetSysIPAddrs', 00H ; `string'
CONST	ENDS
;	COMDAT ??_C@_09BDGNKGNI@?$DO?5?$CF02u?5?$CFs@
CONST	SEGMENT
??_C@_09BDGNKGNI@?$DO?5?$CF02u?5?$CFs@ DB '> %02u %s', 00H ; `string'
CONST	ENDS
;	COMDAT ??_C@_0BD@JGGPHJBD@IP?5Addresses?5?$CI?$CFu?$CJ?3@
CONST	SEGMENT
??_C@_0BD@JGGPHJBD@IP?5Addresses?5?$CI?$CFu?$CJ?3@ DB 'IP Addresses (%u):'
	DB	00H						; `string'
CONST	ENDS
;	COMDAT ??_C@_0BJ@JNNHNEI@?$DO?$DO?5GetSysIPAddrs?0?5?$CFp?0?5?$CFs@
CONST	SEGMENT
??_C@_0BJ@JNNHNEI@?$DO?$DO?5GetSysIPAddrs?0?5?$CFp?0?5?$CFs@ DB '>> GetSy'
	DB	'sIPAddrs, %p, %s', 00H			; `string'
CONST	ENDS
;	COMDAT ??_C@_05MKDOIIA@False@
CONST	SEGMENT
??_C@_05MKDOIIA@False@ DB 'False', 00H			; `string'
CONST	ENDS
;	COMDAT ??_C@_04HPMIDMKH@True@
CONST	SEGMENT
??_C@_04HPMIDMKH@True@ DB 'True', 00H			; `string'
CONST	ENDS
;	COMDAT ??_C@_0L@GNPIKGBL@?$DM?$DM?5PtrInfo@
CONST	SEGMENT
??_C@_0L@GNPIKGBL@?$DM?$DM?5PtrInfo@ DB '<< PtrInfo', 00H ; `string'
CONST	ENDS
;	COMDAT ??_C@_0BI@CCOPIFBO@?9?9?5PtrInfo?0?5CreateIC?5?$CFs@
CONST	SEGMENT
??_C@_0BI@CCOPIFBO@?9?9?5PtrInfo?0?5CreateIC?5?$CFs@ DB '-- PtrInfo, Crea'
	DB	'teIC %s', 00H				; `string'
CONST	ENDS
;	COMDAT ??_C@_0BN@PNGCEDEF@?9?9?5PtrInfo?0?5new?5LOGFONT?5null@
CONST	SEGMENT
??_C@_0BN@PNGCEDEF@?9?9?5PtrInfo?0?5new?5LOGFONT?5null@ DB '-- PtrInfo, n'
	DB	'ew LOGFONT null', 00H			; `string'
CONST	ENDS
;	COMDAT ??_C@_0O@PBJPIOLO@?$DO?5FaceName?5?$CFs@
CONST	SEGMENT
??_C@_0O@PBJPIOLO@?$DO?5FaceName?5?$CFs@ DB '> FaceName %s', 00H ; `string'
CONST	ENDS
;	COMDAT ??_C@_0BH@FCEMNLND@?$DO?5PitchAndFamily?5?$CF?42Xh@
CONST	SEGMENT
??_C@_0BH@FCEMNLND@?$DO?5PitchAndFamily?5?$CF?42Xh@ DB '> PitchAndFamily '
	DB	'%.2Xh', 00H					; `string'
CONST	ENDS
;	COMDAT ??_C@_0BA@PONLFNLB@?$DO?5Quality?5?$CF?42Xh@
CONST	SEGMENT
??_C@_0BA@PONLFNLB@?$DO?5Quality?5?$CF?42Xh@ DB '> Quality %.2Xh', 00H ; `string'
CONST	ENDS
;	COMDAT ??_C@_0BG@FHJOGBNN@?$DO?5ClipPrecision?5?$CF?42Xh@
CONST	SEGMENT
??_C@_0BG@FHJOGBNN@?$DO?5ClipPrecision?5?$CF?42Xh@ DB '> ClipPrecision %.'
	DB	'2Xh', 00H					; `string'
CONST	ENDS
;	COMDAT ??_C@_0BF@IIGPOAFP@?$DO?5OutPrecision?5?$CF?42Xh@
CONST	SEGMENT
??_C@_0BF@IIGPOAFP@?$DO?5OutPrecision?5?$CF?42Xh@ DB '> OutPrecision %.2X'
	DB	'h', 00H					; `string'
CONST	ENDS
;	COMDAT ??_C@_0BA@CJMDNNAL@?$DO?5CharSet?5?$CF?42Xh@
CONST	SEGMENT
??_C@_0BA@CJMDNNAL@?$DO?5CharSet?5?$CF?42Xh@ DB '> CharSet %.2Xh', 00H ; `string'
CONST	ENDS
;	COMDAT ??_C@_0BC@MFABLFLO@?$DO?5StrikeOut?5?$CF?42Xh@
CONST	SEGMENT
??_C@_0BC@MFABLFLO@?$DO?5StrikeOut?5?$CF?42Xh@ DB '> StrikeOut %.2Xh', 00H ; `string'
CONST	ENDS
;	COMDAT ??_C@_0BC@IHAMIHEE@?$DO?5Underline?5?$CF?42Xh@
CONST	SEGMENT
??_C@_0BC@IHAMIHEE@?$DO?5Underline?5?$CF?42Xh@ DB '> Underline %.2Xh', 00H ; `string'
CONST	ENDS
;	COMDAT ??_C@_0P@FOGJLDPM@?$DO?5Italic?5?$CF?42Xh@
CONST	SEGMENT
??_C@_0P@FOGJLDPM@?$DO?5Italic?5?$CF?42Xh@ DB '> Italic %.2Xh', 00H ; `string'
CONST	ENDS
;	COMDAT ??_C@_0M@EEPHINNC@?$DO?5Weight?5?$CFd@
CONST	SEGMENT
??_C@_0M@EEPHINNC@?$DO?5Weight?5?$CFd@ DB '> Weight %d', 00H ; `string'
CONST	ENDS
;	COMDAT ??_C@_0BB@DFLFEINK@?$DO?5Orientation?5?$CFd@
CONST	SEGMENT
??_C@_0BB@DFLFEINK@?$DO?5Orientation?5?$CFd@ DB '> Orientation %d', 00H ; `string'
CONST	ENDS
;	COMDAT ??_C@_0P@DLDGLOB@?$DO?5Escapment?5?$CFd@
CONST	SEGMENT
??_C@_0P@DLDGLOB@?$DO?5Escapment?5?$CFd@ DB '> Escapment %d', 00H ; `string'
CONST	ENDS
;	COMDAT ??_C@_0L@KBIDCEMN@?$DO?5Width?5?$CFd@
CONST	SEGMENT
??_C@_0L@KBIDCEMN@?$DO?5Width?5?$CFd@ DB '> Width %d', 00H ; `string'
CONST	ENDS
;	COMDAT ??_C@_0M@JCFCFHLH@?$DO?5Height?5?$CFd@
CONST	SEGMENT
??_C@_0M@JCFCFHLH@?$DO?5Height?5?$CFd@ DB '> Height %d', 00H ; `string'
CONST	ENDS
;	COMDAT ??_C@_0O@FBFECABI@DEFAULT?5FONT?3@
CONST	SEGMENT
??_C@_0O@FBFECABI@DEFAULT?5FONT?3@ DB 'DEFAULT FONT:', 00H ; `string'
CONST	ENDS
;	COMDAT ??_C@_09IGELCPAM@Layout?5?$CFu@
CONST	SEGMENT
??_C@_09IGELCPAM@Layout?5?$CFu@ DB 'Layout %u', 00H	; `string'
CONST	ENDS
;	COMDAT ??_C@_0BD@DKIEMMJN@?$DO?5COLORMGMTCAPS?5?$CFd@
CONST	SEGMENT
??_C@_0BD@DKIEMMJN@?$DO?5COLORMGMTCAPS?5?$CFd@ DB '> COLORMGMTCAPS %d', 00H ; `string'
CONST	ENDS
;	COMDAT ??_C@_0BE@BAMFBECL@?$DO?5SHADEBLENDCAPS?5?$CFd@
CONST	SEGMENT
??_C@_0BE@BAMFBECL@?$DO?5SHADEBLENDCAPS?5?$CFd@ DB '> SHADEBLENDCAPS %d', 00H ; `string'
CONST	ENDS
;	COMDAT ??_C@_0BC@JFPGOKHF@?$DO?5BLTALIGNMENT?5?$CFd@
CONST	SEGMENT
??_C@_0BC@JFPGOKHF@?$DO?5BLTALIGNMENT?5?$CFd@ DB '> BLTALIGNMENT %d', 00H ; `string'
CONST	ENDS
;	COMDAT ??_C@_0BE@NACPAGIF@?$DO?5DESKTOPHORZRES?5?$CFd@
CONST	SEGMENT
??_C@_0BE@NACPAGIF@?$DO?5DESKTOPHORZRES?5?$CFd@ DB '> DESKTOPHORZRES %d', 00H ; `string'
CONST	ENDS
;	COMDAT ??_C@_0BE@COAHGLLD@?$DO?5DESKTOPVERTRES?5?$CFd@
CONST	SEGMENT
??_C@_0BE@COAHGLLD@?$DO?5DESKTOPVERTRES?5?$CFd@ DB '> DESKTOPVERTRES %d', 00H ; `string'
CONST	ENDS
;	COMDAT ??_C@_0O@KHHELDLL@?$DO?5VREFRESH?5?$CFd@
CONST	SEGMENT
??_C@_0O@KHHELDLL@?$DO?5VREFRESH?5?$CFd@ DB '> VREFRESH %d', 00H ; `string'
CONST	ENDS
;	COMDAT ??_C@_0BE@IGKKOKOO@?$DO?5SCALINGFACTORY?5?$CFd@
CONST	SEGMENT
??_C@_0BE@IGKKOKOO@?$DO?5SCALINGFACTORY?5?$CFd@ DB '> SCALINGFACTORY %d', 00H ; `string'
CONST	ENDS
;	COMDAT ??_C@_0BE@LLMKMDFO@?$DO?5SCALINGFACTORX?5?$CFd@
CONST	SEGMENT
??_C@_0BE@LLMKMDFO@?$DO?5SCALINGFACTORX?5?$CFd@ DB '> SCALINGFACTORX %d', 00H ; `string'
CONST	ENDS
;	COMDAT ??_C@_0BF@MNFOHMGF@?$DO?5PHYSICALOFFSETY?5?$CFd@
CONST	SEGMENT
??_C@_0BF@MNFOHMGF@?$DO?5PHYSICALOFFSETY?5?$CFd@ DB '> PHYSICALOFFSETY %d'
	DB	00H						; `string'
CONST	ENDS
;	COMDAT ??_C@_0BF@PADOFFNF@?$DO?5PHYSICALOFFSETX?5?$CFd@
CONST	SEGMENT
??_C@_0BF@PADOFFNF@?$DO?5PHYSICALOFFSETX?5?$CFd@ DB '> PHYSICALOFFSETX %d'
	DB	00H						; `string'
CONST	ENDS
;	COMDAT ??_C@_0BE@BHEFJOBO@?$DO?5PHYSICALHEIGHT?5?$CFd@
CONST	SEGMENT
??_C@_0BE@BHEFJOBO@?$DO?5PHYSICALHEIGHT?5?$CFd@ DB '> PHYSICALHEIGHT %d', 00H ; `string'
CONST	ENDS
;	COMDAT ??_C@_0BD@HDEIPKKB@?$DO?5PHYSICALWIDTH?5?$CFd@
CONST	SEGMENT
??_C@_0BD@HDEIPKKB@?$DO?5PHYSICALWIDTH?5?$CFd@ DB '> PHYSICALWIDTH %d', 00H ; `string'
CONST	ENDS
;	COMDAT ??_C@_0O@GGNNNIFP@?$DO?5COLORRES?5?$CFd@
CONST	SEGMENT
??_C@_0O@GGNNNIFP@?$DO?5COLORRES?5?$CFd@ DB '> COLORRES %d', 00H ; `string'
CONST	ENDS
;	COMDAT ??_C@_0BB@KMMENDMI@?$DO?5NUMRESERVED?5?$CFd@
CONST	SEGMENT
??_C@_0BB@KMMENDMI@?$DO?5NUMRESERVED?5?$CFd@ DB '> NUMRESERVED %d', 00H ; `string'
CONST	ENDS
;	COMDAT ??_C@_0BB@KNEJGJKJ@?$DO?5SIZEPALETTE?5?$CFd@
CONST	SEGMENT
??_C@_0BB@KNEJGJKJ@?$DO?5SIZEPALETTE?5?$CFd@ DB '> SIZEPALETTE %d', 00H ; `string'
CONST	ENDS
;	COMDAT ??_C@_0BA@OOCANGJA@?$DO?5LOGPIXELSY?5?$CFd@
CONST	SEGMENT
??_C@_0BA@OOCANGJA@?$DO?5LOGPIXELSY?5?$CFd@ DB '> LOGPIXELSY %d', 00H ; `string'
CONST	ENDS
;	COMDAT ??_C@_0BA@NDEAPPCA@?$DO?5LOGPIXELSX?5?$CFd@
CONST	SEGMENT
??_C@_0BA@NDEAPPCA@?$DO?5LOGPIXELSX?5?$CFd@ DB '> LOGPIXELSX %d', 00H ; `string'
CONST	ENDS
;	COMDAT ??_C@_0O@KAIPPGFP@?$DO?5ASPECTXY?5?$CFd@
CONST	SEGMENT
??_C@_0O@KAIPPGFP@?$DO?5ASPECTXY?5?$CFd@ DB '> ASPECTXY %d', 00H ; `string'
CONST	ENDS
;	COMDAT ??_C@_0N@LDFPIKI@?$DO?5ASPECTY?5?$CFd@
CONST	SEGMENT
??_C@_0N@LDFPIKI@?$DO?5ASPECTY?5?$CFd@ DB '> ASPECTY %d', 00H ; `string'
CONST	ENDS
;	COMDAT ??_C@_0N@DGFFNBBI@?$DO?5ASPECTX?5?$CFd@
CONST	SEGMENT
??_C@_0N@DGFFNBBI@?$DO?5ASPECTX?5?$CFd@ DB '> ASPECTX %d', 00H ; `string'
CONST	ENDS
;	COMDAT ??_C@_0BA@OCKGHOJF@?$DO?5RASTERCAPS?5?$CFd@
CONST	SEGMENT
??_C@_0BA@OCKGHOJF@?$DO?5RASTERCAPS?5?$CFd@ DB '> RASTERCAPS %d', 00H ; `string'
CONST	ENDS
;	COMDAT ??_C@_0O@NPFDNMHE@?$DO?5CLIPCAPS?5?$CFd@
CONST	SEGMENT
??_C@_0O@NPFDNMHE@?$DO?5CLIPCAPS?5?$CFd@ DB '> CLIPCAPS %d', 00H ; `string'
CONST	ENDS
;	COMDAT ??_C@_0O@EJBOFNFI@?$DO?5TEXTCAPS?5?$CFd@
CONST	SEGMENT
??_C@_0O@EJBOFNFI@?$DO?5TEXTCAPS?5?$CFd@ DB '> TEXTCAPS %d', 00H ; `string'
CONST	ENDS
;	COMDAT ??_C@_0BD@NDEFMMIK@?$DO?5POLYGONALCAPS?5?$CFd@
CONST	SEGMENT
??_C@_0BD@NDEFMMIK@?$DO?5POLYGONALCAPS?5?$CFd@ DB '> POLYGONALCAPS %d', 00H ; `string'
CONST	ENDS
;	COMDAT ??_C@_0O@NIBLPDAA@?$DO?5LINECAPS?5?$CFd@
CONST	SEGMENT
??_C@_0O@NIBLPDAA@?$DO?5LINECAPS?5?$CFd@ DB '> LINECAPS %d', 00H ; `string'
CONST	ENDS
;	COMDAT ??_C@_0P@MJKILKAG@?$DO?5CURVECAPS?5?$CFd@
CONST	SEGMENT
??_C@_0P@MJKILKAG@?$DO?5CURVECAPS?5?$CFd@ DB '> CURVECAPS %d', 00H ; `string'
CONST	ENDS
;	COMDAT ??_C@_0BB@BIAFAHJC@?$DO?5PDEVICESIZE?5?$CFd@
CONST	SEGMENT
??_C@_0BB@BIAFAHJC@?$DO?5PDEVICESIZE?5?$CFd@ DB '> PDEVICESIZE %d', 00H ; `string'
CONST	ENDS
;	COMDAT ??_C@_0P@CDPEOCLN@?$DO?5NUMCOLORS?5?$CFd@
CONST	SEGMENT
??_C@_0P@CDPEOCLN@?$DO?5NUMCOLORS?5?$CFd@ DB '> NUMCOLORS %d', 00H ; `string'
CONST	ENDS
;	COMDAT ??_C@_0O@HIAAJLOF@?$DO?5NUMFONTS?5?$CFd@
CONST	SEGMENT
??_C@_0O@HIAAJLOF@?$DO?5NUMFONTS?5?$CFd@ DB '> NUMFONTS %d', 00H ; `string'
CONST	ENDS
;	COMDAT ??_C@_0BA@IJEEOFOD@?$DO?5NUMMARKERS?5?$CFd@
CONST	SEGMENT
??_C@_0BA@IJEEOFOD@?$DO?5NUMMARKERS?5?$CFd@ DB '> NUMMARKERS %d', 00H ; `string'
CONST	ENDS
;	COMDAT ??_C@_0N@HHCKOKCG@?$DO?5NUMPENS?5?$CFd@
CONST	SEGMENT
??_C@_0N@HHCKOKCG@?$DO?5NUMPENS?5?$CFd@ DB '> NUMPENS %d', 00H ; `string'
CONST	ENDS
;	COMDAT ??_C@_0BA@GCBODPHK@?$DO?5NUMBRUSHES?5?$CFd@
CONST	SEGMENT
??_C@_0BA@GCBODPHK@?$DO?5NUMBRUSHES?5?$CFd@ DB '> NUMBRUSHES %d', 00H ; `string'
CONST	ENDS
;	COMDAT ??_C@_0M@DABMECAD@?$DO?5PLANES?5?$CFd@
CONST	SEGMENT
??_C@_0M@DABMECAD@?$DO?5PLANES?5?$CFd@ DB '> PLANES %d', 00H ; `string'
CONST	ENDS
;	COMDAT ??_C@_0P@CHMKJDGJ@?$DO?5BITSPIXEL?5?$CFd@
CONST	SEGMENT
??_C@_0P@CHMKJDGJ@?$DO?5BITSPIXEL?5?$CFd@ DB '> BITSPIXEL %d', 00H ; `string'
CONST	ENDS
;	COMDAT ??_C@_0N@HLDMJPJJ@?$DO?5VERTRES?5?$CFd@
CONST	SEGMENT
??_C@_0N@HLDMJPJJ@?$DO?5VERTRES?5?$CFd@ DB '> VERTRES %d', 00H ; `string'
CONST	ENDS
;	COMDAT ??_C@_0N@IFBEPCKP@?$DO?5HORZRES?5?$CFd@
CONST	SEGMENT
??_C@_0N@IFBEPCKP@?$DO?5HORZRES?5?$CFd@ DB '> HORZRES %d', 00H ; `string'
CONST	ENDS
;	COMDAT ??_C@_0O@LDGIGNAG@?$DO?5VERTSIZE?5?$CFd@
CONST	SEGMENT
??_C@_0O@LDGIGNAG@?$DO?5VERTSIZE?5?$CFd@ DB '> VERTSIZE %d', 00H ; `string'
CONST	ENDS
;	COMDAT ??_C@_0O@HMCMNAPC@?$DO?5HORZSIZE?5?$CFd@
CONST	SEGMENT
??_C@_0O@HMCMNAPC@?$DO?5HORZSIZE?5?$CFd@ DB '> HORZSIZE %d', 00H ; `string'
CONST	ENDS
;	COMDAT ??_C@_0BA@KDKPJOH@?$DO?5TECHNOLOGY?5?$CFd@
CONST	SEGMENT
??_C@_0BA@KDKPJOH@?$DO?5TECHNOLOGY?5?$CFd@ DB '> TECHNOLOGY %d', 00H ; `string'
CONST	ENDS
;	COMDAT ??_C@_0BD@JDPBNNPN@?$DO?5DRIVERVERSION?5?$CFd@
CONST	SEGMENT
??_C@_0BD@JDPBNNPN@?$DO?5DRIVERVERSION?5?$CFd@ DB '> DRIVERVERSION %d', 00H ; `string'
CONST	ENDS
;	COMDAT ??_C@_0M@CPAOAHIM@DeviceCaps?3@
CONST	SEGMENT
??_C@_0M@CPAOAHIM@DeviceCaps?3@ DB 'DeviceCaps:', 00H	; `string'
CONST	ENDS
;	COMDAT ??_C@_0BL@NKEHJDBP@?9?9?5PtrInfo?0?5OpenPrinter?5?$CFs@
CONST	SEGMENT
??_C@_0BL@NKEHJDBP@?9?9?5PtrInfo?0?5OpenPrinter?5?$CFs@ DB '-- PtrInfo, O'
	DB	'penPrinter %s', 00H				; `string'
CONST	ENDS
;	COMDAT ??_C@_0BD@ODPAHJGJ@?$DO?5PanningHeight?5?$CFu@
CONST	SEGMENT
??_C@_0BD@ODPAHJGJ@?$DO?5PanningHeight?5?$CFu@ DB '> PanningHeight %u', 00H ; `string'
CONST	ENDS
;	COMDAT ??_C@_0BC@ILEBHAGL@?$DO?5PanningWidth?5?$CFu@
CONST	SEGMENT
??_C@_0BC@ILEBHAGL@?$DO?5PanningWidth?5?$CFu@ DB '> PanningWidth %u', 00H ; `string'
CONST	ENDS
;	COMDAT ??_C@_0P@KECJEPKK@?$DO?5Reserved2?5?$CFu@
CONST	SEGMENT
??_C@_0P@KECJEPKK@?$DO?5Reserved2?5?$CFu@ DB '> Reserved2 %u', 00H ; `string'
CONST	ENDS
;	COMDAT ??_C@_0P@ODIJDFHK@?$DO?5Reserved1?5?$CFu@
CONST	SEGMENT
??_C@_0P@ODIJDFHK@?$DO?5Reserved1?5?$CFu@ DB '> Reserved1 %u', 00H ; `string'
CONST	ENDS
;	COMDAT ??_C@_0BA@IBDIEDAP@?$DO?5DitherType?5?$CFu@
CONST	SEGMENT
??_C@_0BA@IBDIEDAP@?$DO?5DitherType?5?$CFu@ DB '> DitherType %u', 00H ; `string'
CONST	ENDS
;	COMDAT ??_C@_0P@DGLLLDPA@?$DO?5MediaType?5?$CFu@
CONST	SEGMENT
??_C@_0P@DGLLLDPA@?$DO?5MediaType?5?$CFu@ DB '> MediaType %u', 00H ; `string'
CONST	ENDS
;	COMDAT ??_C@_0P@FBGPJDBI@?$DO?5ICMIntent?5?$CFu@
CONST	SEGMENT
??_C@_0P@FBGPJDBI@?$DO?5ICMIntent?5?$CFu@ DB '> ICMIntent %u', 00H ; `string'
CONST	ENDS
;	COMDAT ??_C@_0P@BALKIIFI@?$DO?5ICMMethod?5?$CFu@
CONST	SEGMENT
??_C@_0P@BALKIIFI@?$DO?5ICMMethod?5?$CFu@ DB '> ICMMethod %u', 00H ; `string'
CONST	ENDS
;	COMDAT ??_C@_0BA@FJKIIKDN@?$DO?5PelsHeight?5?$CFd@
CONST	SEGMENT
??_C@_0BA@FJKIIKDN@?$DO?5PelsHeight?5?$CFd@ DB '> PelsHeight %d', 00H ; `string'
CONST	ENDS
;	COMDAT ??_C@_0P@GJDEABGN@?$DO?5PelsWidth?5?$CFu@
CONST	SEGMENT
??_C@_0P@GJDEABGN@?$DO?5PelsWidth?5?$CFu@ DB '> PelsWidth %u', 00H ; `string'
CONST	ENDS
;	COMDAT ??_C@_0BA@IJGBMLDF@?$DO?5BitsPerPel?5?$CFu@
CONST	SEGMENT
??_C@_0BA@IJGBMLDF@?$DO?5BitsPerPel?5?$CFu@ DB '> BitsPerPel %u', 00H ; `string'
CONST	ENDS
;	COMDAT ??_C@_0P@HBAMONIO@?$DO?5LogPixels?5?$CFd@
CONST	SEGMENT
??_C@_0P@HBAMONIO@?$DO?5LogPixels?5?$CFd@ DB '> LogPixels %d', 00H ; `string'
CONST	ENDS
;	COMDAT ??_C@_0O@NAFNONHG@?$DO?5FormName?5?$CFs@
CONST	SEGMENT
??_C@_0O@NAFNONHG@?$DO?5FormName?5?$CFs@ DB '> FormName %s', 00H ; `string'
CONST	ENDS
;	COMDAT ??_C@_0N@DEPFBBGA@?$DO?5Collate?5?$CFd@
CONST	SEGMENT
??_C@_0N@DEPFBBGA@?$DO?5Collate?5?$CFd@ DB '> Collate %d', 00H ; `string'
CONST	ENDS
;	COMDAT ??_C@_0O@ODMOOLLN@?$DO?5TTOption?5?$CFd@
CONST	SEGMENT
??_C@_0O@ODMOOLLN@?$DO?5TTOption?5?$CFd@ DB '> TTOption %d', 00H ; `string'
CONST	ENDS
;	COMDAT ??_C@_0BB@ODANIHPJ@?$DO?5YResolution?5?$CFd@
CONST	SEGMENT
??_C@_0BB@ODANIHPJ@?$DO?5YResolution?5?$CFd@ DB '> YResolution %d', 00H ; `string'
CONST	ENDS
;	COMDAT ??_C@_0M@DMDDHFGN@?$DO?5Duplex?5?$CFd@
CONST	SEGMENT
??_C@_0M@DMDDHFGN@?$DO?5Duplex?5?$CFd@ DB '> Duplex %d', 00H ; `string'
CONST	ENDS
;	COMDAT ??_C@_0L@OGGOANCL@?$DO?5Color?5?$CFd@
CONST	SEGMENT
??_C@_0L@OGGOANCL@?$DO?5Color?5?$CFd@ DB '> Color %d', 00H ; `string'
CONST	ENDS
;	COMDAT ??_C@_0BB@FEEDGEPE@?$DO?5PrintQulity?5?$CFd@
CONST	SEGMENT
??_C@_0BB@FEEDGEPE@?$DO?5PrintQulity?5?$CFd@ DB '> PrintQulity %d', 00H ; `string'
CONST	ENDS
;	COMDAT ??_C@_0BD@PBLNKDE@?$DO?5DefaultSource?5?$CFd@
CONST	SEGMENT
??_C@_0BD@PBLNKDE@?$DO?5DefaultSource?5?$CFd@ DB '> DefaultSource %d', 00H ; `string'
CONST	ENDS
;	COMDAT ??_C@_0M@MCOJLIEN@?$DO?5Copies?5?$CFd@
CONST	SEGMENT
??_C@_0M@MCOJLIEN@?$DO?5Copies?5?$CFd@ DB '> Copies %d', 00H ; `string'
CONST	ENDS
;	COMDAT ??_C@_0L@CIICACOJ@?$DO?5Scale?5?$CFd@
CONST	SEGMENT
??_C@_0L@CIICACOJ@?$DO?5Scale?5?$CFd@ DB '> Scale %d', 00H ; `string'
CONST	ENDS
;	COMDAT ??_C@_0BA@EJLKBGAF@?$DO?5PaperWidth?5?$CFd@
CONST	SEGMENT
??_C@_0BA@EJLKBGAF@?$DO?5PaperWidth?5?$CFd@ DB '> PaperWidth %d', 00H ; `string'
CONST	ENDS
;	COMDAT ??_C@_0BB@NFCPDFAH@?$DO?5PaperLength?5?$CFd@
CONST	SEGMENT
??_C@_0BB@NFCPDFAH@?$DO?5PaperLength?5?$CFd@ DB '> PaperLength %d', 00H ; `string'
CONST	ENDS
;	COMDAT ??_C@_0P@MIJBPCPJ@?$DO?5PaperSize?5?$CFd@
CONST	SEGMENT
??_C@_0P@MIJBPCPJ@?$DO?5PaperSize?5?$CFd@ DB '> PaperSize %d', 00H ; `string'
CONST	ENDS
;	COMDAT ??_C@_0M@PJOJJBEC@?$DO?5Orient?5?$CFd@
CONST	SEGMENT
??_C@_0M@PJOJJBEC@?$DO?5Orient?5?$CFd@ DB '> Orient %d', 00H ; `string'
CONST	ENDS
;	COMDAT ??_C@_0BG@JDMKIO@?$DO?5DriverFields?50x?$CF?48X@
CONST	SEGMENT
??_C@_0BG@JDMKIO@?$DO?5DriverFields?50x?$CF?48X@ DB '> DriverFields 0x%.8'
	DB	'X', 00H					; `string'
CONST	ENDS
;	COMDAT ??_C@_0BB@NFLJLFB@?$DO?5DriverExtra?5?$CFd@
CONST	SEGMENT
??_C@_0BB@NFLJLFB@?$DO?5DriverExtra?5?$CFd@ DB '> DriverExtra %d', 00H ; `string'
CONST	ENDS
;	COMDAT ??_C@_09EJHHAJLO@?$DO?5Size?5?$CFd@
CONST	SEGMENT
??_C@_09EJHHAJLO@?$DO?5Size?5?$CFd@ DB '> Size %d', 00H	; `string'
CONST	ENDS
;	COMDAT ??_C@_0BD@FHCKIAEA@?$DO?5DriverVersion?5?$CFd@
CONST	SEGMENT
??_C@_0BD@FHCKIAEA@?$DO?5DriverVersion?5?$CFd@ DB '> DriverVersion %d', 00H ; `string'
CONST	ENDS
;	COMDAT ??_C@_0BB@GFIGJBOF@?$DO?5SpecVersion?5?$CFd@
CONST	SEGMENT
??_C@_0BB@GFIGJBOF@?$DO?5SpecVersion?5?$CFd@ DB '> SpecVersion %d', 00H ; `string'
CONST	ENDS
;	COMDAT ??_C@_0BA@KDNAKNNN@?$DO?5DeviceName?5?$CFs@
CONST	SEGMENT
??_C@_0BA@KDNAKNNN@?$DO?5DeviceName?5?$CFs@ DB '> DeviceName %s', 00H ; `string'
CONST	ENDS
;	COMDAT ??_C@_08JFBLCBEM@DEVMODE?3@
CONST	SEGMENT
??_C@_08JFBLCBEM@DEVMODE?3@ DB 'DEVMODE:', 00H		; `string'
CONST	ENDS
;	COMDAT ??_C@_0BF@JJAELOOF@DC_PERSONALITY?5?$CI?$CFd?$CJ?3@
CONST	SEGMENT
??_C@_0BF@JJAELOOF@DC_PERSONALITY?5?$CI?$CFd?$CJ?3@ DB 'DC_PERSONALITY (%'
	DB	'd):', 00H					; `string'
CONST	ENDS
;	COMDAT ??_C@_0DG@NKFBLOLE@?9?9?5PtrInfo?0?5DeviceCapabilities?$CI@
CONST	SEGMENT
??_C@_0DG@NKFBLOLE@?9?9?5PtrInfo?0?5DeviceCapabilities?$CI@ DB '-- PtrInf'
	DB	'o, DeviceCapabilities(DC_PERSONALITY, %p) %s', 00H ; `string'
CONST	ENDS
;	COMDAT ??_C@_0CN@FDCGHEM@?9?9?5PtrInfo?0?5?$DM?$CFs?$DO?5new?5DC_PERSONA@
CONST	SEGMENT
??_C@_0CN@FDCGHEM@?9?9?5PtrInfo?0?5?$DM?$CFs?$DO?5new?5DC_PERSONA@ DB '--'
	DB	' PtrInfo, <%s> new DC_PERSONALITY mem null', 00H ; `string'
CONST	ENDS
;	COMDAT ??_C@_0DI@PACCMPGC@?9?9?5PtrInfo?0?5DeviceCapabilities?$CI@
CONST	SEGMENT
??_C@_0DI@PACCMPGC@?9?9?5PtrInfo?0?5DeviceCapabilities?$CI@ DB '-- PtrInf'
	DB	'o, DeviceCapabilities(DC_PERSONALITY, null) %s', 00H ; `string'
CONST	ENDS
;	COMDAT ??_C@_0DF@CIBLFONP@?9?9?5PtrInfo?0?5Catch?5unhndld?5excpe@
CONST	SEGMENT
??_C@_0DF@CIBLFONP@?9?9?5PtrInfo?0?5Catch?5unhndld?5excpe@ DB '-- PtrInfo'
	DB	', Catch unhndld excpetion on MediaTypeList', 00H ; `string'
CONST	ENDS
;	COMDAT ??_C@_0CH@OFCLBKDH@DC_MEDIATYPES?0?5DC_MEDIATYPENAME@
CONST	SEGMENT
??_C@_0CH@OFCLBKDH@DC_MEDIATYPES?0?5DC_MEDIATYPENAME@ DB 'DC_MEDIATYPES, '
	DB	'DC_MEDIATYPENAMES (%d):', 00H		; `string'
CONST	ENDS
;	COMDAT ??_C@_0BE@JHLOAEJA@DC_MEDIAREADY?5?$CI?$CFd?$CJ?3@
CONST	SEGMENT
??_C@_0BE@JHLOAEJA@DC_MEDIAREADY?5?$CI?$CFd?$CJ?3@ DB 'DC_MEDIAREADY (%d)'
	DB	':', 00H					; `string'
CONST	ENDS
;	COMDAT ??_C@_0DF@POBLKCNL@?9?9?5PtrInfo?0?5DeviceCapabilities?$CI@
CONST	SEGMENT
??_C@_0DF@POBLKCNL@?9?9?5PtrInfo?0?5DeviceCapabilities?$CI@ DB '-- PtrInf'
	DB	'o, DeviceCapabilities(DC_MEDIAREADY, %p) %s', 00H ; `string'
CONST	ENDS
;	COMDAT ??_C@_0CM@KMOLCCC@?9?9?5PtrInfo?0?5?$DM?$CFs?$DO?5new?5DC_MEDIARE@
CONST	SEGMENT
??_C@_0CM@KMOLCCC@?9?9?5PtrInfo?0?5?$DM?$CFs?$DO?5new?5DC_MEDIARE@ DB '--'
	DB	' PtrInfo, <%s> new DC_MEDIAREADY mem null', 00H ; `string'
CONST	ENDS
;	COMDAT ??_C@_0DH@GEGMAAP@?9?9?5PtrInfo?0?5DeviceCapabilities?$CI@
CONST	SEGMENT
??_C@_0DH@GEGMAAP@?9?9?5PtrInfo?0?5DeviceCapabilities?$CI@ DB '-- PtrInfo'
	DB	', DeviceCapabilities(DC_MEDIAREADY, null) %s', 00H ; `string'
CONST	ENDS
;	COMDAT ??_C@_09JDHLMKJK@?$DO?$CF?42d?3?5?$CFs@
CONST	SEGMENT
??_C@_09JDHLMKJK@?$DO?$CF?42d?3?5?$CFs@ DB '>%.2d: %s', 00H ; `string'
CONST	ENDS
;	COMDAT ??_C@_0BK@NAHDGPCH@DC_FILEDEPENDENCIES?5?$CI?$CFd?$CJ?3@
CONST	SEGMENT
??_C@_0BK@NAHDGPCH@DC_FILEDEPENDENCIES?5?$CI?$CFd?$CJ?3@ DB 'DC_FILEDEPEN'
	DB	'DENCIES (%d):', 00H				; `string'
CONST	ENDS
;	COMDAT ??_C@_0DL@NOJMDJGA@?9?9?5PtrInfo?0?5DeviceCapabilities?$CI@
CONST	SEGMENT
??_C@_0DL@NOJMDJGA@?9?9?5PtrInfo?0?5DeviceCapabilities?$CI@ DB '-- PtrInf'
	DB	'o, DeviceCapabilities(DC_FILEDEPENDENCIES, %p) %s', 00H ; `string'
CONST	ENDS
;	COMDAT ??_C@_0DC@MCOOCAIH@?9?9?5PtrInfo?0?5?$DM?$CFs?$DO?5new?5DC_FILEDEP@
CONST	SEGMENT
??_C@_0DC@MCOOCAIH@?9?9?5PtrInfo?0?5?$DM?$CFs?$DO?5new?5DC_FILEDEP@ DB '-'
	DB	'- PtrInfo, <%s> new DC_FILEDEPENDENCIES mem null', 00H ; `string'
CONST	ENDS
;	COMDAT ??_C@_0DN@GGKKNNDH@?9?9?5PtrInfo?0?5DeviceCapabilities?$CI@
CONST	SEGMENT
??_C@_0DN@GGKKNNDH@?9?9?5PtrInfo?0?5DeviceCapabilities?$CI@ DB '-- PtrInf'
	DB	'o, DeviceCapabilities(DC_FILEDEPENDENCIES, null) %s', 00H ; `string'
CONST	ENDS
;	COMDAT ??_C@_09MFCBGNBM@?$DO?$CF?42d?3?5?$CFu@
CONST	SEGMENT
??_C@_09MFCBGNBM@?$DO?$CF?42d?3?5?$CFu@ DB '>%.2d: %u', 00H ; `string'
CONST	ENDS
;	COMDAT ??_C@_0N@EHIGBDLP@DC_NUP?5?$CI?$CFd?$CJ?3@
CONST	SEGMENT
??_C@_0N@EHIGBDLP@DC_NUP?5?$CI?$CFd?$CJ?3@ DB 'DC_NUP (%d):', 00H ; `string'
CONST	ENDS
;	COMDAT ??_C@_0CO@CJKPCGLF@?9?9?5PtrInfo?0?5DeviceCapabilities?$CI@
CONST	SEGMENT
??_C@_0CO@CJKPCGLF@?9?9?5PtrInfo?0?5DeviceCapabilities?$CI@ DB '-- PtrInf'
	DB	'o, DeviceCapabilities(DC_NUP, %p) %s', 00H	; `string'
CONST	ENDS
;	COMDAT ??_C@_0CF@DGNIMKMD@?9?9?5PtrInfo?0?5?$DM?$CFs?$DO?5new?5DC_NUP?5mem@
CONST	SEGMENT
??_C@_0CF@DGNIMKMD@?9?9?5PtrInfo?0?5?$DM?$CFs?$DO?5new?5DC_NUP?5mem@ DB '-'
	DB	'- PtrInfo, <%s> new DC_NUP mem null', 00H	; `string'
CONST	ENDS
;	COMDAT ??_C@_0DA@BHONBGKL@?9?9?5PtrInfo?0?5DeviceCapabilities?$CI@
CONST	SEGMENT
??_C@_0DA@BHONBGKL@?9?9?5PtrInfo?0?5DeviceCapabilities?$CI@ DB '-- PtrInf'
	DB	'o, DeviceCapabilities(DC_NUP, null) %s', 00H ; `string'
CONST	ENDS
;	COMDAT ??_C@_0P@MLIHNHLK@DC_TRUETYPE?5?$CFd@
CONST	SEGMENT
??_C@_0P@MLIHNHLK@DC_TRUETYPE?5?$CFd@ DB 'DC_TRUETYPE %d', 00H ; `string'
CONST	ENDS
;	COMDAT ??_C@_0N@ONNHJAOP@DC_STAPLE?5?$CFd@
CONST	SEGMENT
??_C@_0N@ONNHJAOP@DC_STAPLE?5?$CFd@ DB 'DC_STAPLE %d', 00H ; `string'
CONST	ENDS
;	COMDAT ??_C@_0L@ICJGKLML@DC_SIZE?5?$CFd@
CONST	SEGMENT
??_C@_0L@ICJGKLML@DC_SIZE?5?$CFd@ DB 'DC_SIZE %d', 00H	; `string'
CONST	ENDS
;	COMDAT ??_C@_0CC@FIJGGACG@DC_MINEXTENT?3?5Length?5?$CFu?0?5Width?5@
CONST	SEGMENT
??_C@_0CC@FIJGGACG@DC_MINEXTENT?3?5Length?5?$CFu?0?5Width?5@ DB 'DC_MINEX'
	DB	'TENT: Length %u, Width %u', 00H		; `string'
CONST	ENDS
;	COMDAT ??_C@_0CC@HHEJCDLL@DC_MAXEXTENT?3?5Length?5?$CFu?0?5Width?5@
CONST	SEGMENT
??_C@_0CC@HHEJCDLL@DC_MAXEXTENT?3?5Length?5?$CFu?0?5Width?5@ DB 'DC_MAXEX'
	DB	'TENT: Length %u, Width %u', 00H		; `string'
CONST	ENDS
;	COMDAT ??_C@_0N@FMBEEHK@DC_FIELDS?5?$CFu@
CONST	SEGMENT
??_C@_0N@FMBEEHK@DC_FIELDS?5?$CFu@ DB 'DC_FIELDS %u', 00H ; `string'
CONST	ENDS
;	COMDAT ??_C@_0O@BHGLDB@DC_VERSION?5?$CFd@
CONST	SEGMENT
??_C@_0O@BHGLDB@DC_VERSION?5?$CFd@ DB 'DC_VERSION %d', 00H ; `string'
CONST	ENDS
;	COMDAT ??_C@_0N@BOEFEHCB@DC_DRIVER?5?$CFd@
CONST	SEGMENT
??_C@_0N@BOEFEHCB@DC_DRIVER?5?$CFd@ DB 'DC_DRIVER %d', 00H ; `string'
CONST	ENDS
;	COMDAT ??_C@_0N@JAMONLMJ@DC_DUPLEX?5?$CFd@
CONST	SEGMENT
??_C@_0N@JAMONLMJ@DC_DUPLEX?5?$CFd@ DB 'DC_DUPLEX %d', 00H ; `string'
CONST	ENDS
;	COMDAT ??_C@_0BC@CPGDDBNJ@DC_COLORDEVICE?5?$CFd@
CONST	SEGMENT
??_C@_0BC@CPGDDBNJ@DC_COLORDEVICE?5?$CFd@ DB 'DC_COLORDEVICE %d', 00H ; `string'
CONST	ENDS
;	COMDAT ??_C@_0O@CECDKEDL@DC_COLLATE?5?$CFd@
CONST	SEGMENT
??_C@_0O@CECDKEDL@DC_COLLATE?5?$CFd@ DB 'DC_COLLATE %d', 00H ; `string'
CONST	ENDS
;	COMDAT ??_C@_0N@GOBEBGOJ@DC_COPIES?5?$CFd@
CONST	SEGMENT
??_C@_0N@GOBEBGOJ@DC_COPIES?5?$CFd@ DB 'DC_COPIES %d', 00H ; `string'
CONST	ENDS
;	COMDAT ??_C@_0BC@NAFPPPIH@DC_ORIENTATION?5?$CFd@
CONST	SEGMENT
??_C@_0BC@NAFPPPIH@DC_ORIENTATION?5?$CFd@ DB 'DC_ORIENTATION %d', 00H ; `string'
CONST	ENDS
;	COMDAT ??_C@_0DB@CMDEFNNK@?9?9?5PtrInfo?0?5Catch?5unhndld?5excpe@
CONST	SEGMENT
??_C@_0DB@CMDEFNNK@?9?9?5PtrInfo?0?5Catch?5unhndld?5excpe@ DB '-- PtrInfo'
	DB	', Catch unhndld excpetion on PaperList', 00H ; `string'
CONST	ENDS
;	COMDAT ??_C@_0BJ@ENBLCNAO@?$DO?$CF?42d?3?5?$CFu?0?5?$CFs?0?5?$CF?45d?5?$CF?45d@
CONST	SEGMENT
??_C@_0BJ@ENBLCNAO@?$DO?$CF?42d?3?5?$CFu?0?5?$CFs?0?5?$CF?45d?5?$CF?45d@ DB '>'
	DB	'%.2d: %u, %s, %.5d %.5d', 00H		; `string'
CONST	ENDS
;	COMDAT ??_C@_0CN@GKNAEPGN@DC_PAPERS?0?5DC_PAPERNAMES?0?5DC_PA@
CONST	SEGMENT
??_C@_0CN@GKNAEPGN@DC_PAPERS?0?5DC_PAPERNAMES?0?5DC_PA@ DB 'DC_PAPERS, DC'
	DB	'_PAPERNAMES, DC_PAPERSIZE (%d):', 00H	; `string'
CONST	ENDS
;	COMDAT ??_C@_0CP@BNOBPGPC@?9?9?5PtrInfo?0?5Catch?5unhndld?5excpe@
CONST	SEGMENT
??_C@_0CP@BNOBPGPC@?9?9?5PtrInfo?0?5Catch?5unhndld?5excpe@ DB '-- PtrInfo'
	DB	', Catch unhndld excpetion on BinList', 00H	; `string'
CONST	ENDS
;	COMDAT ??_C@_0O@KDMGFAIN@?$DO?$CF?42d?3?5?$CFu?0?5?$CFs@
CONST	SEGMENT
??_C@_0O@KDMGFAIN@?$DO?$CF?42d?3?5?$CFu?0?5?$CFs@ DB '>%.2d: %u, %s', 00H ; `string'
CONST	ENDS
;	COMDAT ??_C@_0BL@IBIADDJ@DC_BINS?0?5DC_BINNAMES?5?$CI?$CFd?$CJ?3@
CONST	SEGMENT
??_C@_0BL@IBIADDJ@DC_BINS?0?5DC_BINNAMES?5?$CI?$CFd?$CJ?3@ DB 'DC_BINS, D'
	DB	'C_BINNAMES (%d):', 00H			; `string'
CONST	ENDS
;	COMDAT ??_C@_0P@OBKMFCDP@?$DO?$CF?42d?3?5?$CFu?5x?5?$CFu@
CONST	SEGMENT
??_C@_0P@OBKMFCDP@?$DO?$CF?42d?3?5?$CFu?5x?5?$CFu@ DB '>%.2d: %u x %u', 00H ; `string'
CONST	ENDS
;	COMDAT ??_C@_0BJ@PLJPAGFI@DC_ENUMRESOLUTIONS?5?$CI?$CFd?$CJ?3@
CONST	SEGMENT
??_C@_0BJ@PLJPAGFI@DC_ENUMRESOLUTIONS?5?$CI?$CFd?$CJ?3@ DB 'DC_ENUMRESOLU'
	DB	'TIONS (%d):', 00H				; `string'
CONST	ENDS
;	COMDAT ??_C@_0DK@HALEOHFL@?9?9?5PtrInfo?0?5DeviceCapabilities?$CI@
CONST	SEGMENT
??_C@_0DK@HALEOHFL@?9?9?5PtrInfo?0?5DeviceCapabilities?$CI@ DB '-- PtrInf'
	DB	'o, DeviceCapabilities(DC_ENUMRESOLUTIONS, %p) %s', 00H ; `string'
CONST	ENDS
;	COMDAT ??_C@_0DB@OINKGGOI@?9?9?5PtrInfo?0?5?$DM?$CFs?$DO?5new?5DC_ENUMRES@
CONST	SEGMENT
??_C@_0DB@OINKGGOI@?9?9?5PtrInfo?0?5?$DM?$CFs?$DO?5new?5DC_ENUMRES@ DB '-'
	DB	'- PtrInfo, <%s> new DC_ENUMRESOLUTIONS mem null', 00H ; `string'
CONST	ENDS
;	COMDAT ??_C@_0DM@DLHDGDPE@?9?9?5PtrInfo?0?5DeviceCapabilities?$CI@
CONST	SEGMENT
??_C@_0DM@DLHDGDPE@?9?9?5PtrInfo?0?5DeviceCapabilities?$CI@ DB '-- PtrInf'
	DB	'o, DeviceCapabilities(DC_ENUMRESOLUTIONS, null) %s', 00H ; `string'
CONST	ENDS
;	COMDAT ??_C@_0CG@GNJLFBNH@Info?5from?5?$CFs?0?5Port?5?$CFs?0?5Driver?5?$CF@
CONST	SEGMENT
??_C@_0CG@GNJLFBNH@Info?5from?5?$CFs?0?5Port?5?$CFs?0?5Driver?5?$CF@ DB 'I'
	DB	'nfo from %s, Port %s, Driver %s (%d)', 00H	; `string'
CONST	ENDS
;	COMDAT ??_C@_0BN@HOILGMMA@?$DM?$DM?5PtrInfo?0?5PtrInfoList?5null@
CONST	SEGMENT
??_C@_0BN@HOILGMMA@?$DM?$DM?5PtrInfo?0?5PtrInfoList?5null@ DB '<< PtrInfo'
	DB	', PtrInfoList null', 00H			; `string'
CONST	ENDS
;	COMDAT ??_C@_0BH@ENEDNFCI@?$DM?$DM?5PtrInfo?0?5No?5Printer@
CONST	SEGMENT
??_C@_0BH@ENEDNFCI@?$DM?$DM?5PtrInfo?0?5No?5Printer@ DB '<< PtrInfo, No P'
	DB	'rinter', 00H				; `string'
CONST	ENDS
;	COMDAT ??_C@_0BA@EKNEIKHO@?$DO?$DO?5PtrInfo?5?$CI?$CFp?$CJ@
CONST	SEGMENT
??_C@_0BA@EKNEIKHO@?$DO?$DO?5PtrInfo?5?$CI?$CFp?$CJ@ DB '>> PtrInfo (%p)', 00H ; `string'
CONST	ENDS
;	COMDAT ??_C@_0BN@IBLEBHCE@?$DM?$DM?5GetMediaTypeList?0?5List?5?$CFp@
CONST	SEGMENT
??_C@_0BN@IBLEBHCE@?$DM?$DM?5GetMediaTypeList?0?5List?5?$CFp@ DB '<< GetM'
	DB	'ediaTypeList, List %p', 00H			; `string'
CONST	ENDS
;	COMDAT ??_C@_0EC@ONNFKLG@?9?9?5GetMediaTypeList?0?5DeviceCapa@
CONST	SEGMENT
??_C@_0EC@ONNFKLG@?9?9?5GetMediaTypeList?0?5DeviceCapa@ DB '-- GetMediaTy'
	DB	'peList, DeviceCapabilities(DC_MEDIATYPENAMES, %p) %s', 00H ; `string'
CONST	ENDS
;	COMDAT ??_C@_0DJ@CAKMLHPC@?9?9?5GetMediaTypeList?0?5?$DM?$CFs?$DO?5new?5D@
CONST	SEGMENT
??_C@_0DJ@CAKMLHPC@?9?9?5GetMediaTypeList?0?5?$DM?$CFs?$DO?5new?5D@ DB '-'
	DB	'- GetMediaTypeList, <%s> new DC_MEDIATYPENAMES mem null', 00H ; `string'
CONST	ENDS
;	COMDAT ??_C@_0DO@OFONMAMJ@?$DM?$DM?5GetMediaTypeList?0?5DeviceCapa@
CONST	SEGMENT
??_C@_0DO@OFONMAMJ@?$DM?$DM?5GetMediaTypeList?0?5DeviceCapa@ DB '<< GetMe'
	DB	'diaTypeList, DeviceCapabilities(DC_MEDIATYPES, %p) %s', 00H ; `string'
CONST	ENDS
;	COMDAT ??_C@_0DJ@IAEPPFOH@?$DM?$DM?5GetMediaTypeList?0?5?$DM?$CFs?$DO?5new?5P@
CONST	SEGMENT
??_C@_0DJ@IAEPPFOH@?$DM?$DM?5GetMediaTypeList?0?5?$DM?$CFs?$DO?5new?5P@ DB '<'
	DB	'< GetMediaTypeList, <%s> new PTRDATA_INFO_LIST mem null', 00H ; `string'
CONST	ENDS
;	COMDAT ??_C@_0DF@EKPICGIC@?9?9?5GetMediaTypeList?0?5?$DM?$CFs?$DO?5new?5D@
CONST	SEGMENT
??_C@_0DF@EKPICGIC@?9?9?5GetMediaTypeList?0?5?$DM?$CFs?$DO?5new?5D@ DB '-'
	DB	'- GetMediaTypeList, <%s> new DC_MEDIATYPES mem null', 00H ; `string'
CONST	ENDS
;	COMDAT ??_C@_0EA@NNAOKLFO@?$DM?$DM?5GetMediaTypeList?0?5DeviceCapa@
CONST	SEGMENT
??_C@_0EA@NNAOKLFO@?$DM?$DM?5GetMediaTypeList?0?5DeviceCapa@ DB '<< GetMe'
	DB	'diaTypeList, DeviceCapabilities(DC_MEDIATYPES, null) %s', 00H ; `string'
CONST	ENDS
;	COMDAT ??_C@_0CG@PBHDOEPC@?$DO?$DO?5GetMediaTypeList?0?5Name?5?$CFs?0?5P@
CONST	SEGMENT
??_C@_0CG@PBHDOEPC@?$DO?$DO?5GetMediaTypeList?0?5Name?5?$CFs?0?5P@ DB '>>'
	DB	' GetMediaTypeList, Name %s, Port %s', 00H	; `string'
CONST	ENDS
;	COMDAT ??_C@_0BJ@HGBNGAMD@?$DM?$DM?5GetPaperList?0?5List?5?$CFp@
CONST	SEGMENT
??_C@_0BJ@HGBNGAMD@?$DM?$DM?5GetPaperList?0?5List?5?$CFp@ DB '<< GetPaper'
	DB	'List, List %p', 00H				; `string'
CONST	ENDS
;	COMDAT ??_C@_0DK@CGKLJHJE@?9?9?5GetPaperList?0?5DeviceCapabili@
CONST	SEGMENT
??_C@_0DK@CGKLJHJE@?9?9?5GetPaperList?0?5DeviceCapabili@ DB '-- GetPaperL'
	DB	'ist, DeviceCapabilities(DC_PAPERNAMES, %p) %s', 00H ; `string'
CONST	ENDS
;	COMDAT ??_C@_0DB@DLBCIEDL@?9?9?5GetPaperList?0?5?$DM?$CFs?$DO?5new?5DC_PA@
CONST	SEGMENT
??_C@_0DB@DLBCIEDL@?9?9?5GetPaperList?0?5?$DM?$CFs?$DO?5new?5DC_PA@ DB '-'
	DB	'- GetPaperList, <%s> new DC_PAPERNAMES mem null', 00H ; `string'
CONST	ENDS
;	COMDAT ??_C@_0DJ@BNKOAMAF@?9?9?5GetPaperList?0?5DeviceCapabili@
CONST	SEGMENT
??_C@_0DJ@BNKOAMAF@?9?9?5GetPaperList?0?5DeviceCapabili@ DB '-- GetPaperL'
	DB	'ist, DeviceCapabilities(DC_PAPERSIZE, %p) %s', 00H ; `string'
CONST	ENDS
;	COMDAT ??_C@_0DA@NJCIHNJI@?9?9?5GetPaperList?0?5?$DM?$CFs?$DO?5new?5DC_PA@
CONST	SEGMENT
??_C@_0DA@NJCIHNJI@?9?9?5GetPaperList?0?5?$DM?$CFs?$DO?5new?5DC_PA@ DB '-'
	DB	'- GetPaperList, <%s> new DC_PAPERSIZE mem null', 00H ; `string'
CONST	ENDS
;	COMDAT ??_C@_0DG@CIOANDHH@?$DM?$DM?5GetPaperList?0?5DeviceCapabili@
CONST	SEGMENT
??_C@_0DG@CIOANDHH@?$DM?$DM?5GetPaperList?0?5DeviceCapabili@ DB '<< GetPa'
	DB	'perList, DeviceCapabilities(DC_PAPERS, %p) %s', 00H ; `string'
CONST	ENDS
;	COMDAT ??_C@_0DF@MINJLAHF@?$DM?$DM?5GetPaperList?0?5?$DM?$CFs?$DO?5new?5PTRDA@
CONST	SEGMENT
??_C@_0DF@MINJLAHF@?$DM?$DM?5GetPaperList?0?5?$DM?$CFs?$DO?5new?5PTRDA@ DB '<'
	DB	'< GetPaperList, <%s> new PTRDATA_INFO_LIST mem null', 00H ; `string'
CONST	ENDS
;	COMDAT ??_C@_0CN@BIOGLDPF@?$DM?$DM?5GetPaperList?0?5?$DM?$CFs?$DO?5new?5DC_PA@
CONST	SEGMENT
??_C@_0CN@BIOGLDPF@?$DM?$DM?5GetPaperList?0?5?$DM?$CFs?$DO?5new?5DC_PA@ DB '<'
	DB	'< GetPaperList, <%s> new DC_PAPERS mem null', 00H ; `string'
CONST	ENDS
;	COMDAT ??_C@_0DI@CDPGKELL@?$DM?$DM?5GetPaperList?0?5DeviceCapabili@
CONST	SEGMENT
??_C@_0DI@CDPGKELL@?$DM?$DM?5GetPaperList?0?5DeviceCapabili@ DB '<< GetPa'
	DB	'perList, DeviceCapabilities(DC_PAPERS, null) %s', 00H ; `string'
CONST	ENDS
;	COMDAT ??_C@_0CC@ONAFHJDF@?$DO?$DO?5GetPaperList?0?5Name?5?$CFs?0?5Port?5@
CONST	SEGMENT
??_C@_0CC@ONAFHJDF@?$DO?$DO?5GetPaperList?0?5Name?5?$CFs?0?5Port?5@ DB '>'
	DB	'> GetPaperList, Name %s, Port %s', 00H	; `string'
CONST	ENDS
;	COMDAT ??_C@_0BH@CEPOJCOE@?$DM?$DM?5GetBinList?0?5List?5?$CFp@
CONST	SEGMENT
??_C@_0BH@CEPOJCOE@?$DM?$DM?5GetBinList?0?5List?5?$CFp@ DB '<< GetBinList'
	DB	', List %p', 00H				; `string'
CONST	ENDS
;	COMDAT ??_C@_0DG@HABDBBMM@?9?9?5GetBinList?0?5DeviceCapabiliti@
CONST	SEGMENT
??_C@_0DG@HABDBBMM@?9?9?5GetBinList?0?5DeviceCapabiliti@ DB '-- GetBinLis'
	DB	't, DeviceCapabilities(DC_BINNAMES, %p) %s', 00H ; `string'
CONST	ENDS
;	COMDAT ??_C@_0CN@HGGHLGCE@?9?9?5GetBinList?0?5?$DM?$CFs?$DO?5new?5DC_BINN@
CONST	SEGMENT
??_C@_0CN@HGGHLGCE@?9?9?5GetBinList?0?5?$DM?$CFs?$DO?5new?5DC_BINN@ DB '-'
	DB	'- GetBinList, <%s> new DC_BINNAMES mem null', 00H ; `string'
CONST	ENDS
;	COMDAT ??_C@_0DC@FCIPFBFM@?$DM?$DM?5GetBinList?0?5DeviceCapabiliti@
CONST	SEGMENT
??_C@_0DC@FCIPFBFM@?$DM?$DM?5GetBinList?0?5DeviceCapabiliti@ DB '<< GetBi'
	DB	'nList, DeviceCapabilities(DC_BINS, %p) %s', 00H ; `string'
CONST	ENDS
;	COMDAT ??_C@_0DD@GBLOLICC@?$DM?$DM?5GetBinList?0?5?$DM?$CFs?$DO?5new?5PTRDATA@
CONST	SEGMENT
??_C@_0DD@GBLOLICC@?$DM?$DM?5GetBinList?0?5?$DM?$CFs?$DO?5new?5PTRDATA@ DB '<'
	DB	'< GetBinList, <%s> new PTRDATA_INFO_LIST mem null', 00H ; `string'
CONST	ENDS
;	COMDAT ??_C@_0CJ@MFGEJMEH@?$DM?$DM?5GetBinList?0?5?$DM?$CFs?$DO?5new?5DC_BINS@
CONST	SEGMENT
??_C@_0CJ@MFGEJMEH@?$DM?$DM?5GetBinList?0?5?$DM?$CFs?$DO?5new?5DC_BINS@ DB '<'
	DB	'< GetBinList, <%s> new DC_BINS mem null', 00H ; `string'
CONST	ENDS
;	COMDAT ??_C@_0DE@FGDAMBLB@?$DM?$DM?5GetBinList?0?5DeviceCapabiliti@
CONST	SEGMENT
??_C@_0DE@FGDAMBLB@?$DM?$DM?5GetBinList?0?5DeviceCapabiliti@ DB '<< GetBi'
	DB	'nList, DeviceCapabilities(DC_BINS, null) %s', 00H ; `string'
CONST	ENDS
;	COMDAT ??_C@_0CA@MEDOMPCD@?$DO?$DO?5GetBinList?0?5Name?5?$CFs?0?5Port?5?$CFs@
CONST	SEGMENT
??_C@_0CA@MEDOMPCD@?$DO?$DO?5GetBinList?0?5Name?5?$CFs?0?5Port?5?$CFs@ DB '>'
	DB	'> GetBinList, Name %s, Port %s', 00H	; `string'
CONST	ENDS
;	COMDAT ??_C@_0P@GDDJCMON@?$DM?$DM?5GetPtrsList@
CONST	SEGMENT
??_C@_0P@GDDJCMON@?$DM?$DM?5GetPtrsList@ DB '<< GetPtrsList', 00H ; `string'
CONST	ENDS
;	COMDAT ??_C@_0DB@OBDCAEAF@?$DO?5?$CF?42d?3?5?2?2?$CFs?2?$CFs?0?5?5?$CFs?0?5?$CFs?0?5?$CFs?0?5?$CF@
CONST	SEGMENT
??_C@_0DB@OBDCAEAF@?$DO?5?$CF?42d?3?5?2?2?$CFs?2?$CFs?0?5?5?$CFs?0?5?$CFs?0?5?$CFs?0?5?$CF@ DB '>'
	DB	' %.2d: \\%s\%s,  %s, %s, %s, %u, %u, %s, %s, %s', 00H ; `string'
CONST	ENDS
;	COMDAT ??_C@_0P@EABBNIJO@?$DMLocalPrinter?$DO@
CONST	SEGMENT
??_C@_0P@EABBNIJO@?$DMLocalPrinter?$DO@ DB '<LocalPrinter>', 00H ; `string'
CONST	ENDS
;	COMDAT ??_C@_0FD@LPLLHANM@?$DO?5?5?5?5?5Printer?0?5Port?0?5Driver?0?5Pr@
CONST	SEGMENT
??_C@_0FD@LPLLHANM@?$DO?5?5?5?5?5Printer?0?5Port?0?5Driver?0?5Pr@ DB '>  '
	DB	'   Printer, Port, Driver, Processor, Status, Priority, Locati'
	DB	'on, Share, Comment', 00H			; `string'
CONST	ENDS
;	COMDAT ??_C@_0BL@DODNOLI@Printers?5Information?5?$CI?$CFd?$CJ?3@
CONST	SEGMENT
??_C@_0BL@DODNOLI@Printers?5Information?5?$CI?$CFd?$CJ?3@ DB 'Printers In'
	DB	'formation (%d):', 00H			; `string'
CONST	ENDS
;	COMDAT ??_C@_0CF@POBEDBNN@?$DM?$DM?5GetPtrsList?0?5new?5PrtInfoList@
CONST	SEGMENT
??_C@_0CF@POBEDBNN@?$DM?$DM?5GetPtrsList?0?5new?5PrtInfoList@ DB '<< GetP'
	DB	'trsList, new PrtInfoList null', 00H		; `string'
CONST	ENDS
;	COMDAT ??_C@_0CA@CCAKGGPA@?$DM?$DM?5GetPtrsList?0?5EnumPrinters?5?$CFs@
CONST	SEGMENT
??_C@_0CA@CCAKGGPA@?$DM?$DM?5GetPtrsList?0?5EnumPrinters?5?$CFs@ DB '<< G'
	DB	'etPtrsList, EnumPrinters %s', 00H		; `string'
CONST	ENDS
;	COMDAT ??_C@_0CB@CEENFMON@?$DM?$DM?5GetPtrsList?0?5new?5PtrInfo?5nul@
CONST	SEGMENT
??_C@_0CB@CEENFMON@?$DM?$DM?5GetPtrsList?0?5new?5PtrInfo?5nul@ DB '<< Get'
	DB	'PtrsList, new PtrInfo null', 00H		; `string'
CONST	ENDS
;	COMDAT ??_C@_0BL@CMACENMK@?$DM?$DM?5GetPtrsList?0?5No?5Printer@
CONST	SEGMENT
??_C@_0BL@CMACENMK@?$DM?$DM?5GetPtrsList?0?5No?5Printer@ DB '<< GetPtrsLi'
	DB	'st, No Printer', 00H			; `string'
CONST	ENDS
;	COMDAT ??_C@_0P@CKNBFJNB@?$DO?$DO?5GetPtrsList@
CONST	SEGMENT
??_C@_0P@CKNBFJNB@?$DO?$DO?5GetPtrsList@ DB '>> GetPtrsList', 00H ; `string'
CONST	ENDS
;	COMDAT ??_C@_0M@JHACCAAA@?$DM?$DM?5PerfInfo@
CONST	SEGMENT
??_C@_0M@JHACCAAA@?$DM?$DM?5PerfInfo@ DB '<< PerfInfo', 00H ; `string'
CONST	ENDS
;	COMDAT ??_C@_0CA@JENOJKFE@PerfInfo?0?5GetPerformanceInfo?5?$CFs@
CONST	SEGMENT
??_C@_0CA@JENOJKFE@PerfInfo?0?5GetPerformanceInfo?5?$CFs@ DB 'PerfInfo, G'
	DB	'etPerformanceInfo %s', 00H			; `string'
CONST	ENDS
;	COMDAT ??_C@_0CD@DBCKLHBG@Process?5?$CFu?0?5Handles?5?$CFu?0?5Threads@
CONST	SEGMENT
??_C@_0CD@DBCKLHBG@Process?5?$CFu?0?5Handles?5?$CFu?0?5Threads@ DB 'Proce'
	DB	'ss %u, Handles %u, Threads %u', 00H		; `string'
CONST	ENDS
;	COMDAT ??_C@_0N@HEDGONEI@Page?5Size?5?$CFu@
CONST	SEGMENT
??_C@_0N@HEDGONEI@Page?5Size?5?$CFu@ DB 'Page Size %u', 00H ; `string'
CONST	ENDS
;	COMDAT ??_C@_0CI@POMBEGEK@Kernel?3?5Total?5?$CFu?0?5Paged?5?$CFu?0?5Non@
CONST	SEGMENT
??_C@_0CI@POMBEGEK@Kernel?3?5Total?5?$CFu?0?5Paged?5?$CFu?0?5Non@ DB 'Ker'
	DB	'nel: Total %u, Paged %u, Nonpaged %u', 00H	; `string'
CONST	ENDS
;	COMDAT ??_C@_0BA@DCNNFMJH@System?5Cache?5?$CFu@
CONST	SEGMENT
??_C@_0BA@DCNNFMJH@System?5Cache?5?$CFu@ DB 'System Cache %u', 00H ; `string'
CONST	ENDS
;	COMDAT ??_C@_0CB@KFDPCIGB@Physical?3?5Total?5?$CFu?0?5Available?5?$CF@
CONST	SEGMENT
??_C@_0CB@KFDPCIGB@Physical?3?5Total?5?$CFu?0?5Available?5?$CF@ DB 'Physi'
	DB	'cal: Total %u, Available %u', 00H		; `string'
CONST	ENDS
;	COMDAT ??_C@_0CE@ONMEHFLA@Commit?3?5Total?5?$CFu?0?5Limit?5?$CFu?0?5Pea@
CONST	SEGMENT
??_C@_0CE@ONMEHFLA@Commit?3?5Total?5?$CFu?0?5Limit?5?$CFu?0?5Pea@ DB 'Com'
	DB	'mit: Total %u, Limit %u, Peak %u', 00H	; `string'
CONST	ENDS
;	COMDAT ??_C@_0BI@ECNHKKAA@Performance?5Information@
CONST	SEGMENT
??_C@_0BI@ECNHKKAA@Performance?5Information@ DB 'Performance Information', 00H ; `string'
CONST	ENDS
;	COMDAT ??_C@_0BB@LPGMBLGN@?$DO?$DO?5PerfInfo?5?$CI?$CFp?$CJ@
CONST	SEGMENT
??_C@_0BB@LPGMBLGN@?$DO?$DO?5PerfInfo?5?$CI?$CFp?$CJ@ DB '>> PerfInfo (%p'
	DB	')', 00H					; `string'
CONST	ENDS
;	COMDAT ??_C@_0L@NHDPJOBN@?$DM?$DM?5DevDrvs@
CONST	SEGMENT
??_C@_0L@NHDPJOBN@?$DM?$DM?5DevDrvs@ DB '<< DevDrvs', 00H ; `string'
CONST	ENDS
;	COMDAT ??_C@_0DF@CJPNLIJE@DevDrvs?0?5EnumDeviceDrivers?5?$CFs?5?$CI@
CONST	SEGMENT
??_C@_0DF@CJPNLIJE@DevDrvs?0?5EnumDeviceDrivers?5?$CFs?5?$CI@ DB 'DevDrvs'
	DB	', EnumDeviceDrivers %s (array size needed %u)', 00H ; `string'
CONST	ENDS
;	COMDAT ??_C@_0BA@DGAJHBGD@?$DO?5?$CF?43zu?0?5?$CFs?0?5?$CFs@
CONST	SEGMENT
??_C@_0BA@DGAJHBGD@?$DO?5?$CF?43zu?0?5?$CFs?0?5?$CFs@ DB '> %.3zu, %s, %s'
	DB	00H						; `string'
CONST	ENDS
;	COMDAT ??_C@_0BO@PHKHDLGJ@Device?5Drivers?0?5Number?5of?3?5?$CFd@
CONST	SEGMENT
??_C@_0BO@PHKHDLGJ@Device?5Drivers?0?5Number?5of?3?5?$CFd@ DB 'Device Dri'
	DB	'vers, Number of: %d', 00H			; `string'
CONST	ENDS
;	COMDAT ??_C@_0BA@HKMBGJGH@?$DO?$DO?5DevDrvs?5?$CI?$CFp?$CJ@
CONST	SEGMENT
??_C@_0BA@HKMBGJGH@?$DO?$DO?5DevDrvs?5?$CI?$CFp?$CJ@ DB '>> DevDrvs (%p)', 00H ; `string'
CONST	ENDS
;	COMDAT ??_C@_0BC@BKCMKMCI@?$DM?$DM?5SysLogProcInfo@
CONST	SEGMENT
??_C@_0BC@BKCMKMCI@?$DM?$DM?5SysLogProcInfo@ DB '<< SysLogProcInfo', 00H ; `string'
CONST	ENDS
;	COMDAT ??_C@_0CO@JLHKKOJE@Number?5of?5processor?5L1?1L2?1L3?5ca@
CONST	SEGMENT
??_C@_0CO@JLHKKOJE@Number?5of?5processor?5L1?1L2?1L3?5ca@ DB 'Number of p'
	DB	'rocessor L1/L2/L3 caches: %d/%d/%d', 00H	; `string'
CONST	ENDS
;	COMDAT ??_C@_0CB@NEBFNBCF@Number?5of?5logical?5processors?3?5?$CF@
CONST	SEGMENT
??_C@_0CB@NEBFNBCF@Number?5of?5logical?5processors?3?5?$CF@ DB 'Number of'
	DB	' logical processors: %d', 00H		; `string'
CONST	ENDS
;	COMDAT ??_C@_0BO@JLJNFPPO@Number?5of?5processor?5cores?3?5?$CFd@
CONST	SEGMENT
??_C@_0BO@JLJNFPPO@Number?5of?5processor?5cores?3?5?$CFd@ DB 'Number of p'
	DB	'rocessor cores: %d', 00H			; `string'
CONST	ENDS
;	COMDAT ??_C@_0CK@CIFFOGGE@Number?5of?5physical?5processor?5pa@
CONST	SEGMENT
??_C@_0CK@CIFFOGGE@Number?5of?5physical?5processor?5pa@ DB 'Number of phy'
	DB	'sical processor packages: %d', 00H		; `string'
CONST	ENDS
;	COMDAT ??_C@_0BJ@CBGNJNLO@Number?5of?5NUMA?5nodes?3?5?$CFd@
CONST	SEGMENT
??_C@_0BJ@CBGNJNLO@Number?5of?5NUMA?5nodes?3?5?$CFd@ DB 'Number of NUMA n'
	DB	'odes: %d', 00H				; `string'
CONST	ENDS
;	COMDAT ??_C@_0CB@ECHENMHH@Logical?5Processor?$CIs?$CJ?5Informatio@
CONST	SEGMENT
??_C@_0CB@ECHENMHH@Logical?5Processor?$CIs?$CJ?5Informatio@ DB 'Logical P'
	DB	'rocessor(s) Information', 00H		; `string'
CONST	ENDS
;	COMDAT ??_C@_0EC@BGADHKMF@?9?9?5SysLogProcInfo?0?5Unsupp?5LOGIC@
CONST	SEGMENT
??_C@_0EC@BGADHKMF@?9?9?5SysLogProcInfo?0?5Unsupp?5LOGIC@ DB '-- SysLogPr'
	DB	'ocInfo, Unsupp LOGICAL_PROCESSOR_RELATIONSHIP value %d', 00H ; `string'
CONST	ENDS
;	COMDAT ??_C@_0BL@KHIEGLFN@?9?9?5SysLogProcInfo?0?5GLPI?5?$CFs@
CONST	SEGMENT
??_C@_0BL@KHIEGLFN@?9?9?5SysLogProcInfo?0?5GLPI?5?$CFs@ DB '-- SysLogProc'
	DB	'Info, GLPI %s', 00H				; `string'
CONST	ENDS
;	COMDAT ??_C@_0CG@LHEIAGGO@?9?9?5SysLogProcInfo?0?5Allocation?5f@
CONST	SEGMENT
??_C@_0CG@LHEIAGGO@?9?9?5SysLogProcInfo?0?5Allocation?5f@ DB '-- SysLogPr'
	DB	'ocInfo, Allocation failure', 00H		; `string'
CONST	ENDS
;	COMDAT ??_C@_0DO@CNICBAHJ@?$DM?$DM?5SysLogProcInfo?0?5Out?0?5Unsupp?5@
CONST	SEGMENT
??_C@_0DO@CNICBAHJ@?$DM?$DM?5SysLogProcInfo?0?5Out?0?5Unsupp?5@ DB '<< Sy'
	DB	'sLogProcInfo, Out, Unsupp GetLogicalProcessorInformation', 00H ; `string'
CONST	ENDS
;	COMDAT ??_C@_0BP@KHGALBC@GetLogicalProcessorInformation@
CONST	SEGMENT
??_C@_0BP@KHGALBC@GetLogicalProcessorInformation@ DB 'GetLogicalProcessor'
	DB	'Information', 00H				; `string'
CONST	ENDS
;	COMDAT ??_C@_0BH@MFPGFEAK@?$DO?$DO?5SysLogProcInfo?5?$CI?$CFp?$CJ@
CONST	SEGMENT
??_C@_0BH@MFPGFEAK@?$DO?$DO?5SysLogProcInfo?5?$CI?$CFp?$CJ@ DB '>> SysLog'
	DB	'ProcInfo (%p)', 00H				; `string'
CONST	ENDS
;	COMDAT ??_C@_0L@NBODLJGE@?$DM?$DM?5SysDirs@
CONST	SEGMENT
??_C@_0L@NBODLJGE@?$DM?$DM?5SysDirs@ DB '<< SysDirs', 00H ; `string'
CONST	ENDS
;	COMDAT ??_C@_0N@JJNMAABC@WinSysDir?5?$CFs@
CONST	SEGMENT
??_C@_0N@JJNMAABC@WinSysDir?5?$CFs@ DB 'WinSysDir %s', 00H ; `string'
CONST	ENDS
;	COMDAT ??_C@_09PEBHDCJJ@WinDir?5?$CFs@
CONST	SEGMENT
??_C@_09PEBHDCJJ@WinDir?5?$CFs@ DB 'WinDir %s', 00H	; `string'
CONST	ENDS
;	COMDAT ??_C@_0M@JFNOOIEA@TempPath?5?$CFs@
CONST	SEGMENT
??_C@_0M@JFNOOIEA@TempPath?5?$CFs@ DB 'TempPath %s', 00H ; `string'
CONST	ENDS
;	COMDAT ??_C@_09LGICPEGI@SysDir?5?$CFs@
CONST	SEGMENT
??_C@_09LGICPEGI@SysDir?5?$CFs@ DB 'SysDir %s', 00H	; `string'
CONST	ENDS
;	COMDAT ??_C@_0BD@OAHOLNHD@System?5Directories@
CONST	SEGMENT
??_C@_0BD@OAHOLNHD@System?5Directories@ DB 'System Directories', 00H ; `string'
CONST	ENDS
;	COMDAT ??_C@_0BA@GBCPBHIM@?$DO?$DO?5SysDirs?5?$CI?$CFp?$CJ@
CONST	SEGMENT
??_C@_0BA@GBCPBHIM@?$DO?$DO?5SysDirs?5?$CI?$CFp?$CJ@ DB '>> SysDirs (%p)', 00H ; `string'
CONST	ENDS
;	COMDAT ??_C@_0L@GICAALNI@?$DM?$DM?5LogDrvs@
CONST	SEGMENT
??_C@_0L@GICAALNI@?$DM?$DM?5LogDrvs@ DB '<< LogDrvs', 00H ; `string'
CONST	ENDS
;	COMDAT ??_C@_0GJ@NOKMBBI@?5?5?5FreeSpace?0?5SectorsPerCluster@
CONST	SEGMENT
??_C@_0GJ@NOKMBBI@?5?5?5FreeSpace?0?5SectorsPerCluster@ DB '   FreeSpace,'
	DB	' SectorsPerCluster %u, BytesPerSector %u, NumberOfFreeCluster'
	DB	's %u, TotalNumberOfClusters %u', 00H	; `string'
CONST	ENDS
;	COMDAT ??_C@_0GE@JMDLMJNN@?5?5?5VolumeInfo?0?5Name?5?$CFs?0?5SerialN@
CONST	SEGMENT
??_C@_0GE@JMDLMJNN@?5?5?5VolumeInfo?0?5Name?5?$CFs?0?5SerialN@ DB '   Vol'
	DB	'umeInfo, Name %s, SerialNumber %u, MaxComponentLength %u, Fil'
	DB	'eSysflags 0x%08X, FileSysName %s', 00H	; `string'
CONST	ENDS
;	COMDAT ??_C@_0BJ@BENIJAPK@?$DO?$DO?5?$CF?43d?0?5?$CFs?3?5Type?5?$CFs?$CI?$CFu?$CJ@
CONST	SEGMENT
??_C@_0BJ@BENIJAPK@?$DO?$DO?5?$CF?43d?0?5?$CFs?3?5Type?5?$CFs?$CI?$CFu?$CJ@ DB '>'
	DB	'> %.3d, %s: Type %s(%u)', 00H		; `string'
CONST	ENDS
;	COMDAT ??_C@_0CA@BGDEGNDO@Logical?5Drivers?5?$CFu?$CI?$CFu?$CJ?5?$CI0x?$CF?48X?$CJ@
CONST	SEGMENT
??_C@_0CA@BGDEGNDO@Logical?5Drivers?5?$CFu?$CI?$CFu?$CJ?5?$CI0x?$CF?48X?$CJ@ DB 'L'
	DB	'ogical Drivers %u(%u) (0x%.8X)', 00H	; `string'
CONST	ENDS
;	COMDAT ??_C@_0BA@KFINEJGA@?$DO?$DO?5LogDrvs?5?$CI?$CFp?$CJ@
CONST	SEGMENT
??_C@_0BA@KFINEJGA@?$DO?$DO?5LogDrvs?5?$CI?$CFp?$CJ@ DB '>> LogDrvs (%p)', 00H ; `string'
CONST	ENDS
;	COMDAT ??_C@_07CPJGKNJN@RamDisk@
CONST	SEGMENT
??_C@_07CPJGKNJN@RamDisk@ DB 'RamDisk', 00H		; `string'
CONST	ENDS
;	COMDAT ??_C@_05JIFOIGMJ@CDRom@
CONST	SEGMENT
??_C@_05JIFOIGMJ@CDRom@ DB 'CDRom', 00H			; `string'
CONST	ENDS
;	COMDAT ??_C@_06MHHFENDB@Remote@
CONST	SEGMENT
??_C@_06MHHFENDB@Remote@ DB 'Remote', 00H		; `string'
CONST	ENDS
;	COMDAT ??_C@_05OCBIINAK@Fixed@
CONST	SEGMENT
??_C@_05OCBIINAK@Fixed@ DB 'Fixed', 00H			; `string'
CONST	ENDS
;	COMDAT ??_C@_09MOKIPJGJ@NoRootDir@
CONST	SEGMENT
??_C@_09MOKIPJGJ@NoRootDir@ DB 'NoRootDir', 00H		; `string'
CONST	ENDS
;	COMDAT ??_C@_0M@FNBLPGFN@?$DM?$DM?5SysTimes@
CONST	SEGMENT
??_C@_0M@FNBLPGFN@?$DM?$DM?5SysTimes@ DB '<< SysTimes', 00H ; `string'
CONST	ENDS
;	COMDAT ??_C@_0DP@OCMJGDEB@Processor?3?5?$CFI64u?5counts?0?5?$CFI64u?5@
CONST	SEGMENT
??_C@_0DP@OCMJGDEB@Processor?3?5?$CFI64u?5counts?0?5?$CFI64u?5@ DB 'Proce'
	DB	'ssor: %I64u counts, %I64u counts/sec, %02d:%02d:%02d %f s', 00H ; `string'
CONST	ENDS
;	COMDAT ??_C@_0BN@JFNEHINJ@Idle?3?5?$CF02d?3?$CF02d?3?$CF02d?5?$CI?$CFu?5s?$CJ?4@
CONST	SEGMENT
??_C@_0BN@JFNEHINJ@Idle?3?5?$CF02d?3?$CF02d?3?$CF02d?5?$CI?$CFu?5s?$CJ?4@ DB 'I'
	DB	'dle: %02d:%02d:%02d (%u s).', 00H		; `string'
CONST	ENDS
;	COMDAT ??_C@_0CC@JKEHGGOG@User?5time?3?5?$CF02d?3?$CF02d?3?$CF02d?5?$CI?$CFu?5s@
CONST	SEGMENT
??_C@_0CC@JKEHGGOG@User?5time?3?5?$CF02d?3?$CF02d?3?$CF02d?5?$CI?$CFu?5s@ DB 'U'
	DB	'ser time: %02d:%02d:%02d (%u s).', 00H	; `string'
CONST	ENDS
;	COMDAT ??_C@_0CE@PJKLEAEE@Kernel?5time?3?5?$CF02d?3?$CF02d?3?$CF02d?5?$CI?$CFu@
CONST	SEGMENT
??_C@_0CE@PJKLEAEE@Kernel?5time?3?5?$CF02d?3?$CF02d?3?$CF02d?5?$CI?$CFu@ DB 'K'
	DB	'ernel time: %02d:%02d:%02d (%u s).', 00H	; `string'
CONST	ENDS
;	COMDAT ??_C@_0N@HHJCFDFH@System?5Times@
CONST	SEGMENT
??_C@_0N@HHJCFDFH@System?5Times@ DB 'System Times', 00H	; `string'
CONST	ENDS
;	COMDAT ??_C@_0BB@FODCFBGJ@?$DO?$DO?5SysTimes?5?$CI?$CFp?$CJ@
CONST	SEGMENT
??_C@_0BB@FODCFBGJ@?$DO?$DO?5SysTimes?5?$CI?$CFp?$CJ@ DB '>> SysTimes (%p'
	DB	')', 00H					; `string'
CONST	ENDS
;	COMDAT ??_C@_09CIJKANFC@?$DM?$DM?5SysMem@
CONST	SEGMENT
??_C@_09CIJKANFC@?$DM?$DM?5SysMem@ DB '<< SysMem', 00H	; `string'
CONST	ENDS
;	COMDAT ??_C@_0DB@BKHHAKDB@Virtual?3?5?$CFu?5MB?5used?0?5?$CFu?5MB?5avai@
CONST	SEGMENT
??_C@_0DB@BKHHAKDB@Virtual?3?5?$CFu?5MB?5used?0?5?$CFu?5MB?5avai@ DB 'Vir'
	DB	'tual: %u MB used, %u MB avail, %u MB extended', 00H ; `string'
CONST	ENDS
;	COMDAT ??_C@_0CC@PBKOHCPF@Pagefile?3?5?$CFu?5MB?5used?0?5?$CFu?5MB?5ava@
CONST	SEGMENT
??_C@_0CC@PBKOHCPF@Pagefile?3?5?$CFu?5MB?5used?0?5?$CFu?5MB?5ava@ DB 'Pag'
	DB	'efile: %u MB used, %u MB avail', 00H	; `string'
CONST	ENDS
;	COMDAT ??_C@_0CC@JHNBDNDC@Physical?3?5?$CFu?5MB?5used?0?5?$CFu?5MB?5ava@
CONST	SEGMENT
??_C@_0CC@JHNBDNDC@Physical?3?5?$CFu?5MB?5used?0?5?$CFu?5MB?5ava@ DB 'Phy'
	DB	'sical: %u MB used, %u MB avail', 00H	; `string'
CONST	ENDS
;	COMDAT ??_C@_0BB@DIEGGMCF@Usage?3?5?$CFu?$CF?$CF?5used@
CONST	SEGMENT
??_C@_0BB@DIEGGMCF@Usage?3?5?$CFu?$CF?$CF?5used@ DB 'Usage: %u%% used', 00H ; `string'
CONST	ENDS
;	COMDAT ??_C@_0O@OAHOAHIO@System?5Memory@
CONST	SEGMENT
??_C@_0O@OAHOAHIO@System?5Memory@ DB 'System Memory', 00H ; `string'
CONST	ENDS
;	COMDAT ??_C@_0P@CFMOGLIC@?$DO?$DO?5SysMem?5?$CI?$CFp?$CJ@
CONST	SEGMENT
??_C@_0P@CFMOGLIC@?$DO?$DO?5SysMem?5?$CI?$CFp?$CJ@ DB '>> SysMem (%p)', 00H ; `string'
CONST	ENDS
;	COMDAT ??_C@_09EHLFKBJE@?$DM?$DM?5OSInfo@
CONST	SEGMENT
??_C@_09EHLFKBJE@?$DM?$DM?5OSInfo@ DB '<< OSInfo', 00H	; `string'
CONST	ENDS
;	COMDAT ??_C@_0CK@HOFAFFOO@OSInfo?0?5Version?5?$CFu?4?$CFu?4?$CFu?0?5Platf@
CONST	SEGMENT
??_C@_0CK@HOFAFFOO@OSInfo?0?5Version?5?$CFu?4?$CFu?4?$CFu?0?5Platf@ DB 'O'
	DB	'SInfo, Version %u.%u.%u, Platform %u, %s', 00H ; `string'
CONST	ENDS
;	COMDAT ??_C@_0BN@NMBMIHHC@OSInfo?0?5VerifyVersionInfo?5?$CFs@
CONST	SEGMENT
??_C@_0BN@NMBMIHHC@OSInfo?0?5VerifyVersionInfo?5?$CFs@ DB 'OSInfo, Verify'
	DB	'VersionInfo %s', 00H			; `string'
CONST	ENDS
;	COMDAT ??_C@_0EG@OPOFGEHK@OSInfo?0?5Version?5?$CFu?4?$CFu?4?$CFu?0?5Platf@
CONST	SEGMENT
??_C@_0EG@OPOFGEHK@OSInfo?0?5Version?5?$CFu?4?$CFu?4?$CFu?0?5Platf@ DB 'O'
	DB	'SInfo, Version %u.%u.%u, Platform %u, SP %s(%u.%u), Suite 0x%'
	DB	'08X, %s', 00H				; `string'
CONST	ENDS
;	COMDAT ??_C@_0M@CILGCIDH@Workstation@
CONST	SEGMENT
??_C@_0M@CILGCIDH@Workstation@ DB 'Workstation', 00H	; `string'
CONST	ENDS
;	COMDAT ??_C@_06LGMEBDBC@Server@
CONST	SEGMENT
??_C@_06LGMEBDBC@Server@ DB 'Server', 00H		; `string'
CONST	ENDS
;	COMDAT ??_C@_0BC@LGEIIGCP@Domain?5Controller@
CONST	SEGMENT
??_C@_0BC@LGEIIGCP@Domain?5Controller@ DB 'Domain Controller', 00H ; `string'
CONST	ENDS
;	COMDAT ??_C@_0P@JFFCKGPB@?$DO?$DO?5OSInfo?5?$CI?$CFp?$CJ@
CONST	SEGMENT
??_C@_0P@JFFCKGPB@?$DO?$DO?5OSInfo?5?$CI?$CFp?$CJ@ DB '>> OSInfo (%p)', 00H ; `string'
CONST	ENDS
;	COMDAT ??_C@_0L@EJPMBDJN@?$DM?$DM?5SysInfo@
CONST	SEGMENT
??_C@_0L@EJPMBDJN@?$DM?$DM?5SysInfo@ DB '<< SysInfo', 00H ; `string'
CONST	ENDS
;	COMDAT ??_C@_0FN@KGKHOIOF@Computer?3?5?$CFs?0?5Processor?$CIs?$CJ?5?$CFu?5?$CF@
CONST	SEGMENT
??_C@_0FN@KGKHOIOF@Computer?3?5?$CFs?0?5Processor?$CIs?$CJ?5?$CFu?5?$CF@ DB 'C'
	DB	'omputer: %s, Processor(s) %u %f Mhz Current %u, %s, Level %u,'
	DB	' Rev %u, Type %u; Page Size %u', 00H	; `string'
CONST	ENDS
;	COMDAT ??_C@_07NBCGADJA@Unknown@
CONST	SEGMENT
??_C@_07NBCGADJA@Unknown@ DB 'Unknown', 00H		; `string'
CONST	ENDS
;	COMDAT ??_C@_03NDFEINMN@x86@
CONST	SEGMENT
??_C@_03NDFEINMN@x86@ DB 'x86', 00H			; `string'
CONST	ENDS
;	COMDAT ??_C@_0BE@BAGOKCHN@Intel?5Itanium?9based@
CONST	SEGMENT
??_C@_0BE@BAGOKCHN@Intel?5Itanium?9based@ DB 'Intel Itanium-based', 00H ; `string'
CONST	ENDS
;	COMDAT ??_C@_0BD@EBOFFHEB@x64?5?$CIAMD?5or?5Intel?$CJ@
CONST	SEGMENT
??_C@_0BD@EBOFFHEB@x64?5?$CIAMD?5or?5Intel?$CJ@ DB 'x64 (AMD or Intel)', 00H ; `string'
CONST	ENDS
;	COMDAT ??_C@_0BA@KIDPDIJO@?$DO?$DO?5SysInfo?5?$CI?$CFp?$CJ@
CONST	SEGMENT
??_C@_0BA@KIDPDIJO@?$DO?$DO?5SysInfo?5?$CI?$CFp?$CJ@ DB '>> SysInfo (%p)', 00H ; `string'
CONST	ENDS
;	COMDAT ??_C@_0EH@HJFNKFOJ@?9?9?5CurrentProcessorNumber?0?5GetC@
CONST	SEGMENT
??_C@_0EH@HJFNKFOJ@?9?9?5CurrentProcessorNumber?0?5GetC@ DB '-- CurrentPr'
	DB	'ocessorNumber, GetCurrentProcessorNumber is not supported.', 00H ; `string'
CONST	ENDS
;	COMDAT ??_C@_08PNLNEKOB@kernel32@
CONST	SEGMENT
??_C@_08PNLNEKOB@kernel32@ DB 'kernel32', 00H		; `string'
CONST	ENDS
;	COMDAT ??_C@_0BK@DFNBACLA@GetCurrentProcessorNumber@
CONST	SEGMENT
??_C@_0BK@DFNBACLA@GetCurrentProcessorNumber@ DB 'GetCurrentProcessorNumb'
	DB	'er', 00H					; `string'
CONST	ENDS
;	COMDAT ??_C@_0N@DNDAOIDK@?$DM?$DM?5HwProfile@
CONST	SEGMENT
??_C@_0N@DNDAOIDK@?$DM?$DM?5HwProfile@ DB '<< HwProfile', 00H ; `string'
CONST	ENDS
;	COMDAT ??_C@_0CC@OJDBEDNI@HwProfile?0?5GetCurrentHwProfile?5@
CONST	SEGMENT
??_C@_0CC@OJDBEDNI@HwProfile?0?5GetCurrentHwProfile?5@ DB 'HwProfile, Get'
	DB	'CurrentHwProfile %s', 00H			; `string'
CONST	ENDS
;	COMDAT ??_C@_0DA@OIKPBLGF@Hardware?5Profile?0?5DockInfo?5?$CFp?0?5@
CONST	SEGMENT
??_C@_0DA@OIKPBLGF@Hardware?5Profile?0?5DockInfo?5?$CFp?0?5@ DB 'Hardware'
	DB	' Profile, DockInfo %p, GUID %s, Name %s', 00H ; `string'
CONST	ENDS
;	COMDAT ??_C@_0BC@BGHHFGNO@?$DO?$DO?5HwProfile?5?$CI?$CFp?$CJ@
CONST	SEGMENT
??_C@_0BC@BGHHFGNO@?$DO?$DO?5HwProfile?5?$CI?$CFp?$CJ@ DB '>> HwProfile ('
	DB	'%p)', 00H					; `string'
CONST	ENDS
;	COMDAT ??_C@_0M@LHLIHEIP@?$DM?$DM?5ProcInfo@
CONST	SEGMENT
??_C@_0M@LHLIHEIP@?$DM?$DM?5ProcInfo@ DB '<< ProcInfo', 00H ; `string'
CONST	ENDS
;	COMDAT ??_C@_0BO@MOIJAHHG@ProcessInfo?0?5EnumProcesses?5?$CFs@
CONST	SEGMENT
??_C@_0BO@MOIJAHHG@ProcessInfo?0?5EnumProcesses?5?$CFs@ DB 'ProcessInfo, '
	DB	'EnumProcesses %s', 00H			; `string'
CONST	ENDS
;	COMDAT ??_C@_0EA@JFLIEPEA@?$DO?5?$CF?43d?0?5?$CF05u?0?5?$DMunknown?$DO?0?5?$DP?0?5?$DP?$DP?3@
CONST	SEGMENT
??_C@_0EA@JFLIEPEA@?$DO?5?$CF?43d?0?5?$CF05u?0?5?$DMunknown?$DO?0?5?$DP?0?5?$DP?$DP?3@ DB '>'
	DB	' %.3d, %05u, <unknown>, ?, ??:??:??, ?, ?, ?, ?, ?, ?, ?, ?, '
	DB	'?', 00H					; `string'
CONST	ENDS
;	COMDAT ??_C@_0CF@LGHCMJEF@ProcessInfo?0?5OpenProcess?$CIPID?5?$CFl@
CONST	SEGMENT
??_C@_0CF@LGHCMJEF@ProcessInfo?0?5OpenProcess?$CIPID?5?$CFl@ DB 'ProcessI'
	DB	'nfo, OpenProcess(PID %lu) %s', 00H		; `string'
CONST	ENDS
;	COMDAT ??_C@_0EJ@NBLNGMHL@?$DO?5?$CF?43d?0?5?$CF05u?0?5?$CFs?0?5?$CFu?0?5?$CF02d?3?$CF02d@
CONST	SEGMENT
??_C@_0EJ@NBLNGMHL@?$DO?5?$CF?43d?0?5?$CF05u?0?5?$CFs?0?5?$CFu?0?5?$CF02d?3?$CF02d@ DB '>'
	DB	' %.3d, %05u, %s, %u, %02d:%02d:%02d, %u, %u, %u, %u, %u, %u, '
	DB	'%u, %u, %u', 00H				; `string'
CONST	ENDS
;	COMDAT ??_C@_09EEKGDCPH@?$DMunknown?$DO@
CONST	SEGMENT
??_C@_09EEKGDCPH@?$DMunknown?$DO@ DB '<unknown>', 00H	; `string'
CONST	ENDS
;	COMDAT ??_C@_0OJ@OBBIANJK@?$DO?5?5?5?5?5?5ProcessID?0?5Process?5Name?0@
CONST	SEGMENT
??_C@_0OJ@OBBIANJK@?$DO?5?5?5?5?5?5ProcessID?0?5Process?5Name?0@ DB '>   '
	DB	'   ProcessID, Process Name, Handles, CPUTime, PagefileUsage, '
	DB	'PeakPagefileUsage, PageFaultCount, PeakWorkingSetSize, Workin'
	DB	'gSetSize, QuotaPeakPagedPoolUsage, QuotaPagedPoolUsage, Quota'
	DB	'PeakNonPagedPoolUsage, QuotaNonPagedPoolUsage', 00H ; `string'
CONST	ENDS
;	COMDAT ??_C@_0CP@FFOKNKOI@Processes?5Information?0?5Number?5o@
CONST	SEGMENT
??_C@_0CP@FFOKNKOI@Processes?5Information?0?5Number?5o@ DB 'Processes Inf'
	DB	'ormation, Number of processes: %u', 00H	; `string'
CONST	ENDS
;	COMDAT ??_C@_0BB@JFPIPLLP@?$DO?$DO?5ProcInfo?5?$CI?$CFp?$CJ@
CONST	SEGMENT
??_C@_0BB@JFPIPLLP@?$DO?$DO?5ProcInfo?5?$CI?$CFp?$CJ@ DB '>> ProcInfo (%p'
	DB	')', 00H					; `string'
CONST	ENDS
;	COMDAT ??_C@_0L@FFDNLHNK@?$DM?$DM?5ThrdUSB@
CONST	SEGMENT
??_C@_0L@FFDNLHNK@?$DM?$DM?5ThrdUSB@ DB '<< ThrdUSB', 00H ; `string'
CONST	ENDS
;	COMDAT ??_C@_0BP@GBFCDAOJ@?$DM?$DM?5ThrdUSB?0?5New?5USB?5class?5null@
CONST	SEGMENT
??_C@_0BP@GBFCDAOJ@?$DM?$DM?5ThrdUSB?0?5New?5USB?5class?5null@ DB '<< Thr'
	DB	'dUSB, New USB class null', 00H		; `string'
CONST	ENDS
;	COMDAT ??_C@_0BA@PGPPJDLP@?$DO?$DO?5ThrdUSB?5?$CI?$CFp?$CJ@
CONST	SEGMENT
??_C@_0BA@PGPPJDLP@?$DO?$DO?5ThrdUSB?5?$CI?$CFp?$CJ@ DB '>> ThrdUSB (%p)', 00H ; `string'
CONST	ENDS
;	COMDAT ??_C@_0L@BACOFOKN@?$DM?$DM?5ThrdMsg@
CONST	SEGMENT
??_C@_0L@BACOFOKN@?$DM?$DM?5ThrdMsg@ DB '<< ThrdMsg', 00H ; `string'
CONST	ENDS
;	COMDAT ??_C@_0BJ@JFGPBNIN@?$DM?$DM?5ThrdMsg?0?5CreateWnd?5?$CFs@
CONST	SEGMENT
??_C@_0BJ@JFGPBNIN@?$DM?$DM?5ThrdMsg?0?5CreateWnd?5?$CFs@ DB '<< ThrdMsg,'
	DB	' CreateWnd %s', 00H				; `string'
CONST	ENDS
;	COMDAT ??_C@_0BG@GPCBDAOG@?$DM?$DM?5ThrdMsg?0?5RegCls?5?$CFs@
CONST	SEGMENT
??_C@_0BG@GPCBDAOG@?$DM?$DM?5ThrdMsg?0?5RegCls?5?$CFs@ DB '<< ThrdMsg, Re'
	DB	'gCls %s', 00H				; `string'
CONST	ENDS
;	COMDAT ??_C@_0BA@JDKJFHEL@SysStatusWClass@
CONST	SEGMENT
??_C@_0BA@JDKJFHEL@SysStatusWClass@ DB 'SysStatusWClass', 00H ; `string'
CONST	ENDS
;	COMDAT ??_C@_0L@EMLHDHFB@?$DO?$DO?5ThrdMsg@
CONST	SEGMENT
??_C@_0L@EMLHDHFB@?$DO?$DO?5ThrdMsg@ DB '>> ThrdMsg', 00H ; `string'
CONST	ENDS
;	COMDAT ??_C@_0BF@CDGGKCEM@Quick?5Exit?5Requested@
CONST	SEGMENT
??_C@_0BF@CDGGKCEM@Quick?5Exit?5Requested@ DB 'Quick Exit Requested', 00H ; `string'
CONST	ENDS
;	COMDAT ??_C@_0DC@MBHJGPCP@Would?5you?5like?5to?5quickly?5close@
CONST	SEGMENT
??_C@_0DC@MBHJGPCP@Would?5you?5like?5to?5quickly?5close@ DB 'Would you li'
	DB	'ke to quickly close this application?', 00H	; `string'
CONST	ENDS
;	COMDAT ??_C@_0P@BIPEBJDO@Exit?5Requested@
CONST	SEGMENT
??_C@_0P@BIPEBJDO@Exit?5Requested@ DB 'Exit Requested', 00H ; `string'
CONST	ENDS
;	COMDAT ??_C@_0CK@KDAHPGC@Would?5you?5like?5to?5close?5this?5ap@
CONST	SEGMENT
??_C@_0CK@KDAHPGC@Would?5you?5like?5to?5close?5this?5ap@ DB 'Would you li'
	DB	'ke to close this application?', 00H		; `string'
CONST	ENDS
;	COMDAT ??_C@_0EN@GBOFOCLM@Handle?5CHANGE?5?$DMHandle?5?$CFp?0?5NameO@
CONST	SEGMENT
??_C@_0EN@GBOFOCLM@Handle?5CHANGE?5?$DMHandle?5?$CFp?0?5NameO@ DB 'Handle'
	DB	' CHANGE <Handle %p, NameOffset %d, Name %s, DevNotify %p, Evn'
	DB	'tGUID %s>', 00H				; `string'
CONST	ENDS
;	COMDAT ??_C@_0CD@BNLENJBO@Net?5CHANGE?5?$DMResource?5?$CFp?0?5Flags?5@
CONST	SEGMENT
??_C@_0CD@BNLENJBO@Net?5CHANGE?5?$DMResource?5?$CFp?0?5Flags?5@ DB 'Net C'
	DB	'HANGE <Resource %p, Flags %p>', 00H		; `string'
CONST	ENDS
;	COMDAT ??_C@_0BB@LPBNHOKC@Port?5CHANGE?5?$DM?$CFs?$DO@
CONST	SEGMENT
??_C@_0BB@LPBNHOKC@Port?5CHANGE?5?$DM?$CFs?$DO@ DB 'Port CHANGE <%s>', 00H ; `string'
CONST	ENDS
;	COMDAT ??_C@_0BE@FJDGCJID@DevNode?5CHANGE?5?$DM?$CFp?$DO@
CONST	SEGMENT
??_C@_0BE@FJDGCJID@DevNode?5CHANGE?5?$DM?$CFp?$DO@ DB 'DevNode CHANGE <%p'
	DB	'>', 00H					; `string'
CONST	ENDS
;	COMDAT ??_C@_0CA@FNGBCCOE@Oem?5CHANGE?5?$DMId?5?$CFp?0?5SuppFunc?5?$CFp?$DO@
CONST	SEGMENT
??_C@_0CA@FNGBCCOE@Oem?5CHANGE?5?$DMId?5?$CFp?0?5SuppFunc?5?$CFp?$DO@ DB 'O'
	DB	'em CHANGE <Id %p, SuppFunc %p>', 00H	; `string'
CONST	ENDS
;	COMDAT ??_C@_0CG@OJJDNJOH@Volume?5CHANGE?5?$DMFlags?5?$CFp?0?5UnitMa@
CONST	SEGMENT
??_C@_0CG@OJJDNJOH@Volume?5CHANGE?5?$DMFlags?5?$CFp?0?5UnitMa@ DB 'Volume'
	DB	' CHANGE <Flags %p, UnitMask %p>', 00H	; `string'
CONST	ENDS
;	COMDAT ??_C@_0M@ENJCMGFB@USB?5?5REMOVE@
CONST	SEGMENT
??_C@_0M@ENJCMGFB@USB?5?5REMOVE@ DB 'USB  REMOVE', 00H	; `string'
CONST	ENDS
;	COMDAT ??_C@_0M@FPDKOEDO@USB?5ARRIVAL@
CONST	SEGMENT
??_C@_0M@FPDKOEDO@USB?5ARRIVAL@ DB 'USB ARRIVAL', 00H	; `string'
CONST	ENDS
;	COMDAT ??_C@_0BM@HKOFJDPP@Usb?5CHANGE?5Dev?5?$DM?$CFs?5GUID?5?$CFs?$DO@
CONST	SEGMENT
??_C@_0BM@HKOFJDPP@Usb?5CHANGE?5Dev?5?$DM?$CFs?5GUID?5?$CFs?$DO@ DB 'Usb '
	DB	'CHANGE Dev <%s GUID %s>', 00H		; `string'
CONST	ENDS
;	COMDAT ??_C@_0BP@PNOLPDFB@Device?5?$CFs?0?5Size?5?$CFu?0?5DevType?5?$CFu@
CONST	SEGMENT
??_C@_0BP@PNOLPDFB@Device?5?$CFs?0?5Size?5?$CFu?0?5DevType?5?$CFu@ DB 'De'
	DB	'vice %s, Size %u, DevType %u', 00H		; `string'
CONST	ENDS
;	COMDAT ??_C@_09BCLHCEGD@?$CCRemoved?$CC@
CONST	SEGMENT
??_C@_09BCLHCEGD@?$CCRemoved?$CC@ DB '"Removed"', 00H	; `string'
CONST	ENDS
;	COMDAT ??_C@_0BC@MCANMMCL@?$CCRemoval?5Pending?$CC@
CONST	SEGMENT
??_C@_0BC@MCANMMCL@?$CCRemoval?5Pending?$CC@ DB '"Removal Pending"', 00H ; `string'
CONST	ENDS
;	COMDAT ??_C@_0BC@ENLMBDFJ@?$CCRemoval?5Aborted?$CC@
CONST	SEGMENT
??_C@_0BC@ENLMBDFJ@?$CCRemoval?5Aborted?$CC@ DB '"Removal Aborted"', 00H ; `string'
CONST	ENDS
;	COMDAT ??_C@_0BC@MMAEKGNO@?$CCRemoval?5Request?$CC@
CONST	SEGMENT
??_C@_0BC@MMAEKGNO@?$CCRemoval?5Request?$CC@ DB '"Removal Request"', 00H ; `string'
CONST	ENDS
;	COMDAT ??_C@_09LGELGNNP@?$CCArrived?$CC@
CONST	SEGMENT
??_C@_09LGELGNNP@?$CCArrived?$CC@ DB '"Arrived"', 00H	; `string'
CONST	ENDS
;	COMDAT ??_C@_03BBKEAIF@?$DP?$DP?$DP@
CONST	SEGMENT
??_C@_03BBKEAIF@?$DP?$DP?$DP@ DB '???', 00H		; `string'
CONST	ENDS
;	COMDAT ??_C@_0CF@OJAKBKAK@User?5Defined?5?$CFs?0?5Size?5?$CFu?0?5DevTy@
CONST	SEGMENT
??_C@_0CF@OJAKBKAK@User?5Defined?5?$CFs?0?5Size?5?$CFu?0?5DevTy@ DB 'User'
	DB	' Defined %s, Size %u, DevType %u', 00H	; `string'
CONST	ENDS
;	COMDAT ??_C@_09KECABMHK@SysStatus@
CONST	SEGMENT
??_C@_09KECABMHK@SysStatus@ DB 'SysStatus', 00H		; `string'
CONST	ENDS
;	COMDAT ??_C@_0M@LLINGCEN@End?5Session@
CONST	SEGMENT
??_C@_0M@LLINGCEN@End?5Session@ DB 'End Session', 00H	; `string'
CONST	ENDS
;	COMDAT ??_C@_0BK@GJJBBOEE@Session?5Closure?5Requested@
CONST	SEGMENT
??_C@_0BK@GJJBBOEE@Session?5Closure?5Requested@ DB 'Session Closure Reque'
	DB	'sted', 00H					; `string'
CONST	ENDS
;	COMDAT ??_C@_0GE@BJAJHKCK@?9?9?5WndProcMsg?0?5Wnd?5?$CFp?0?5Msg?50x?$CF?4@
CONST	SEGMENT
??_C@_0GE@BJAJHKCK@?9?9?5WndProcMsg?0?5Wnd?5?$CFp?0?5Msg?50x?$CF?4@ DB '-'
	DB	'- WndProcMsg, Wnd %p, Msg 0x%.4X, WPrm 0x%.8X HI 0x%.4X LO 0x'
	DB	'%.4X, LPrm 0x%.8X HI 0x%.4X LO 0x%.4X', 00H	; `string'
CONST	ENDS
;	COMDAT ??_C@_0BA@OFOICJDM@?$DM?$DM?5EndPendgThrd@
CONST	SEGMENT
??_C@_0BA@OFOICJDM@?$DM?$DM?5EndPendgThrd@ DB '<< EndPendgThrd', 00H ; `string'
CONST	ENDS
;	COMDAT ??_C@_0BH@FCCILLCE@RtlFreeUserThreadStack@
CONST	SEGMENT
??_C@_0BH@FCCILLCE@RtlFreeUserThreadStack@ DB 'RtlFreeUserThreadStack', 00H ; `string'
CONST	ENDS
;	COMDAT ??_C@_1BE@GJOFHIHD@?$AAn?$AAt?$AAd?$AAl?$AAl?$AA?4?$AAd?$AAl?$AAl@
CONST	SEGMENT
??_C@_1BE@GJOFHIHD@?$AAn?$AAt?$AAd?$AAl?$AAl?$AA?4?$AAd?$AAl?$AAl@ DB 'n', 00H
	DB	't', 00H, 'd', 00H, 'l', 00H, 'l', 00H, '.', 00H, 'd', 00H, 'l'
	DB	00H, 'l', 00H, 00H, 00H			; `string'
CONST	ENDS
;	COMDAT ??_C@_0BJ@JJOKMIHG@?$DO?$DO?5EndPendgThrd?0?5Hndl?5?$CFp@
CONST	SEGMENT
??_C@_0BJ@JJOKMIHG@?$DO?$DO?5EndPendgThrd?0?5Hndl?5?$CFp@ DB '>> EndPendg'
	DB	'Thrd, Hndl %p', 00H				; `string'
CONST	ENDS
;	COMDAT ??_C@_0BI@EBHNNPDK@?$DM?$DM?5StartThrd?0?5ret?5False@
CONST	SEGMENT
??_C@_0BI@EBHNNPDK@?$DM?$DM?5StartThrd?0?5ret?5False@ DB '<< StartThrd, r'
	DB	'et False', 00H				; `string'
CONST	ENDS
;	COMDAT ??_C@_0BH@BDJONOMH@?$DM?$DM?5StartThrd?0?5ret?5True@
CONST	SEGMENT
??_C@_0BH@BDJONOMH@?$DM?$DM?5StartThrd?0?5ret?5True@ DB '<< StartThrd, re'
	DB	't True', 00H				; `string'
CONST	ENDS
;	COMDAT ??_C@_0BB@POKBMEDO@?$DM?$DM?5StartThrd?0?5?$CFp@
CONST	SEGMENT
??_C@_0BB@POKBMEDO@?$DM?$DM?5StartThrd?0?5?$CFp@ DB '<< StartThrd, %p', 00H ; `string'
CONST	ENDS
;	COMDAT ??_C@_0CB@LFOPNEOO@?9?9?5StartThrd?0?5No?5?$CFs?5thrd?5create@
CONST	SEGMENT
??_C@_0CB@LFOPNEOO@?9?9?5StartThrd?0?5No?5?$CFs?5thrd?5create@ DB '-- Sta'
	DB	'rtThrd, No %s thrd created', 00H		; `string'
CONST	ENDS
;	COMDAT ??_C@_0BP@FDECIAPH@?9?9?5StartThrd?0?5?$CFs?5Id?5?$CFu?0?5Hnd?5?$CFp@
CONST	SEGMENT
??_C@_0BP@FDECIAPH@?9?9?5StartThrd?0?5?$CFs?5Id?5?$CFu?0?5Hnd?5?$CFp@ DB '-'
	DB	'- StartThrd, %s Id %u, Hnd %p', 00H		; `string'
CONST	ENDS
;	COMDAT ??_C@_0DN@OLKMHNED@?$DO?$DO?5StartThrd?0?5Name?5?$CFs?0?5Func?5?$CFp?0@
CONST	SEGMENT
??_C@_0DN@OLKMHNED@?$DO?$DO?5StartThrd?0?5Name?5?$CFs?0?5Func?5?$CFp?0@ DB '>'
	DB	'> StartThrd, Name %s, Func %p, Dat %p, Timeout %u, pHndl %p', 00H ; `string'
CONST	ENDS
;	COMDAT ??_C@_0DA@DAMKDCLP@?9?9?5SetThrdName?0?5Tp?5?$CFp?0?5Name?5?$CFs?0@
CONST	SEGMENT
??_C@_0DA@DAMKDCLP@?9?9?5SetThrdName?0?5Tp?5?$CFp?0?5Name?5?$CFs?0@ DB '-'
	DB	'- SetThrdName, Tp %p, Name %s, Id %u, Flags %p', 00H ; `string'
CONST	ENDS
;	COMDAT ??_C@_0BN@GOPGHHGJ@?$CF02llu?3?$CF02llu?3?$CF02llu?0?5?$CF?43f?5s@
CONST	SEGMENT
??_C@_0BN@GOPGHHGJ@?$CF02llu?3?$CF02llu?3?$CF02llu?0?5?$CF?43f?5s@ DB '%0'
	DB	'2llu:%02llu:%02llu, %.3f s', 00H		; `string'
CONST	ENDS
;	COMDAT ??_C@_0CB@KLGENLFB@?$CFs?0?5?$CF02llu?3?$CF02llu?3?$CF02llu?0?5?$CF?43f?5@
CONST	SEGMENT
??_C@_0CB@KLGENLFB@?$CFs?0?5?$CF02llu?3?$CF02llu?3?$CF02llu?0?5?$CF?43f?5@ DB '%'
	DB	's, %02llu:%02llu:%02llu, %.3f s', 00H	; `string'
CONST	ENDS
;	COMDAT ??_C@_0GA@GFOAHNCA@AppUnhndldExcptFltr?0?5Attempt?5to@
CONST	SEGMENT
??_C@_0GA@GFOAHNCA@AppUnhndldExcptFltr?0?5Attempt?5to@ DB 'AppUnhndldExcp'
	DB	'tFltr, Attempt to create MiniDump file before exit proc due t'
	DB	'o unhndld exception.', 00H			; `string'
CONST	ENDS
;	COMDAT ??_C@_0DD@IPHAABKL@CreateMiniDump?0?5Failed?5to?5creat@
CONST	SEGMENT
??_C@_0DD@IPHAABKL@CreateMiniDump?0?5Failed?5to?5creat@ DB 'CreateMiniDum'
	DB	'p, Failed to create MiniDump file. %s', 00H	; `string'
CONST	ENDS
;	COMDAT ??_C@_0DE@KOKEPHBJ@CreateMiniDump?0?5Created?5MiniDum@
CONST	SEGMENT
??_C@_0DE@KOKEPHBJ@CreateMiniDump?0?5Created?5MiniDum@ DB 'CreateMiniDump'
	DB	', Created MiniDump file located at %s', 00H	; `string'
CONST	ENDS
;	COMDAT ??_C@_0CF@MLLEOGPJ@?$CFs_?$CF?44d?9?$CF?42d?9?$CF?42d_?$CF?42d?9?$CF?42d?9?$CF?42@
CONST	SEGMENT
??_C@_0CF@MLLEOGPJ@?$CFs_?$CF?44d?9?$CF?42d?9?$CF?42d_?$CF?42d?9?$CF?42d?9?$CF?42@ DB '%'
	DB	's_%.4d-%.2d-%.2d_%.2d-%.2d-%.2d.dmp', 00H	; `string'
CONST	ENDS
;	COMDAT ??_C@_0BM@EBDAABIF@SetUnhandledExceptionFilter@
CONST	SEGMENT
??_C@_0BM@EBDAABIF@SetUnhandledExceptionFilter@ DB 'SetUnhandledException'
	DB	'Filter', 00H				; `string'
CONST	ENDS
;	COMDAT ??_C@_0N@MDJJJHMB@kernel32?4dll@
CONST	SEGMENT
??_C@_0N@MDJJJHMB@kernel32?4dll@ DB 'kernel32.dll', 00H	; `string'
CONST	ENDS
;	COMDAT ??_C@_0FI@PPGABHKA@?9?9?5Prevented?5attempt?5to?5set?5unh@
CONST	SEGMENT
??_C@_0FI@PPGABHKA@?9?9?5Prevented?5attempt?5to?5set?5unh@ DB '-- Prevent'
	DB	'ed attempt to set unhandled exception filter. lpTopLevelExcep'
	DB	'tionFilter: 0x%p', 00H			; `string'
CONST	ENDS
;	COMDAT ??_C@_04CFJMJGDJ@?$CF?42X@
CONST	SEGMENT
??_C@_04CFJMJGDJ@?$CF?42X@ DB '%.2X', 00H		; `string'
CONST	ENDS
;	COMDAT ??_C@_0BK@LNKKODAK@?9?9?5New?5DeviceName?5nullptr@
CONST	SEGMENT
??_C@_0BK@LNKKODAK@?9?9?5New?5DeviceName?5nullptr@ DB '-- New DeviceName '
	DB	'nullptr', 00H				; `string'
CONST	ENDS
;	COMDAT ??_C@_0BM@GCCDOOIB@?$CFs?5?$FLVID?3?$CFs?5PID?3?$CFs?5SN?3?$CFs?$FN?5?$CFs@
CONST	SEGMENT
??_C@_0BM@GCCDOOIB@?$CFs?5?$FLVID?3?$CFs?5PID?3?$CFs?5SN?3?$CFs?$FN?5?$CFs@ DB '%'
	DB	's [VID:%s PID:%s SN:%s] %s', 00H		; `string'
CONST	ENDS
;	COMDAT ??_C@_05EIGEDBOH@?5Msg?5@
CONST	SEGMENT
??_C@_05EIGEDBOH@?5Msg?5@ DB ' Msg ', 00H		; `string'
CONST	ENDS
;	COMDAT ??_C@_04KKAJCPFA@Err?5@
CONST	SEGMENT
??_C@_04KKAJCPFA@Err?5@ DB 'Err ', 00H			; `string'
CONST	ENDS
;	COMDAT ??_C@_0L@MNPEAJCA@netmsg?4dll@
CONST	SEGMENT
??_C@_0L@MNPEAJCA@netmsg?4dll@ DB 'netmsg.dll', 00H	; `string'
CONST	ENDS
;	COMDAT ??_C@_0BA@GCOGCGED@?$DM?$DM?5ChkLogFileSz@
CONST	SEGMENT
??_C@_0BA@GCOGCGED@?$DM?$DM?5ChkLogFileSz@ DB '<< ChkLogFileSz', 00H ; `string'
CONST	ENDS
;	COMDAT ??_C@_0CE@EHOHNGJO@?9?9?5ChkLogFileSz?0?5Remaining?5?$CFs?5?9@
CONST	SEGMENT
??_C@_0CE@EHOHNGJO@?9?9?5ChkLogFileSz?0?5Remaining?5?$CFs?5?9@ DB '-- Chk'
	DB	'LogFileSz, Remaining %s -> %s', 00H		; `string'
CONST	ENDS
;	COMDAT ??_C@_0L@HLBMFDAN@?$CFs?4000?4log@
CONST	SEGMENT
??_C@_0L@HLBMFDAN@?$CFs?4000?4log@ DB '%s.000.log', 00H	; `string'
CONST	ENDS
;	COMDAT ??_C@_0CD@KIGAJNDH@?9?9?5ChkLogFileSz?0?5Renaming?5?$CFs?5?9?$DO@
CONST	SEGMENT
??_C@_0CD@KIGAJNDH@?9?9?5ChkLogFileSz?0?5Renaming?5?$CFs?5?9?$DO@ DB '-- '
	DB	'ChkLogFileSz, Renaming %s -> %s', 00H	; `string'
CONST	ENDS
;	COMDAT ??_C@_0CL@JDMPMEKE@?9?9?5ChkLogFileSz?0?5Removing?5?$CFs?5?9?5@
CONST	SEGMENT
??_C@_0CL@JDMPMEKE@?9?9?5ChkLogFileSz?0?5Removing?5?$CFs?5?9?5@ DB '-- Ch'
	DB	'kLogFileSz, Removing %s - oldest file', 00H	; `string'
CONST	ENDS
;	COMDAT ??_C@_0CD@DNFINAJK@?9?9?5ChkLogFileSz?0?5Last?5file?5fnd?3@
CONST	SEGMENT
??_C@_0CD@DNFINAJK@?9?9?5ChkLogFileSz?0?5Last?5file?5fnd?3@ DB '-- ChkLog'
	DB	'FileSz, Last file fnd: %s', 00H		; `string'
CONST	ENDS
;	COMDAT ??_C@_0CA@MGCLJDML@?9?9?5ChkLogFileSz?0?5Trying?5opng?5?$CFs@
CONST	SEGMENT
??_C@_0CA@MGCLJDML@?9?9?5ChkLogFileSz?0?5Trying?5opng?5?$CFs@ DB '-- ChkL'
	DB	'ogFileSz, Trying opng %s', 00H		; `string'
CONST	ENDS
;	COMDAT ??_C@_0M@HKKOHPEB@?$CFs?4?$CF?43d?4log@
CONST	SEGMENT
??_C@_0M@HKKOHPEB@?$CFs?4?$CF?43d?4log@ DB '%s.%.3d.log', 00H ; `string'
CONST	ENDS
;	COMDAT ??_C@_0BK@HOHICOFN@?9?9?5ChkLogFileSz?0?5?$CFs?5Sz?5?$CFu@
CONST	SEGMENT
??_C@_0BK@HOHICOFN@?9?9?5ChkLogFileSz?0?5?$CFs?5Sz?5?$CFu@ DB '-- ChkLogF'
	DB	'ileSz, %s Sz %u', 00H			; `string'
CONST	ENDS
;	COMDAT ??_C@_0BJ@LGJHGBPF@?9?9?5ChkLogFileSz?0?5Opng?5?$CFs@
CONST	SEGMENT
??_C@_0BJ@LGJHGBPF@?9?9?5ChkLogFileSz?0?5Opng?5?$CFs@ DB '-- ChkLogFileSz'
	DB	', Opng %s', 00H				; `string'
CONST	ENDS
;	COMDAT ??_C@_0BE@GIEOINGB@?$DO?$DO?5ChkLogFileSz?0?5?$CFu@
CONST	SEGMENT
??_C@_0BE@GIEOINGB@?$DO?$DO?5ChkLogFileSz?0?5?$CFu@ DB '>> ChkLogFileSz, '
	DB	'%u', 00H					; `string'
CONST	ENDS
;	COMDAT ??_C@_0BH@NMAKEFMG@TID?5?$CF?45lu?5ID?5?$CF?45i?5?$CFs?$AN?6@
CONST	SEGMENT
??_C@_0BH@NMAKEFMG@TID?5?$CF?45lu?5ID?5?$CF?45i?5?$CFs?$AN?6@ DB 'TID %.5'
	DB	'lu ID %.5i %s', 0dH, 0aH, 00H		; `string'
CONST	ENDS
;	COMDAT ??_C@_06BEJGOBHG@?$CFs?4log@
CONST	SEGMENT
??_C@_06BEJGOBHG@?$CFs?4log@ DB '%s.log', 00H		; `string'
CONST	ENDS
;	COMDAT ??_C@_05OLKONLEL@?7?$CFs?$AN?6@
CONST	SEGMENT
??_C@_05OLKONLEL@?7?$CFs?$AN?6@ DB 09H, '%s', 0dH, 0aH, 00H ; `string'
CONST	ENDS
;	COMDAT ??_C@_0EH@MFNKNCE@?$AN?6?$CF?44d?9?$CF?42d?9?$CF?42d?5?$CF?42d?3?$CF?42d?3?$CF?42d@
CONST	SEGMENT
??_C@_0EH@MFNKNCE@?$AN?6?$CF?44d?9?$CF?42d?9?$CF?42d?5?$CF?42d?3?$CF?42d?3?$CF?42d@ DB 0dH
	DB	0aH, '%.4d-%.2d-%.2d %.2d:%.2d:%.2d.%.3d PID %.5lu TID %.5lu I'
	DB	'D %.5i', 0dH, 0aH, '%s', 0dH, 0aH, 00H	; `string'
CONST	ENDS
;	COMDAT ??_C@_0O@FHDHJHFN@SysStatus_Log@
CONST	SEGMENT
??_C@_0O@FHDHJHFN@SysStatus_Log@ DB 'SysStatus_Log', 00H ; `string'
CONST	ENDS
;	COMDAT ??_C@_09BJLKJKJF@?$CFs?4?$CFs_old@
CONST	SEGMENT
??_C@_09BJLKJKJF@?$CFs?4?$CFs_old@ DB '%s.%s_old', 00H	; `string'
CONST	ENDS
;	COMDAT ??_C@_09OGNGBBJO@?$CFs?4?$CFs?4log@
CONST	SEGMENT
??_C@_09OGNGBBJO@?$CFs?4?$CFs?4log@ DB '%s.%s.log', 00H	; `string'
CONST	ENDS
;	COMDAT ??_C@_0CP@CLGPPHLF@?$CF?44d?9?$CF?42d?9?$CF?42d?5?$CF?42d?3?$CF?42d?3?$CF?42d?4?$CF@
CONST	SEGMENT
??_C@_0CP@CLGPPHLF@?$CF?44d?9?$CF?42d?9?$CF?42d?5?$CF?42d?3?$CF?42d?3?$CF?42d?4?$CF@ DB '%'
	DB	'.4d-%.2d-%.2d %.2d:%.2d:%.2d.%.3d PID %.5u %s', 00H ; `string'
CONST	ENDS
;	COMDAT ??_C@_03NMGDDAFL@wmi@
CONST	SEGMENT
??_C@_03NMGDDAFL@wmi@ DB 'wmi', 00H			; `string'
CONST	ENDS
;	COMDAT ??_C@_03GLILPAEP@wnd@
CONST	SEGMENT
??_C@_03GLILPAEP@wnd@ DB 'wnd', 00H			; `string'
CONST	ENDS
;	COMDAT ??_C@_03LBAKCJJ@dbg@
CONST	SEGMENT
??_C@_03LBAKCJJ@dbg@ DB 'dbg', 00H			; `string'
CONST	ENDS
;	COMDAT ??_C@_0BA@GBPLBEEL@SysStatus_Trace@
CONST	SEGMENT
??_C@_0BA@GBPLBEEL@SysStatus_Trace@ DB 'SysStatus_Trace', 00H ; `string'
CONST	ENDS
;	COMDAT ??_C@_02BBAHNLBA@?$CFp@
CONST	SEGMENT
??_C@_02BBAHNLBA@?$CFp@ DB '%p', 00H			; `string'
CONST	ENDS
;	COMDAT ??_C@_09CLAHNHIH@?$DM?$DM?5MonIPs@
CONST	SEGMENT
??_C@_09CLAHNHIH@?$DM?$DM?5MonIPs@ DB '<< MonIPs', 00H	; `string'
CONST	ENDS
;	COMDAT ??_C@_09BAECPDM@?$DO?$DO?5MonIPs@
CONST	SEGMENT
??_C@_09BAECPDM@?$DO?$DO?5MonIPs@ DB '>> MonIPs', 00H	; `string'
CONST	ENDS
;	COMDAT ??_C@_0BD@HAJJDCII@Win32_VoltageProbe@
CONST	SEGMENT
??_C@_0BD@HAJJDCII@Win32_VoltageProbe@ DB 'Win32_VoltageProbe', 00H ; `string'
CONST	ENDS
;	COMDAT ??_C@_0BH@HMHAIEPK@Win32_TemperatureProbe@
CONST	SEGMENT
??_C@_0BH@HMHAIEPK@Win32_TemperatureProbe@ DB 'Win32_TemperatureProbe', 00H ; `string'
CONST	ENDS
;	COMDAT ??_C@_0L@MPHEPFAH@SystemName@
CONST	SEGMENT
??_C@_0L@MPHEPFAH@SystemName@ DB 'SystemName', 00H	; `string'
CONST	ENDS
;	COMDAT ??_C@_0BI@LFKNNEKA@SystemCreationClassName@
CONST	SEGMENT
??_C@_0BI@LFKNNEKA@SystemCreationClassName@ DB 'SystemCreationClassName', 00H ; `string'
CONST	ENDS
;	COMDAT ??_C@_0BA@LLOCDJF@MaxBatteryError@
CONST	SEGMENT
??_C@_0BA@LLOCDJF@MaxBatteryError@ DB 'MaxBatteryError', 00H ; `string'
CONST	ENDS
;	COMDAT ??_C@_0BD@EBMPMBCC@CapacityMultiplier@
CONST	SEGMENT
??_C@_0BD@EBMPMBCC@CapacityMultiplier@ DB 'CapacityMultiplier', 00H ; `string'
CONST	ENDS
;	COMDAT ??_C@_0BA@EMGHNHBI@ManufactureDate@
CONST	SEGMENT
??_C@_0BA@EMGHNHBI@ManufactureDate@ DB 'ManufactureDate', 00H ; `string'
CONST	ENDS
;	COMDAT ??_C@_0BG@GEFEDJOA@Win32_PortableBattery@
CONST	SEGMENT
??_C@_0BG@GEFEDJOA@Win32_PortableBattery@ DB 'Win32_PortableBattery', 00H ; `string'
CONST	ENDS
;	COMDAT ??_C@_08JLKOPNJP@IsLinear@
CONST	SEGMENT
??_C@_08JLKOPNJP@IsLinear@ DB 'IsLinear', 00H		; `string'
CONST	ENDS
;	COMDAT ??_C@_0M@NIGABCBB@MinReadable@
CONST	SEGMENT
??_C@_0M@NIGABCBB@MinReadable@ DB 'MinReadable', 00H	; `string'
CONST	ENDS
;	COMDAT ??_C@_0M@EIBDACPL@MaxReadable@
CONST	SEGMENT
??_C@_0M@EIBDACPL@MaxReadable@ DB 'MaxReadable', 00H	; `string'
CONST	ENDS
;	COMDAT ??_C@_0BK@CCJKGBMI@UpperThresholdNonCritical@
CONST	SEGMENT
??_C@_0BK@CCJKGBMI@UpperThresholdNonCritical@ DB 'UpperThresholdNonCritic'
	DB	'al', 00H					; `string'
CONST	ENDS
;	COMDAT ??_C@_0BE@HGEJIDLL@UpperThresholdFatal@
CONST	SEGMENT
??_C@_0BE@HGEJIDLL@UpperThresholdFatal@ DB 'UpperThresholdFatal', 00H ; `string'
CONST	ENDS
;	COMDAT ??_C@_0BH@FKDKGMLL@UpperThresholdCritical@
CONST	SEGMENT
??_C@_0BH@FKDKGMLL@UpperThresholdCritical@ DB 'UpperThresholdCritical', 00H ; `string'
CONST	ENDS
;	COMDAT ??_C@_0BK@LBKIMOJN@LowerThresholdNonCritical@
CONST	SEGMENT
??_C@_0BK@LBKIMOJN@LowerThresholdNonCritical@ DB 'LowerThresholdNonCritic'
	DB	'al', 00H					; `string'
CONST	ENDS
;	COMDAT ??_C@_0BE@NPMAGCMK@LowerThresholdFatal@
CONST	SEGMENT
??_C@_0BE@NPMAGCMK@LowerThresholdFatal@ DB 'LowerThresholdFatal', 00H ; `string'
CONST	ENDS
;	COMDAT ??_C@_0BH@NMAIJHFM@LowerThresholdCritical@
CONST	SEGMENT
??_C@_0BH@NMAIJHFM@LowerThresholdCritical@ DB 'LowerThresholdCritical', 00H ; `string'
CONST	ENDS
;	COMDAT ??_C@_09FBKECFPC@NormalMin@
CONST	SEGMENT
??_C@_09FBKECFPC@NormalMin@ DB 'NormalMin', 00H		; `string'
CONST	ENDS
;	COMDAT ??_C@_09EDCPMBJN@NormalMax@
CONST	SEGMENT
??_C@_09EDCPMBJN@NormalMax@ DB 'NormalMax', 00H		; `string'
CONST	ENDS
;	COMDAT ??_C@_0P@OAFFNBPO@NominalReading@
CONST	SEGMENT
??_C@_0P@OAFFNBPO@NominalReading@ DB 'NominalReading', 00H ; `string'
CONST	ENDS
;	COMDAT ??_C@_09BKMALBOE@Tolerance@
CONST	SEGMENT
??_C@_09BKMALBOE@Tolerance@ DB 'Tolerance', 00H		; `string'
CONST	ENDS
;	COMDAT ??_C@_08NLCOAFEI@Accuracy@
CONST	SEGMENT
??_C@_08NLCOAFEI@Accuracy@ DB 'Accuracy', 00H		; `string'
CONST	ENDS
;	COMDAT ??_C@_0P@IDBBEDLI@CurrentReading@
CONST	SEGMENT
??_C@_0P@IDBBEDLI@CurrentReading@ DB 'CurrentReading', 00H ; `string'
CONST	ENDS
;	COMDAT ??_C@_0BD@ENAKGAAL@Win32_CurrentProbe@
CONST	SEGMENT
??_C@_0BD@ENAKGAAL@Win32_CurrentProbe@ DB 'Win32_CurrentProbe', 00H ; `string'
CONST	ENDS
;	COMDAT ??_C@_0N@JBKHOEPE@SystemUpTime@
CONST	SEGMENT
??_C@_0N@JBKHOEPE@SystemUpTime@ DB 'SystemUpTime', 00H	; `string'
CONST	ENDS
;	COMDAT ??_C@_0BC@HMBPBBJB@SystemCallsPerSec@
CONST	SEGMENT
??_C@_0BC@HMBPBBJB@SystemCallsPerSec@ DB 'SystemCallsPerSec', 00H ; `string'
CONST	ENDS
;	COMDAT ??_C@_0BF@NPGOAGED@ProcessorQueueLength@
CONST	SEGMENT
??_C@_0BF@NPGOAGED@ProcessorQueueLength@ DB 'ProcessorQueueLength', 00H ; `string'
CONST	ENDS
;	COMDAT ??_C@_0BK@NGGOKLMO@PercentRegistryQuotaInUse@
CONST	SEGMENT
??_C@_0BK@NGGOKLMO@PercentRegistryQuotaInUse@ DB 'PercentRegistryQuotaInU'
	DB	'se', 00H					; `string'
CONST	ENDS
;	COMDAT ??_C@_0BJ@PHDBHNCO@FloatingEmulationsPerSec@
CONST	SEGMENT
??_C@_0BJ@PHDBHNCO@FloatingEmulationsPerSec@ DB 'FloatingEmulationsPerSec'
	DB	00H						; `string'
CONST	ENDS
;	COMDAT ??_C@_0BF@LGMPDKBA@FileWriteBytesPerSec@
CONST	SEGMENT
??_C@_0BF@LGMPDKBA@FileWriteBytesPerSec@ DB 'FileWriteBytesPerSec', 00H ; `string'
CONST	ENDS
;	COMDAT ??_C@_0BE@NKKLPLAB@FileReadBytesPerSec@
CONST	SEGMENT
??_C@_0BE@NKKLPLAB@FileReadBytesPerSec@ DB 'FileReadBytesPerSec', 00H ; `string'
CONST	ENDS
;	COMDAT ??_C@_0BM@PIKKJCOI@FileControlOperationsPerSec@
CONST	SEGMENT
??_C@_0BM@PIKKJCOI@FileControlOperationsPerSec@ DB 'FileControlOperations'
	DB	'PerSec', 00H				; `string'
CONST	ENDS
;	COMDAT ??_C@_0BH@EMNLAEFK@FileControlBytesPerSec@
CONST	SEGMENT
??_C@_0BH@EMNLAEFK@FileControlBytesPerSec@ DB 'FileControlBytesPerSec', 00H ; `string'
CONST	ENDS
;	COMDAT ??_C@_0BK@DHKAACDP@ExceptionDispatchesPerSec@
CONST	SEGMENT
??_C@_0BK@DHKAACDP@ExceptionDispatchesPerSec@ DB 'ExceptionDispatchesPerS'
	DB	'ec', 00H					; `string'
CONST	ENDS
;	COMDAT ??_C@_0BG@GIPKJDB@ContextSwitchesPerSec@
CONST	SEGMENT
??_C@_0BG@GIPKJDB@ContextSwitchesPerSec@ DB 'ContextSwitchesPerSec', 00H ; `string'
CONST	ENDS
;	COMDAT ??_C@_0BG@KHFHJKMP@AlignmentFixupsPerSec@
CONST	SEGMENT
??_C@_0BG@KHFHJKMP@AlignmentFixupsPerSec@ DB 'AlignmentFixupsPerSec', 00H ; `string'
CONST	ENDS
;	COMDAT ??_C@_0CA@OICKPIAK@Win32_PerfRawData_PerfOS_System@
CONST	SEGMENT
??_C@_0CA@OICKPIAK@Win32_PerfRawData_PerfOS_System@ DB 'Win32_PerfRawData'
	DB	'_PerfOS_System', 00H			; `string'
CONST	ENDS
;	COMDAT ??_C@_0BG@FPNGHOGK@PercentPrivilegedTime@
CONST	SEGMENT
??_C@_0BG@FPNGHOGK@PercentPrivilegedTime@ DB 'PercentPrivilegedTime', 00H ; `string'
CONST	ENDS
;	COMDAT ??_C@_0BF@GMGAHOLM@PercentInterruptTime@
CONST	SEGMENT
??_C@_0BF@GMGAHOLM@PercentInterruptTime@ DB 'PercentInterruptTime', 00H ; `string'
CONST	ENDS
;	COMDAT ??_C@_0P@LMLLFJEI@PercentDPCTime@
CONST	SEGMENT
??_C@_0P@LMLLFJEI@PercentDPCTime@ DB 'PercentDPCTime', 00H ; `string'
CONST	ENDS
;	COMDAT ??_C@_0O@LEJEMNCG@PercentC3Time@
CONST	SEGMENT
??_C@_0O@LEJEMNCG@PercentC3Time@ DB 'PercentC3Time', 00H ; `string'
CONST	ENDS
;	COMDAT ??_C@_0O@HPMIBOID@PercentC2Time@
CONST	SEGMENT
??_C@_0O@HPMIBOID@PercentC2Time@ DB 'PercentC2Time', 00H ; `string'
CONST	ENDS
;	COMDAT ??_C@_0O@PJFMGMCN@PercentC1Time@
CONST	SEGMENT
??_C@_0O@PJFMGMCN@PercentC1Time@ DB 'PercentC1Time', 00H ; `string'
CONST	ENDS
;	COMDAT ??_C@_0BB@FCICDGPJ@InterruptsPerSec@
CONST	SEGMENT
??_C@_0BB@FCICDGPJ@InterruptsPerSec@ DB 'InterruptsPerSec', 00H ; `string'
CONST	ENDS
;	COMDAT ??_C@_0BB@KHEGFAIJ@DPCsQueuedPerSec@
CONST	SEGMENT
??_C@_0BB@KHEGFAIJ@DPCsQueuedPerSec@ DB 'DPCsQueuedPerSec', 00H ; `string'
CONST	ENDS
;	COMDAT ??_C@_07BHCICOFH@DPCRate@
CONST	SEGMENT
??_C@_07BHCICOFH@DPCRate@ DB 'DPCRate', 00H		; `string'
CONST	ENDS
;	COMDAT ??_C@_0BE@EPCEDEOH@C3TransitionsPerSec@
CONST	SEGMENT
??_C@_0BE@EPCEDEOH@C3TransitionsPerSec@ DB 'C3TransitionsPerSec', 00H ; `string'
CONST	ENDS
;	COMDAT ??_C@_0BE@JIMGLELP@C2TransitionsPerSec@
CONST	SEGMENT
??_C@_0BE@JIMGLELP@C2TransitionsPerSec@ DB 'C2TransitionsPerSec', 00H ; `string'
CONST	ENDS
;	COMDAT ??_C@_0BE@DLJADCBG@C1TransitionsPerSec@
CONST	SEGMENT
??_C@_0BE@DLJADCBG@C1TransitionsPerSec@ DB 'C1TransitionsPerSec', 00H ; `string'
CONST	ENDS
;	COMDAT ??_C@_0BA@JCLIOML@PercentUserTime@
CONST	SEGMENT
??_C@_0BA@JCLIOML@PercentUserTime@ DB 'PercentUserTime', 00H ; `string'
CONST	ENDS
;	COMDAT ??_C@_0BF@EMKPKJGP@PercentProcessorTime@
CONST	SEGMENT
??_C@_0BF@EMKPKJGP@PercentProcessorTime@ DB 'PercentProcessorTime', 00H ; `string'
CONST	ENDS
;	COMDAT ??_C@_0CD@BCJODFFP@Win32_PerfRawData_PerfOS_Proces@
CONST	SEGMENT
??_C@_0CD@BCJODFFP@Win32_PerfRawData_PerfOS_Proces@ DB 'Win32_PerfRawData'
	DB	'_PerfOS_Processor', 00H			; `string'
CONST	ENDS
;	COMDAT ??_C@_0BB@JKLALBIF@PercentUsagePeak@
CONST	SEGMENT
??_C@_0BB@JKLALBIF@PercentUsagePeak@ DB 'PercentUsagePeak', 00H ; `string'
CONST	ENDS
;	COMDAT ??_C@_0N@CKGFJCHF@PercentUsage@
CONST	SEGMENT
??_C@_0N@CKGFJCHF@PercentUsage@ DB 'PercentUsage', 00H	; `string'
CONST	ENDS
;	COMDAT ??_C@_0CE@MFJPDLKO@Win32_PerfRawData_PerfOS_Paging@
CONST	SEGMENT
??_C@_0CE@MFJPDLKO@Win32_PerfRawData_PerfOS_Paging@ DB 'Win32_PerfRawData'
	DB	'_PerfOS_PagingFile', 00H			; `string'
CONST	ENDS
;	COMDAT ??_C@_08FBPDBPOE@Sections@
CONST	SEGMENT
??_C@_08FBPDBPOE@Sections@ DB 'Sections', 00H		; `string'
CONST	ENDS
;	COMDAT ??_C@_0L@GLBCAKLN@Semaphores@
CONST	SEGMENT
??_C@_0L@GLBCAKLN@Semaphores@ DB 'Semaphores', 00H	; `string'
CONST	ENDS
;	COMDAT ??_C@_06HEBKAGDH@Events@
CONST	SEGMENT
??_C@_06HEBKAGDH@Events@ DB 'Events', 00H		; `string'
CONST	ENDS
;	COMDAT ??_C@_07LDPBBEEB@Mutexes@
CONST	SEGMENT
??_C@_07LDPBBEEB@Mutexes@ DB 'Mutexes', 00H		; `string'
CONST	ENDS
;	COMDAT ??_C@_07CMIGFCHA@Threads@
CONST	SEGMENT
??_C@_07CMIGFCHA@Threads@ DB 'Threads', 00H		; `string'
CONST	ENDS
;	COMDAT ??_C@_09BNGODGIH@Processes@
CONST	SEGMENT
??_C@_09BNGODGIH@Processes@ DB 'Processes', 00H		; `string'
CONST	ENDS
;	COMDAT ??_C@_0CB@OFCHCPMB@Win32_PerfRawData_PerfOS_Object@
CONST	SEGMENT
??_C@_0CB@OFCHCPMB@Win32_PerfRawData_PerfOS_Object@ DB 'Win32_PerfRawData'
	DB	'_PerfOS_Objects', 00H			; `string'
CONST	ENDS
;	COMDAT ??_C@_0BC@KBPIOBBH@WriteCopiesPerSec@
CONST	SEGMENT
??_C@_0BC@KBPIOBBH@WriteCopiesPerSec@ DB 'WriteCopiesPerSec', 00H ; `string'
CONST	ENDS
;	COMDAT ??_C@_0BH@KEMPGDKK@TransitionFaultsPerSec@
CONST	SEGMENT
??_C@_0BH@KEMPGDKK@TransitionFaultsPerSec@ DB 'TransitionFaultsPerSec', 00H ; `string'
CONST	ENDS
;	COMDAT ??_C@_0BH@KPIDEMMH@SystemDriverTotalBytes@
CONST	SEGMENT
??_C@_0BH@KPIDEMMH@SystemDriverTotalBytes@ DB 'SystemDriverTotalBytes', 00H ; `string'
CONST	ENDS
;	COMDAT ??_C@_0BK@MNCINJBF@SystemDriverResidentBytes@
CONST	SEGMENT
??_C@_0BK@MNCINJBF@SystemDriverResidentBytes@ DB 'SystemDriverResidentByt'
	DB	'es', 00H					; `string'
CONST	ENDS
;	COMDAT ??_C@_0BF@JBGABIBK@SystemCodeTotalBytes@
CONST	SEGMENT
??_C@_0BF@JBGABIBK@SystemCodeTotalBytes@ DB 'SystemCodeTotalBytes', 00H ; `string'
CONST	ENDS
;	COMDAT ??_C@_0BI@KPKNFENK@SystemCodeResidentBytes@
CONST	SEGMENT
??_C@_0BI@KPKNFENK@SystemCodeResidentBytes@ DB 'SystemCodeResidentBytes', 00H ; `string'
CONST	ENDS
;	COMDAT ??_C@_0BJ@NPNGHFJN@SystemCacheResidentBytes@
CONST	SEGMENT
??_C@_0BJ@NPNGHFJN@SystemCacheResidentBytes@ DB 'SystemCacheResidentBytes'
	DB	00H						; `string'
CONST	ENDS
;	COMDAT ??_C@_0BH@OMBHLDMN@PoolPagedResidentBytes@
CONST	SEGMENT
??_C@_0BH@OMBHLDMN@PoolPagedResidentBytes@ DB 'PoolPagedResidentBytes', 00H ; `string'
CONST	ENDS
;	COMDAT ??_C@_0P@PJENKINF@PoolPagedBytes@
CONST	SEGMENT
??_C@_0P@PJENKINF@PoolPagedBytes@ DB 'PoolPagedBytes', 00H ; `string'
CONST	ENDS
;	COMDAT ??_C@_0BA@LDKKFHCE@PoolPagedAllocs@
CONST	SEGMENT
??_C@_0BA@LDKKFHCE@PoolPagedAllocs@ DB 'PoolPagedAllocs', 00H ; `string'
CONST	ENDS
;	COMDAT ??_C@_0BC@GMPJEGLC@PoolNonpagedBytes@
CONST	SEGMENT
??_C@_0BC@GMPJEGLC@PoolNonpagedBytes@ DB 'PoolNonpagedBytes', 00H ; `string'
CONST	ENDS
;	COMDAT ??_C@_0BD@GAOJBHDB@PoolNonpagedAllocs@
CONST	SEGMENT
??_C@_0BD@GAOJBHDB@PoolNonpagedAllocs@ DB 'PoolNonpagedAllocs', 00H ; `string'
CONST	ENDS
;	COMDAT ??_C@_0CA@DKFDEGAA@PercentCommittedBytesInUse_Base@
CONST	SEGMENT
??_C@_0CA@DKFDEGAA@PercentCommittedBytesInUse_Base@ DB 'PercentCommittedB'
	DB	'ytesInUse_Base', 00H			; `string'
CONST	ENDS
;	COMDAT ??_C@_0BL@EHMKCOHH@PercentCommittedBytesInUse@
CONST	SEGMENT
??_C@_0BL@EHMKCOHH@PercentCommittedBytesInUse@ DB 'PercentCommittedBytesI'
	DB	'nUse', 00H					; `string'
CONST	ENDS
;	COMDAT ??_C@_0BB@EHHNOBPH@PageWritesPerSec@
CONST	SEGMENT
??_C@_0BB@EHHNOBPH@PageWritesPerSec@ DB 'PageWritesPerSec', 00H ; `string'
CONST	ENDS
;	COMDAT ??_C@_0M@PJBDCOH@PagesPerSec@
CONST	SEGMENT
??_C@_0M@PJBDCOH@PagesPerSec@ DB 'PagesPerSec', 00H	; `string'
CONST	ENDS
;	COMDAT ??_C@_0BC@PGIEMCPC@PagesOutputPerSec@
CONST	SEGMENT
??_C@_0BC@PGIEMCPC@PagesOutputPerSec@ DB 'PagesOutputPerSec', 00H ; `string'
CONST	ENDS
;	COMDAT ??_C@_0BB@NHNEKMAP@PagesInputPerSec@
CONST	SEGMENT
??_C@_0BB@NHNEKMAP@PagesInputPerSec@ DB 'PagesInputPerSec', 00H ; `string'
CONST	ENDS
;	COMDAT ??_C@_0BA@BHCICMAP@PageReadsPerSec@
CONST	SEGMENT
??_C@_0BA@BHCICMAP@PageReadsPerSec@ DB 'PageReadsPerSec', 00H ; `string'
CONST	ENDS
;	COMDAT ??_C@_0BB@HOEEGAIG@PageFaultsPerSec@
CONST	SEGMENT
??_C@_0BB@HOEEGAIG@PageFaultsPerSec@ DB 'PageFaultsPerSec', 00H ; `string'
CONST	ENDS
;	COMDAT ??_C@_0BL@MIKHIOLC@FreeSystemPageTableEntries@
CONST	SEGMENT
??_C@_0BL@MIKHIOLC@FreeSystemPageTableEntries@ DB 'FreeSystemPageTableEnt'
	DB	'ries', 00H					; `string'
CONST	ENDS
;	COMDAT ??_C@_0BH@BIADJNEE@DemandZeroFaultsPerSec@
CONST	SEGMENT
??_C@_0BH@BIADJNEE@DemandZeroFaultsPerSec@ DB 'DemandZeroFaultsPerSec', 00H ; `string'
CONST	ENDS
;	COMDAT ??_C@_0P@FAEGOFEG@CommittedBytes@
CONST	SEGMENT
??_C@_0P@FAEGOFEG@CommittedBytes@ DB 'CommittedBytes', 00H ; `string'
CONST	ENDS
;	COMDAT ??_C@_0M@HHOMCEFN@CommitLimit@
CONST	SEGMENT
??_C@_0M@HHOMCEFN@CommitLimit@ DB 'CommitLimit', 00H	; `string'
CONST	ENDS
;	COMDAT ??_C@_0BC@ONMHHFEO@CacheFaultsPerSec@
CONST	SEGMENT
??_C@_0BC@ONMHHFEO@CacheFaultsPerSec@ DB 'CacheFaultsPerSec', 00H ; `string'
CONST	ENDS
;	COMDAT ??_C@_0P@BPAGOPIK@CacheBytesPeak@
CONST	SEGMENT
??_C@_0P@BPAGOPIK@CacheBytesPeak@ DB 'CacheBytesPeak', 00H ; `string'
CONST	ENDS
;	COMDAT ??_C@_0L@ECJIAGHC@CacheBytes@
CONST	SEGMENT
??_C@_0L@ECJIAGHC@CacheBytes@ DB 'CacheBytes', 00H	; `string'
CONST	ENDS
;	COMDAT ??_C@_0BA@FJNBCKHA@AvailableMBytes@
CONST	SEGMENT
??_C@_0BA@FJNBCKHA@AvailableMBytes@ DB 'AvailableMBytes', 00H ; `string'
CONST	ENDS
;	COMDAT ??_C@_0BA@DKABBPEK@AvailableKBytes@
CONST	SEGMENT
??_C@_0BA@DKABBPEK@AvailableKBytes@ DB 'AvailableKBytes', 00H ; `string'
CONST	ENDS
;	COMDAT ??_C@_0P@HPKKNIPF@AvailableBytes@
CONST	SEGMENT
??_C@_0P@HPKKNIPF@AvailableBytes@ DB 'AvailableBytes', 00H ; `string'
CONST	ENDS
;	COMDAT ??_C@_0CA@MENAEGKE@Win32_PerfRawData_PerfOS_Memory@
CONST	SEGMENT
??_C@_0CA@MENAEGKE@Win32_PerfRawData_PerfOS_Memory@ DB 'Win32_PerfRawData'
	DB	'_PerfOS_Memory', 00H			; `string'
CONST	ENDS
;	COMDAT ??_C@_0BD@FOPDLNII@SyncPinReadsPerSec@
CONST	SEGMENT
??_C@_0BD@FOPDLNII@SyncPinReadsPerSec@ DB 'SyncPinReadsPerSec', 00H ; `string'
CONST	ENDS
;	COMDAT ??_C@_0BD@EPCDKGPG@SyncMDLReadsPerSec@
CONST	SEGMENT
??_C@_0BD@EPCDKGPG@SyncMDLReadsPerSec@ DB 'SyncMDLReadsPerSec', 00H ; `string'
CONST	ENDS
;	COMDAT ??_C@_0BE@FFPMMLME@SyncFastReadsPerSec@
CONST	SEGMENT
??_C@_0BE@FFPMMLME@SyncFastReadsPerSec@ DB 'SyncFastReadsPerSec', 00H ; `string'
CONST	ENDS
;	COMDAT ??_C@_0BD@IDCIAAHF@SyncDataMapsPerSec@
CONST	SEGMENT
??_C@_0BD@IDCIAAHF@SyncDataMapsPerSec@ DB 'SyncDataMapsPerSec', 00H ; `string'
CONST	ENDS
;	COMDAT ??_C@_0BE@PJJLELAC@SyncCopyReadsPerSec@
CONST	SEGMENT
??_C@_0BE@PJJLELAC@SyncCopyReadsPerSec@ DB 'SyncCopyReadsPerSec', 00H ; `string'
CONST	ENDS
;	COMDAT ??_C@_0BB@NGKOLIIB@ReadAheadsPerSec@
CONST	SEGMENT
??_C@_0BB@NGKOLIIB@ReadAheadsPerSec@ DB 'ReadAheadsPerSec', 00H ; `string'
CONST	ENDS
;	COMDAT ??_C@_0P@LNBHDMMD@PinReadsPerSec@
CONST	SEGMENT
??_C@_0P@LNBHDMMD@PinReadsPerSec@ DB 'PinReadsPerSec', 00H ; `string'
CONST	ENDS
;	COMDAT ??_C@_0BI@KGBEKIEP@PinReadHitsPercent_Base@
CONST	SEGMENT
??_C@_0BI@KGBEKIEP@PinReadHitsPercent_Base@ DB 'PinReadHitsPercent_Base', 00H ; `string'
CONST	ENDS
;	COMDAT ??_C@_0BD@INCEIJBE@PinReadHitsPercent@
CONST	SEGMENT
??_C@_0BD@INCEIJBE@PinReadHitsPercent@ DB 'PinReadHitsPercent', 00H ; `string'
CONST	ENDS
;	COMDAT ??_C@_0P@KMMHCHLN@MDLReadsPerSec@
CONST	SEGMENT
??_C@_0P@KMMHCHLN@MDLReadsPerSec@ DB 'MDLReadsPerSec', 00H ; `string'
CONST	ENDS
;	COMDAT ??_C@_0BI@NMONEPAO@MDLReadHitsPercent_Base@
CONST	SEGMENT
??_C@_0BI@NMONEPAO@MDLReadHitsPercent_Base@ DB 'MDLReadHitsPercent_Base', 00H ; `string'
CONST	ENDS
;	COMDAT ??_C@_0BD@PNDPPHMH@MDLReadHitsPercent@
CONST	SEGMENT
??_C@_0BD@PNDPPHMH@MDLReadHitsPercent@ DB 'MDLReadHitsPercent', 00H ; `string'
CONST	ENDS
;	COMDAT ??_C@_0BF@GOGJJNKE@LazyWritePagesPerSec@
CONST	SEGMENT
??_C@_0BF@GOGJJNKE@LazyWritePagesPerSec@ DB 'LazyWritePagesPerSec', 00H ; `string'
CONST	ENDS
;	COMDAT ??_C@_0BH@JCPDBLIF@LazyWriteFlushesPerSec@
CONST	SEGMENT
??_C@_0BH@JCPDBLIF@LazyWriteFlushesPerSec@ DB 'LazyWriteFlushesPerSec', 00H ; `string'
CONST	ENDS
;	COMDAT ??_C@_0BA@LEBBLHFN@FastReadsPerSec@
CONST	SEGMENT
??_C@_0BA@LEBBLHFN@FastReadsPerSec@ DB 'FastReadsPerSec', 00H ; `string'
CONST	ENDS
;	COMDAT ??_C@_0BN@JGPDPBED@FastReadResourceMissesPerSec@
CONST	SEGMENT
??_C@_0BN@JGPDPBED@FastReadResourceMissesPerSec@ DB 'FastReadResourceMiss'
	DB	'esPerSec', 00H				; `string'
CONST	ENDS
;	COMDAT ??_C@_0BL@HBAEFMGM@FastReadNotPossiblesPerSec@
CONST	SEGMENT
??_C@_0BL@HBAEFMGM@FastReadNotPossiblesPerSec@ DB 'FastReadNotPossiblesPe'
	DB	'rSec', 00H					; `string'
CONST	ENDS
;	COMDAT ??_C@_0P@GAMMIBDO@DataMapsPerSec@
CONST	SEGMENT
??_C@_0P@GAMMIBDO@DataMapsPerSec@ DB 'DataMapsPerSec', 00H ; `string'
CONST	ENDS
;	COMDAT ??_C@_0BH@JDIGEHGG@DataMapPinsPerSec_Base@
CONST	SEGMENT
??_C@_0BH@JDIGEHGG@DataMapPinsPerSec_Base@ DB 'DataMapPinsPerSec_Base', 00H ; `string'
CONST	ENDS
;	COMDAT ??_C@_0BC@OOMEAEEA@DataMapPinsPerSec@
CONST	SEGMENT
??_C@_0BC@OOMEAEEA@DataMapPinsPerSec@ DB 'DataMapPinsPerSec', 00H ; `string'
CONST	ENDS
;	COMDAT ??_C@_0BI@ILDKBHLK@DataMapHitsPercent_Base@
CONST	SEGMENT
??_C@_0BI@ILDKBHLK@DataMapHitsPercent_Base@ DB 'DataMapHitsPercent_Base', 00H ; `string'
CONST	ENDS
;	COMDAT ??_C@_0BD@KOAAJIJA@DataMapHitsPercent@
CONST	SEGMENT
??_C@_0BD@KOAAJIJA@DataMapHitsPercent@ DB 'DataMapHitsPercent', 00H ; `string'
CONST	ENDS
;	COMDAT ??_C@_0BF@JDDABGEO@DataFlushPagesPerSec@
CONST	SEGMENT
??_C@_0BF@JDDABGEO@DataFlushPagesPerSec@ DB 'DataFlushPagesPerSec', 00H ; `string'
CONST	ENDS
;	COMDAT ??_C@_0BC@MJKDEPG@DataFlushesPerSec@
CONST	SEGMENT
??_C@_0BC@MJKDEPG@DataFlushesPerSec@ DB 'DataFlushesPerSec', 00H ; `string'
CONST	ENDS
;	COMDAT ??_C@_0BA@BIHGDHJL@CopyReadsPerSec@
CONST	SEGMENT
??_C@_0BA@BIHGDHJL@CopyReadsPerSec@ DB 'CopyReadsPerSec', 00H ; `string'
CONST	ENDS
;	COMDAT ??_C@_0BJ@FGOEJAHL@CopyReadHitsPercent_Base@
CONST	SEGMENT
??_C@_0BJ@FGOEJAHL@CopyReadHitsPercent_Base@ DB 'CopyReadHitsPercent_Base'
	DB	00H						; `string'
CONST	ENDS
;	COMDAT ??_C@_0BE@FFJCEMDJ@CopyReadHitsPercent@
CONST	SEGMENT
??_C@_0BE@FFJCEMDJ@CopyReadHitsPercent@ DB 'CopyReadHitsPercent', 00H ; `string'
CONST	ENDS
;	COMDAT ??_C@_0BE@PNDFACCO@AsyncPinReadsPerSec@
CONST	SEGMENT
??_C@_0BE@PNDFACCO@AsyncPinReadsPerSec@ DB 'AsyncPinReadsPerSec', 00H ; `string'
CONST	ENDS
;	COMDAT ??_C@_0BE@OMOFBJFA@AsyncMDLReadsPerSec@
CONST	SEGMENT
??_C@_0BE@OMOFBJFA@AsyncMDLReadsPerSec@ DB 'AsyncMDLReadsPerSec', 00H ; `string'
CONST	ENDS
;	COMDAT ??_C@_0BF@GKOKALKG@AsyncFastReadsPerSec@
CONST	SEGMENT
??_C@_0BF@GKOKALKG@AsyncFastReadsPerSec@ DB 'AsyncFastReadsPerSec', 00H ; `string'
CONST	ENDS
;	COMDAT ??_C@_0BE@CAOOLPND@AsyncDataMapsPerSec@
CONST	SEGMENT
??_C@_0BE@CAOOLPND@AsyncDataMapsPerSec@ DB 'AsyncDataMapsPerSec', 00H ; `string'
CONST	ENDS
;	COMDAT ??_C@_0BF@MGINILGA@AsyncCopyReadsPerSec@
CONST	SEGMENT
??_C@_0BF@MGINILGA@AsyncCopyReadsPerSec@ DB 'AsyncCopyReadsPerSec', 00H ; `string'
CONST	ENDS
;	COMDAT ??_C@_0BP@LHEMPHPB@Win32_PerfRawData_PerfOS_Cache@
CONST	SEGMENT
??_C@_0BP@LHEMPHPB@Win32_PerfRawData_PerfOS_Cache@ DB 'Win32_PerfRawData_'
	DB	'PerfOS_Cache', 00H				; `string'
CONST	ENDS
;	COMDAT ??_C@_0BB@HAMOOOJ@WriteLargePerSec@
CONST	SEGMENT
??_C@_0BB@HAMOOOJ@WriteLargePerSec@ DB 'WriteLargePerSec', 00H ; `string'
CONST	ENDS
;	COMDAT ??_C@_0BC@LMECNINB@WriteDeniedPerSec@
CONST	SEGMENT
??_C@_0BC@LMECNINB@WriteDeniedPerSec@ DB 'WriteDeniedPerSec', 00H ; `string'
CONST	ENDS
;	COMDAT ??_C@_0BI@GPDBBABB@WritePacketsSmallPerSec@
CONST	SEGMENT
??_C@_0BI@GPDBBABB@WritePacketsSmallPerSec@ DB 'WritePacketsSmallPerSec', 00H ; `string'
CONST	ENDS
;	COMDAT ??_C@_0BD@NEABLLFJ@WritePacketsPerSec@
CONST	SEGMENT
??_C@_0BD@NEABLLFJ@WritePacketsPerSec@ DB 'WritePacketsPerSec', 00H ; `string'
CONST	ENDS
;	COMDAT ??_C@_0BM@IJPFNDGO@WriteOperationsRandomPerSec@
CONST	SEGMENT
??_C@_0BM@IJPFNDGO@WriteOperationsRandomPerSec@ DB 'WriteOperationsRandom'
	DB	'PerSec', 00H				; `string'
CONST	ENDS
;	COMDAT ??_C@_0BH@OANOHFDO@WriteBytesPagingPerSec@
CONST	SEGMENT
??_C@_0BH@OANOHFDO@WriteBytesPagingPerSec@ DB 'WriteBytesPagingPerSec', 00H ; `string'
CONST	ENDS
;	COMDAT ??_C@_0BK@PNNKNAIA@WriteBytesNonPagingPerSec@
CONST	SEGMENT
??_C@_0BK@PNNKNAIA@WriteBytesNonPagingPerSec@ DB 'WriteBytesNonPagingPerS'
	DB	'ec', 00H					; `string'
CONST	ENDS
;	COMDAT ??_C@_0BI@HNBBGOIH@WriteBytesNetworkPerSec@
CONST	SEGMENT
??_C@_0BI@HNBBGOIH@WriteBytesNetworkPerSec@ DB 'WriteBytesNetworkPerSec', 00H ; `string'
CONST	ENDS
;	COMDAT ??_C@_0BG@GCNKDHCE@WriteBytesCachePerSec@
CONST	SEGMENT
??_C@_0BG@GCNKDHCE@WriteBytesCachePerSec@ DB 'WriteBytesCachePerSec', 00H ; `string'
CONST	ENDS
;	COMDAT ??_C@_0BD@BALBBJPI@ServerSessionsHung@
CONST	SEGMENT
??_C@_0BD@BALBBJPI@ServerSessionsHung@ DB 'ServerSessionsHung', 00H ; `string'
CONST	ENDS
;	COMDAT ??_C@_0P@EPIIEJNA@ServerSessions@
CONST	SEGMENT
??_C@_0P@EPIIEJNA@ServerSessions@ DB 'ServerSessions', 00H ; `string'
CONST	ENDS
;	COMDAT ??_C@_0BB@LGLKKLGK@ServerReconnects@
CONST	SEGMENT
??_C@_0BB@LGLKKLGK@ServerReconnects@ DB 'ServerReconnects', 00H ; `string'
CONST	ENDS
;	COMDAT ??_C@_0BC@GAMKMMKB@ServerDisconnects@
CONST	SEGMENT
??_C@_0BC@GAMKMMKB@ServerDisconnects@ DB 'ServerDisconnects', 00H ; `string'
CONST	ENDS
;	COMDAT ??_C@_0BB@FFKFENGC@ReadsLargePerSec@
CONST	SEGMENT
??_C@_0BB@FFKFENGC@ReadsLargePerSec@ DB 'ReadsLargePerSec', 00H ; `string'
CONST	ENDS
;	COMDAT ??_C@_0BC@MGHKCLNK@ReadsDeniedPerSec@
CONST	SEGMENT
??_C@_0BC@MGHKCLNK@ReadsDeniedPerSec@ DB 'ReadsDeniedPerSec', 00H ; `string'
CONST	ENDS
;	COMDAT ??_C@_0BH@JCFIFLJN@ReadPacketsSmallPerSec@
CONST	SEGMENT
??_C@_0BH@JCFIFLJN@ReadPacketsSmallPerSec@ DB 'ReadPacketsSmallPerSec', 00H ; `string'
CONST	ENDS
;	COMDAT ??_C@_0BC@JALNAJBD@ReadPacketsPerSec@
CONST	SEGMENT
??_C@_0BC@JALNAJBD@ReadPacketsPerSec@ DB 'ReadPacketsPerSec', 00H ; `string'
CONST	ENDS
;	COMDAT ??_C@_0BL@CFIGOGID@ReadOperationsRandomPerSec@
CONST	SEGMENT
??_C@_0BL@CFIGOGID@ReadOperationsRandomPerSec@ DB 'ReadOperationsRandomPe'
	DB	'rSec', 00H					; `string'
CONST	ENDS
;	COMDAT ??_C@_0BG@OLGMIDCE@ReadBytesPagingPerSec@
CONST	SEGMENT
??_C@_0BG@OLGMIDCE@ReadBytesPagingPerSec@ DB 'ReadBytesPagingPerSec', 00H ; `string'
CONST	ENDS
;	COMDAT ??_C@_0BJ@ILOCGCLG@ReadBytesNonPagingPerSec@
CONST	SEGMENT
??_C@_0BJ@ILOCGCLG@ReadBytesNonPagingPerSec@ DB 'ReadBytesNonPagingPerSec'
	DB	00H						; `string'
CONST	ENDS
;	COMDAT ??_C@_0BH@IAHICFAL@ReadBytesNetworkPerSec@
CONST	SEGMENT
??_C@_0BH@IAHICFAL@ReadBytesNetworkPerSec@ DB 'ReadBytesNetworkPerSec', 00H ; `string'
CONST	ENDS
;	COMDAT ??_C@_0BF@LPDAMOL@ReadBytesCachePerSec@
CONST	SEGMENT
??_C@_0BF@LPDAMOL@ReadBytesCachePerSec@ DB 'ReadBytesCachePerSec', 00H ; `string'
CONST	ENDS
;	COMDAT ??_C@_0BE@OGCPPNJJ@NetworkErrorsPerSec@
CONST	SEGMENT
??_C@_0BE@OGCPPNJJ@NetworkErrorsPerSec@ DB 'NetworkErrorsPerSec', 00H ; `string'
CONST	ENDS
;	COMDAT ??_C@_0BK@PGBFPAJ@FileWriteOperationsPerSec@
CONST	SEGMENT
??_C@_0BK@PGBFPAJ@FileWriteOperationsPerSec@ DB 'FileWriteOperationsPerSe'
	DB	'c', 00H					; `string'
CONST	ENDS
;	COMDAT ??_C@_0BJ@BKIGCPAP@FileReadOperationsPerSec@
CONST	SEGMENT
??_C@_0BJ@BKIGCPAP@FileReadOperationsPerSec@ DB 'FileReadOperationsPerSec'
	DB	00H						; `string'
CONST	ENDS
;	COMDAT ??_C@_0BJ@CAIAAECL@FileDataOperationsPerSec@
CONST	SEGMENT
??_C@_0BJ@CAIAAECL@FileDataOperationsPerSec@ DB 'FileDataOperationsPerSec'
	DB	00H						; `string'
CONST	ENDS
;	COMDAT ??_C@_0BA@DJMJIEBG@CurrentCommands@
CONST	SEGMENT
??_C@_0BA@DJMJIEBG@CurrentCommands@ DB 'CurrentCommands', 00H ; `string'
CONST	ENDS
;	COMDAT ??_C@_0BC@EOFEMAHF@ConnectsWindowsNT@
CONST	SEGMENT
??_C@_0BC@EOFEMAHF@ConnectsWindowsNT@ DB 'ConnectsWindowsNT', 00H ; `string'
CONST	ENDS
;	COMDAT ??_C@_0BF@NEFNEICN@ConnectsLanManager21@
CONST	SEGMENT
??_C@_0BF@NEFNEICN@ConnectsLanManager21@ DB 'ConnectsLanManager21', 00H ; `string'
CONST	ENDS
;	COMDAT ??_C@_0BF@MNEGHJGM@ConnectsLanManager20@
CONST	SEGMENT
??_C@_0BF@MNEGHJGM@ConnectsLanManager20@ DB 'ConnectsLanManager20', 00H ; `string'
CONST	ENDS
;	COMDAT ??_C@_0N@IJGODAGI@ConnectsCore@
CONST	SEGMENT
??_C@_0N@IJGODAGI@ConnectsCore@ DB 'ConnectsCore', 00H	; `string'
CONST	ENDS
;	COMDAT ??_C@_0BJ@EHOOHGK@PacketsTransmittedPerSec@
CONST	SEGMENT
??_C@_0BJ@EHOOHGK@PacketsTransmittedPerSec@ DB 'PacketsTransmittedPerSec', 00H ; `string'
CONST	ENDS
;	COMDAT ??_C@_0BG@PFNBEMLM@PacketsReceivedPerSec@
CONST	SEGMENT
??_C@_0BG@PFNBEMLM@PacketsReceivedPerSec@ DB 'PacketsReceivedPerSec', 00H ; `string'
CONST	ENDS
;	COMDAT ??_C@_0O@GPMHHPHG@PacketsPerSec@
CONST	SEGMENT
??_C@_0O@GPMHHPHG@PacketsPerSec@ DB 'PacketsPerSec', 00H ; `string'
CONST	ENDS
;	COMDAT ??_C@_0BB@NADCFLBJ@BytesTotalPerSec@
CONST	SEGMENT
??_C@_0BB@NADCFLBJ@BytesTotalPerSec@ DB 'BytesTotalPerSec', 00H ; `string'
CONST	ENDS
;	COMDAT ??_C@_0BH@GKKKHEEC@BytesTransmittedPerSec@
CONST	SEGMENT
??_C@_0BH@GKKKHEEC@BytesTransmittedPerSec@ DB 'BytesTransmittedPerSec', 00H ; `string'
CONST	ENDS
;	COMDAT ??_C@_0BE@IEAMAKJB@BytesReceivedPerSec@
CONST	SEGMENT
??_C@_0BE@IEAMAKJB@BytesReceivedPerSec@ DB 'BytesReceivedPerSec', 00H ; `string'
CONST	ENDS
;	COMDAT ??_C@_0CF@MIMNIAPF@Win32_PerfRawData_PerfNet_Redir@
CONST	SEGMENT
??_C@_0CF@MIMNIAPF@Win32_PerfRawData_PerfNet_Redir@ DB 'Win32_PerfRawData'
	DB	'_PerfNet_Redirector', 00H			; `string'
CONST	ENDS
;	COMDAT ??_C@_0BG@KEJCKNPB@PercentFreeSpace_Base@
CONST	SEGMENT
??_C@_0BG@KEJCKNPB@PercentFreeSpace_Base@ DB 'PercentFreeSpace_Base', 00H ; `string'
CONST	ENDS
;	COMDAT ??_C@_0BB@FDAACFPN@PercentFreeSpace@
CONST	SEGMENT
??_C@_0BB@FDAACFPN@PercentFreeSpace@ DB 'PercentFreeSpace', 00H ; `string'
CONST	ENDS
;	COMDAT ??_C@_0BC@IJGACNJB@AvgDiskSecPerRead@
CONST	SEGMENT
??_C@_0BC@IJGACNJB@AvgDiskSecPerRead@ DB 'AvgDiskSecPerRead', 00H ; `string'
CONST	ENDS
;	COMDAT ??_C@_0O@EJBHEMAA@FreeMegabytes@
CONST	SEGMENT
??_C@_0O@EJBHEMAA@FreeMegabytes@ DB 'FreeMegabytes', 00H ; `string'
CONST	ENDS
;	COMDAT ??_C@_0CH@LGANEOML@Win32_PerfRawData_PerfDisk_Logi@
CONST	SEGMENT
??_C@_0CH@LGANEOML@Win32_PerfRawData_PerfDisk_Logi@ DB 'Win32_PerfRawData'
	DB	'_PerfDisk_LogicalDisk', 00H			; `string'
CONST	ENDS
;	COMDAT ??_C@_0BD@MIOHPCCM@Timestamp_Sys100NS@
CONST	SEGMENT
??_C@_0BD@MIOHPCCM@Timestamp_Sys100NS@ DB 'Timestamp_Sys100NS', 00H ; `string'
CONST	ENDS
;	COMDAT ??_C@_0BD@ECCCBBP@Timestamp_PerfTime@
CONST	SEGMENT
??_C@_0BD@ECCCBBP@Timestamp_PerfTime@ DB 'Timestamp_PerfTime', 00H ; `string'
CONST	ENDS
;	COMDAT ??_C@_0BB@JNCIMECH@Timestamp_Object@
CONST	SEGMENT
??_C@_0BB@JNCIMECH@Timestamp_Object@ DB 'Timestamp_Object', 00H ; `string'
CONST	ENDS
;	COMDAT ??_C@_0O@JFLPIICD@SplitIOPerSec@
CONST	SEGMENT
??_C@_0O@JFLPIICD@SplitIOPerSec@ DB 'SplitIOPerSec', 00H ; `string'
CONST	ENDS
;	COMDAT ??_C@_0BF@PLICIEBG@PercentIdleTime_Base@
CONST	SEGMENT
??_C@_0BF@PLICIEBG@PercentIdleTime_Base@ DB 'PercentIdleTime_Base', 00H ; `string'
CONST	ENDS
;	COMDAT ??_C@_0BA@LOOKHAGM@PercentIdleTime@
CONST	SEGMENT
??_C@_0BA@LOOKHAGM@PercentIdleTime@ DB 'PercentIdleTime', 00H ; `string'
CONST	ENDS
;	COMDAT ??_C@_0BK@OCJABKEM@PercentDiskWriteTime_Base@
CONST	SEGMENT
??_C@_0BK@OCJABKEM@PercentDiskWriteTime_Base@ DB 'PercentDiskWriteTime_Ba'
	DB	'se', 00H					; `string'
CONST	ENDS
;	COMDAT ??_C@_0BF@DOKCNDOL@PercentDiskWriteTime@
CONST	SEGMENT
??_C@_0BF@DOKCNDOL@PercentDiskWriteTime@ DB 'PercentDiskWriteTime', 00H ; `string'
CONST	ENDS
;	COMDAT ??_C@_0BF@CHKOMNLI@PercentDiskTime_Base@
CONST	SEGMENT
??_C@_0BF@CHKOMNLI@PercentDiskTime_Base@ DB 'PercentDiskTime_Base', 00H ; `string'
CONST	ENDS
;	COMDAT ??_C@_0BA@HPDMAPLN@PercentDiskTime@
CONST	SEGMENT
??_C@_0BA@HPDMAPLN@PercentDiskTime@ DB 'PercentDiskTime', 00H ; `string'
CONST	ENDS
;	COMDAT ??_C@_0BJ@JDFDIKDL@PercentDiskReadTime_Base@
CONST	SEGMENT
??_C@_0BJ@JDFDIKDL@PercentDiskReadTime_Base@ DB 'PercentDiskReadTime_Base'
	DB	00H						; `string'
CONST	ENDS
;	COMDAT ??_C@_0BE@KMHMAHCP@PercentDiskReadTime@
CONST	SEGMENT
??_C@_0BE@KMHMAHCP@PercentDiskReadTime@ DB 'PercentDiskReadTime', 00H ; `string'
CONST	ENDS
;	COMDAT ??_C@_0BD@MECIOMGA@Frequency_Sys100NS@
CONST	SEGMENT
??_C@_0BD@MECIOMGA@Frequency_Sys100NS@ DB 'Frequency_Sys100NS', 00H ; `string'
CONST	ENDS
;	COMDAT ??_C@_0BD@IONDPFD@Frequency_PerfTime@
CONST	SEGMENT
??_C@_0BD@IONDPFD@Frequency_PerfTime@ DB 'Frequency_PerfTime', 00H ; `string'
CONST	ENDS
;	COMDAT ??_C@_0BB@EEOEKLCO@Frequency_Object@
CONST	SEGMENT
??_C@_0BB@EEOEKLCO@Frequency_Object@ DB 'Frequency_Object', 00H ; `string'
CONST	ENDS
;	COMDAT ??_C@_0BB@FFLCGPKG@DiskWritesPerSec@
CONST	SEGMENT
??_C@_0BB@FFLCGPKG@DiskWritesPerSec@ DB 'DiskWritesPerSec', 00H ; `string'
CONST	ENDS
;	COMDAT ??_C@_0BF@BLPLIECA@DiskWriteBytesPerSec@
CONST	SEGMENT
??_C@_0BF@BLPLIECA@DiskWriteBytesPerSec@ DB 'DiskWriteBytesPerSec', 00H ; `string'
CONST	ENDS
;	COMDAT ??_C@_0BE@INHPJNPE@DiskTransfersPerSec@
CONST	SEGMENT
??_C@_0BE@INHPJNPE@DiskTransfersPerSec@ DB 'DiskTransfersPerSec', 00H ; `string'
CONST	ENDS
;	COMDAT ??_C@_0BA@GPEPCNFG@DiskReadsPerSec@
CONST	SEGMENT
??_C@_0BA@GPEPCNFG@DiskReadsPerSec@ DB 'DiskReadsPerSec', 00H ; `string'
CONST	ENDS
;	COMDAT ??_C@_0BE@IJJNINGL@DiskReadBytesPerSec@
CONST	SEGMENT
??_C@_0BE@IJJNINGL@DiskReadBytesPerSec@ DB 'DiskReadBytesPerSec', 00H ; `string'
CONST	ENDS
;	COMDAT ??_C@_0BA@BBEHMIEJ@DiskBytesPerSec@
CONST	SEGMENT
??_C@_0BA@BBEHMIEJ@DiskBytesPerSec@ DB 'DiskBytesPerSec', 00H ; `string'
CONST	ENDS
;	COMDAT ??_C@_0BH@CFGDHLM@CurrentDiskQueueLength@
CONST	SEGMENT
??_C@_0BH@CFGDHLM@CurrentDiskQueueLength@ DB 'CurrentDiskQueueLength', 00H ; `string'
CONST	ENDS
;	COMDAT ??_C@_0BI@LJILLEEA@AvgDiskWriteQueueLength@
CONST	SEGMENT
??_C@_0BI@LJILLEEA@AvgDiskWriteQueueLength@ DB 'AvgDiskWriteQueueLength', 00H ; `string'
CONST	ENDS
;	COMDAT ??_C@_0BI@ICCNFHHL@AvgDiskSecPerWrite_Base@
CONST	SEGMENT
??_C@_0BI@ICCNFHHL@AvgDiskSecPerWrite_Base@ DB 'AvgDiskSecPerWrite_Base', 00H ; `string'
CONST	ENDS
;	COMDAT ??_C@_0BD@MEJEANKD@AvgDiskSecPerWrite@
CONST	SEGMENT
??_C@_0BD@MEJEANKD@AvgDiskSecPerWrite@ DB 'AvgDiskSecPerWrite', 00H ; `string'
CONST	ENDS
;	COMDAT ??_C@_0BL@BNDKFKFB@AvgDiskSecPerTransfer_Base@
CONST	SEGMENT
??_C@_0BL@BNDKFKFB@AvgDiskSecPerTransfer_Base@ DB 'AvgDiskSecPerTransfer_'
	DB	'Base', 00H					; `string'
