; Listing generated by Microsoft (R) Optimizing Compiler Version 19.16.27031.1 

	TITLE	c:\users\giulif\downloads\study\git\sysstatus\usb.cpp
	.686P
	.XMM
	include listing.inc
	.model	flat

INCLUDELIB OLDNAMES

PUBLIC	??_C@_00CNPNBAHC@@				; `string'
PUBLIC	??_C@_0BI@GFKFEIAL@?9?9?5USB?4PushBackDets?0?5?$CFs@ ; `string'
PUBLIC	??_C@_0BC@CFJFKPGC@NoDeviceConnected@		; `string'
PUBLIC	??_C@_0BA@LIPCCNEI@DeviceConnected@		; `string'
PUBLIC	??_C@_0BI@LKBNFKJE@DeviceFailedEnumeration@	; `string'
PUBLIC	??_C@_0BF@FIJIOADB@DeviceGeneralFailure@	; `string'
PUBLIC	??_C@_0BI@FHCONGJI@DeviceCausedOvercurrent@	; `string'
PUBLIC	??_C@_0BF@KCIAFGBC@DeviceNotEnoughPower@	; `string'
PUBLIC	??_C@_0BJ@DBBHPJJC@DeviceNotEnoughBandwidth@	; `string'
PUBLIC	??_C@_0BJ@CHELPMAC@DeviceHubNestedTooDeeply@	; `string'
PUBLIC	??_C@_0BC@BOFHLGPH@DeviceInLegacyHub@		; `string'
PUBLIC	??_C@_02KNHHEEKP@?5?5@				; `string'
PUBLIC	??_C@_04PFOHOKJK@?5?5?5?5@			; `string'
PUBLIC	??_C@_06GGLIPOFD@?5?5?5?5?5?5@			; `string'
PUBLIC	??_C@_08GGFKNFHG@?5?5?5?5?5?5?5?5@		; `string'
PUBLIC	??_C@_0L@CCBFPMDD@?5?5?5?5?5?5?5?5?5?5@		; `string'
PUBLIC	??_C@_0P@JPOMJBKJ@?$DO?$DO?5USB?4EnumUSB@	; `string'
PUBLIC	??_C@_0N@JNFFEOEJ@cfgmgr32?4dll@		; `string'
PUBLIC	??_C@_0CI@JNDPNFBI@?$DM?$DM?5USB?4EnumUSB?0?5LoadLib?5cfgmgr3@ ; `string'
PUBLIC	??_C@_0O@CIKLALFP@CM_Get_Parent@		; `string'
PUBLIC	??_C@_0CM@FCKDJEIO@?$DM?$DM?5USB?4EnumUSB?0?5GetProcAdr?5CM_G@ ; `string'
PUBLIC	??_C@_0P@OOIACNHP@CM_Get_Sibling@		; `string'
PUBLIC	??_C@_0CN@OFCMGBDD@?$DM?$DM?5USB?4EnumUSB?0?5GetProcAdr?5CM_G@ ; `string'
PUBLIC	??_C@_0N@EKPGFMC@CM_Get_Child@			; `string'
PUBLIC	??_C@_0CL@COFLNMDL@?$DM?$DM?5USB?4EnumUSB?0?5GetProcAdr?5CM_G@ ; `string'
PUBLIC	??_C@_0CC@NHFCMMFN@CM_Get_DevNode_Registry_Propert@ ; `string'
PUBLIC	??_C@_0DP@DGDMCDGA@?$DM?$DM?5USB?4EnumUSB?0?5GetProcAdr?5CM_G@ ; `string'
PUBLIC	??_C@_0BD@FFDOPOAJ@CM_Locate_DevNodeA@		; `string'
PUBLIC	??_C@_0DA@PBHEEKCL@?$DM?$DM?5USB?4EnumUSB?0?5GetProcAdr?5CM_L@ ; `string'
PUBLIC	??_C@_0O@BMIBGHPI@Enumerate?5USB@		; `string'
PUBLIC	??_C@_09PEILPPNA@?2?2?4?2HCD?$CFd@		; `string'
PUBLIC	??_C@_0N@BEFNEIBE@RootHub?5?3?5?$CFs@		; `string'
PUBLIC	??_C@_07FOIBMAON@RootHub@			; `string'
PUBLIC	??_C@_0BL@FOIGIFIJ@Total?5Devices?5Connected?5?$CFu@ ; `string'
PUBLIC	??_C@_0P@NGAEOEJF@?$DM?$DM?5USB?4EnumUSB@	; `string'
PUBLIC	??_C@_0BA@EBIECMOG@?$DO?$DO?5USB?4DevsDets@	; `string'
PUBLIC	??_C@_0BD@HNIJLKOP@USB?5Device?5Details@	; `string'
PUBLIC	??_C@_02DKCKIIND@?$CFs@				; `string'
PUBLIC	??_C@_0BA@GOKCLIBE@?$DM?$DM?5USB?4DevsDets@	; `string'
PUBLIC	??_C@_0BC@OBKJMAF@?$DO?$DO?5USB?4GetStrDesc@	; `string'
PUBLIC	??_C@_0CJ@MLNPNNOJ@?$DM?$DM?5USB?4GetStrDesc?0?5DeviceIoCont@ ; `string'
PUBLIC	??_C@_0CA@JKPBCDKN@?$DM?$DM?5USB?4GetStrDesc?0?5Bytes?5Ret?5?$CFu@ ; `string'
PUBLIC	??_C@_0CH@ELGGMNKC@?$DM?$DM?5USB?4GetStrDesc?0?5Inv?5Descript@ ; `string'
PUBLIC	??_C@_0CD@CHKNKAPD@?$DM?$DM?5USB?4GetStrDesc?0?5Inv?5Sz?5?$CFd?5?$DM?$DO@ ; `string'
PUBLIC	??_C@_0BN@ILBIFDNN@?$DM?$DM?5USB?4GetStrDesc?0?5Odd?5Sz?5?$CFd@ ; `string'
PUBLIC	??_C@_0CF@BKJLPKEL@?$DM?$DM?5USB?4GetStrDesc?0?5new?5DescNode@ ; `string'
PUBLIC	??_C@_0CK@NJJDPDGO@?9?9?5USB?4GetStrDesc?0?5WideCharToMu@ ; `string'
PUBLIC	??_C@_0CB@LADAJLND@?$DM?$DM?5USB?4GetStrDesc?0?5DescNode?50x?$CF@ ; `string'
PUBLIC	??_C@_0BF@IPAKKGGO@?$DO?$DO?5USB?4AreThrStrDesc@ ; `string'
PUBLIC	??_C@_0DC@KIEGOLFL@?$DM?$DM?5USB?4AreThrStrDesc?0?5Manufact?5@ ; `string'
PUBLIC	??_C@_0BN@DEJJKGAD@?$DM?$DM?5USB?4AreThrStrDesc?0?5Cfg?5?$CFd@ ; `string'
PUBLIC	??_C@_0CD@NAENOJMA@?$DM?$DM?5USB?4AreThrStrDesc?0?5Interface@ ; `string'
PUBLIC	??_C@_0CA@JFAJNON@?$DM?$DM?5USB?4AreThrStrDesc?0?5Ret?5False@ ; `string'
PUBLIC	??_C@_0BG@PLIGAJPI@?$DO?$DO?5USB?4GetAllStrDescs@ ; `string'
PUBLIC	??_C@_0CJ@HBMGBPGH@?$DM?$DM?5USB?4GetAllStrDescs?0?5SuppLang@ ; `string'
PUBLIC	??_C@_0CJ@JNLDFNAC@?$DM?$DM?5USB?4GetAllStrDescs?0?5SuppLang@ ; `string'
PUBLIC	??_C@_0BF@GLJHIDAC@?$DO?$DO?5USB?4GetDrvKeyName@ ; `string'
PUBLIC	??_C@_0DA@OGKODAJE@?9?9?5USB?4GetDriverKeyName?0?5new?5Ke@ ; `string'
PUBLIC	??_C@_0BP@PGCNCFEB@?$DM?$DM?5USB?4GetDrvKeyName?0?5AName?5?$CFs@ ; `string'
PUBLIC	??_C@_0BE@BDIOPGJF@?$DO?$DO?5USB?4GetExternHub@	; `string'
PUBLIC	??_C@_0DA@HJNGPFIB@?9?9?5USB?4GetExtHubName?0?5new?5extHu@ ; `string'
PUBLIC	??_C@_0CA@IMMCIHAH@?$DM?$DM?5USB?4GetExternHub?0?5HubName?5?$CFs@ ; `string'
PUBLIC	??_C@_0BE@CPBFJJJ@?$DO?$DO?5USB?4EnumHubPorts@	; `string'
PUBLIC	??_C@_0DE@EKAJALEI@?9?9?5USB?4EnumHubPorts?0?5new?5Port?5?$CF@ ; `string'
PUBLIC	??_C@_0N@DMKPCFDB@?$CFs?$FLPort?$CFlu?$FN?5@	; `string'
PUBLIC	??_C@_03MCPBMLDJ@?5?3?5@			; `string'
PUBLIC	??_C@_0L@KFNJHJLN@?$FLPort?$CFlu?$FN?5@		; `string'
PUBLIC	??_C@_04PKDHFCJF@HIGH@				; `string'
PUBLIC	??_C@_03IBEFMGAI@LOW@				; `string'
PUBLIC	??_C@_04DHPBCODG@FULL@				; `string'
PUBLIC	??_C@_0CF@LGIDNAEF@?$CFs?5?$FLVID?3?$CF?44X?5PID?3?$CF?44X?5SN?3?$CFs?5Spd@ ; `string'
PUBLIC	??_C@_0BA@CGBIAJFO@Not?5Initialized@		; `string'
PUBLIC	??_C@_09CFCBFJND@Not?5Found@			; `string'
PUBLIC	??_C@_06DIJPEION@?$CFs?$CFs?$CFs@		; `string'
PUBLIC	??_C@_04HDOCAJNK@?$CFs?$CFs@			; `string'
PUBLIC	??_C@_0BE@LMILCJOE@?$DM?$DM?5USB?4EnumHubPorts@	; `string'
PUBLIC	??_C@_0BP@KMJAGKHH@?$DO?$DO?5USB?4DrvName2DevDesc?0?5Drv?5?$CFs@ ; `string'
PUBLIC	??_C@_0CJ@PHHANNLH@?$DM?$DM?5USB?4DrvName2DevDesc?0?5LocateD@ ; `string'
PUBLIC	??_C@_0BP@GGDOIMOO@?$DM?$DM?5USB?4DrvName2DevDesc?0?5ret?5?$CFs@ ; `string'
PUBLIC	??_C@_0CO@BAPAALJK@?$DM?$DM?5USB?4DrvName2DevDesc?0?5GetDevN@ ; `string'
PUBLIC	??_C@_0CB@OFAOPKJL@?$DM?$DM?5USB?4DrvName2DevDesc?0?5Ret?5Nul@ ; `string'
PUBLIC	??_C@_0P@JENLAABL@?$DO?$DO?5USB?4EnumHub@	; `string'
PUBLIC	??_C@_04GBDIODIA@?2?2?4?2@			; `string'
PUBLIC	??_C@_04MKEDFNGB@?5?3?5?5@			; `string'
PUBLIC	??_C@_0CG@FMONKKAG@?9?9?5USB?4EnumHub?0?5new?5HubInfo?5?$CI?$CFu@ ; `string'
PUBLIC	??_C@_0CD@EDMNKMD@?9?9?5USB?4EnumHub?0?5new?5Info?5?$CI?$CFu?$CJ?5n@ ; `string'
PUBLIC	??_C@_0P@NNDDHFCH@?$DM?$DM?5USB?4EnumHub@	; `string'
PUBLIC	??_C@_0BC@PGMOMHHM@?$DO?$DO?5USB?4GetRootHub@	; `string'
PUBLIC	??_C@_0BO@MFMFEBEJ@?$DM?$DM?5USB?4GetRootHub?0?5HubName?5?$CFs@ ; `string'
PUBLIC	??_C@_0BI@LFJMJGOI@?$DO?$DO?5USB?4GetHCDDrvKeyName@ ; `string'
PUBLIC	??_C@_0CH@GAKGEKMO@?$DM?$DM?5USB?4GetHCDDrvKeyName?0?5DrvKey@ ; `string'
PUBLIC	??_C@_0BD@HEHGMECG@?$DO?$DO?5USB?4GetStrDescs@	; `string'
PUBLIC	??_C@_0CJ@OCOKNHIB@?$DM?$DM?5USB?4GetStrDescs?0?5StrDescNode@ ; `string'
PUBLIC	??_C@_0BC@NBPLLDOB@?$DO?$DO?5USB?4GetCfgDesc@	; `string'
PUBLIC	??_C@_0CJ@JPCNJMBL@?$DM?$DM?5USB?4GetCfgDesc?0?5DeviceIoCont@ ; `string'
PUBLIC	??_C@_0CL@CHLLBENA@?$DM?$DM?5USB?4GetCfgDesc?0?5Bytes?5?$CFu?5?$DM?$DO?5@ ; `string'
PUBLIC	??_C@_0CL@LLJEBADN@?$DM?$DM?5USB?4GetCfgDesc?0?5Total?5?$CFd?5?$DM?5S@ ; `string'
PUBLIC	??_C@_0CN@FDNPACDH@?$DM?$DM?5USB?4GetCfgDesc?0?5Req?5DeviceIo@ ; `string'
PUBLIC	??_C@_0CP@JDNANMP@?$DM?$DM?5USB?4GetCfgDesc?0?5Req?5Bytes?5?$CFu@ ; `string'
PUBLIC	??_C@_0CI@LMLHDIHD@?$DM?$DM?5USB?4GetCfgDesc?0?5Req?5Total?5?$CFd@ ; `string'
PUBLIC	??_C@_0CL@LPDCGPEM@?9?9?5USB?4GetCfgDescriptor?0?5new?5Bu@ ; `string'
PUBLIC	??_C@_0BI@HCFMPAHC@?$DM?$DM?5USB?4GetCfgDesc?0?50x?$CFp@ ; `string'
PUBLIC	??_C@_0P@GOACPFJP@?$DO?$DO?5USB?4HubInfo@	; `string'
PUBLIC	??_C@_09GDHNALJA@Bus?5Power@			; `string'
PUBLIC	??_C@_0L@JDJFLKOD@Self?5Power@			; `string'
PUBLIC	??_C@_0BA@KPNNFMHH@?$DO?5Hub?5Power?3?5?$CFs@	; `string'
PUBLIC	??_C@_0BG@IOHBDCFM@?$DO?5Number?5of?5Ports?3?5?$CFd@ ; `string'
PUBLIC	??_C@_0BK@CEEHKAND@?$DO?5Power?5switching?3?5Ganged@ ; `string'
PUBLIC	??_C@_0BO@BHNNAPDB@?$DO?5Power?5switching?3?5Individual@ ; `string'
PUBLIC	??_C@_0BI@FICFFJGB@?$DO?5Power?5switching?3?5None@ ; `string'
PUBLIC	??_C@_0BG@FBGEODEL@?$DO?5Compound?5device?3?5No@ ; `string'
PUBLIC	??_C@_0BH@CFBEDMDO@?$DO?5Compound?5device?3?5Yes@ ; `string'
PUBLIC	??_C@_0CC@ELIAJJDL@?$DO?5Over?9current?5Protection?3?5Glob@ ; `string'
PUBLIC	??_C@_0CG@MEGDLCFA@?$DO?5Over?9current?5Protection?3?5Indi@ ; `string'
PUBLIC	??_C@_0CO@FGJIHOLC@?$DO?5No?5Over?9current?5Protection?5?$CIB@ ; `string'
PUBLIC	??_C@_0P@CHOKIAKD@?$DM?$DM?5USB?4HubInfo@	; `string'
PUBLIC	??_C@_0P@ICANHPPH@?$DO?$DO?5USB?4HubCaps@	; `string'
PUBLIC	??_C@_0CI@KPNJBEAB@?$DO?5Extended?5Hub?5Capability?5Flags@ ; `string'
PUBLIC	??_C@_0BL@GGCJII@?$DO?5?5?5High?5speed?5Capable?3?5?$CFs@ ; `string'
PUBLIC	??_C@_0BD@FCCHMOKD@?$DO?5?5?5High?5speed?3?5?$CFs@ ; `string'
PUBLIC	??_C@_0CC@CJLCKEMN@?$DO?5?5?5Mulit?9transaction?5Capable?3?5@ ; `string'
PUBLIC	??_C@_02IAAGKKDJ@On@				; `string'
PUBLIC	??_C@_03GCDBBDDL@Off@				; `string'
PUBLIC	??_C@_0BK@JNPMKCLE@?$DO?5?5?5Mulit?9transaction?3?5?$CFs@ ; `string'
PUBLIC	??_C@_0BB@BIGCJPGA@?$DO?5?5?5Root?5hub?3?5?$CFs@ ; `string'
PUBLIC	??_C@_0CC@EBPNDPBD@?$DO?5?5?5Armed?5for?5wake?5on?5connect?3?5@ ; `string'
PUBLIC	??_C@_0BP@LBBGDALG@?$DO?5?5?5Reserved?5?$CI26?5bits?$CJ?3?5?$CF0?$CD6lx@ ; `string'
PUBLIC	??_C@_0CG@OCCHEKHL@Extended?5Hub?5Capabilities?5UNAVA@ ; `string'
PUBLIC	??_C@_0L@BGKBMIAF@High?5speed@			; `string'
PUBLIC	??_C@_0P@LDNEGAOE@Not?5high?5speed@		; `string'
PUBLIC	??_C@_0CA@BJAEENFA@?$DO?5Hub?5Capabilities?3?5?$CF0?$CD8lx?5?$CI?$CFs?$CJ@ ; `string'
PUBLIC	??_C@_0BN@HMIILDFE@Hub?5Capabilities?5UNAVAILABLE@ ; `string'
PUBLIC	??_C@_0P@MLOFAKML@?$DM?$DM?5USB?4HubCaps@	; `string'
PUBLIC	??_C@_0BA@IJBIPHPI@?$DO?$DO?5USB?4ConnInfo@	; `string'
PUBLIC	??_C@_0BM@GIKFEJKI@?$DM?$DM?5USB?4ConnInfo?0?5Input?5null@ ; `string'
PUBLIC	??_C@_0CG@KIPJNEMD@?$DO?5ConnectionStatus?3?5NoDeviceCon@ ; `string'
PUBLIC	??_C@_0BF@EPIIACIH@?$DO?5Device?5Descriptor?3@	; `string'
PUBLIC	??_C@_0BD@EOGCPDGC@?$DO?5?5?5bcdUSB?3?50x?$CF04X@ ; `string'
PUBLIC	??_C@_0BJ@BBNICMHO@?$DO?5?5?5bDeviceClass?3?50x?$CF02X@ ; `string'
PUBLIC	??_C@_0BM@IBBMEPAK@?$DO?5?5?5bDeviceSubClass?3?50x?$CF02X@ ; `string'
PUBLIC	??_C@_0BM@DONCAOLL@?$DO?5?5?5bDeviceProtocol?3?50x?$CF02X@ ; `string'
PUBLIC	??_C@_0CB@KJHHAJF@?$DO?5?5?5bMaxPacketSize0?3?50x?$CF02X?5?$CI?$CFd@ ; `string'
PUBLIC	??_C@_0BK@FCNKAGPN@?$DO?5?5?5idVendor?3?50x?$CF04X?5?$CI?$CFs?$CJ@ ; `string'
PUBLIC	??_C@_0BG@FEBFICPG@?$DO?5?5?5idProduct?3?50x?$CF04X@ ; `string'
PUBLIC	??_C@_0BG@IFDGHCDF@?$DO?5?5?5bcdDevice?3?50x?$CF04X@ ; `string'
PUBLIC	??_C@_0BK@IFOFIIGL@?$DO?5?5?5iManufacturer?3?50x?$CF02X@ ; `string'
PUBLIC	??_C@_0BF@JLHEPLOO@?$DO?5?5?5iProduct?3?50x?$CF02X@ ; `string'
PUBLIC	??_C@_0BK@LAPCHIKM@?$DO?5?5?5iSerialNumber?3?50x?$CF02X@ ; `string'
PUBLIC	??_C@_0BP@EFEAMJPP@?$DO?5?5?5bNumConfigurations?3?50x?$CF02X@ ; `string'
PUBLIC	??_C@_0BJ@POKCFGAN@?$DO?5?5?5ConnectionStatus?3?5?$CFs@ ; `string'
PUBLIC	??_C@_0CB@CNIJGGK@?$DO?5?5?5Current?5Config?5Value?3?50x?$CF02@ ; `string'
PUBLIC	??_C@_0BK@CLDGMCFC@?$DO?5?5?5Device?5Bus?5Speed?3?5Low@ ; `string'
PUBLIC	??_C@_0BL@CJGBMBHK@?$DO?5?5?5Device?5Bus?5Speed?3?5Full@ ; `string'
PUBLIC	??_C@_0BL@OEKHLNNJ@?$DO?5?5?5Device?5Bus?5Speed?3?5High@ ; `string'
PUBLIC	??_C@_0BO@IIJPBIOD@?$DO?5?5?5Device?5Bus?5Speed?3?5Unknown@ ; `string'
PUBLIC	??_C@_0BL@DEBOODEI@?$DO?5?5?5Device?5Address?3?50x?$CF02X@ ; `string'
PUBLIC	??_C@_0BG@MHCPFALG@?$DO?5?5?5Open?5Pipes?3?5?$CF02lu@ ; `string'
PUBLIC	??_C@_0BA@KGDOGDAK@?$DM?$DM?5USB?4ConnInfo@	; `string'
PUBLIC	??_C@_0BE@MPHLOHIN@?$DO?$DO?5USB?4PipeInfo?0?5?$CFu@ ; `string'
PUBLIC	??_C@_0BA@KIDKADGJ@?$DM?$DM?5USB?4PipeInfo@	; `string'
PUBLIC	??_C@_0BA@BANBJKNP@?$DO?$DO?5USB?4ConnDesc@	; `string'
PUBLIC	??_C@_0BM@HNNAHBOO@?$DM?$DM?5USB?4ConnDesc?0?5Input?5null@ ; `string'
PUBLIC	??_C@_0BA@DPPHAOCN@?$DM?$DM?5USB?4ConnDesc@	; `string'
PUBLIC	??_C@_0P@KMFKJDAO@?$DO?$DO?5USB?4CfgDesc@	; `string'
PUBLIC	??_C@_0BM@PCIMCBFD@?$DO?5Configuration?5Descriptor?3@ ; `string'
PUBLIC	??_C@_0BJ@JBGKFDNL@?$DO?5?5?5wTotalLength?3?50x?$CF04X@ ; `string'
PUBLIC	??_C@_0BL@JNHEPBEN@?$DO?5?5?5bNumInterfaces?3?50x?$CF02X@ ; `string'
PUBLIC	??_C@_0CA@KHMLNGHE@?$DO?5?5?5bConfigurationValue?3?50x?$CF02X@ ; `string'
PUBLIC	??_C@_0BL@MGNBONG@?$DO?5?5?5iConfiguration?3?50x?$CF02X@ ; `string'
PUBLIC	??_C@_0M@KJBOJHIH@Bus?5Powered@			; `string'
PUBLIC	??_C@_0N@BBGKMOEA@Self?5Powered@		; `string'
PUBLIC	??_C@_0O@CEMJPFOE@Remote?5Wakeup@		; `string'
PUBLIC	??_C@_01OGPIMHDM@?$DP@				; `string'
PUBLIC	??_C@_0BO@GBBHCHCO@?$DO?5?5?5bmAttributes?3?50x?$CF02X?5?$CI?$CFs?$CJ@ ; `string'
PUBLIC	??_C@_0BN@BADCCJC@?$DO?5?5?5MaxPower?3?50x?$CF02X?5?$CI?$CFd?5mA?$CJ@ ; `string'
PUBLIC	??_C@_0P@OFLCOGDC@?$DM?$DM?5USB?4CfgDesc@	; `string'
PUBLIC	??_C@_0BF@FGFFFEAJ@?$DO?$DO?5USB?4InterfaceDesc@ ; `string'
PUBLIC	??_C@_0BI@FGHPJGGP@?$DO?5Interface?5Descriptor?3@ ; `string'
PUBLIC	??_C@_0BN@ONGOLDBE@?$DO?5?5?5bInterfaceNumber?3?50x?$CF02X@ ; `string'
PUBLIC	??_C@_0BO@JANOLKEO@?$DO?5?5?5bAlternateSetting?3?50x?$CF02X@ ; `string'
PUBLIC	??_C@_0BK@EHJBAMGD@?$DO?5?5?5bNumEndpoints?3?50x?$CF02X@ ; `string'
PUBLIC	??_C@_05KKCMAPLJ@Audio@				; `string'
PUBLIC	??_C@_03GLEFGMHP@HID@				; `string'
PUBLIC	??_C@_03IFOKPDKP@Hub@				; `string'
PUBLIC	??_C@_0CB@KPEKNPLO@?$DO?5?5?5bInterfaceClass?3?50x?$CF02X?5?$CI?$CFs@ ; `string'
PUBLIC	??_C@_0O@FIEMGMDK@Audio?5Control@		; `string'
PUBLIC	??_C@_0BA@CCICINDB@Audio?5Streaming@		; `string'
PUBLIC	??_C@_0P@ODBCJCKO@MIDI?5Streaming@		; `string'
PUBLIC	??_C@_0CE@PEKAFJHJ@?$DO?5?5?5bInterfaceSubClass?3?50x?$CF02X?5@ ; `string'
PUBLIC	??_C@_0BP@MCCALMMN@?$DO?5?5?5bInterfaceSubClass?3?50x?$CF02X@ ; `string'
PUBLIC	??_C@_0BP@HNOOPNHM@?$DO?5?5?5bInterfaceProtocol?3?50x?$CF02X@ ; `string'
PUBLIC	??_C@_0BH@JAJKJCLD@?$DO?5?5?5iInterface?3?50x?$CF02X@ ; `string'
PUBLIC	??_C@_0BI@MFPCCAIN@?$DO?5?5?5wNumClasses?3?50x?$CF04X@ ; `string'
PUBLIC	??_C@_0BF@HIFPCDPI@?$DM?$DM?5USB?4InterfaceDesc@ ; `string'
PUBLIC	??_C@_0BE@BNJCNLHH@?$DO?$DO?5USB?4EndpointDesc@	; `string'
PUBLIC	??_C@_0BH@NNPPCJHP@?$DO?5Endpoint?5Descriptor?3@ ; `string'
PUBLIC	??_C@_0CA@IMJGHBI@?$DO?5?5?5bEndpointAddress?3?50x?$CF02X?5IN@ ; `string'
PUBLIC	??_C@_0CB@PIKLNKCM@?$DO?5?5?5bEndpointAddress?3?50x?$CF02X?5OU@ ; `string'
PUBLIC	??_C@_0BL@ICIOMPJC@?$DO?5?5?5Transfer?5Type?3?5Control@ ; `string'
PUBLIC	??_C@_0BP@DMDNFJME@?$DO?5?5?5Transfer?5Type?3?5Isochronous@ ; `string'
PUBLIC	??_C@_0BI@ELEHNLID@?$DO?5?5?5Transfer?5Type?3?5Bulk@ ; `string'
PUBLIC	??_C@_0BN@MOOEBEKA@?$DO?5?5?5Transfer?5Type?3?5Interrupt@ ; `string'
PUBLIC	??_C@_0CA@OFHICAPC@?$DO?5?5?5wMaxPacketSize?3?50x?$CF04X?5?$CI?$CFd?$CJ@ ; `string'
PUBLIC	??_C@_0BG@LPGMHCMJ@?$DO?5?5?5bInterval?3?50x?$CF02X@ ; `string'
PUBLIC	??_C@_0BG@HBLIDDIE@?$DO?5?5?5wInterval?3?50x?$CF04X@ ; `string'
PUBLIC	??_C@_0BJ@CECFOBBD@?$DO?5?5?5bSyncAddress?3?50x?$CF02X@ ; `string'
PUBLIC	??_C@_0BE@KDOIKLAK@?$DM?$DM?5USB?4EndpointDesc@	; `string'
PUBLIC	??_C@_0P@IBOMINBP@?$DO?$DO?5USB?4HidDesc@	; `string'
PUBLIC	??_C@_0BC@FKMEKGFJ@?$DO?5HID?5Descriptor?3@	; `string'
PUBLIC	??_C@_0BD@JNJCPDHI@?$DO?5?5?5bcdHID?3?50x?$CF04X@ ; `string'
PUBLIC	??_C@_0BJ@CKIDJFBI@?$DO?5?5?5bCountryCode?3?50x?$CF02X@ ; `string'
PUBLIC	??_C@_0BM@MKJBFMNP@?$DO?5?5?5bNumDescriptors?3?50x?$CF02X@ ; `string'
PUBLIC	??_C@_0DN@JAEDHMBE@?$DO?5?5?5?$CF?43i?0?5bDescriptorType?3?50x?$CF0@ ; `string'
PUBLIC	??_C@_0P@MIAEPICD@?$DM?$DM?5USB?4HidDesc@	; `string'
PUBLIC	??_C@_0BH@LCHICFEL@?$DO?$DO?5USB?4StrDesc?0?5Idx?5?$CFd@ ; `string'
PUBLIC	??_C@_0P@CCEKBNHE@?$DO?5?5?50x?$CF04X?3?5?$CFs@	; `string'
PUBLIC	??_C@_0P@DKFDMJNG@?$DM?$DM?5USB?4StrDesc@	; `string'
PUBLIC	??_C@_0BD@LEEGFGLN@?$DO?$DO?5USB?4UnknownDesc@	; `string'
PUBLIC	??_C@_0BG@FBFGEGLK@?$DO?5Unknown?5Descriptor?3@	; `string'
PUBLIC	??_C@_0BM@HOMJLHIG@?$DO?5?5?5bDescriptorType?3?50x?$CF02X@ ; `string'
PUBLIC	??_C@_0BE@PKPADJND@?$DO?5?5?5bLength?3?50x?$CF02X@ ; `string'
PUBLIC	??_C@_04CKDHMDHJ@?$DO?5?5?5@			; `string'
PUBLIC	??_C@_07GHOKFMCD@?$CFs?4?$CF02X@		; `string'
PUBLIC	??_C@_0BD@MFCGDLMP@?$DM?$DM?5USB?4UnknownDesc@	; `string'
PUBLIC	?UsbViewIndent@@3PAPADA				; UsbViewIndent
PUBLIC	?ConnectionStatuses@@3PAPADA			; ConnectionStatuses
EXTRN	__imp__wsprintfA:PROC
EXTRN	__imp__DeviceIoControl@32:PROC
;	COMDAT ??_C@_0BD@MFCGDLMP@?$DM?$DM?5USB?4UnknownDesc@
CONST	SEGMENT
??_C@_0BD@MFCGDLMP@?$DM?$DM?5USB?4UnknownDesc@ DB '<< USB.UnknownDesc', 00H ; `string'
CONST	ENDS
;	COMDAT ??_C@_07GHOKFMCD@?$CFs?4?$CF02X@
CONST	SEGMENT
??_C@_07GHOKFMCD@?$CFs?4?$CF02X@ DB '%s.%02X', 00H	; `string'
CONST	ENDS
;	COMDAT ??_C@_04CKDHMDHJ@?$DO?5?5?5@
CONST	SEGMENT
??_C@_04CKDHMDHJ@?$DO?5?5?5@ DB '>   ', 00H		; `string'
CONST	ENDS
;	COMDAT ??_C@_0BE@PKPADJND@?$DO?5?5?5bLength?3?50x?$CF02X@
CONST	SEGMENT
??_C@_0BE@PKPADJND@?$DO?5?5?5bLength?3?50x?$CF02X@ DB '>   bLength: 0x%02'
	DB	'X', 00H					; `string'
CONST	ENDS
;	COMDAT ??_C@_0BM@HOMJLHIG@?$DO?5?5?5bDescriptorType?3?50x?$CF02X@
CONST	SEGMENT
??_C@_0BM@HOMJLHIG@?$DO?5?5?5bDescriptorType?3?50x?$CF02X@ DB '>   bDescr'
	DB	'iptorType: 0x%02X', 00H			; `string'
CONST	ENDS
;	COMDAT ??_C@_0BG@FBFGEGLK@?$DO?5Unknown?5Descriptor?3@
CONST	SEGMENT
??_C@_0BG@FBFGEGLK@?$DO?5Unknown?5Descriptor?3@ DB '> Unknown Descriptor:'
	DB	00H						; `string'
CONST	ENDS
;	COMDAT ??_C@_0BD@LEEGFGLN@?$DO?$DO?5USB?4UnknownDesc@
CONST	SEGMENT
??_C@_0BD@LEEGFGLN@?$DO?$DO?5USB?4UnknownDesc@ DB '>> USB.UnknownDesc', 00H ; `string'
CONST	ENDS
;	COMDAT ??_C@_0P@DKFDMJNG@?$DM?$DM?5USB?4StrDesc@
CONST	SEGMENT
??_C@_0P@DKFDMJNG@?$DM?$DM?5USB?4StrDesc@ DB '<< USB.StrDesc', 00H ; `string'
CONST	ENDS
;	COMDAT ??_C@_0P@CCEKBNHE@?$DO?5?5?50x?$CF04X?3?5?$CFs@
CONST	SEGMENT
??_C@_0P@CCEKBNHE@?$DO?5?5?50x?$CF04X?3?5?$CFs@ DB '>   0x%04X: %s', 00H ; `string'
CONST	ENDS
;	COMDAT ??_C@_0BH@LCHICFEL@?$DO?$DO?5USB?4StrDesc?0?5Idx?5?$CFd@
CONST	SEGMENT
??_C@_0BH@LCHICFEL@?$DO?$DO?5USB?4StrDesc?0?5Idx?5?$CFd@ DB '>> USB.StrDe'
	DB	'sc, Idx %d', 00H				; `string'
CONST	ENDS
;	COMDAT ??_C@_0P@MIAEPICD@?$DM?$DM?5USB?4HidDesc@
CONST	SEGMENT
??_C@_0P@MIAEPICD@?$DM?$DM?5USB?4HidDesc@ DB '<< USB.HidDesc', 00H ; `string'
CONST	ENDS
;	COMDAT ??_C@_0DN@JAEDHMBE@?$DO?5?5?5?$CF?43i?0?5bDescriptorType?3?50x?$CF0@
CONST	SEGMENT
??_C@_0DN@JAEDHMBE@?$DO?5?5?5?$CF?43i?0?5bDescriptorType?3?50x?$CF0@ DB '>'
	DB	'   %.3i, bDescriptorType: 0x%02X, wDescriptorLength: 0x%04X', 00H ; `string'
CONST	ENDS
;	COMDAT ??_C@_0BM@MKJBFMNP@?$DO?5?5?5bNumDescriptors?3?50x?$CF02X@
CONST	SEGMENT
??_C@_0BM@MKJBFMNP@?$DO?5?5?5bNumDescriptors?3?50x?$CF02X@ DB '>   bNumDe'
	DB	'scriptors: 0x%02X', 00H			; `string'
CONST	ENDS
;	COMDAT ??_C@_0BJ@CKIDJFBI@?$DO?5?5?5bCountryCode?3?50x?$CF02X@
CONST	SEGMENT
??_C@_0BJ@CKIDJFBI@?$DO?5?5?5bCountryCode?3?50x?$CF02X@ DB '>   bCountryC'
	DB	'ode: 0x%02X', 00H				; `string'
CONST	ENDS
;	COMDAT ??_C@_0BD@JNJCPDHI@?$DO?5?5?5bcdHID?3?50x?$CF04X@
CONST	SEGMENT
??_C@_0BD@JNJCPDHI@?$DO?5?5?5bcdHID?3?50x?$CF04X@ DB '>   bcdHID: 0x%04X', 00H ; `string'
CONST	ENDS
;	COMDAT ??_C@_0BC@FKMEKGFJ@?$DO?5HID?5Descriptor?3@
CONST	SEGMENT
??_C@_0BC@FKMEKGFJ@?$DO?5HID?5Descriptor?3@ DB '> HID Descriptor:', 00H ; `string'
CONST	ENDS
;	COMDAT ??_C@_0P@IBOMINBP@?$DO?$DO?5USB?4HidDesc@
CONST	SEGMENT
??_C@_0P@IBOMINBP@?$DO?$DO?5USB?4HidDesc@ DB '>> USB.HidDesc', 00H ; `string'
CONST	ENDS
;	COMDAT ??_C@_0BE@KDOIKLAK@?$DM?$DM?5USB?4EndpointDesc@
CONST	SEGMENT
??_C@_0BE@KDOIKLAK@?$DM?$DM?5USB?4EndpointDesc@ DB '<< USB.EndpointDesc', 00H ; `string'
CONST	ENDS
;	COMDAT ??_C@_0BJ@CECFOBBD@?$DO?5?5?5bSyncAddress?3?50x?$CF02X@
CONST	SEGMENT
??_C@_0BJ@CECFOBBD@?$DO?5?5?5bSyncAddress?3?50x?$CF02X@ DB '>   bSyncAddr'
	DB	'ess: 0x%02X', 00H				; `string'
CONST	ENDS
;	COMDAT ??_C@_0BG@HBLIDDIE@?$DO?5?5?5wInterval?3?50x?$CF04X@
CONST	SEGMENT
??_C@_0BG@HBLIDDIE@?$DO?5?5?5wInterval?3?50x?$CF04X@ DB '>   wInterval: 0'
	DB	'x%04X', 00H					; `string'
CONST	ENDS
;	COMDAT ??_C@_0BG@LPGMHCMJ@?$DO?5?5?5bInterval?3?50x?$CF02X@
CONST	SEGMENT
??_C@_0BG@LPGMHCMJ@?$DO?5?5?5bInterval?3?50x?$CF02X@ DB '>   bInterval: 0'
	DB	'x%02X', 00H					; `string'
CONST	ENDS
;	COMDAT ??_C@_0CA@OFHICAPC@?$DO?5?5?5wMaxPacketSize?3?50x?$CF04X?5?$CI?$CFd?$CJ@
CONST	SEGMENT
??_C@_0CA@OFHICAPC@?$DO?5?5?5wMaxPacketSize?3?50x?$CF04X?5?$CI?$CFd?$CJ@ DB '>'
	DB	'   wMaxPacketSize: 0x%04X (%d)', 00H	; `string'
CONST	ENDS
;	COMDAT ??_C@_0BN@MOOEBEKA@?$DO?5?5?5Transfer?5Type?3?5Interrupt@
CONST	SEGMENT
??_C@_0BN@MOOEBEKA@?$DO?5?5?5Transfer?5Type?3?5Interrupt@ DB '>   Transfe'
	DB	'r Type: Interrupt', 00H			; `string'
CONST	ENDS
;	COMDAT ??_C@_0BI@ELEHNLID@?$DO?5?5?5Transfer?5Type?3?5Bulk@
CONST	SEGMENT
??_C@_0BI@ELEHNLID@?$DO?5?5?5Transfer?5Type?3?5Bulk@ DB '>   Transfer Typ'
	DB	'e: Bulk', 00H				; `string'
CONST	ENDS
;	COMDAT ??_C@_0BP@DMDNFJME@?$DO?5?5?5Transfer?5Type?3?5Isochronous@
CONST	SEGMENT
??_C@_0BP@DMDNFJME@?$DO?5?5?5Transfer?5Type?3?5Isochronous@ DB '>   Trans'
	DB	'fer Type: Isochronous', 00H			; `string'
CONST	ENDS
;	COMDAT ??_C@_0BL@ICIOMPJC@?$DO?5?5?5Transfer?5Type?3?5Control@
CONST	SEGMENT
??_C@_0BL@ICIOMPJC@?$DO?5?5?5Transfer?5Type?3?5Control@ DB '>   Transfer '
	DB	'Type: Control', 00H				; `string'
CONST	ENDS
;	COMDAT ??_C@_0CB@PIKLNKCM@?$DO?5?5?5bEndpointAddress?3?50x?$CF02X?5OU@
CONST	SEGMENT
??_C@_0CB@PIKLNKCM@?$DO?5?5?5bEndpointAddress?3?50x?$CF02X?5OU@ DB '>   b'
	DB	'EndpointAddress: 0x%02X OUT', 00H		; `string'
CONST	ENDS
;	COMDAT ??_C@_0CA@IMJGHBI@?$DO?5?5?5bEndpointAddress?3?50x?$CF02X?5IN@
CONST	SEGMENT
??_C@_0CA@IMJGHBI@?$DO?5?5?5bEndpointAddress?3?50x?$CF02X?5IN@ DB '>   bE'
	DB	'ndpointAddress: 0x%02X IN', 00H		; `string'
CONST	ENDS
;	COMDAT ??_C@_0BH@NNPPCJHP@?$DO?5Endpoint?5Descriptor?3@
CONST	SEGMENT
??_C@_0BH@NNPPCJHP@?$DO?5Endpoint?5Descriptor?3@ DB '> Endpoint Descripto'
	DB	'r:', 00H					; `string'
CONST	ENDS
;	COMDAT ??_C@_0BE@BNJCNLHH@?$DO?$DO?5USB?4EndpointDesc@
CONST	SEGMENT
??_C@_0BE@BNJCNLHH@?$DO?$DO?5USB?4EndpointDesc@ DB '>> USB.EndpointDesc', 00H ; `string'
CONST	ENDS
;	COMDAT ??_C@_0BF@HIFPCDPI@?$DM?$DM?5USB?4InterfaceDesc@
CONST	SEGMENT
??_C@_0BF@HIFPCDPI@?$DM?$DM?5USB?4InterfaceDesc@ DB '<< USB.InterfaceDesc'
	DB	00H						; `string'
CONST	ENDS
;	COMDAT ??_C@_0BI@MFPCCAIN@?$DO?5?5?5wNumClasses?3?50x?$CF04X@
CONST	SEGMENT
??_C@_0BI@MFPCCAIN@?$DO?5?5?5wNumClasses?3?50x?$CF04X@ DB '>   wNumClasse'
	DB	's: 0x%04X', 00H				; `string'
CONST	ENDS
;	COMDAT ??_C@_0BH@JAJKJCLD@?$DO?5?5?5iInterface?3?50x?$CF02X@
CONST	SEGMENT
??_C@_0BH@JAJKJCLD@?$DO?5?5?5iInterface?3?50x?$CF02X@ DB '>   iInterface:'
	DB	' 0x%02X', 00H				; `string'
CONST	ENDS
;	COMDAT ??_C@_0BP@HNOOPNHM@?$DO?5?5?5bInterfaceProtocol?3?50x?$CF02X@
CONST	SEGMENT
??_C@_0BP@HNOOPNHM@?$DO?5?5?5bInterfaceProtocol?3?50x?$CF02X@ DB '>   bIn'
	DB	'terfaceProtocol: 0x%02X', 00H		; `string'
CONST	ENDS
;	COMDAT ??_C@_0BP@MCCALMMN@?$DO?5?5?5bInterfaceSubClass?3?50x?$CF02X@
CONST	SEGMENT
??_C@_0BP@MCCALMMN@?$DO?5?5?5bInterfaceSubClass?3?50x?$CF02X@ DB '>   bIn'
	DB	'terfaceSubClass: 0x%02X', 00H		; `string'
CONST	ENDS
;	COMDAT ??_C@_0CE@PEKAFJHJ@?$DO?5?5?5bInterfaceSubClass?3?50x?$CF02X?5@
CONST	SEGMENT
??_C@_0CE@PEKAFJHJ@?$DO?5?5?5bInterfaceSubClass?3?50x?$CF02X?5@ DB '>   b'
	DB	'InterfaceSubClass: 0x%02X (%s)', 00H	; `string'
CONST	ENDS
;	COMDAT ??_C@_0P@ODBCJCKO@MIDI?5Streaming@
CONST	SEGMENT
??_C@_0P@ODBCJCKO@MIDI?5Streaming@ DB 'MIDI Streaming', 00H ; `string'
CONST	ENDS
;	COMDAT ??_C@_0BA@CCICINDB@Audio?5Streaming@
CONST	SEGMENT
??_C@_0BA@CCICINDB@Audio?5Streaming@ DB 'Audio Streaming', 00H ; `string'
CONST	ENDS
;	COMDAT ??_C@_0O@FIEMGMDK@Audio?5Control@
CONST	SEGMENT
??_C@_0O@FIEMGMDK@Audio?5Control@ DB 'Audio Control', 00H ; `string'
CONST	ENDS
;	COMDAT ??_C@_0CB@KPEKNPLO@?$DO?5?5?5bInterfaceClass?3?50x?$CF02X?5?$CI?$CFs@
CONST	SEGMENT
??_C@_0CB@KPEKNPLO@?$DO?5?5?5bInterfaceClass?3?50x?$CF02X?5?$CI?$CFs@ DB '>'
	DB	'   bInterfaceClass: 0x%02X (%s)', 00H	; `string'
CONST	ENDS
;	COMDAT ??_C@_03IFOKPDKP@Hub@
CONST	SEGMENT
??_C@_03IFOKPDKP@Hub@ DB 'Hub', 00H			; `string'
CONST	ENDS
;	COMDAT ??_C@_03GLEFGMHP@HID@
CONST	SEGMENT
??_C@_03GLEFGMHP@HID@ DB 'HID', 00H			; `string'
CONST	ENDS
;	COMDAT ??_C@_05KKCMAPLJ@Audio@
CONST	SEGMENT
??_C@_05KKCMAPLJ@Audio@ DB 'Audio', 00H			; `string'
CONST	ENDS
;	COMDAT ??_C@_0BK@EHJBAMGD@?$DO?5?5?5bNumEndpoints?3?50x?$CF02X@
CONST	SEGMENT
??_C@_0BK@EHJBAMGD@?$DO?5?5?5bNumEndpoints?3?50x?$CF02X@ DB '>   bNumEndp'
	DB	'oints: 0x%02X', 00H				; `string'
CONST	ENDS
;	COMDAT ??_C@_0BO@JANOLKEO@?$DO?5?5?5bAlternateSetting?3?50x?$CF02X@
CONST	SEGMENT
??_C@_0BO@JANOLKEO@?$DO?5?5?5bAlternateSetting?3?50x?$CF02X@ DB '>   bAlt'
	DB	'ernateSetting: 0x%02X', 00H			; `string'
CONST	ENDS
;	COMDAT ??_C@_0BN@ONGOLDBE@?$DO?5?5?5bInterfaceNumber?3?50x?$CF02X@
CONST	SEGMENT
??_C@_0BN@ONGOLDBE@?$DO?5?5?5bInterfaceNumber?3?50x?$CF02X@ DB '>   bInte'
	DB	'rfaceNumber: 0x%02X', 00H			; `string'
CONST	ENDS
;	COMDAT ??_C@_0BI@FGHPJGGP@?$DO?5Interface?5Descriptor?3@
CONST	SEGMENT
??_C@_0BI@FGHPJGGP@?$DO?5Interface?5Descriptor?3@ DB '> Interface Descrip'
	DB	'tor:', 00H					; `string'
CONST	ENDS
;	COMDAT ??_C@_0BF@FGFFFEAJ@?$DO?$DO?5USB?4InterfaceDesc@
CONST	SEGMENT
??_C@_0BF@FGFFFEAJ@?$DO?$DO?5USB?4InterfaceDesc@ DB '>> USB.InterfaceDesc'
	DB	00H						; `string'
CONST	ENDS
;	COMDAT ??_C@_0P@OFLCOGDC@?$DM?$DM?5USB?4CfgDesc@
CONST	SEGMENT
??_C@_0P@OFLCOGDC@?$DM?$DM?5USB?4CfgDesc@ DB '<< USB.CfgDesc', 00H ; `string'
CONST	ENDS
;	COMDAT ??_C@_0BN@BADCCJC@?$DO?5?5?5MaxPower?3?50x?$CF02X?5?$CI?$CFd?5mA?$CJ@
CONST	SEGMENT
??_C@_0BN@BADCCJC@?$DO?5?5?5MaxPower?3?50x?$CF02X?5?$CI?$CFd?5mA?$CJ@ DB '>'
	DB	'   MaxPower: 0x%02X (%d mA)', 00H		; `string'
CONST	ENDS
;	COMDAT ??_C@_0BO@GBBHCHCO@?$DO?5?5?5bmAttributes?3?50x?$CF02X?5?$CI?$CFs?$CJ@
CONST	SEGMENT
??_C@_0BO@GBBHCHCO@?$DO?5?5?5bmAttributes?3?50x?$CF02X?5?$CI?$CFs?$CJ@ DB '>'
	DB	'   bmAttributes: 0x%02X (%s)', 00H		; `string'
CONST	ENDS
;	COMDAT ??_C@_01OGPIMHDM@?$DP@
CONST	SEGMENT
??_C@_01OGPIMHDM@?$DP@ DB '?', 00H			; `string'
CONST	ENDS
;	COMDAT ??_C@_0O@CEMJPFOE@Remote?5Wakeup@
CONST	SEGMENT
??_C@_0O@CEMJPFOE@Remote?5Wakeup@ DB 'Remote Wakeup', 00H ; `string'
CONST	ENDS
;	COMDAT ??_C@_0N@BBGKMOEA@Self?5Powered@
CONST	SEGMENT
??_C@_0N@BBGKMOEA@Self?5Powered@ DB 'Self Powered', 00H	; `string'
CONST	ENDS
;	COMDAT ??_C@_0M@KJBOJHIH@Bus?5Powered@
CONST	SEGMENT
??_C@_0M@KJBOJHIH@Bus?5Powered@ DB 'Bus Powered', 00H	; `string'
CONST	ENDS
;	COMDAT ??_C@_0BL@MGNBONG@?$DO?5?5?5iConfiguration?3?50x?$CF02X@
CONST	SEGMENT
??_C@_0BL@MGNBONG@?$DO?5?5?5iConfiguration?3?50x?$CF02X@ DB '>   iConfigu'
	DB	'ration: 0x%02X', 00H			; `string'
CONST	ENDS
;	COMDAT ??_C@_0CA@KHMLNGHE@?$DO?5?5?5bConfigurationValue?3?50x?$CF02X@
CONST	SEGMENT
??_C@_0CA@KHMLNGHE@?$DO?5?5?5bConfigurationValue?3?50x?$CF02X@ DB '>   bC'
	DB	'onfigurationValue: 0x%02X', 00H		; `string'
CONST	ENDS
;	COMDAT ??_C@_0BL@JNHEPBEN@?$DO?5?5?5bNumInterfaces?3?50x?$CF02X@
CONST	SEGMENT
??_C@_0BL@JNHEPBEN@?$DO?5?5?5bNumInterfaces?3?50x?$CF02X@ DB '>   bNumInt'
	DB	'erfaces: 0x%02X', 00H			; `string'
CONST	ENDS
;	COMDAT ??_C@_0BJ@JBGKFDNL@?$DO?5?5?5wTotalLength?3?50x?$CF04X@
CONST	SEGMENT
??_C@_0BJ@JBGKFDNL@?$DO?5?5?5wTotalLength?3?50x?$CF04X@ DB '>   wTotalLen'
	DB	'gth: 0x%04X', 00H				; `string'
CONST	ENDS
;	COMDAT ??_C@_0BM@PCIMCBFD@?$DO?5Configuration?5Descriptor?3@
CONST	SEGMENT
??_C@_0BM@PCIMCBFD@?$DO?5Configuration?5Descriptor?3@ DB '> Configuration'
	DB	' Descriptor:', 00H				; `string'
CONST	ENDS
;	COMDAT ??_C@_0P@KMFKJDAO@?$DO?$DO?5USB?4CfgDesc@
CONST	SEGMENT
??_C@_0P@KMFKJDAO@?$DO?$DO?5USB?4CfgDesc@ DB '>> USB.CfgDesc', 00H ; `string'
CONST	ENDS
;	COMDAT ??_C@_0BA@DPPHAOCN@?$DM?$DM?5USB?4ConnDesc@
CONST	SEGMENT
??_C@_0BA@DPPHAOCN@?$DM?$DM?5USB?4ConnDesc@ DB '<< USB.ConnDesc', 00H ; `string'
CONST	ENDS
;	COMDAT ??_C@_0BM@HNNAHBOO@?$DM?$DM?5USB?4ConnDesc?0?5Input?5null@
CONST	SEGMENT
??_C@_0BM@HNNAHBOO@?$DM?$DM?5USB?4ConnDesc?0?5Input?5null@ DB '<< USB.Con'
	DB	'nDesc, Input null', 00H			; `string'
CONST	ENDS
;	COMDAT ??_C@_0BA@BANBJKNP@?$DO?$DO?5USB?4ConnDesc@
CONST	SEGMENT
??_C@_0BA@BANBJKNP@?$DO?$DO?5USB?4ConnDesc@ DB '>> USB.ConnDesc', 00H ; `string'
CONST	ENDS
;	COMDAT ??_C@_0BA@KIDKADGJ@?$DM?$DM?5USB?4PipeInfo@
CONST	SEGMENT
??_C@_0BA@KIDKADGJ@?$DM?$DM?5USB?4PipeInfo@ DB '<< USB.PipeInfo', 00H ; `string'
CONST	ENDS
;	COMDAT ??_C@_0BE@MPHLOHIN@?$DO?$DO?5USB?4PipeInfo?0?5?$CFu@
CONST	SEGMENT
??_C@_0BE@MPHLOHIN@?$DO?$DO?5USB?4PipeInfo?0?5?$CFu@ DB '>> USB.PipeInfo,'
	DB	' %u', 00H					; `string'
CONST	ENDS
;	COMDAT ??_C@_0BA@KGDOGDAK@?$DM?$DM?5USB?4ConnInfo@
CONST	SEGMENT
??_C@_0BA@KGDOGDAK@?$DM?$DM?5USB?4ConnInfo@ DB '<< USB.ConnInfo', 00H ; `string'
CONST	ENDS
;	COMDAT ??_C@_0BG@MHCPFALG@?$DO?5?5?5Open?5Pipes?3?5?$CF02lu@
CONST	SEGMENT
??_C@_0BG@MHCPFALG@?$DO?5?5?5Open?5Pipes?3?5?$CF02lu@ DB '>   Open Pipes:'
	DB	' %02lu', 00H				; `string'
CONST	ENDS
;	COMDAT ??_C@_0BL@DEBOODEI@?$DO?5?5?5Device?5Address?3?50x?$CF02X@
CONST	SEGMENT
??_C@_0BL@DEBOODEI@?$DO?5?5?5Device?5Address?3?50x?$CF02X@ DB '>   Device'
	DB	' Address: 0x%02X', 00H			; `string'
CONST	ENDS
;	COMDAT ??_C@_0BO@IIJPBIOD@?$DO?5?5?5Device?5Bus?5Speed?3?5Unknown@
CONST	SEGMENT
??_C@_0BO@IIJPBIOD@?$DO?5?5?5Device?5Bus?5Speed?3?5Unknown@ DB '>   Devic'
	DB	'e Bus Speed: Unknown', 00H			; `string'
CONST	ENDS
;	COMDAT ??_C@_0BL@OEKHLNNJ@?$DO?5?5?5Device?5Bus?5Speed?3?5High@
CONST	SEGMENT
??_C@_0BL@OEKHLNNJ@?$DO?5?5?5Device?5Bus?5Speed?3?5High@ DB '>   Device B'
	DB	'us Speed: High', 00H			; `string'
CONST	ENDS
;	COMDAT ??_C@_0BL@CJGBMBHK@?$DO?5?5?5Device?5Bus?5Speed?3?5Full@
CONST	SEGMENT
??_C@_0BL@CJGBMBHK@?$DO?5?5?5Device?5Bus?5Speed?3?5Full@ DB '>   Device B'
	DB	'us Speed: Full', 00H			; `string'
CONST	ENDS
;	COMDAT ??_C@_0BK@CLDGMCFC@?$DO?5?5?5Device?5Bus?5Speed?3?5Low@
CONST	SEGMENT
??_C@_0BK@CLDGMCFC@?$DO?5?5?5Device?5Bus?5Speed?3?5Low@ DB '>   Device Bu'
	DB	's Speed: Low', 00H				; `string'
CONST	ENDS
;	COMDAT ??_C@_0CB@CNIJGGK@?$DO?5?5?5Current?5Config?5Value?3?50x?$CF02@
CONST	SEGMENT
??_C@_0CB@CNIJGGK@?$DO?5?5?5Current?5Config?5Value?3?50x?$CF02@ DB '>   C'
	DB	'urrent Config Value: 0x%02X', 00H		; `string'
CONST	ENDS
;	COMDAT ??_C@_0BJ@POKCFGAN@?$DO?5?5?5ConnectionStatus?3?5?$CFs@
CONST	SEGMENT
??_C@_0BJ@POKCFGAN@?$DO?5?5?5ConnectionStatus?3?5?$CFs@ DB '>   Connectio'
	DB	'nStatus: %s', 00H				; `string'
CONST	ENDS
;	COMDAT ??_C@_0BP@EFEAMJPP@?$DO?5?5?5bNumConfigurations?3?50x?$CF02X@
CONST	SEGMENT
??_C@_0BP@EFEAMJPP@?$DO?5?5?5bNumConfigurations?3?50x?$CF02X@ DB '>   bNu'
	DB	'mConfigurations: 0x%02X', 00H		; `string'
CONST	ENDS
;	COMDAT ??_C@_0BK@LAPCHIKM@?$DO?5?5?5iSerialNumber?3?50x?$CF02X@
CONST	SEGMENT
??_C@_0BK@LAPCHIKM@?$DO?5?5?5iSerialNumber?3?50x?$CF02X@ DB '>   iSerialN'
	DB	'umber: 0x%02X', 00H				; `string'
CONST	ENDS
;	COMDAT ??_C@_0BF@JLHEPLOO@?$DO?5?5?5iProduct?3?50x?$CF02X@
CONST	SEGMENT
??_C@_0BF@JLHEPLOO@?$DO?5?5?5iProduct?3?50x?$CF02X@ DB '>   iProduct: 0x%'
	DB	'02X', 00H					; `string'
CONST	ENDS
;	COMDAT ??_C@_0BK@IFOFIIGL@?$DO?5?5?5iManufacturer?3?50x?$CF02X@
CONST	SEGMENT
??_C@_0BK@IFOFIIGL@?$DO?5?5?5iManufacturer?3?50x?$CF02X@ DB '>   iManufac'
	DB	'turer: 0x%02X', 00H				; `string'
CONST	ENDS
;	COMDAT ??_C@_0BG@IFDGHCDF@?$DO?5?5?5bcdDevice?3?50x?$CF04X@
CONST	SEGMENT
??_C@_0BG@IFDGHCDF@?$DO?5?5?5bcdDevice?3?50x?$CF04X@ DB '>   bcdDevice: 0'
	DB	'x%04X', 00H					; `string'
CONST	ENDS
;	COMDAT ??_C@_0BG@FEBFICPG@?$DO?5?5?5idProduct?3?50x?$CF04X@
CONST	SEGMENT
??_C@_0BG@FEBFICPG@?$DO?5?5?5idProduct?3?50x?$CF04X@ DB '>   idProduct: 0'
	DB	'x%04X', 00H					; `string'
CONST	ENDS
;	COMDAT ??_C@_0BK@FCNKAGPN@?$DO?5?5?5idVendor?3?50x?$CF04X?5?$CI?$CFs?$CJ@
CONST	SEGMENT
??_C@_0BK@FCNKAGPN@?$DO?5?5?5idVendor?3?50x?$CF04X?5?$CI?$CFs?$CJ@ DB '> '
	DB	'  idVendor: 0x%04X (%s)', 00H		; `string'
CONST	ENDS
;	COMDAT ??_C@_0CB@KJHHAJF@?$DO?5?5?5bMaxPacketSize0?3?50x?$CF02X?5?$CI?$CFd@
CONST	SEGMENT
??_C@_0CB@KJHHAJF@?$DO?5?5?5bMaxPacketSize0?3?50x?$CF02X?5?$CI?$CFd@ DB '>'
	DB	'   bMaxPacketSize0: 0x%02X (%d)', 00H	; `string'
CONST	ENDS
;	COMDAT ??_C@_0BM@DONCAOLL@?$DO?5?5?5bDeviceProtocol?3?50x?$CF02X@
CONST	SEGMENT
??_C@_0BM@DONCAOLL@?$DO?5?5?5bDeviceProtocol?3?50x?$CF02X@ DB '>   bDevic'
	DB	'eProtocol: 0x%02X', 00H			; `string'
CONST	ENDS
;	COMDAT ??_C@_0BM@IBBMEPAK@?$DO?5?5?5bDeviceSubClass?3?50x?$CF02X@
CONST	SEGMENT
??_C@_0BM@IBBMEPAK@?$DO?5?5?5bDeviceSubClass?3?50x?$CF02X@ DB '>   bDevic'
	DB	'eSubClass: 0x%02X', 00H			; `string'
CONST	ENDS
;	COMDAT ??_C@_0BJ@BBNICMHO@?$DO?5?5?5bDeviceClass?3?50x?$CF02X@
CONST	SEGMENT
??_C@_0BJ@BBNICMHO@?$DO?5?5?5bDeviceClass?3?50x?$CF02X@ DB '>   bDeviceCl'
	DB	'ass: 0x%02X', 00H				; `string'
CONST	ENDS
;	COMDAT ??_C@_0BD@EOGCPDGC@?$DO?5?5?5bcdUSB?3?50x?$CF04X@
CONST	SEGMENT
??_C@_0BD@EOGCPDGC@?$DO?5?5?5bcdUSB?3?50x?$CF04X@ DB '>   bcdUSB: 0x%04X', 00H ; `string'
CONST	ENDS
;	COMDAT ??_C@_0BF@EPIIACIH@?$DO?5Device?5Descriptor?3@
CONST	SEGMENT
??_C@_0BF@EPIIACIH@?$DO?5Device?5Descriptor?3@ DB '> Device Descriptor:', 00H ; `string'
CONST	ENDS
;	COMDAT ??_C@_0CG@KIPJNEMD@?$DO?5ConnectionStatus?3?5NoDeviceCon@
CONST	SEGMENT
??_C@_0CG@KIPJNEMD@?$DO?5ConnectionStatus?3?5NoDeviceCon@ DB '> Connectio'
	DB	'nStatus: NoDeviceConnected', 00H		; `string'
CONST	ENDS
;	COMDAT ??_C@_0BM@GIKFEJKI@?$DM?$DM?5USB?4ConnInfo?0?5Input?5null@
CONST	SEGMENT
??_C@_0BM@GIKFEJKI@?$DM?$DM?5USB?4ConnInfo?0?5Input?5null@ DB '<< USB.Con'
	DB	'nInfo, Input null', 00H			; `string'
CONST	ENDS
;	COMDAT ??_C@_0BA@IJBIPHPI@?$DO?$DO?5USB?4ConnInfo@
CONST	SEGMENT
??_C@_0BA@IJBIPHPI@?$DO?$DO?5USB?4ConnInfo@ DB '>> USB.ConnInfo', 00H ; `string'
CONST	ENDS
;	COMDAT ??_C@_0P@MLOFAKML@?$DM?$DM?5USB?4HubCaps@
CONST	SEGMENT
??_C@_0P@MLOFAKML@?$DM?$DM?5USB?4HubCaps@ DB '<< USB.HubCaps', 00H ; `string'
CONST	ENDS
;	COMDAT ??_C@_0BN@HMIILDFE@Hub?5Capabilities?5UNAVAILABLE@
CONST	SEGMENT
??_C@_0BN@HMIILDFE@Hub?5Capabilities?5UNAVAILABLE@ DB 'Hub Capabilities U'
	DB	'NAVAILABLE', 00H				; `string'
CONST	ENDS
;	COMDAT ??_C@_0CA@BJAEENFA@?$DO?5Hub?5Capabilities?3?5?$CF0?$CD8lx?5?$CI?$CFs?$CJ@
CONST	SEGMENT
??_C@_0CA@BJAEENFA@?$DO?5Hub?5Capabilities?3?5?$CF0?$CD8lx?5?$CI?$CFs?$CJ@ DB '>'
	DB	' Hub Capabilities: %0#8lx (%s)', 00H	; `string'
CONST	ENDS
;	COMDAT ??_C@_0P@LDNEGAOE@Not?5high?5speed@
CONST	SEGMENT
??_C@_0P@LDNEGAOE@Not?5high?5speed@ DB 'Not high speed', 00H ; `string'
CONST	ENDS
;	COMDAT ??_C@_0L@BGKBMIAF@High?5speed@
CONST	SEGMENT
??_C@_0L@BGKBMIAF@High?5speed@ DB 'High speed', 00H	; `string'
CONST	ENDS
;	COMDAT ??_C@_0CG@OCCHEKHL@Extended?5Hub?5Capabilities?5UNAVA@
CONST	SEGMENT
??_C@_0CG@OCCHEKHL@Extended?5Hub?5Capabilities?5UNAVA@ DB 'Extended Hub C'
	DB	'apabilities UNAVAILABLE', 00H		; `string'
CONST	ENDS
;	COMDAT ??_C@_0BP@LBBGDALG@?$DO?5?5?5Reserved?5?$CI26?5bits?$CJ?3?5?$CF0?$CD6lx@
CONST	SEGMENT
??_C@_0BP@LBBGDALG@?$DO?5?5?5Reserved?5?$CI26?5bits?$CJ?3?5?$CF0?$CD6lx@ DB '>'
	DB	'   Reserved (26 bits): %0#6lx', 00H		; `string'
CONST	ENDS
;	COMDAT ??_C@_0CC@EBPNDPBD@?$DO?5?5?5Armed?5for?5wake?5on?5connect?3?5@
CONST	SEGMENT
??_C@_0CC@EBPNDPBD@?$DO?5?5?5Armed?5for?5wake?5on?5connect?3?5@ DB '>   A'
	DB	'rmed for wake on connect: %s', 00H		; `string'
CONST	ENDS
;	COMDAT ??_C@_0BB@BIGCJPGA@?$DO?5?5?5Root?5hub?3?5?$CFs@
CONST	SEGMENT
??_C@_0BB@BIGCJPGA@?$DO?5?5?5Root?5hub?3?5?$CFs@ DB '>   Root hub: %s', 00H ; `string'
CONST	ENDS
;	COMDAT ??_C@_0BK@JNPMKCLE@?$DO?5?5?5Mulit?9transaction?3?5?$CFs@
CONST	SEGMENT
??_C@_0BK@JNPMKCLE@?$DO?5?5?5Mulit?9transaction?3?5?$CFs@ DB '>   Mulit-t'
	DB	'ransaction: %s', 00H			; `string'
CONST	ENDS
;	COMDAT ??_C@_03GCDBBDDL@Off@
CONST	SEGMENT
??_C@_03GCDBBDDL@Off@ DB 'Off', 00H			; `string'
CONST	ENDS
;	COMDAT ??_C@_02IAAGKKDJ@On@
CONST	SEGMENT
??_C@_02IAAGKKDJ@On@ DB 'On', 00H			; `string'
CONST	ENDS
;	COMDAT ??_C@_0CC@CJLCKEMN@?$DO?5?5?5Mulit?9transaction?5Capable?3?5@
CONST	SEGMENT
??_C@_0CC@CJLCKEMN@?$DO?5?5?5Mulit?9transaction?5Capable?3?5@ DB '>   Mul'
	DB	'it-transaction Capable: %s', 00H		; `string'
CONST	ENDS
;	COMDAT ??_C@_0BD@FCCHMOKD@?$DO?5?5?5High?5speed?3?5?$CFs@
CONST	SEGMENT
??_C@_0BD@FCCHMOKD@?$DO?5?5?5High?5speed?3?5?$CFs@ DB '>   High speed: %s'
	DB	00H						; `string'
CONST	ENDS
;	COMDAT ??_C@_0BL@GGCJII@?$DO?5?5?5High?5speed?5Capable?3?5?$CFs@
CONST	SEGMENT
??_C@_0BL@GGCJII@?$DO?5?5?5High?5speed?5Capable?3?5?$CFs@ DB '>   High sp'
	DB	'eed Capable: %s', 00H			; `string'
CONST	ENDS
;	COMDAT ??_C@_0CI@KPNJBEAB@?$DO?5Extended?5Hub?5Capability?5Flags@
CONST	SEGMENT
??_C@_0CI@KPNJBEAB@?$DO?5Extended?5Hub?5Capability?5Flags@ DB '> Extended'
	DB	' Hub Capability Flags: %0#8lx', 00H		; `string'
CONST	ENDS
;	COMDAT ??_C@_0P@ICANHPPH@?$DO?$DO?5USB?4HubCaps@
CONST	SEGMENT
??_C@_0P@ICANHPPH@?$DO?$DO?5USB?4HubCaps@ DB '>> USB.HubCaps', 00H ; `string'
CONST	ENDS
;	COMDAT ??_C@_0P@CHOKIAKD@?$DM?$DM?5USB?4HubInfo@
CONST	SEGMENT
??_C@_0P@CHOKIAKD@?$DM?$DM?5USB?4HubInfo@ DB '<< USB.HubInfo', 00H ; `string'
CONST	ENDS
;	COMDAT ??_C@_0CO@FGJIHOLC@?$DO?5No?5Over?9current?5Protection?5?$CIB@
CONST	SEGMENT
??_C@_0CO@FGJIHOLC@?$DO?5No?5Over?9current?5Protection?5?$CIB@ DB '> No O'
	DB	'ver-current Protection (Bus Power Only)', 00H ; `string'
CONST	ENDS
;	COMDAT ??_C@_0CG@MEGDLCFA@?$DO?5Over?9current?5Protection?3?5Indi@
CONST	SEGMENT
??_C@_0CG@MEGDLCFA@?$DO?5Over?9current?5Protection?3?5Indi@ DB '> Over-cu'
	DB	'rrent Protection: Individual', 00H		; `string'
CONST	ENDS
;	COMDAT ??_C@_0CC@ELIAJJDL@?$DO?5Over?9current?5Protection?3?5Glob@
CONST	SEGMENT
??_C@_0CC@ELIAJJDL@?$DO?5Over?9current?5Protection?3?5Glob@ DB '> Over-cu'
	DB	'rrent Protection: Global', 00H		; `string'
CONST	ENDS
;	COMDAT ??_C@_0BH@CFBEDMDO@?$DO?5Compound?5device?3?5Yes@
CONST	SEGMENT
??_C@_0BH@CFBEDMDO@?$DO?5Compound?5device?3?5Yes@ DB '> Compound device: '
	DB	'Yes', 00H					; `string'
CONST	ENDS
;	COMDAT ??_C@_0BG@FBGEODEL@?$DO?5Compound?5device?3?5No@
CONST	SEGMENT
??_C@_0BG@FBGEODEL@?$DO?5Compound?5device?3?5No@ DB '> Compound device: N'
	DB	'o', 00H					; `string'
CONST	ENDS
;	COMDAT ??_C@_0BI@FICFFJGB@?$DO?5Power?5switching?3?5None@
CONST	SEGMENT
??_C@_0BI@FICFFJGB@?$DO?5Power?5switching?3?5None@ DB '> Power switching:'
	DB	' None', 00H					; `string'
CONST	ENDS
;	COMDAT ??_C@_0BO@BHNNAPDB@?$DO?5Power?5switching?3?5Individual@
CONST	SEGMENT
??_C@_0BO@BHNNAPDB@?$DO?5Power?5switching?3?5Individual@ DB '> Power swit'
	DB	'ching: Individual', 00H			; `string'
CONST	ENDS
;	COMDAT ??_C@_0BK@CEEHKAND@?$DO?5Power?5switching?3?5Ganged@
CONST	SEGMENT
??_C@_0BK@CEEHKAND@?$DO?5Power?5switching?3?5Ganged@ DB '> Power switchin'
	DB	'g: Ganged', 00H				; `string'
CONST	ENDS
;	COMDAT ??_C@_0BG@IOHBDCFM@?$DO?5Number?5of?5Ports?3?5?$CFd@
CONST	SEGMENT
??_C@_0BG@IOHBDCFM@?$DO?5Number?5of?5Ports?3?5?$CFd@ DB '> Number of Port'
	DB	's: %d', 00H					; `string'
CONST	ENDS
;	COMDAT ??_C@_0BA@KPNNFMHH@?$DO?5Hub?5Power?3?5?$CFs@
CONST	SEGMENT
??_C@_0BA@KPNNFMHH@?$DO?5Hub?5Power?3?5?$CFs@ DB '> Hub Power: %s', 00H ; `string'
CONST	ENDS
;	COMDAT ??_C@_0L@JDJFLKOD@Self?5Power@
CONST	SEGMENT
??_C@_0L@JDJFLKOD@Self?5Power@ DB 'Self Power', 00H	; `string'
CONST	ENDS
;	COMDAT ??_C@_09GDHNALJA@Bus?5Power@
CONST	SEGMENT
??_C@_09GDHNALJA@Bus?5Power@ DB 'Bus Power', 00H	; `string'
CONST	ENDS
;	COMDAT ??_C@_0P@GOACPFJP@?$DO?$DO?5USB?4HubInfo@
CONST	SEGMENT
??_C@_0P@GOACPFJP@?$DO?$DO?5USB?4HubInfo@ DB '>> USB.HubInfo', 00H ; `string'
CONST	ENDS
;	COMDAT ??_C@_0BI@HCFMPAHC@?$DM?$DM?5USB?4GetCfgDesc?0?50x?$CFp@
CONST	SEGMENT
??_C@_0BI@HCFMPAHC@?$DM?$DM?5USB?4GetCfgDesc?0?50x?$CFp@ DB '<< USB.GetCf'
	DB	'gDesc, 0x%p', 00H				; `string'
CONST	ENDS
;	COMDAT ??_C@_0CL@LPDCGPEM@?9?9?5USB?4GetCfgDescriptor?0?5new?5Bu@
CONST	SEGMENT
??_C@_0CL@LPDCGPEM@?9?9?5USB?4GetCfgDescriptor?0?5new?5Bu@ DB '-- USB.Get'
	DB	'CfgDescriptor, new Buf (%u) null', 00H	; `string'
CONST	ENDS
;	COMDAT ??_C@_0CI@LMLHDIHD@?$DM?$DM?5USB?4GetCfgDesc?0?5Req?5Total?5?$CFd@
CONST	SEGMENT
??_C@_0CI@LMLHDIHD@?$DM?$DM?5USB?4GetCfgDesc?0?5Req?5Total?5?$CFd@ DB '<<'
	DB	' USB.GetCfgDesc, Req Total %d < Sz %d', 00H	; `string'
CONST	ENDS
;	COMDAT ??_C@_0CP@JDNANMP@?$DM?$DM?5USB?4GetCfgDesc?0?5Req?5Bytes?5?$CFu@
CONST	SEGMENT
??_C@_0CP@JDNANMP@?$DM?$DM?5USB?4GetCfgDesc?0?5Req?5Bytes?5?$CFu@ DB '<< '
	DB	'USB.GetCfgDesc, Req Bytes %u <> BytesRet %u', 00H ; `string'
CONST	ENDS
;	COMDAT ??_C@_0CN@FDNPACDH@?$DM?$DM?5USB?4GetCfgDesc?0?5Req?5DeviceIo@
CONST	SEGMENT
??_C@_0CN@FDNPACDH@?$DM?$DM?5USB?4GetCfgDesc?0?5Req?5DeviceIo@ DB '<< USB'
	DB	'.GetCfgDesc, Req DeviceIoControl False', 00H ; `string'
CONST	ENDS
;	COMDAT ??_C@_0CL@LLJEBADN@?$DM?$DM?5USB?4GetCfgDesc?0?5Total?5?$CFd?5?$DM?5S@
CONST	SEGMENT
??_C@_0CL@LLJEBADN@?$DM?$DM?5USB?4GetCfgDesc?0?5Total?5?$CFd?5?$DM?5S@ DB '<'
	DB	'< USB.GetCfgDesc, Total %d < Sz struct %d', 00H ; `string'
CONST	ENDS
;	COMDAT ??_C@_0CL@CHLLBENA@?$DM?$DM?5USB?4GetCfgDesc?0?5Bytes?5?$CFu?5?$DM?$DO?5@
CONST	SEGMENT
??_C@_0CL@CHLLBENA@?$DM?$DM?5USB?4GetCfgDesc?0?5Bytes?5?$CFu?5?$DM?$DO?5@ DB '<'
	DB	'< USB.GetCfgDesc, Bytes %u <> BytesRet %u', 00H ; `string'
CONST	ENDS
;	COMDAT ??_C@_0CJ@JPCNJMBL@?$DM?$DM?5USB?4GetCfgDesc?0?5DeviceIoCont@
CONST	SEGMENT
??_C@_0CJ@JPCNJMBL@?$DM?$DM?5USB?4GetCfgDesc?0?5DeviceIoCont@ DB '<< USB.'
	DB	'GetCfgDesc, DeviceIoControl False', 00H	; `string'
CONST	ENDS
;	COMDAT ??_C@_0BC@NBPLLDOB@?$DO?$DO?5USB?4GetCfgDesc@
CONST	SEGMENT
??_C@_0BC@NBPLLDOB@?$DO?$DO?5USB?4GetCfgDesc@ DB '>> USB.GetCfgDesc', 00H ; `string'
CONST	ENDS
;	COMDAT ??_C@_0CJ@OCOKNHIB@?$DM?$DM?5USB?4GetStrDescs?0?5StrDescNode@
CONST	SEGMENT
??_C@_0CJ@OCOKNHIB@?$DM?$DM?5USB?4GetStrDescs?0?5StrDescNode@ DB '<< USB.'
	DB	'GetStrDescs, StrDescNodeTail 0x%p', 00H	; `string'
CONST	ENDS
;	COMDAT ??_C@_0BD@HEHGMECG@?$DO?$DO?5USB?4GetStrDescs@
CONST	SEGMENT
??_C@_0BD@HEHGMECG@?$DO?$DO?5USB?4GetStrDescs@ DB '>> USB.GetStrDescs', 00H ; `string'
CONST	ENDS
;	COMDAT ??_C@_0CH@GAKGEKMO@?$DM?$DM?5USB?4GetHCDDrvKeyName?0?5DrvKey@
CONST	SEGMENT
??_C@_0CH@GAKGEKMO@?$DM?$DM?5USB?4GetHCDDrvKeyName?0?5DrvKey@ DB '<< USB.'
	DB	'GetHCDDrvKeyName, DrvKeyName %s', 00H	; `string'
CONST	ENDS
;	COMDAT ??_C@_0BI@LFJMJGOI@?$DO?$DO?5USB?4GetHCDDrvKeyName@
CONST	SEGMENT
??_C@_0BI@LFJMJGOI@?$DO?$DO?5USB?4GetHCDDrvKeyName@ DB '>> USB.GetHCDDrvK'
	DB	'eyName', 00H				; `string'
CONST	ENDS
;	COMDAT ??_C@_0BO@MFMFEBEJ@?$DM?$DM?5USB?4GetRootHub?0?5HubName?5?$CFs@
CONST	SEGMENT
??_C@_0BO@MFMFEBEJ@?$DM?$DM?5USB?4GetRootHub?0?5HubName?5?$CFs@ DB '<< US'
	DB	'B.GetRootHub, HubName %s', 00H		; `string'
CONST	ENDS
;	COMDAT ??_C@_0BC@PGMOMHHM@?$DO?$DO?5USB?4GetRootHub@
CONST	SEGMENT
??_C@_0BC@PGMOMHHM@?$DO?$DO?5USB?4GetRootHub@ DB '>> USB.GetRootHub', 00H ; `string'
CONST	ENDS
;	COMDAT ??_C@_0P@NNDDHFCH@?$DM?$DM?5USB?4EnumHub@
CONST	SEGMENT
??_C@_0P@NNDDHFCH@?$DM?$DM?5USB?4EnumHub@ DB '<< USB.EnumHub', 00H ; `string'
CONST	ENDS
;	COMDAT ??_C@_0CD@EDMNKMD@?9?9?5USB?4EnumHub?0?5new?5Info?5?$CI?$CFu?$CJ?5n@
CONST	SEGMENT
??_C@_0CD@EDMNKMD@?9?9?5USB?4EnumHub?0?5new?5Info?5?$CI?$CFu?$CJ?5n@ DB '-'
	DB	'- USB.EnumHub, new Info (%u) null', 00H	; `string'
CONST	ENDS
;	COMDAT ??_C@_0CG@FMONKKAG@?9?9?5USB?4EnumHub?0?5new?5HubInfo?5?$CI?$CFu@
CONST	SEGMENT
??_C@_0CG@FMONKKAG@?9?9?5USB?4EnumHub?0?5new?5HubInfo?5?$CI?$CFu@ DB '-- '
	DB	'USB.EnumHub, new HubInfo (%u) null', 00H	; `string'
CONST	ENDS
;	COMDAT ??_C@_04MKEDFNGB@?5?3?5?5@
CONST	SEGMENT
??_C@_04MKEDFNGB@?5?3?5?5@ DB ' :  ', 00H		; `string'
CONST	ENDS
;	COMDAT ??_C@_04GBDIODIA@?2?2?4?2@
CONST	SEGMENT
??_C@_04GBDIODIA@?2?2?4?2@ DB '\\.\', 00H		; `string'
CONST	ENDS
;	COMDAT ??_C@_0P@JENLAABL@?$DO?$DO?5USB?4EnumHub@
CONST	SEGMENT
??_C@_0P@JENLAABL@?$DO?$DO?5USB?4EnumHub@ DB '>> USB.EnumHub', 00H ; `string'
CONST	ENDS
;	COMDAT ??_C@_0CB@OFAOPKJL@?$DM?$DM?5USB?4DrvName2DevDesc?0?5Ret?5Nul@
CONST	SEGMENT
??_C@_0CB@OFAOPKJL@?$DM?$DM?5USB?4DrvName2DevDesc?0?5Ret?5Nul@ DB '<< USB'
	DB	'.DrvName2DevDesc, Ret Null', 00H		; `string'
CONST	ENDS
;	COMDAT ??_C@_0CO@BAPAALJK@?$DM?$DM?5USB?4DrvName2DevDesc?0?5GetDevN@
CONST	SEGMENT
??_C@_0CO@BAPAALJK@?$DM?$DM?5USB?4DrvName2DevDesc?0?5GetDevN@ DB '<< USB.'
	DB	'DrvName2DevDesc, GetDevNodeRegProps %u', 00H ; `string'
CONST	ENDS
;	COMDAT ??_C@_0BP@GGDOIMOO@?$DM?$DM?5USB?4DrvName2DevDesc?0?5ret?5?$CFs@
CONST	SEGMENT
??_C@_0BP@GGDOIMOO@?$DM?$DM?5USB?4DrvName2DevDesc?0?5ret?5?$CFs@ DB '<< U'
	DB	'SB.DrvName2DevDesc, ret %s', 00H		; `string'
CONST	ENDS
;	COMDAT ??_C@_0CJ@PHHANNLH@?$DM?$DM?5USB?4DrvName2DevDesc?0?5LocateD@
CONST	SEGMENT
??_C@_0CJ@PHHANNLH@?$DM?$DM?5USB?4DrvName2DevDesc?0?5LocateD@ DB '<< USB.'
	DB	'DrvName2DevDesc, LocateDevNote %u', 00H	; `string'
CONST	ENDS
;	COMDAT ??_C@_0BP@KMJAGKHH@?$DO?$DO?5USB?4DrvName2DevDesc?0?5Drv?5?$CFs@
CONST	SEGMENT
??_C@_0BP@KMJAGKHH@?$DO?$DO?5USB?4DrvName2DevDesc?0?5Drv?5?$CFs@ DB '>> U'
	DB	'SB.DrvName2DevDesc, Drv %s', 00H		; `string'
CONST	ENDS
;	COMDAT ??_C@_0BE@LMILCJOE@?$DM?$DM?5USB?4EnumHubPorts@
CONST	SEGMENT
??_C@_0BE@LMILCJOE@?$DM?$DM?5USB?4EnumHubPorts@ DB '<< USB.EnumHubPorts', 00H ; `string'
CONST	ENDS
;	COMDAT ??_C@_04HDOCAJNK@?$CFs?$CFs@
CONST	SEGMENT
??_C@_04HDOCAJNK@?$CFs?$CFs@ DB '%s%s', 00H		; `string'
CONST	ENDS
;	COMDAT ??_C@_06DIJPEION@?$CFs?$CFs?$CFs@
CONST	SEGMENT
??_C@_06DIJPEION@?$CFs?$CFs?$CFs@ DB '%s%s%s', 00H	; `string'
CONST	ENDS
;	COMDAT ??_C@_09CFCBFJND@Not?5Found@
CONST	SEGMENT
??_C@_09CFCBFJND@Not?5Found@ DB 'Not Found', 00H	; `string'
CONST	ENDS
;	COMDAT ??_C@_0BA@CGBIAJFO@Not?5Initialized@
CONST	SEGMENT
??_C@_0BA@CGBIAJFO@Not?5Initialized@ DB 'Not Initialized', 00H ; `string'
CONST	ENDS
;	COMDAT ??_C@_0CF@LGIDNAEF@?$CFs?5?$FLVID?3?$CF?44X?5PID?3?$CF?44X?5SN?3?$CFs?5Spd@
CONST	SEGMENT
??_C@_0CF@LGIDNAEF@?$CFs?5?$FLVID?3?$CF?44X?5PID?3?$CF?44X?5SN?3?$CFs?5Spd@ DB '%'
	DB	's [VID:%.4X PID:%.4X SN:%s Spd: %s]', 00H	; `string'
CONST	ENDS
;	COMDAT ??_C@_04DHPBCODG@FULL@
CONST	SEGMENT
??_C@_04DHPBCODG@FULL@ DB 'FULL', 00H			; `string'
CONST	ENDS
;	COMDAT ??_C@_03IBEFMGAI@LOW@
CONST	SEGMENT
??_C@_03IBEFMGAI@LOW@ DB 'LOW', 00H			; `string'
CONST	ENDS
;	COMDAT ??_C@_04PKDHFCJF@HIGH@
CONST	SEGMENT
??_C@_04PKDHFCJF@HIGH@ DB 'HIGH', 00H			; `string'
CONST	ENDS
;	COMDAT ??_C@_0L@KFNJHJLN@?$FLPort?$CFlu?$FN?5@
CONST	SEGMENT
??_C@_0L@KFNJHJLN@?$FLPort?$CFlu?$FN?5@ DB '[Port%lu] ', 00H ; `string'
CONST	ENDS
;	COMDAT ??_C@_03MCPBMLDJ@?5?3?5@
CONST	SEGMENT
??_C@_03MCPBMLDJ@?5?3?5@ DB ' : ', 00H			; `string'
CONST	ENDS
;	COMDAT ??_C@_0N@DMKPCFDB@?$CFs?$FLPort?$CFlu?$FN?5@
CONST	SEGMENT
??_C@_0N@DMKPCFDB@?$CFs?$FLPort?$CFlu?$FN?5@ DB '%s[Port%lu] ', 00H ; `string'
CONST	ENDS
;	COMDAT ??_C@_0DE@EKAJALEI@?9?9?5USB?4EnumHubPorts?0?5new?5Port?5?$CF@
CONST	SEGMENT
??_C@_0DE@EKAJALEI@?9?9?5USB?4EnumHubPorts?0?5new?5Port?5?$CF@ DB '-- USB'
	DB	'.EnumHubPorts, new Port %d ConnInfo (%u) null', 00H ; `string'
CONST	ENDS
;	COMDAT ??_C@_0BE@CPBFJJJ@?$DO?$DO?5USB?4EnumHubPorts@
CONST	SEGMENT
??_C@_0BE@CPBFJJJ@?$DO?$DO?5USB?4EnumHubPorts@ DB '>> USB.EnumHubPorts', 00H ; `string'
CONST	ENDS
;	COMDAT ??_C@_0CA@IMMCIHAH@?$DM?$DM?5USB?4GetExternHub?0?5HubName?5?$CFs@
CONST	SEGMENT
??_C@_0CA@IMMCIHAH@?$DM?$DM?5USB?4GetExternHub?0?5HubName?5?$CFs@ DB '<< '
	DB	'USB.GetExternHub, HubName %s', 00H		; `string'
CONST	ENDS
;	COMDAT ??_C@_0DA@HJNGPFIB@?9?9?5USB?4GetExtHubName?0?5new?5extHu@
CONST	SEGMENT
??_C@_0DA@HJNGPFIB@?9?9?5USB?4GetExtHubName?0?5new?5extHu@ DB '-- USB.Get'
	DB	'ExtHubName, new extHubNameW (%u) null', 00H	; `string'
CONST	ENDS
;	COMDAT ??_C@_0BE@BDIOPGJF@?$DO?$DO?5USB?4GetExternHub@
CONST	SEGMENT
??_C@_0BE@BDIOPGJF@?$DO?$DO?5USB?4GetExternHub@ DB '>> USB.GetExternHub', 00H ; `string'
CONST	ENDS
;	COMDAT ??_C@_0BP@PGCNCFEB@?$DM?$DM?5USB?4GetDrvKeyName?0?5AName?5?$CFs@
CONST	SEGMENT
??_C@_0BP@PGCNCFEB@?$DM?$DM?5USB?4GetDrvKeyName?0?5AName?5?$CFs@ DB '<< U'
	DB	'SB.GetDrvKeyName, AName %s', 00H		; `string'
CONST	ENDS
;	COMDAT ??_C@_0DA@OGKODAJE@?9?9?5USB?4GetDriverKeyName?0?5new?5Ke@
CONST	SEGMENT
??_C@_0DA@OGKODAJE@?9?9?5USB?4GetDriverKeyName?0?5new?5Ke@ DB '-- USB.Get'
	DB	'DriverKeyName, new KeyNameW (%u) null', 00H	; `string'
CONST	ENDS
;	COMDAT ??_C@_0BF@GLJHIDAC@?$DO?$DO?5USB?4GetDrvKeyName@
CONST	SEGMENT
??_C@_0BF@GLJHIDAC@?$DO?$DO?5USB?4GetDrvKeyName@ DB '>> USB.GetDrvKeyName'
	DB	00H						; `string'
CONST	ENDS
;	COMDAT ??_C@_0CJ@JNLDFNAC@?$DM?$DM?5USB?4GetAllStrDescs?0?5SuppLang@
CONST	SEGMENT
??_C@_0CJ@JNLDFNAC@?$DM?$DM?5USB?4GetAllStrDescs?0?5SuppLang@ DB '<< USB.'
	DB	'GetAllStrDescs, SuppLangsStr 0x%p', 00H	; `string'
CONST	ENDS
;	COMDAT ??_C@_0CJ@HBMGBPGH@?$DM?$DM?5USB?4GetAllStrDescs?0?5SuppLang@
CONST	SEGMENT
??_C@_0CJ@HBMGBPGH@?$DM?$DM?5USB?4GetAllStrDescs?0?5SuppLang@ DB '<< USB.'
	DB	'GetAllStrDescs, SuppLangsStr null', 00H	; `string'
CONST	ENDS
;	COMDAT ??_C@_0BG@PLIGAJPI@?$DO?$DO?5USB?4GetAllStrDescs@
CONST	SEGMENT
??_C@_0BG@PLIGAJPI@?$DO?$DO?5USB?4GetAllStrDescs@ DB '>> USB.GetAllStrDes'
	DB	'cs', 00H					; `string'
CONST	ENDS
;	COMDAT ??_C@_0CA@JFAJNON@?$DM?$DM?5USB?4AreThrStrDesc?0?5Ret?5False@
CONST	SEGMENT
??_C@_0CA@JFAJNON@?$DM?$DM?5USB?4AreThrStrDesc?0?5Ret?5False@ DB '<< USB.'
	DB	'AreThrStrDesc, Ret False', 00H		; `string'
CONST	ENDS
;	COMDAT ??_C@_0CD@NAENOJMA@?$DM?$DM?5USB?4AreThrStrDesc?0?5Interface@
CONST	SEGMENT
??_C@_0CD@NAENOJMA@?$DM?$DM?5USB?4AreThrStrDesc?0?5Interface@ DB '<< USB.'
	DB	'AreThrStrDesc, Interface %d', 00H		; `string'
CONST	ENDS
;	COMDAT ??_C@_0BN@DEJJKGAD@?$DM?$DM?5USB?4AreThrStrDesc?0?5Cfg?5?$CFd@
CONST	SEGMENT
??_C@_0BN@DEJJKGAD@?$DM?$DM?5USB?4AreThrStrDesc?0?5Cfg?5?$CFd@ DB '<< USB'
	DB	'.AreThrStrDesc, Cfg %d', 00H		; `string'
CONST	ENDS
;	COMDAT ??_C@_0DC@KIEGOLFL@?$DM?$DM?5USB?4AreThrStrDesc?0?5Manufact?5@
CONST	SEGMENT
??_C@_0DC@KIEGOLFL@?$DM?$DM?5USB?4AreThrStrDesc?0?5Manufact?5@ DB '<< USB'
	DB	'.AreThrStrDesc, Manufact %d, Prod %d, SN %d', 00H ; `string'
CONST	ENDS
;	COMDAT ??_C@_0BF@IPAKKGGO@?$DO?$DO?5USB?4AreThrStrDesc@
CONST	SEGMENT
??_C@_0BF@IPAKKGGO@?$DO?$DO?5USB?4AreThrStrDesc@ DB '>> USB.AreThrStrDesc'
	DB	00H						; `string'
CONST	ENDS
;	COMDAT ??_C@_0CB@LADAJLND@?$DM?$DM?5USB?4GetStrDesc?0?5DescNode?50x?$CF@
CONST	SEGMENT
??_C@_0CB@LADAJLND@?$DM?$DM?5USB?4GetStrDesc?0?5DescNode?50x?$CF@ DB '<< '
	DB	'USB.GetStrDesc, DescNode 0x%p', 00H		; `string'
CONST	ENDS
;	COMDAT ??_C@_0CK@NJJDPDGO@?9?9?5USB?4GetStrDesc?0?5WideCharToMu@
CONST	SEGMENT
??_C@_0CK@NJJDPDGO@?9?9?5USB?4GetStrDesc?0?5WideCharToMu@ DB '-- USB.GetS'
	DB	'trDesc, WideCharToMultiByte %s', 00H	; `string'
CONST	ENDS
;	COMDAT ??_C@_0CF@BKJLPKEL@?$DM?$DM?5USB?4GetStrDesc?0?5new?5DescNode@
CONST	SEGMENT
??_C@_0CF@BKJLPKEL@?$DM?$DM?5USB?4GetStrDesc?0?5new?5DescNode@ DB '<< USB'
	DB	'.GetStrDesc, new DescNode null', 00H	; `string'
CONST	ENDS
;	COMDAT ??_C@_0BN@ILBIFDNN@?$DM?$DM?5USB?4GetStrDesc?0?5Odd?5Sz?5?$CFd@
CONST	SEGMENT
??_C@_0BN@ILBIFDNN@?$DM?$DM?5USB?4GetStrDesc?0?5Odd?5Sz?5?$CFd@ DB '<< US'
	DB	'B.GetStrDesc, Odd Sz %d', 00H		; `string'
CONST	ENDS
;	COMDAT ??_C@_0CD@CHKNKAPD@?$DM?$DM?5USB?4GetStrDesc?0?5Inv?5Sz?5?$CFd?5?$DM?$DO@
CONST	SEGMENT
??_C@_0CD@CHKNKAPD@?$DM?$DM?5USB?4GetStrDesc?0?5Inv?5Sz?5?$CFd?5?$DM?$DO@ DB '<'
	DB	'< USB.GetStrDesc, Inv Sz %d <> %d', 00H	; `string'
CONST	ENDS
;	COMDAT ??_C@_0CH@ELGGMNKC@?$DM?$DM?5USB?4GetStrDesc?0?5Inv?5Descript@
CONST	SEGMENT
??_C@_0CH@ELGGMNKC@?$DM?$DM?5USB?4GetStrDesc?0?5Inv?5Descript@ DB '<< USB'
	DB	'.GetStrDesc, Inv DescriptorTp %d', 00H	; `string'
CONST	ENDS
;	COMDAT ??_C@_0CA@JKPBCDKN@?$DM?$DM?5USB?4GetStrDesc?0?5Bytes?5Ret?5?$CFu@
CONST	SEGMENT
??_C@_0CA@JKPBCDKN@?$DM?$DM?5USB?4GetStrDesc?0?5Bytes?5Ret?5?$CFu@ DB '<<'
	DB	' USB.GetStrDesc, Bytes Ret %u', 00H		; `string'
CONST	ENDS
;	COMDAT ??_C@_0CJ@MLNPNNOJ@?$DM?$DM?5USB?4GetStrDesc?0?5DeviceIoCont@
CONST	SEGMENT
??_C@_0CJ@MLNPNNOJ@?$DM?$DM?5USB?4GetStrDesc?0?5DeviceIoCont@ DB '<< USB.'
	DB	'GetStrDesc, DeviceIoControl False', 00H	; `string'
CONST	ENDS
;	COMDAT ??_C@_0BC@OBKJMAF@?$DO?$DO?5USB?4GetStrDesc@
CONST	SEGMENT
??_C@_0BC@OBKJMAF@?$DO?$DO?5USB?4GetStrDesc@ DB '>> USB.GetStrDesc', 00H ; `string'
CONST	ENDS
;	COMDAT ??_C@_0BA@GOKCLIBE@?$DM?$DM?5USB?4DevsDets@
CONST	SEGMENT
??_C@_0BA@GOKCLIBE@?$DM?$DM?5USB?4DevsDets@ DB '<< USB.DevsDets', 00H ; `string'
CONST	ENDS
;	COMDAT ??_C@_02DKCKIIND@?$CFs@
CONST	SEGMENT
??_C@_02DKCKIIND@?$CFs@ DB '%s', 00H			; `string'
CONST	ENDS
;	COMDAT ??_C@_0BD@HNIJLKOP@USB?5Device?5Details@
CONST	SEGMENT
??_C@_0BD@HNIJLKOP@USB?5Device?5Details@ DB 'USB Device Details', 00H ; `string'
CONST	ENDS
;	COMDAT ??_C@_0BA@EBIECMOG@?$DO?$DO?5USB?4DevsDets@
CONST	SEGMENT
??_C@_0BA@EBIECMOG@?$DO?$DO?5USB?4DevsDets@ DB '>> USB.DevsDets', 00H ; `string'
CONST	ENDS
;	COMDAT ??_C@_0P@NGAEOEJF@?$DM?$DM?5USB?4EnumUSB@
CONST	SEGMENT
??_C@_0P@NGAEOEJF@?$DM?$DM?5USB?4EnumUSB@ DB '<< USB.EnumUSB', 00H ; `string'
CONST	ENDS
;	COMDAT ??_C@_0BL@FOIGIFIJ@Total?5Devices?5Connected?5?$CFu@
CONST	SEGMENT
??_C@_0BL@FOIGIFIJ@Total?5Devices?5Connected?5?$CFu@ DB 'Total Devices Co'
	DB	'nnected %u', 00H				; `string'
CONST	ENDS
;	COMDAT ??_C@_07FOIBMAON@RootHub@
CONST	SEGMENT
??_C@_07FOIBMAON@RootHub@ DB 'RootHub', 00H		; `string'
CONST	ENDS
;	COMDAT ??_C@_0N@BEFNEIBE@RootHub?5?3?5?$CFs@
CONST	SEGMENT
??_C@_0N@BEFNEIBE@RootHub?5?3?5?$CFs@ DB 'RootHub : %s', 00H ; `string'
CONST	ENDS
;	COMDAT ??_C@_09PEILPPNA@?2?2?4?2HCD?$CFd@
CONST	SEGMENT
??_C@_09PEILPPNA@?2?2?4?2HCD?$CFd@ DB '\\.\HCD%d', 00H	; `string'
CONST	ENDS
;	COMDAT ??_C@_0O@BMIBGHPI@Enumerate?5USB@
CONST	SEGMENT
??_C@_0O@BMIBGHPI@Enumerate?5USB@ DB 'Enumerate USB', 00H ; `string'
CONST	ENDS
;	COMDAT ??_C@_0DA@PBHEEKCL@?$DM?$DM?5USB?4EnumUSB?0?5GetProcAdr?5CM_L@
CONST	SEGMENT
??_C@_0DA@PBHEEKCL@?$DM?$DM?5USB?4EnumUSB?0?5GetProcAdr?5CM_L@ DB '<< USB'
	DB	'.EnumUSB, GetProcAdr CM_Locate_DevNode %s', 00H ; `string'
CONST	ENDS
;	COMDAT ??_C@_0BD@FFDOPOAJ@CM_Locate_DevNodeA@
CONST	SEGMENT
??_C@_0BD@FFDOPOAJ@CM_Locate_DevNodeA@ DB 'CM_Locate_DevNodeA', 00H ; `string'
CONST	ENDS
;	COMDAT ??_C@_0DP@DGDMCDGA@?$DM?$DM?5USB?4EnumUSB?0?5GetProcAdr?5CM_G@
CONST	SEGMENT
??_C@_0DP@DGDMCDGA@?$DM?$DM?5USB?4EnumUSB?0?5GetProcAdr?5CM_G@ DB '<< USB'
	DB	'.EnumUSB, GetProcAdr CM_Get_DevNode_Registry_Property %s', 00H ; `string'
CONST	ENDS
;	COMDAT ??_C@_0CC@NHFCMMFN@CM_Get_DevNode_Registry_Propert@
CONST	SEGMENT
??_C@_0CC@NHFCMMFN@CM_Get_DevNode_Registry_Propert@ DB 'CM_Get_DevNode_Re'
	DB	'gistry_PropertyA', 00H			; `string'
CONST	ENDS
;	COMDAT ??_C@_0CL@COFLNMDL@?$DM?$DM?5USB?4EnumUSB?0?5GetProcAdr?5CM_G@
CONST	SEGMENT
??_C@_0CL@COFLNMDL@?$DM?$DM?5USB?4EnumUSB?0?5GetProcAdr?5CM_G@ DB '<< USB'
	DB	'.EnumUSB, GetProcAdr CM_Get_Child %s', 00H	; `string'
CONST	ENDS
;	COMDAT ??_C@_0N@EKPGFMC@CM_Get_Child@
CONST	SEGMENT
??_C@_0N@EKPGFMC@CM_Get_Child@ DB 'CM_Get_Child', 00H	; `string'
CONST	ENDS
;	COMDAT ??_C@_0CN@OFCMGBDD@?$DM?$DM?5USB?4EnumUSB?0?5GetProcAdr?5CM_G@
CONST	SEGMENT
??_C@_0CN@OFCMGBDD@?$DM?$DM?5USB?4EnumUSB?0?5GetProcAdr?5CM_G@ DB '<< USB'
	DB	'.EnumUSB, GetProcAdr CM_Get_Sibling %s', 00H ; `string'
CONST	ENDS
;	COMDAT ??_C@_0P@OOIACNHP@CM_Get_Sibling@
CONST	SEGMENT
??_C@_0P@OOIACNHP@CM_Get_Sibling@ DB 'CM_Get_Sibling', 00H ; `string'
CONST	ENDS
;	COMDAT ??_C@_0CM@FCKDJEIO@?$DM?$DM?5USB?4EnumUSB?0?5GetProcAdr?5CM_G@
CONST	SEGMENT
??_C@_0CM@FCKDJEIO@?$DM?$DM?5USB?4EnumUSB?0?5GetProcAdr?5CM_G@ DB '<< USB'
	DB	'.EnumUSB, GetProcAdr CM_Get_Parent %s', 00H	; `string'
CONST	ENDS
;	COMDAT ??_C@_0O@CIKLALFP@CM_Get_Parent@
CONST	SEGMENT
??_C@_0O@CIKLALFP@CM_Get_Parent@ DB 'CM_Get_Parent', 00H ; `string'
CONST	ENDS
;	COMDAT ??_C@_0CI@JNDPNFBI@?$DM?$DM?5USB?4EnumUSB?0?5LoadLib?5cfgmgr3@
CONST	SEGMENT
??_C@_0CI@JNDPNFBI@?$DM?$DM?5USB?4EnumUSB?0?5LoadLib?5cfgmgr3@ DB '<< USB'
	DB	'.EnumUSB, LoadLib cfgmgr32.dll %s', 00H	; `string'
CONST	ENDS
;	COMDAT ??_C@_0N@JNFFEOEJ@cfgmgr32?4dll@
CONST	SEGMENT
??_C@_0N@JNFFEOEJ@cfgmgr32?4dll@ DB 'cfgmgr32.dll', 00H	; `string'
CONST	ENDS
;	COMDAT ??_C@_0P@JPOMJBKJ@?$DO?$DO?5USB?4EnumUSB@
CONST	SEGMENT
??_C@_0P@JPOMJBKJ@?$DO?$DO?5USB?4EnumUSB@ DB '>> USB.EnumUSB', 00H ; `string'
CONST	ENDS
;	COMDAT ??_C@_0L@CCBFPMDD@?5?5?5?5?5?5?5?5?5?5@
CONST	SEGMENT
??_C@_0L@CCBFPMDD@?5?5?5?5?5?5?5?5?5?5@ DB '          ', 00H ; `string'
CONST	ENDS
;	COMDAT ??_C@_08GGFKNFHG@?5?5?5?5?5?5?5?5@
CONST	SEGMENT
??_C@_08GGFKNFHG@?5?5?5?5?5?5?5?5@ DB '        ', 00H	; `string'
CONST	ENDS
;	COMDAT ??_C@_06GGLIPOFD@?5?5?5?5?5?5@
CONST	SEGMENT
??_C@_06GGLIPOFD@?5?5?5?5?5?5@ DB '      ', 00H		; `string'
CONST	ENDS
;	COMDAT ??_C@_04PFOHOKJK@?5?5?5?5@
CONST	SEGMENT
??_C@_04PFOHOKJK@?5?5?5?5@ DB '    ', 00H		; `string'
CONST	ENDS
;	COMDAT ??_C@_02KNHHEEKP@?5?5@
CONST	SEGMENT
??_C@_02KNHHEEKP@?5?5@ DB '  ', 00H			; `string'
CONST	ENDS
;	COMDAT ??_C@_0BC@BOFHLGPH@DeviceInLegacyHub@
CONST	SEGMENT
??_C@_0BC@BOFHLGPH@DeviceInLegacyHub@ DB 'DeviceInLegacyHub', 00H ; `string'
CONST	ENDS
;	COMDAT ??_C@_0BJ@CHELPMAC@DeviceHubNestedTooDeeply@
CONST	SEGMENT
??_C@_0BJ@CHELPMAC@DeviceHubNestedTooDeeply@ DB 'DeviceHubNestedTooDeeply'
	DB	00H						; `string'
CONST	ENDS
;	COMDAT ??_C@_0BJ@DBBHPJJC@DeviceNotEnoughBandwidth@
CONST	SEGMENT
??_C@_0BJ@DBBHPJJC@DeviceNotEnoughBandwidth@ DB 'DeviceNotEnoughBandwidth'
	DB	00H						; `string'
CONST	ENDS
;	COMDAT ??_C@_0BF@KCIAFGBC@DeviceNotEnoughPower@
CONST	SEGMENT
??_C@_0BF@KCIAFGBC@DeviceNotEnoughPower@ DB 'DeviceNotEnoughPower', 00H ; `string'
CONST	ENDS
;	COMDAT ??_C@_0BI@FHCONGJI@DeviceCausedOvercurrent@
CONST	SEGMENT
??_C@_0BI@FHCONGJI@DeviceCausedOvercurrent@ DB 'DeviceCausedOvercurrent', 00H ; `string'
CONST	ENDS
;	COMDAT ??_C@_0BF@FIJIOADB@DeviceGeneralFailure@
CONST	SEGMENT
??_C@_0BF@FIJIOADB@DeviceGeneralFailure@ DB 'DeviceGeneralFailure', 00H ; `string'
CONST	ENDS
;	COMDAT ??_C@_0BI@LKBNFKJE@DeviceFailedEnumeration@
CONST	SEGMENT
??_C@_0BI@LKBNFKJE@DeviceFailedEnumeration@ DB 'DeviceFailedEnumeration', 00H ; `string'
CONST	ENDS
;	COMDAT ??_C@_0BA@LIPCCNEI@DeviceConnected@
CONST	SEGMENT
??_C@_0BA@LIPCCNEI@DeviceConnected@ DB 'DeviceConnected', 00H ; `string'
CONST	ENDS
;	COMDAT ??_C@_0BC@CFJFKPGC@NoDeviceConnected@
CONST	SEGMENT
??_C@_0BC@CFJFKPGC@NoDeviceConnected@ DB 'NoDeviceConnected', 00H ; `string'
CONST	ENDS
;	COMDAT ??_C@_0BI@GFKFEIAL@?9?9?5USB?4PushBackDets?0?5?$CFs@
CONST	SEGMENT
??_C@_0BI@GFKFEIAL@?9?9?5USB?4PushBackDets?0?5?$CFs@ DB '-- USB.PushBackD'
	DB	'ets, %s', 00H				; `string'
CONST	ENDS
;	COMDAT ??_C@_00CNPNBAHC@@
CONST	SEGMENT
??_C@_00CNPNBAHC@@ DB 00H				; `string'
?UsbViewIndent@@3PAPADA DD FLAT:??_C@_00CNPNBAHC@@	; UsbViewIndent
	DD	FLAT:??_C@_02KNHHEEKP@?5?5@
	DD	FLAT:??_C@_04PFOHOKJK@?5?5?5?5@
	DD	FLAT:??_C@_06GGLIPOFD@?5?5?5?5?5?5@
	DD	FLAT:??_C@_08GGFKNFHG@?5?5?5?5?5?5?5?5@
	DD	FLAT:??_C@_0L@CCBFPMDD@?5?5?5?5?5?5?5?5?5?5@
	ORG $+8
?ConnectionStatuses@@3PAPADA DD FLAT:??_C@_0BC@CFJFKPGC@NoDeviceConnected@ ; ConnectionStatuses
	DD	FLAT:??_C@_0BA@LIPCCNEI@DeviceConnected@
	DD	FLAT:??_C@_0BI@LKBNFKJE@DeviceFailedEnumeration@
	DD	FLAT:??_C@_0BF@FIJIOADB@DeviceGeneralFailure@
	DD	FLAT:??_C@_0BI@FHCONGJI@DeviceCausedOvercurrent@
	DD	FLAT:??_C@_0BF@KCIAFGBC@DeviceNotEnoughPower@
	DD	FLAT:??_C@_0BJ@DBBHPJJC@DeviceNotEnoughBandwidth@
	DD	FLAT:??_C@_0BJ@CHELPMAC@DeviceHubNestedTooDeeply@
	DD	FLAT:??_C@_0BC@BOFHLGPH@DeviceInLegacyHub@
PUBLIC	??A?$vector@V?$basic_string@DU?$char_traits@D@std@@V?$allocator@D@2@@std@@V?$allocator@V?$basic_string@DU?$char_traits@D@std@@V?$allocator@D@2@@std@@@2@@std@@QAEAAV?$basic_string@DU?$char_traits@D@std@@V?$allocator@D@2@@1@I@Z ; std::vector<std::basic_string<char,std::char_traits<char>,std::allocator<char> >,std::allocator<std::basic_string<char,std::char_traits<char>,std::allocator<char> > > >::operator[]
PUBLIC	?UnknownDescriptor@USB@@IAEXPAU_USB_COMMON_DESCRIPTOR@@@Z ; USB::UnknownDescriptor
PUBLIC	?StringDescriptor@USB@@IAEXEPAU_STRING_DESCRIPTOR_NODE@@@Z ; USB::StringDescriptor
PUBLIC	?HidDescriptor@USB@@IAEXPAU_USB_HID_DESCRIPTOR@@@Z ; USB::HidDescriptor
PUBLIC	?EndpointDescriptor@USB@@IAEXPAU_USB_ENDPOINT_DESCRIPTOR@@@Z ; USB::EndpointDescriptor
PUBLIC	?InterfaceDescriptor@USB@@IAEXPAU_USB_INTERFACE_DESCRIPTOR@@PAU_STRING_DESCRIPTOR_NODE@@@Z ; USB::InterfaceDescriptor
PUBLIC	?ConfigurationDescriptor@USB@@IAEXPAU_USB_CONFIGURATION_DESCRIPTOR@@PAU_STRING_DESCRIPTOR_NODE@@@Z ; USB::ConfigurationDescriptor
PUBLIC	?ConfigDesc@USB@@IAEXPAU_USB_CONFIGURATION_DESCRIPTOR@@PAU_STRING_DESCRIPTOR_NODE@@@Z ; USB::ConfigDesc
PUBLIC	?PipeInfo@USB@@IAEXKPAU_USB_PIPE_INFO@@@Z	; USB::PipeInfo
PUBLIC	?ConnectionInfo@USB@@IAEXPAU_USB_NODE_CONNECTION_INFORMATION_EX@@PAU_STRING_DESCRIPTOR_NODE@@@Z ; USB::ConnectionInfo
PUBLIC	?HubInfo@USB@@IAEXPAU_USB_HUB_INFORMATION@@@Z	; USB::HubInfo
PUBLIC	?GetConfigDescriptor@USB@@IAEPAU_USB_DESCRIPTOR_REQUEST@@PAXKE@Z ; USB::GetConfigDescriptor
PUBLIC	?GetStringDescriptors@USB@@IAEPAU_STRING_DESCRIPTOR_NODE@@PAXKEKPAGPAU2@@Z ; USB::GetStringDescriptors
PUBLIC	?GetHCDDriverKeyName@USB@@IAEPADPAX@Z		; USB::GetHCDDriverKeyName
PUBLIC	?GetRootHubName@USB@@IAEPADPAX@Z		; USB::GetRootHubName
PUBLIC	?EnumerateHub@USB@@IAEXPADPAU_USB_NODE_CONNECTION_INFORMATION_EX@@PAU_USB_DESCRIPTOR_REQUEST@@PAU_STRING_DESCRIPTOR_NODE@@0@Z ; USB::EnumerateHub
PUBLIC	?DriverNameToDeviceDesc@USB@@IAEPADPAD@Z	; USB::DriverNameToDeviceDesc
PUBLIC	?EnumerateHubPorts@USB@@IAEXPAXK@Z		; USB::EnumerateHubPorts
PUBLIC	?GetExternalHubName@USB@@IAEPADPAXK@Z		; USB::GetExternalHubName
PUBLIC	?GetDriverKeyName@USB@@IAEPADPAXK@Z		; USB::GetDriverKeyName
PUBLIC	?GetAllStringDescriptors@USB@@IAEPAU_STRING_DESCRIPTOR_NODE@@PAXKPAU_USB_DEVICE_DESCRIPTOR@@PAU_USB_CONFIGURATION_DESCRIPTOR@@@Z ; USB::GetAllStringDescriptors
PUBLIC	?AreThereStringDescriptors@USB@@IAEHPAU_USB_DEVICE_DESCRIPTOR@@PAU_USB_CONFIGURATION_DESCRIPTOR@@@Z ; USB::AreThereStringDescriptors
PUBLIC	?GetStringDescriptor@USB@@IAEPAU_STRING_DESCRIPTOR_NODE@@PAXKEG@Z ; USB::GetStringDescriptor
PUBLIC	?PushBackDetails@USB@@IAEXABV?$basic_string@DU?$char_traits@D@std@@V?$allocator@D@2@@std@@@Z ; USB::PushBackDetails
PUBLIC	?USBDevicesDetails@USB@@QAEXXZ			; USB::USBDevicesDetails
PUBLIC	?EnumerateUSB@USB@@QAEXXZ			; USB::EnumerateUSB
__ehfuncinfo$?UnknownDescriptor@USB@@IAEXPAU_USB_COMMON_DESCRIPTOR@@@Z DD 019930522H
	DD	05H
	DD	FLAT:__unwindtable$?UnknownDescriptor@USB@@IAEXPAU_USB_COMMON_DESCRIPTOR@@@Z
	DD	2 DUP(00H)
	DD	2 DUP(00H)
	DD	00H
	DD	00H
__unwindtable$?UnknownDescriptor@USB@@IAEXPAU_USB_COMMON_DESCRIPTOR@@@Z DD 0ffffffffH
	DD	FLAT:__unwindfunclet$?UnknownDescriptor@USB@@IAEXPAU_USB_COMMON_DESCRIPTOR@@@Z$0
	DD	0ffffffffH
	DD	FLAT:__unwindfunclet$?UnknownDescriptor@USB@@IAEXPAU_USB_COMMON_DESCRIPTOR@@@Z$1
	DD	0ffffffffH
	DD	FLAT:__unwindfunclet$?UnknownDescriptor@USB@@IAEXPAU_USB_COMMON_DESCRIPTOR@@@Z$2
	DD	0ffffffffH
	DD	FLAT:__unwindfunclet$?UnknownDescriptor@USB@@IAEXPAU_USB_COMMON_DESCRIPTOR@@@Z$3
	DD	0ffffffffH
	DD	FLAT:__unwindfunclet$?UnknownDescriptor@USB@@IAEXPAU_USB_COMMON_DESCRIPTOR@@@Z$4
__ehfuncinfo$?StringDescriptor@USB@@IAEXEPAU_STRING_DESCRIPTOR_NODE@@@Z DD 019930522H
	DD	01H
	DD	FLAT:__unwindtable$?StringDescriptor@USB@@IAEXEPAU_STRING_DESCRIPTOR_NODE@@@Z
	DD	2 DUP(00H)
	DD	2 DUP(00H)
	DD	00H
	DD	00H
__unwindtable$?StringDescriptor@USB@@IAEXEPAU_STRING_DESCRIPTOR_NODE@@@Z DD 0ffffffffH
	DD	FLAT:__unwindfunclet$?StringDescriptor@USB@@IAEXEPAU_STRING_DESCRIPTOR_NODE@@@Z$0
__ehfuncinfo$?HidDescriptor@USB@@IAEXPAU_USB_HID_DESCRIPTOR@@@Z DD 019930522H
	DD	05H
	DD	FLAT:__unwindtable$?HidDescriptor@USB@@IAEXPAU_USB_HID_DESCRIPTOR@@@Z
	DD	2 DUP(00H)
	DD	2 DUP(00H)
	DD	00H
	DD	00H
__unwindtable$?HidDescriptor@USB@@IAEXPAU_USB_HID_DESCRIPTOR@@@Z DD 0ffffffffH
	DD	FLAT:__unwindfunclet$?HidDescriptor@USB@@IAEXPAU_USB_HID_DESCRIPTOR@@@Z$0
	DD	0ffffffffH
	DD	FLAT:__unwindfunclet$?HidDescriptor@USB@@IAEXPAU_USB_HID_DESCRIPTOR@@@Z$1
	DD	0ffffffffH
	DD	FLAT:__unwindfunclet$?HidDescriptor@USB@@IAEXPAU_USB_HID_DESCRIPTOR@@@Z$2
	DD	0ffffffffH
	DD	FLAT:__unwindfunclet$?HidDescriptor@USB@@IAEXPAU_USB_HID_DESCRIPTOR@@@Z$3
	DD	0ffffffffH
	DD	FLAT:__unwindfunclet$?HidDescriptor@USB@@IAEXPAU_USB_HID_DESCRIPTOR@@@Z$4
__ehfuncinfo$?EndpointDescriptor@USB@@IAEXPAU_USB_ENDPOINT_DESCRIPTOR@@@Z DD 019930522H
	DD	0bH
	DD	FLAT:__unwindtable$?EndpointDescriptor@USB@@IAEXPAU_USB_ENDPOINT_DESCRIPTOR@@@Z
	DD	2 DUP(00H)
	DD	2 DUP(00H)
	DD	00H
	DD	00H
__unwindtable$?EndpointDescriptor@USB@@IAEXPAU_USB_ENDPOINT_DESCRIPTOR@@@Z DD 0ffffffffH
	DD	FLAT:__unwindfunclet$?EndpointDescriptor@USB@@IAEXPAU_USB_ENDPOINT_DESCRIPTOR@@@Z$0
	DD	0ffffffffH
	DD	FLAT:__unwindfunclet$?EndpointDescriptor@USB@@IAEXPAU_USB_ENDPOINT_DESCRIPTOR@@@Z$1
	DD	0ffffffffH
	DD	FLAT:__unwindfunclet$?EndpointDescriptor@USB@@IAEXPAU_USB_ENDPOINT_DESCRIPTOR@@@Z$2
	DD	0ffffffffH
	DD	FLAT:__unwindfunclet$?EndpointDescriptor@USB@@IAEXPAU_USB_ENDPOINT_DESCRIPTOR@@@Z$3
	DD	0ffffffffH
	DD	FLAT:__unwindfunclet$?EndpointDescriptor@USB@@IAEXPAU_USB_ENDPOINT_DESCRIPTOR@@@Z$4
	DD	0ffffffffH
	DD	FLAT:__unwindfunclet$?EndpointDescriptor@USB@@IAEXPAU_USB_ENDPOINT_DESCRIPTOR@@@Z$5
	DD	0ffffffffH
	DD	FLAT:__unwindfunclet$?EndpointDescriptor@USB@@IAEXPAU_USB_ENDPOINT_DESCRIPTOR@@@Z$6
	DD	0ffffffffH
	DD	FLAT:__unwindfunclet$?EndpointDescriptor@USB@@IAEXPAU_USB_ENDPOINT_DESCRIPTOR@@@Z$7
	DD	0ffffffffH
	DD	FLAT:__unwindfunclet$?EndpointDescriptor@USB@@IAEXPAU_USB_ENDPOINT_DESCRIPTOR@@@Z$8
	DD	0ffffffffH
	DD	FLAT:__unwindfunclet$?EndpointDescriptor@USB@@IAEXPAU_USB_ENDPOINT_DESCRIPTOR@@@Z$9
	DD	0ffffffffH
	DD	FLAT:__unwindfunclet$?EndpointDescriptor@USB@@IAEXPAU_USB_ENDPOINT_DESCRIPTOR@@@Z$10
__ehfuncinfo$?InterfaceDescriptor@USB@@IAEXPAU_USB_INTERFACE_DESCRIPTOR@@PAU_STRING_DESCRIPTOR_NODE@@@Z DD 019930522H
	DD	09H
	DD	FLAT:__unwindtable$?InterfaceDescriptor@USB@@IAEXPAU_USB_INTERFACE_DESCRIPTOR@@PAU_STRING_DESCRIPTOR_NODE@@@Z
	DD	2 DUP(00H)
	DD	2 DUP(00H)
	DD	00H
	DD	00H
__ehfuncinfo$?ConfigurationDescriptor@USB@@IAEXPAU_USB_CONFIGURATION_DESCRIPTOR@@PAU_STRING_DESCRIPTOR_NODE@@@Z DD 019930522H
	DD	07H
	DD	FLAT:__unwindtable$?ConfigurationDescriptor@USB@@IAEXPAU_USB_CONFIGURATION_DESCRIPTOR@@PAU_STRING_DESCRIPTOR_NODE@@@Z
	DD	2 DUP(00H)
	DD	2 DUP(00H)
	DD	00H
	DD	00H
__unwindtable$?InterfaceDescriptor@USB@@IAEXPAU_USB_INTERFACE_DESCRIPTOR@@PAU_STRING_DESCRIPTOR_NODE@@@Z DD 0ffffffffH
	DD	FLAT:__unwindfunclet$?InterfaceDescriptor@USB@@IAEXPAU_USB_INTERFACE_DESCRIPTOR@@PAU_STRING_DESCRIPTOR_NODE@@@Z$0
	DD	0ffffffffH
	DD	FLAT:__unwindfunclet$?InterfaceDescriptor@USB@@IAEXPAU_USB_INTERFACE_DESCRIPTOR@@PAU_STRING_DESCRIPTOR_NODE@@@Z$1
	DD	0ffffffffH
	DD	FLAT:__unwindfunclet$?InterfaceDescriptor@USB@@IAEXPAU_USB_INTERFACE_DESCRIPTOR@@PAU_STRING_DESCRIPTOR_NODE@@@Z$2
	DD	0ffffffffH
	DD	FLAT:__unwindfunclet$?InterfaceDescriptor@USB@@IAEXPAU_USB_INTERFACE_DESCRIPTOR@@PAU_STRING_DESCRIPTOR_NODE@@@Z$3
	DD	0ffffffffH
	DD	FLAT:__unwindfunclet$?InterfaceDescriptor@USB@@IAEXPAU_USB_INTERFACE_DESCRIPTOR@@PAU_STRING_DESCRIPTOR_NODE@@@Z$4
	DD	0ffffffffH
	DD	FLAT:__unwindfunclet$?InterfaceDescriptor@USB@@IAEXPAU_USB_INTERFACE_DESCRIPTOR@@PAU_STRING_DESCRIPTOR_NODE@@@Z$5
	DD	0ffffffffH
	DD	FLAT:__unwindfunclet$?InterfaceDescriptor@USB@@IAEXPAU_USB_INTERFACE_DESCRIPTOR@@PAU_STRING_DESCRIPTOR_NODE@@@Z$6
	DD	0ffffffffH
	DD	FLAT:__unwindfunclet$?InterfaceDescriptor@USB@@IAEXPAU_USB_INTERFACE_DESCRIPTOR@@PAU_STRING_DESCRIPTOR_NODE@@@Z$7
	DD	0ffffffffH
	DD	FLAT:__unwindfunclet$?InterfaceDescriptor@USB@@IAEXPAU_USB_INTERFACE_DESCRIPTOR@@PAU_STRING_DESCRIPTOR_NODE@@@Z$8
__unwindtable$?ConfigurationDescriptor@USB@@IAEXPAU_USB_CONFIGURATION_DESCRIPTOR@@PAU_STRING_DESCRIPTOR_NODE@@@Z DD 0ffffffffH
	DD	FLAT:__unwindfunclet$?ConfigurationDescriptor@USB@@IAEXPAU_USB_CONFIGURATION_DESCRIPTOR@@PAU_STRING_DESCRIPTOR_NODE@@@Z$0
	DD	0ffffffffH
	DD	FLAT:__unwindfunclet$?ConfigurationDescriptor@USB@@IAEXPAU_USB_CONFIGURATION_DESCRIPTOR@@PAU_STRING_DESCRIPTOR_NODE@@@Z$1
	DD	0ffffffffH
	DD	FLAT:__unwindfunclet$?ConfigurationDescriptor@USB@@IAEXPAU_USB_CONFIGURATION_DESCRIPTOR@@PAU_STRING_DESCRIPTOR_NODE@@@Z$2
	DD	0ffffffffH
	DD	FLAT:__unwindfunclet$?ConfigurationDescriptor@USB@@IAEXPAU_USB_CONFIGURATION_DESCRIPTOR@@PAU_STRING_DESCRIPTOR_NODE@@@Z$3
	DD	0ffffffffH
	DD	FLAT:__unwindfunclet$?ConfigurationDescriptor@USB@@IAEXPAU_USB_CONFIGURATION_DESCRIPTOR@@PAU_STRING_DESCRIPTOR_NODE@@@Z$4
	DD	0ffffffffH
	DD	FLAT:__unwindfunclet$?ConfigurationDescriptor@USB@@IAEXPAU_USB_CONFIGURATION_DESCRIPTOR@@PAU_STRING_DESCRIPTOR_NODE@@@Z$5
	DD	0ffffffffH
	DD	FLAT:__unwindfunclet$?ConfigurationDescriptor@USB@@IAEXPAU_USB_CONFIGURATION_DESCRIPTOR@@PAU_STRING_DESCRIPTOR_NODE@@@Z$6
__ehfuncinfo$?ConnectionInfo@USB@@IAEXPAU_USB_NODE_CONNECTION_INFORMATION_EX@@PAU_STRING_DESCRIPTOR_NODE@@@Z DD 019930522H
	DD	016H
	DD	FLAT:__unwindtable$?ConnectionInfo@USB@@IAEXPAU_USB_NODE_CONNECTION_INFORMATION_EX@@PAU_STRING_DESCRIPTOR_NODE@@@Z
	DD	2 DUP(00H)
	DD	2 DUP(00H)
	DD	00H
	DD	00H
__ehfuncinfo$?HubInfo@USB@@IAEXPAU_USB_HUB_INFORMATION@@@Z DD 019930522H
	DD	0aH
	DD	FLAT:__unwindtable$?HubInfo@USB@@IAEXPAU_USB_HUB_INFORMATION@@@Z
	DD	2 DUP(00H)
	DD	2 DUP(00H)
	DD	00H
	DD	00H
__unwindtable$?ConnectionInfo@USB@@IAEXPAU_USB_NODE_CONNECTION_INFORMATION_EX@@PAU_STRING_DESCRIPTOR_NODE@@@Z DD 0ffffffffH
	DD	FLAT:__unwindfunclet$?ConnectionInfo@USB@@IAEXPAU_USB_NODE_CONNECTION_INFORMATION_EX@@PAU_STRING_DESCRIPTOR_NODE@@@Z$0
	DD	0ffffffffH
	DD	FLAT:__unwindfunclet$?ConnectionInfo@USB@@IAEXPAU_USB_NODE_CONNECTION_INFORMATION_EX@@PAU_STRING_DESCRIPTOR_NODE@@@Z$1
	DD	0ffffffffH
	DD	FLAT:__unwindfunclet$?ConnectionInfo@USB@@IAEXPAU_USB_NODE_CONNECTION_INFORMATION_EX@@PAU_STRING_DESCRIPTOR_NODE@@@Z$2
	DD	0ffffffffH
	DD	FLAT:__unwindfunclet$?ConnectionInfo@USB@@IAEXPAU_USB_NODE_CONNECTION_INFORMATION_EX@@PAU_STRING_DESCRIPTOR_NODE@@@Z$3
	DD	0ffffffffH
	DD	FLAT:__unwindfunclet$?ConnectionInfo@USB@@IAEXPAU_USB_NODE_CONNECTION_INFORMATION_EX@@PAU_STRING_DESCRIPTOR_NODE@@@Z$4
	DD	0ffffffffH
	DD	FLAT:__unwindfunclet$?ConnectionInfo@USB@@IAEXPAU_USB_NODE_CONNECTION_INFORMATION_EX@@PAU_STRING_DESCRIPTOR_NODE@@@Z$5
	DD	0ffffffffH
	DD	FLAT:__unwindfunclet$?ConnectionInfo@USB@@IAEXPAU_USB_NODE_CONNECTION_INFORMATION_EX@@PAU_STRING_DESCRIPTOR_NODE@@@Z$6
	DD	0ffffffffH
	DD	FLAT:__unwindfunclet$?ConnectionInfo@USB@@IAEXPAU_USB_NODE_CONNECTION_INFORMATION_EX@@PAU_STRING_DESCRIPTOR_NODE@@@Z$7
	DD	0ffffffffH
	DD	FLAT:__unwindfunclet$?ConnectionInfo@USB@@IAEXPAU_USB_NODE_CONNECTION_INFORMATION_EX@@PAU_STRING_DESCRIPTOR_NODE@@@Z$8
	DD	0ffffffffH
	DD	FLAT:__unwindfunclet$?ConnectionInfo@USB@@IAEXPAU_USB_NODE_CONNECTION_INFORMATION_EX@@PAU_STRING_DESCRIPTOR_NODE@@@Z$9
	DD	0ffffffffH
	DD	FLAT:__unwindfunclet$?ConnectionInfo@USB@@IAEXPAU_USB_NODE_CONNECTION_INFORMATION_EX@@PAU_STRING_DESCRIPTOR_NODE@@@Z$10
	DD	0ffffffffH
	DD	FLAT:__unwindfunclet$?ConnectionInfo@USB@@IAEXPAU_USB_NODE_CONNECTION_INFORMATION_EX@@PAU_STRING_DESCRIPTOR_NODE@@@Z$11
	DD	0ffffffffH
	DD	FLAT:__unwindfunclet$?ConnectionInfo@USB@@IAEXPAU_USB_NODE_CONNECTION_INFORMATION_EX@@PAU_STRING_DESCRIPTOR_NODE@@@Z$12
	DD	0ffffffffH
	DD	FLAT:__unwindfunclet$?ConnectionInfo@USB@@IAEXPAU_USB_NODE_CONNECTION_INFORMATION_EX@@PAU_STRING_DESCRIPTOR_NODE@@@Z$13
	DD	0ffffffffH
	DD	FLAT:__unwindfunclet$?ConnectionInfo@USB@@IAEXPAU_USB_NODE_CONNECTION_INFORMATION_EX@@PAU_STRING_DESCRIPTOR_NODE@@@Z$14
	DD	0ffffffffH
	DD	FLAT:__unwindfunclet$?ConnectionInfo@USB@@IAEXPAU_USB_NODE_CONNECTION_INFORMATION_EX@@PAU_STRING_DESCRIPTOR_NODE@@@Z$15
	DD	0ffffffffH
	DD	FLAT:__unwindfunclet$?ConnectionInfo@USB@@IAEXPAU_USB_NODE_CONNECTION_INFORMATION_EX@@PAU_STRING_DESCRIPTOR_NODE@@@Z$16
	DD	0ffffffffH
	DD	FLAT:__unwindfunclet$?ConnectionInfo@USB@@IAEXPAU_USB_NODE_CONNECTION_INFORMATION_EX@@PAU_STRING_DESCRIPTOR_NODE@@@Z$17
	DD	0ffffffffH
	DD	FLAT:__unwindfunclet$?ConnectionInfo@USB@@IAEXPAU_USB_NODE_CONNECTION_INFORMATION_EX@@PAU_STRING_DESCRIPTOR_NODE@@@Z$18
	DD	0ffffffffH
	DD	FLAT:__unwindfunclet$?ConnectionInfo@USB@@IAEXPAU_USB_NODE_CONNECTION_INFORMATION_EX@@PAU_STRING_DESCRIPTOR_NODE@@@Z$19
	DD	0ffffffffH
	DD	FLAT:__unwindfunclet$?ConnectionInfo@USB@@IAEXPAU_USB_NODE_CONNECTION_INFORMATION_EX@@PAU_STRING_DESCRIPTOR_NODE@@@Z$20
	DD	0ffffffffH
	DD	FLAT:__unwindfunclet$?ConnectionInfo@USB@@IAEXPAU_USB_NODE_CONNECTION_INFORMATION_EX@@PAU_STRING_DESCRIPTOR_NODE@@@Z$21
__unwindtable$?HubInfo@USB@@IAEXPAU_USB_HUB_INFORMATION@@@Z DD 0ffffffffH
	DD	FLAT:__unwindfunclet$?HubInfo@USB@@IAEXPAU_USB_HUB_INFORMATION@@@Z$0
	DD	0ffffffffH
	DD	FLAT:__unwindfunclet$?HubInfo@USB@@IAEXPAU_USB_HUB_INFORMATION@@@Z$1
	DD	0ffffffffH
	DD	FLAT:__unwindfunclet$?HubInfo@USB@@IAEXPAU_USB_HUB_INFORMATION@@@Z$2
	DD	0ffffffffH
	DD	FLAT:__unwindfunclet$?HubInfo@USB@@IAEXPAU_USB_HUB_INFORMATION@@@Z$3
	DD	0ffffffffH
	DD	FLAT:__unwindfunclet$?HubInfo@USB@@IAEXPAU_USB_HUB_INFORMATION@@@Z$4
	DD	0ffffffffH
	DD	FLAT:__unwindfunclet$?HubInfo@USB@@IAEXPAU_USB_HUB_INFORMATION@@@Z$5
	DD	0ffffffffH
	DD	FLAT:__unwindfunclet$?HubInfo@USB@@IAEXPAU_USB_HUB_INFORMATION@@@Z$6
	DD	0ffffffffH
	DD	FLAT:__unwindfunclet$?HubInfo@USB@@IAEXPAU_USB_HUB_INFORMATION@@@Z$7
	DD	0ffffffffH
	DD	FLAT:__unwindfunclet$?HubInfo@USB@@IAEXPAU_USB_HUB_INFORMATION@@@Z$8
	DD	0ffffffffH
	DD	FLAT:__unwindfunclet$?HubInfo@USB@@IAEXPAU_USB_HUB_INFORMATION@@@Z$9
__ehfuncinfo$?GetStringDescriptors@USB@@IAEPAU_STRING_DESCRIPTOR_NODE@@PAXKEKPAGPAU2@@Z DD 019930522H
	DD	01H
	DD	FLAT:__unwindtable$?GetStringDescriptors@USB@@IAEPAU_STRING_DESCRIPTOR_NODE@@PAXKEKPAGPAU2@@Z
	DD	2 DUP(00H)
	DD	2 DUP(00H)
	DD	00H
	DD	00H
__unwindtable$?GetStringDescriptors@USB@@IAEPAU_STRING_DESCRIPTOR_NODE@@PAXKEKPAGPAU2@@Z DD 0ffffffffH
	DD	FLAT:__unwindfunclet$?GetStringDescriptors@USB@@IAEPAU_STRING_DESCRIPTOR_NODE@@PAXKEKPAGPAU2@@Z$0
__ehfuncinfo$?EnumerateHub@USB@@IAEXPADPAU_USB_NODE_CONNECTION_INFORMATION_EX@@PAU_USB_DESCRIPTOR_REQUEST@@PAU_STRING_DESCRIPTOR_NODE@@0@Z DD 019930522H
	DD	02H
	DD	FLAT:__unwindtable$?EnumerateHub@USB@@IAEXPADPAU_USB_NODE_CONNECTION_INFORMATION_EX@@PAU_USB_DESCRIPTOR_REQUEST@@PAU_STRING_DESCRIPTOR_NODE@@0@Z
	DD	2 DUP(00H)
	DD	2 DUP(00H)
	DD	00H
	DD	00H
__unwindtable$?EnumerateHub@USB@@IAEXPADPAU_USB_NODE_CONNECTION_INFORMATION_EX@@PAU_USB_DESCRIPTOR_REQUEST@@PAU_STRING_DESCRIPTOR_NODE@@0@Z DD 0ffffffffH
	DD	FLAT:__unwindfunclet$?EnumerateHub@USB@@IAEXPADPAU_USB_NODE_CONNECTION_INFORMATION_EX@@PAU_USB_DESCRIPTOR_REQUEST@@PAU_STRING_DESCRIPTOR_NODE@@0@Z$0
	DD	00H
	DD	FLAT:__unwindfunclet$?EnumerateHub@USB@@IAEXPADPAU_USB_NODE_CONNECTION_INFORMATION_EX@@PAU_USB_DESCRIPTOR_REQUEST@@PAU_STRING_DESCRIPTOR_NODE@@0@Z$1
__ehfuncinfo$?EnumerateHubPorts@USB@@IAEXPAXK@Z DD 019930522H
	DD	01H
	DD	FLAT:__unwindtable$?EnumerateHubPorts@USB@@IAEXPAXK@Z
	DD	2 DUP(00H)
	DD	2 DUP(00H)
	DD	00H
	DD	00H
__unwindtable$?EnumerateHubPorts@USB@@IAEXPAXK@Z DD 0ffffffffH
	DD	FLAT:__unwindfunclet$?EnumerateHubPorts@USB@@IAEXPAXK@Z$0
__ehfuncinfo$?GetStringDescriptor@USB@@IAEPAU_STRING_DESCRIPTOR_NODE@@PAXKEG@Z DD 019930522H
	DD	01H
	DD	FLAT:__unwindtable$?GetStringDescriptor@USB@@IAEPAU_STRING_DESCRIPTOR_NODE@@PAXKEG@Z
	DD	2 DUP(00H)
	DD	2 DUP(00H)
	DD	00H
	DD	00H
__unwindtable$?GetStringDescriptor@USB@@IAEPAU_STRING_DESCRIPTOR_NODE@@PAXKEG@Z DD 0ffffffffH
	DD	FLAT:__unwindfunclet$?GetStringDescriptor@USB@@IAEPAU_STRING_DESCRIPTOR_NODE@@PAXKEG@Z$0
__ehfuncinfo$?EnumerateUSB@USB@@QAEXXZ DD 019930522H
	DD	06H
	DD	FLAT:__unwindtable$?EnumerateUSB@USB@@QAEXXZ
	DD	2 DUP(00H)
	DD	2 DUP(00H)
	DD	00H
	DD	00H
__unwindtable$?EnumerateUSB@USB@@QAEXXZ DD 0ffffffffH
	DD	FLAT:__unwindfunclet$?EnumerateUSB@USB@@QAEXXZ$0
	DD	0ffffffffH
	DD	FLAT:__unwindfunclet$?EnumerateUSB@USB@@QAEXXZ$1
	DD	0ffffffffH
	DD	FLAT:__unwindfunclet$?EnumerateUSB@USB@@QAEXXZ$2
	DD	0ffffffffH
	DD	FLAT:__unwindfunclet$?EnumerateUSB@USB@@QAEXXZ$3
	DD	0ffffffffH
	DD	FLAT:__unwindfunclet$?EnumerateUSB@USB@@QAEXXZ$4
	DD	0ffffffffH
	DD	FLAT:__unwindfunclet$?EnumerateUSB@USB@@QAEXXZ$5
; Function compile flags: /Ogtp
; File c:\users\giulif\downloads\study\git\sysstatus\usb.cpp
; File c:\program files (x86)\microsoft visual studio\2017\professional\vc\tools\msvc\14.16.27023\include\vector
; File c:\users\giulif\downloads\study\git\sysstatus\usb.cpp
; File c:\program files (x86)\microsoft visual studio\2017\professional\vc\tools\msvc\14.16.27023\include\xstring
; File c:\program files (x86)\microsoft visual studio\2017\professional\vc\tools\msvc\14.16.27023\include\xstddef
; File c:\users\giulif\downloads\study\git\sysstatus\usb.cpp
; File c:\program files (x86)\microsoft visual studio\2017\professional\vc\tools\msvc\14.16.27023\include\xstring
; File c:\program files (x86)\microsoft visual studio\2017\professional\vc\tools\msvc\14.16.27023\include\xmemory0
; File c:\program files (x86)\microsoft visual studio\2017\professional\vc\tools\msvc\14.16.27023\include\xstring
; File c:\program files (x86)\microsoft visual studio\2017\professional\vc\tools\msvc\14.16.27023\include\xmemory0
; File c:\program files (x86)\microsoft visual studio\2017\professional\vc\tools\msvc\14.16.27023\include\xstring
; File c:\program files (x86)\microsoft visual studio\2017\professional\vc\tools\msvc\14.16.27023\include\iosfwd
; File c:\users\giulif\downloads\study\git\sysstatus\usb.cpp
; File c:\program files (x86)\microsoft visual studio\2017\professional\vc\tools\msvc\14.16.27023\include\xstring
; File c:\program files (x86)\microsoft visual studio\2017\professional\vc\tools\msvc\14.16.27023\include\xstddef
; File c:\users\giulif\downloads\study\git\sysstatus\usb.cpp
; File c:\program files (x86)\microsoft visual studio\2017\professional\vc\tools\msvc\14.16.27023\include\xstring
; File c:\program files (x86)\microsoft visual studio\2017\professional\vc\tools\msvc\14.16.27023\include\xmemory0
; File c:\program files (x86)\microsoft visual studio\2017\professional\vc\tools\msvc\14.16.27023\include\xstring
; File c:\program files (x86)\microsoft visual studio\2017\professional\vc\tools\msvc\14.16.27023\include\xmemory0
; File c:\users\giulif\downloads\study\git\sysstatus\usb.cpp
; File c:\program files (x86)\microsoft visual studio\2017\professional\vc\tools\msvc\14.16.27023\include\xstring
; File c:\program files (x86)\microsoft visual studio\2017\professional\vc\tools\msvc\14.16.27023\include\xstddef
; File c:\users\giulif\downloads\study\git\sysstatus\usb.cpp
; File c:\program files (x86)\microsoft visual studio\2017\professional\vc\tools\msvc\14.16.27023\include\xstring
; File c:\program files (x86)\microsoft visual studio\2017\professional\vc\tools\msvc\14.16.27023\include\xmemory0
; File c:\program files (x86)\microsoft visual studio\2017\professional\vc\tools\msvc\14.16.27023\include\xstring
; File c:\program files (x86)\microsoft visual studio\2017\professional\vc\tools\msvc\14.16.27023\include\xmemory0
; File c:\users\giulif\downloads\study\git\sysstatus\usb.cpp
; File c:\program files (x86)\microsoft visual studio\2017\professional\vc\tools\msvc\14.16.27023\include\xstring
; File c:\program files (x86)\microsoft visual studio\2017\professional\vc\tools\msvc\14.16.27023\include\xstddef
; File c:\users\giulif\downloads\study\git\sysstatus\usb.cpp
; File c:\program files (x86)\microsoft visual studio\2017\professional\vc\tools\msvc\14.16.27023\include\xstring
; File c:\program files (x86)\microsoft visual studio\2017\professional\vc\tools\msvc\14.16.27023\include\xmemory0
; File c:\program files (x86)\microsoft visual studio\2017\professional\vc\tools\msvc\14.16.27023\include\xstring
; File c:\program files (x86)\microsoft visual studio\2017\professional\vc\tools\msvc\14.16.27023\include\xmemory0
; File c:\users\giulif\downloads\study\git\sysstatus\usb.cpp
; File c:\program files (x86)\microsoft visual studio\2017\professional\vc\tools\msvc\14.16.27023\include\xstring
; File c:\program files (x86)\microsoft visual studio\2017\professional\vc\tools\msvc\14.16.27023\include\xstddef
; File c:\users\giulif\downloads\study\git\sysstatus\usb.cpp
; File c:\program files (x86)\microsoft visual studio\2017\professional\vc\tools\msvc\14.16.27023\include\xstring
; File c:\program files (x86)\microsoft visual studio\2017\professional\vc\tools\msvc\14.16.27023\include\xmemory0
; File c:\program files (x86)\microsoft visual studio\2017\professional\vc\tools\msvc\14.16.27023\include\xstring
; File c:\program files (x86)\microsoft visual studio\2017\professional\vc\tools\msvc\14.16.27023\include\xmemory0
; File c:\users\giulif\downloads\study\git\sysstatus\usb.cpp
; File c:\program files (x86)\microsoft visual studio\2017\professional\vc\tools\msvc\14.16.27023\include\xstring
; File c:\program files (x86)\microsoft visual studio\2017\professional\vc\tools\msvc\14.16.27023\include\xstddef
; File c:\users\giulif\downloads\study\git\sysstatus\usb.cpp
; File c:\program files (x86)\microsoft visual studio\2017\professional\vc\tools\msvc\14.16.27023\include\xstring
; File c:\program files (x86)\microsoft visual studio\2017\professional\vc\tools\msvc\14.16.27023\include\xmemory0
; File c:\program files (x86)\microsoft visual studio\2017\professional\vc\tools\msvc\14.16.27023\include\xstring
; File c:\program files (x86)\microsoft visual studio\2017\professional\vc\tools\msvc\14.16.27023\include\xmemory0
; File c:\users\giulif\downloads\study\git\sysstatus\usb.cpp
; File c:\program files (x86)\microsoft visual studio\2017\professional\vc\tools\msvc\14.16.27023\include\xmemory0
; File c:\users\giulif\downloads\study\git\sysstatus\usb.cpp
_TEXT	SEGMENT
_tickStart$2$ = -76					; size = 4
_tickStart$1$ = -72					; size = 4
_hPnpDll$1$ = -68					; size = 4
_driverKeyName$1$ = -64					; size = 4
_this$GSCopy$1$ = -60					; size = 4
$T2 = -56						; size = 24
$T3 = -56						; size = 24
$T4 = -56						; size = 24
$T5 = -56						; size = 24
$T6 = -56						; size = 24
$T7 = -56						; size = 24
_HCName$ = -32						; size = 16
__$ArrayPad$ = -16					; size = 4
__$EHRec$ = -12						; size = 12
?EnumerateUSB@USB@@QAEXXZ PROC				; USB::EnumerateUSB
; _this$ = ecx

; 57   : {

  00000	55		 push	 ebp
  00001	8b ec		 mov	 ebp, esp
  00003	6a ff		 push	 -1
  00005	68 00 00 00 00	 push	 __ehhandler$?EnumerateUSB@USB@@QAEXXZ
  0000a	64 a1 00 00 00
	00		 mov	 eax, DWORD PTR fs:0
  00010	50		 push	 eax
  00011	83 ec 40	 sub	 esp, 64			; 00000040H
  00014	a1 00 00 00 00	 mov	 eax, DWORD PTR ___security_cookie
  00019	33 c5		 xor	 eax, ebp
  0001b	89 45 f0	 mov	 DWORD PTR __$ArrayPad$[ebp], eax
  0001e	53		 push	 ebx
  0001f	56		 push	 esi
  00020	57		 push	 edi
  00021	50		 push	 eax
  00022	8d 45 f4	 lea	 eax, DWORD PTR __$EHRec$[ebp]
  00025	64 a3 00 00 00
	00		 mov	 DWORD PTR fs:0, eax
  0002b	8b f1		 mov	 esi, ecx
  0002d	89 75 c4	 mov	 DWORD PTR _this$GSCopy$1$[ebp], esi

; 58   :     char        HCName[16];
; 59   :     int         HCNum = 0;
; 60   :     PCHAR       rootHubName = NULL;
; 61   :     PCHAR       leafName = NULL;
; 62   : 
; 63   :     uint64_t tickStart = SysTick();

  00030	e8 00 00 00 00	 call	 ?SysTick@@YA_KXZ	; SysTick

; 64   : 
; 65   :     Log(LOG_DEBUG, __LINE__, ">> USB.EnumUSB");

  00035	68 00 00 00 00	 push	 OFFSET ??_C@_0P@JPOMJBKJ@?$DO?$DO?5USB?4EnumUSB@
  0003a	6a 41		 push	 65			; 00000041H
  0003c	6a 10		 push	 16			; 00000010H
  0003e	89 45 b4	 mov	 DWORD PTR _tickStart$2$[ebp], eax
  00041	89 55 b8	 mov	 DWORD PTR _tickStart$1$[ebp], edx
  00044	e8 00 00 00 00	 call	 ?Log@@YAXHHPBDZZ	; Log

; 66   : 
; 67   :     ulTotalDevicesConnected = 0;
; 68   :     wPortsNumber = 0;

  00049	33 c0		 xor	 eax, eax
  0004b	c7 46 04 00 00
	00 00		 mov	 DWORD PTR [esi+4], 0

; 69   :     NestedLevel = 0;
; 70   :     memset(buf, 0x00, sizeof(buf));

  00052	68 00 02 00 00	 push	 512			; 00000200H
  00057	50		 push	 eax
  00058	66 89 06	 mov	 WORD PTR [esi], ax
  0005b	89 46 08	 mov	 DWORD PTR [esi+8], eax
  0005e	8d 46 0c	 lea	 eax, DWORD PTR [esi+12]
  00061	50		 push	 eax
  00062	e8 00 00 00 00	 call	 _memset
; File c:\program files (x86)\microsoft visual studio\2017\professional\vc\tools\msvc\14.16.27023\include\vector

; 1849 : 		_Destroy_range(_First, _Last, this->_Getal());

  00067	8b 96 10 02 00
	00		 mov	 edx, DWORD PTR [esi+528]
  0006d	83 c4 14	 add	 esp, 20			; 00000014H
  00070	8b 8e 0c 02 00
	00		 mov	 ecx, DWORD PTR [esi+524]
  00076	e8 00 00 00 00	 call	 ??$_Destroy_range@V?$allocator@V?$basic_string@DU?$char_traits@D@std@@V?$allocator@D@2@@std@@@std@@@std@@YAXPAV?$basic_string@DU?$char_traits@D@std@@V?$allocator@D@2@@0@0AAV?$allocator@V?$basic_string@DU?$char_traits@D@std@@V?$allocator@D@2@@std@@@0@@Z ; std::_Destroy_range<std::allocator<std::basic_string<char,std::char_traits<char>,std::allocator<char> > > >

; 1592 : 		this->_Mylast() = this->_Myfirst();

  0007b	8b 86 0c 02 00
	00		 mov	 eax, DWORD PTR [esi+524]

; 1849 : 		_Destroy_range(_First, _Last, this->_Getal());

  00081	83 c4 04	 add	 esp, 4

; 1592 : 		this->_Mylast() = this->_Myfirst();

  00084	89 86 10 02 00
	00		 mov	 DWORD PTR [esi+528], eax
; File c:\users\giulif\downloads\study\git\sysstatus\usb.cpp

; 74   :     lpfnCM_Get_Parent = NULL;

  0008a	c7 86 18 02 00
	00 00 00 00 00	 mov	 DWORD PTR [esi+536], 0

; 75   :     lpfnCM_Get_Sibling = NULL;

  00094	c7 86 1c 02 00
	00 00 00 00 00	 mov	 DWORD PTR [esi+540], 0

; 76   :     lpfnCM_Get_Child = NULL;
; 77   :     lpfnCM_Get_DevNode_Registry_PropertyA = NULL;
; 78   :     lpfnCM_Locate_DevNodeA = NULL;
; 79   : 
; 80   :     HMODULE hPnpDll = LoadLibrary("cfgmgr32.dll");

  0009e	68 00 00 00 00	 push	 OFFSET ??_C@_0N@JNFFEOEJ@cfgmgr32?4dll@
  000a3	c7 86 20 02 00
	00 00 00 00 00	 mov	 DWORD PTR [esi+544], 0
  000ad	c7 86 24 02 00
	00 00 00 00 00	 mov	 DWORD PTR [esi+548], 0
  000b7	c7 86 28 02 00
	00 00 00 00 00	 mov	 DWORD PTR [esi+552], 0
  000c1	ff 15 00 00 00
	00		 call	 DWORD PTR __imp__LoadLibraryA@4
  000c7	8b d8		 mov	 ebx, eax
  000c9	89 5d bc	 mov	 DWORD PTR _hPnpDll$1$[ebp], ebx

; 81   :     if (hPnpDll == NULL)

  000cc	85 db		 test	 ebx, ebx
  000ce	75 7f		 jne	 SHORT $LN5@EnumerateU

; 83   :         Log(LOG_DEBUG, __LINE__, "<< USB.EnumUSB, LoadLib cfgmgr32.dll %s", GetLastErrorMessage(GetLastError()).c_str());

  000d0	ff 15 00 00 00
	00		 call	 DWORD PTR __imp__GetLastError@0
  000d6	8b d0		 mov	 edx, eax
  000d8	8d 4d c8	 lea	 ecx, DWORD PTR $T7[ebp]
  000db	e8 00 00 00 00	 call	 ?GetLastErrorMessage@@YA?AV?$basic_string@DU?$char_traits@D@std@@V?$allocator@D@2@@std@@K@Z ; GetLastErrorMessage
  000e0	89 5d fc	 mov	 DWORD PTR __$EHRec$[ebp+8], ebx
; File c:\program files (x86)\microsoft visual studio\2017\professional\vc\tools\msvc\14.16.27023\include\xstring

; 1825 : 		return (_BUF_SIZE <= _Myres);

  000e3	83 78 14 10	 cmp	 DWORD PTR [eax+20], 16	; 00000010H

; 1815 : 		if (_Large_string_engaged())

  000e7	72 02		 jb	 SHORT $LN69@EnumerateU
; File c:\program files (x86)\microsoft visual studio\2017\professional\vc\tools\msvc\14.16.27023\include\xstddef

; 346  : 	return (_Ptr);

  000e9	8b 00		 mov	 eax, DWORD PTR [eax]
$LN69@EnumerateU:
; File c:\users\giulif\downloads\study\git\sysstatus\usb.cpp

; 83   :         Log(LOG_DEBUG, __LINE__, "<< USB.EnumUSB, LoadLib cfgmgr32.dll %s", GetLastErrorMessage(GetLastError()).c_str());

  000eb	50		 push	 eax
  000ec	68 00 00 00 00	 push	 OFFSET ??_C@_0CI@JNDPNFBI@?$DM?$DM?5USB?4EnumUSB?0?5LoadLib?5cfgmgr3@
  000f1	6a 53		 push	 83			; 00000053H
  000f3	6a 10		 push	 16			; 00000010H
  000f5	e8 00 00 00 00	 call	 ?Log@@YAXHHPBDZZ	; Log
  000fa	83 c4 10	 add	 esp, 16			; 00000010H
  000fd	c7 45 fc ff ff
	ff ff		 mov	 DWORD PTR __$EHRec$[ebp+8], -1
; File c:\program files (x86)\microsoft visual studio\2017\professional\vc\tools\msvc\14.16.27023\include\xstring

; 1825 : 		return (_BUF_SIZE <= _Myres);

  00104	8b 55 dc	 mov	 edx, DWORD PTR $T7[ebp+20]
  00107	83 fa 10	 cmp	 edx, 16			; 00000010H

; 3987 : 		if (_My_data._Large_string_engaged())

  0010a	72 2c		 jb	 SHORT $LN117@EnumerateU
; File c:\program files (x86)\microsoft visual studio\2017\professional\vc\tools\msvc\14.16.27023\include\xmemory0

; 992  : 		_Deallocate<_New_alignof<_Ty>>(_Ptr, sizeof(_Ty) * _Count);

  0010c	8b 4d c8	 mov	 ecx, DWORD PTR $T7[ebp]
; File c:\program files (x86)\microsoft visual studio\2017\professional\vc\tools\msvc\14.16.27023\include\xstring

; 3992 : 			_Al.deallocate(_Ptr, _My_data._Myres + 1);

  0010f	42		 inc	 edx
; File c:\program files (x86)\microsoft visual studio\2017\professional\vc\tools\msvc\14.16.27023\include\xmemory0

; 992  : 		_Deallocate<_New_alignof<_Ty>>(_Ptr, sizeof(_Ty) * _Count);

  00110	8b c1		 mov	 eax, ecx

; 201  : 	if (_Bytes >= _Big_allocation_threshold)

  00112	81 fa 00 10 00
	00		 cmp	 edx, 4096		; 00001000H
  00118	72 14		 jb	 SHORT $LN116@EnumerateU

; 118  : 	const uintptr_t _Ptr_container = _Ptr_user[-1];

  0011a	8b 49 fc	 mov	 ecx, DWORD PTR [ecx-4]
  0011d	83 c2 23	 add	 edx, 35			; 00000023H
  00120	2b c1		 sub	 eax, ecx

; 132  : 	_STL_VERIFY(_Back_shift >= _Min_back_shift && _Back_shift <= _Non_user_size, "invalid argument");

  00122	83 c0 fc	 add	 eax, -4			; fffffffcH
  00125	83 f8 1f	 cmp	 eax, 31			; 0000001fH
  00128	0f 87 e5 03 00
	00		 ja	 $LN496@EnumerateU
$LN116@EnumerateU:

; 207  : 	::operator delete(_Ptr, _Bytes);

  0012e	52		 push	 edx
  0012f	51		 push	 ecx
  00130	e8 00 00 00 00	 call	 ??3@YAXPAXI@Z		; operator delete
  00135	83 c4 08	 add	 esp, 8
$LN117@EnumerateU:
; File c:\program files (x86)\microsoft visual studio\2017\professional\vc\tools\msvc\14.16.27023\include\xstring

; 3995 : 		_My_data._Mysize = 0;

  00138	c7 45 d8 00 00
	00 00		 mov	 DWORD PTR $T7[ebp+16], 0

; 3996 : 		_My_data._Myres = this->_BUF_SIZE - 1;

  0013f	c7 45 dc 0f 00
	00 00		 mov	 DWORD PTR $T7[ebp+20], 15 ; 0000000fH
; File c:\program files (x86)\microsoft visual studio\2017\professional\vc\tools\msvc\14.16.27023\include\iosfwd

; 506  : 		_Left = _Right;

  00146	c6 45 c8 00	 mov	 BYTE PTR $T7[ebp], 0
; File c:\users\giulif\downloads\study\git\sysstatus\usb.cpp

; 84   :         return;

  0014a	e9 a8 03 00 00	 jmp	 $LN1@EnumerateU
$LN5@EnumerateU:

; 85   :     }
; 86   : 
; 87   :     if ((lpfnCM_Get_Parent = (CMGETPARENT)GetProcAddress(hPnpDll, "CM_Get_Parent")) == NULL)

  0014f	8b 3d 00 00 00
	00		 mov	 edi, DWORD PTR __imp__GetProcAddress@8
  00155	68 00 00 00 00	 push	 OFFSET ??_C@_0O@CIKLALFP@CM_Get_Parent@
  0015a	53		 push	 ebx
  0015b	ff d7		 call	 edi
  0015d	89 86 18 02 00
	00		 mov	 DWORD PTR [esi+536], eax
  00163	85 c0		 test	 eax, eax
  00165	0f 85 8a 00 00
	00		 jne	 $LN6@EnumerateU

; 89   :         Log(LOG_DEBUG, __LINE__, "<< USB.EnumUSB, GetProcAdr CM_Get_Parent %s", GetLastErrorMessage(GetLastError()).c_str());

  0016b	ff 15 00 00 00
	00		 call	 DWORD PTR __imp__GetLastError@0
  00171	8b d0		 mov	 edx, eax
  00173	8d 4d c8	 lea	 ecx, DWORD PTR $T6[ebp]
  00176	e8 00 00 00 00	 call	 ?GetLastErrorMessage@@YA?AV?$basic_string@DU?$char_traits@D@std@@V?$allocator@D@2@@std@@K@Z ; GetLastErrorMessage
  0017b	c7 45 fc 01 00
	00 00		 mov	 DWORD PTR __$EHRec$[ebp+8], 1
; File c:\program files (x86)\microsoft visual studio\2017\professional\vc\tools\msvc\14.16.27023\include\xstring

; 1825 : 		return (_BUF_SIZE <= _Myres);

  00182	83 78 14 10	 cmp	 DWORD PTR [eax+20], 16	; 00000010H

; 1815 : 		if (_Large_string_engaged())

  00186	72 02		 jb	 SHORT $LN139@EnumerateU
; File c:\program files (x86)\microsoft visual studio\2017\professional\vc\tools\msvc\14.16.27023\include\xstddef

; 346  : 	return (_Ptr);

  00188	8b 00		 mov	 eax, DWORD PTR [eax]
$LN139@EnumerateU:
; File c:\users\giulif\downloads\study\git\sysstatus\usb.cpp

; 89   :         Log(LOG_DEBUG, __LINE__, "<< USB.EnumUSB, GetProcAdr CM_Get_Parent %s", GetLastErrorMessage(GetLastError()).c_str());

  0018a	50		 push	 eax
  0018b	68 00 00 00 00	 push	 OFFSET ??_C@_0CM@FCKDJEIO@?$DM?$DM?5USB?4EnumUSB?0?5GetProcAdr?5CM_G@
  00190	6a 59		 push	 89			; 00000059H
  00192	6a 10		 push	 16			; 00000010H
  00194	e8 00 00 00 00	 call	 ?Log@@YAXHHPBDZZ	; Log
  00199	83 c4 10	 add	 esp, 16			; 00000010H
  0019c	c7 45 fc ff ff
	ff ff		 mov	 DWORD PTR __$EHRec$[ebp+8], -1
; File c:\program files (x86)\microsoft visual studio\2017\professional\vc\tools\msvc\14.16.27023\include\xstring

; 1825 : 		return (_BUF_SIZE <= _Myres);

  001a3	8b 55 dc	 mov	 edx, DWORD PTR $T6[ebp+20]
  001a6	83 fa 10	 cmp	 edx, 16			; 00000010H

; 3987 : 		if (_My_data._Large_string_engaged())

  001a9	72 2c		 jb	 SHORT $LN187@EnumerateU
; File c:\program files (x86)\microsoft visual studio\2017\professional\vc\tools\msvc\14.16.27023\include\xmemory0

; 992  : 		_Deallocate<_New_alignof<_Ty>>(_Ptr, sizeof(_Ty) * _Count);

  001ab	8b 4d c8	 mov	 ecx, DWORD PTR $T6[ebp]
; File c:\program files (x86)\microsoft visual studio\2017\professional\vc\tools\msvc\14.16.27023\include\xstring

; 3992 : 			_Al.deallocate(_Ptr, _My_data._Myres + 1);

  001ae	42		 inc	 edx
; File c:\program files (x86)\microsoft visual studio\2017\professional\vc\tools\msvc\14.16.27023\include\xmemory0

; 992  : 		_Deallocate<_New_alignof<_Ty>>(_Ptr, sizeof(_Ty) * _Count);

  001af	8b c1		 mov	 eax, ecx

; 201  : 	if (_Bytes >= _Big_allocation_threshold)

  001b1	81 fa 00 10 00
	00		 cmp	 edx, 4096		; 00001000H
  001b7	72 14		 jb	 SHORT $LN186@EnumerateU

; 118  : 	const uintptr_t _Ptr_container = _Ptr_user[-1];

  001b9	8b 49 fc	 mov	 ecx, DWORD PTR [ecx-4]
  001bc	83 c2 23	 add	 edx, 35			; 00000023H
  001bf	2b c1		 sub	 eax, ecx

; 132  : 	_STL_VERIFY(_Back_shift >= _Min_back_shift && _Back_shift <= _Non_user_size, "invalid argument");

  001c1	83 c0 fc	 add	 eax, -4			; fffffffcH
  001c4	83 f8 1f	 cmp	 eax, 31			; 0000001fH
  001c7	0f 87 4b 03 00
	00		 ja	 $LN497@EnumerateU
$LN186@EnumerateU:
; File c:\users\giulif\downloads\study\git\sysstatus\usb.cpp

; 183  : }

  001cd	52		 push	 edx
  001ce	51		 push	 ecx
  001cf	e8 00 00 00 00	 call	 ??3@YAXPAXI@Z		; operator delete
  001d4	83 c4 08	 add	 esp, 8
$LN187@EnumerateU:
  001d7	53		 push	 ebx
  001d8	c7 45 d8 00 00
	00 00		 mov	 DWORD PTR $T6[ebp+16], 0
  001df	c7 45 dc 0f 00
	00 00		 mov	 DWORD PTR $T6[ebp+20], 15 ; 0000000fH
  001e6	c6 45 c8 00	 mov	 BYTE PTR $T6[ebp], 0
  001ea	ff 15 00 00 00
	00		 call	 DWORD PTR __imp__FreeLibrary@4
  001f0	e9 02 03 00 00	 jmp	 $LN1@EnumerateU
$LN6@EnumerateU:

; 90   :         FreeLibrary(hPnpDll);
; 91   :         return;
; 92   :     }
; 93   : 
; 94   :     if ((lpfnCM_Get_Sibling = (CMGETSIBLING)GetProcAddress(hPnpDll, "CM_Get_Sibling")) == NULL)

  001f5	68 00 00 00 00	 push	 OFFSET ??_C@_0P@OOIACNHP@CM_Get_Sibling@
  001fa	53		 push	 ebx
  001fb	ff d7		 call	 edi
  001fd	89 86 1c 02 00
	00		 mov	 DWORD PTR [esi+540], eax
  00203	85 c0		 test	 eax, eax
  00205	75 6b		 jne	 SHORT $LN7@EnumerateU

; 96   :         Log(LOG_DEBUG, __LINE__, "<< USB.EnumUSB, GetProcAdr CM_Get_Sibling %s", GetLastErrorMessage(GetLastError()).c_str());

  00207	ff 15 00 00 00
	00		 call	 DWORD PTR __imp__GetLastError@0
  0020d	8b d0		 mov	 edx, eax
  0020f	8d 4d c8	 lea	 ecx, DWORD PTR $T5[ebp]
  00212	e8 00 00 00 00	 call	 ?GetLastErrorMessage@@YA?AV?$basic_string@DU?$char_traits@D@std@@V?$allocator@D@2@@std@@K@Z ; GetLastErrorMessage
  00217	c7 45 fc 02 00
	00 00		 mov	 DWORD PTR __$EHRec$[ebp+8], 2
; File c:\program files (x86)\microsoft visual studio\2017\professional\vc\tools\msvc\14.16.27023\include\xstring

; 1825 : 		return (_BUF_SIZE <= _Myres);

  0021e	83 78 14 10	 cmp	 DWORD PTR [eax+20], 16	; 00000010H

; 1815 : 		if (_Large_string_engaged())

  00222	72 02		 jb	 SHORT $LN208@EnumerateU
; File c:\program files (x86)\microsoft visual studio\2017\professional\vc\tools\msvc\14.16.27023\include\xstddef

; 346  : 	return (_Ptr);

  00224	8b 00		 mov	 eax, DWORD PTR [eax]
$LN208@EnumerateU:
; File c:\users\giulif\downloads\study\git\sysstatus\usb.cpp

; 96   :         Log(LOG_DEBUG, __LINE__, "<< USB.EnumUSB, GetProcAdr CM_Get_Sibling %s", GetLastErrorMessage(GetLastError()).c_str());

  00226	50		 push	 eax
  00227	68 00 00 00 00	 push	 OFFSET ??_C@_0CN@OFCMGBDD@?$DM?$DM?5USB?4EnumUSB?0?5GetProcAdr?5CM_G@
  0022c	6a 60		 push	 96			; 00000060H
  0022e	6a 10		 push	 16			; 00000010H
  00230	e8 00 00 00 00	 call	 ?Log@@YAXHHPBDZZ	; Log
  00235	83 c4 10	 add	 esp, 16			; 00000010H
  00238	c7 45 fc ff ff
	ff ff		 mov	 DWORD PTR __$EHRec$[ebp+8], -1
; File c:\program files (x86)\microsoft visual studio\2017\professional\vc\tools\msvc\14.16.27023\include\xstring

; 1825 : 		return (_BUF_SIZE <= _Myres);

  0023f	8b 55 dc	 mov	 edx, DWORD PTR $T5[ebp+20]
  00242	83 fa 10	 cmp	 edx, 16			; 00000010H

; 3987 : 		if (_My_data._Large_string_engaged())

  00245	72 90		 jb	 SHORT $LN187@EnumerateU
; File c:\program files (x86)\microsoft visual studio\2017\professional\vc\tools\msvc\14.16.27023\include\xmemory0

; 992  : 		_Deallocate<_New_alignof<_Ty>>(_Ptr, sizeof(_Ty) * _Count);

  00247	8b 4d c8	 mov	 ecx, DWORD PTR $T5[ebp]
; File c:\program files (x86)\microsoft visual studio\2017\professional\vc\tools\msvc\14.16.27023\include\xstring

; 3992 : 			_Al.deallocate(_Ptr, _My_data._Myres + 1);

  0024a	42		 inc	 edx
; File c:\program files (x86)\microsoft visual studio\2017\professional\vc\tools\msvc\14.16.27023\include\xmemory0

; 992  : 		_Deallocate<_New_alignof<_Ty>>(_Ptr, sizeof(_Ty) * _Count);

  0024b	8b c1		 mov	 eax, ecx

; 201  : 	if (_Bytes >= _Big_allocation_threshold)

  0024d	81 fa 00 10 00
	00		 cmp	 edx, 4096		; 00001000H
  00253	0f 82 74 ff ff
	ff		 jb	 $LN186@EnumerateU

; 118  : 	const uintptr_t _Ptr_container = _Ptr_user[-1];

  00259	8b 49 fc	 mov	 ecx, DWORD PTR [ecx-4]
  0025c	83 c2 23	 add	 edx, 35			; 00000023H
  0025f	2b c1		 sub	 eax, ecx

; 132  : 	_STL_VERIFY(_Back_shift >= _Min_back_shift && _Back_shift <= _Non_user_size, "invalid argument");

  00261	83 c0 fc	 add	 eax, -4			; fffffffcH
  00264	83 f8 1f	 cmp	 eax, 31			; 0000001fH
  00267	0f 87 b0 02 00
	00		 ja	 $LN498@EnumerateU
  0026d	e9 5b ff ff ff	 jmp	 $LN186@EnumerateU
$LN7@EnumerateU:
; File c:\users\giulif\downloads\study\git\sysstatus\usb.cpp

; 101  :     if ((lpfnCM_Get_Child = (CMGETCHILD)GetProcAddress(hPnpDll, "CM_Get_Child")) == NULL)

  00272	68 00 00 00 00	 push	 OFFSET ??_C@_0N@EKPGFMC@CM_Get_Child@
  00277	53		 push	 ebx
  00278	ff d7		 call	 edi
  0027a	89 86 20 02 00
	00		 mov	 DWORD PTR [esi+544], eax
  00280	85 c0		 test	 eax, eax
  00282	75 6f		 jne	 SHORT $LN8@EnumerateU

; 103  :         Log(LOG_DEBUG, __LINE__, "<< USB.EnumUSB, GetProcAdr CM_Get_Child %s", GetLastErrorMessage(GetLastError()).c_str());

  00284	ff 15 00 00 00
	00		 call	 DWORD PTR __imp__GetLastError@0
  0028a	8b d0		 mov	 edx, eax
  0028c	8d 4d c8	 lea	 ecx, DWORD PTR $T4[ebp]
  0028f	e8 00 00 00 00	 call	 ?GetLastErrorMessage@@YA?AV?$basic_string@DU?$char_traits@D@std@@V?$allocator@D@2@@std@@K@Z ; GetLastErrorMessage
  00294	c7 45 fc 03 00
	00 00		 mov	 DWORD PTR __$EHRec$[ebp+8], 3
; File c:\program files (x86)\microsoft visual studio\2017\professional\vc\tools\msvc\14.16.27023\include\xstring

; 1825 : 		return (_BUF_SIZE <= _Myres);

  0029b	83 78 14 10	 cmp	 DWORD PTR [eax+20], 16	; 00000010H

; 1815 : 		if (_Large_string_engaged())

  0029f	72 02		 jb	 SHORT $LN277@EnumerateU
; File c:\program files (x86)\microsoft visual studio\2017\professional\vc\tools\msvc\14.16.27023\include\xstddef

; 346  : 	return (_Ptr);

  002a1	8b 00		 mov	 eax, DWORD PTR [eax]
$LN277@EnumerateU:
; File c:\users\giulif\downloads\study\git\sysstatus\usb.cpp

; 103  :         Log(LOG_DEBUG, __LINE__, "<< USB.EnumUSB, GetProcAdr CM_Get_Child %s", GetLastErrorMessage(GetLastError()).c_str());

  002a3	50		 push	 eax
  002a4	68 00 00 00 00	 push	 OFFSET ??_C@_0CL@COFLNMDL@?$DM?$DM?5USB?4EnumUSB?0?5GetProcAdr?5CM_G@
  002a9	6a 67		 push	 103			; 00000067H
  002ab	6a 10		 push	 16			; 00000010H
  002ad	e8 00 00 00 00	 call	 ?Log@@YAXHHPBDZZ	; Log
  002b2	83 c4 10	 add	 esp, 16			; 00000010H
  002b5	c7 45 fc ff ff
	ff ff		 mov	 DWORD PTR __$EHRec$[ebp+8], -1
; File c:\program files (x86)\microsoft visual studio\2017\professional\vc\tools\msvc\14.16.27023\include\xstring

; 1825 : 		return (_BUF_SIZE <= _Myres);

  002bc	8b 55 dc	 mov	 edx, DWORD PTR $T4[ebp+20]
  002bf	83 fa 10	 cmp	 edx, 16			; 00000010H

; 3987 : 		if (_My_data._Large_string_engaged())

  002c2	0f 82 0f ff ff
	ff		 jb	 $LN187@EnumerateU
; File c:\program files (x86)\microsoft visual studio\2017\professional\vc\tools\msvc\14.16.27023\include\xmemory0

; 992  : 		_Deallocate<_New_alignof<_Ty>>(_Ptr, sizeof(_Ty) * _Count);

  002c8	8b 4d c8	 mov	 ecx, DWORD PTR $T4[ebp]
; File c:\program files (x86)\microsoft visual studio\2017\professional\vc\tools\msvc\14.16.27023\include\xstring

; 3992 : 			_Al.deallocate(_Ptr, _My_data._Myres + 1);

  002cb	42		 inc	 edx
; File c:\program files (x86)\microsoft visual studio\2017\professional\vc\tools\msvc\14.16.27023\include\xmemory0

; 992  : 		_Deallocate<_New_alignof<_Ty>>(_Ptr, sizeof(_Ty) * _Count);

  002cc	8b c1		 mov	 eax, ecx

; 201  : 	if (_Bytes >= _Big_allocation_threshold)

  002ce	81 fa 00 10 00
	00		 cmp	 edx, 4096		; 00001000H
  002d4	0f 82 f3 fe ff
	ff		 jb	 $LN186@EnumerateU

; 118  : 	const uintptr_t _Ptr_container = _Ptr_user[-1];

  002da	8b 49 fc	 mov	 ecx, DWORD PTR [ecx-4]
  002dd	83 c2 23	 add	 edx, 35			; 00000023H
  002e0	2b c1		 sub	 eax, ecx

; 132  : 	_STL_VERIFY(_Back_shift >= _Min_back_shift && _Back_shift <= _Non_user_size, "invalid argument");

  002e2	83 c0 fc	 add	 eax, -4			; fffffffcH
  002e5	83 f8 1f	 cmp	 eax, 31			; 0000001fH
  002e8	0f 87 34 02 00
	00		 ja	 $LN499@EnumerateU
  002ee	e9 da fe ff ff	 jmp	 $LN186@EnumerateU
$LN8@EnumerateU:
; File c:\users\giulif\downloads\study\git\sysstatus\usb.cpp

; 108  :     if ((lpfnCM_Get_DevNode_Registry_PropertyA = (CMGETDEVNODEREGISTRYPROPERTYA)GetProcAddress(hPnpDll, "CM_Get_DevNode_Registry_PropertyA")) == NULL)

  002f3	68 00 00 00 00	 push	 OFFSET ??_C@_0CC@NHFCMMFN@CM_Get_DevNode_Registry_Propert@
  002f8	53		 push	 ebx
  002f9	ff d7		 call	 edi
  002fb	89 86 24 02 00
	00		 mov	 DWORD PTR [esi+548], eax
  00301	85 c0		 test	 eax, eax
  00303	75 6f		 jne	 SHORT $LN9@EnumerateU

; 110  :         Log(LOG_DEBUG, __LINE__, "<< USB.EnumUSB, GetProcAdr CM_Get_DevNode_Registry_Property %s", GetLastErrorMessage(GetLastError()).c_str());

  00305	ff 15 00 00 00
	00		 call	 DWORD PTR __imp__GetLastError@0
  0030b	8b d0		 mov	 edx, eax
  0030d	8d 4d c8	 lea	 ecx, DWORD PTR $T3[ebp]
  00310	e8 00 00 00 00	 call	 ?GetLastErrorMessage@@YA?AV?$basic_string@DU?$char_traits@D@std@@V?$allocator@D@2@@std@@K@Z ; GetLastErrorMessage
  00315	c7 45 fc 04 00
	00 00		 mov	 DWORD PTR __$EHRec$[ebp+8], 4
; File c:\program files (x86)\microsoft visual studio\2017\professional\vc\tools\msvc\14.16.27023\include\xstring

; 1825 : 		return (_BUF_SIZE <= _Myres);

  0031c	83 78 14 10	 cmp	 DWORD PTR [eax+20], 16	; 00000010H

; 1815 : 		if (_Large_string_engaged())

  00320	72 02		 jb	 SHORT $LN346@EnumerateU
; File c:\program files (x86)\microsoft visual studio\2017\professional\vc\tools\msvc\14.16.27023\include\xstddef

; 346  : 	return (_Ptr);

  00322	8b 00		 mov	 eax, DWORD PTR [eax]
$LN346@EnumerateU:
; File c:\users\giulif\downloads\study\git\sysstatus\usb.cpp

; 110  :         Log(LOG_DEBUG, __LINE__, "<< USB.EnumUSB, GetProcAdr CM_Get_DevNode_Registry_Property %s", GetLastErrorMessage(GetLastError()).c_str());

  00324	50		 push	 eax
  00325	68 00 00 00 00	 push	 OFFSET ??_C@_0DP@DGDMCDGA@?$DM?$DM?5USB?4EnumUSB?0?5GetProcAdr?5CM_G@
  0032a	6a 6e		 push	 110			; 0000006eH
  0032c	6a 10		 push	 16			; 00000010H
  0032e	e8 00 00 00 00	 call	 ?Log@@YAXHHPBDZZ	; Log
  00333	83 c4 10	 add	 esp, 16			; 00000010H
  00336	c7 45 fc ff ff
	ff ff		 mov	 DWORD PTR __$EHRec$[ebp+8], -1
; File c:\program files (x86)\microsoft visual studio\2017\professional\vc\tools\msvc\14.16.27023\include\xstring

; 1825 : 		return (_BUF_SIZE <= _Myres);

  0033d	8b 55 dc	 mov	 edx, DWORD PTR $T3[ebp+20]
  00340	83 fa 10	 cmp	 edx, 16			; 00000010H

; 3987 : 		if (_My_data._Large_string_engaged())

  00343	0f 82 8e fe ff
	ff		 jb	 $LN187@EnumerateU
; File c:\program files (x86)\microsoft visual studio\2017\professional\vc\tools\msvc\14.16.27023\include\xmemory0

; 992  : 		_Deallocate<_New_alignof<_Ty>>(_Ptr, sizeof(_Ty) * _Count);

  00349	8b 4d c8	 mov	 ecx, DWORD PTR $T3[ebp]
; File c:\program files (x86)\microsoft visual studio\2017\professional\vc\tools\msvc\14.16.27023\include\xstring

; 3992 : 			_Al.deallocate(_Ptr, _My_data._Myres + 1);

  0034c	42		 inc	 edx
; File c:\program files (x86)\microsoft visual studio\2017\professional\vc\tools\msvc\14.16.27023\include\xmemory0

; 992  : 		_Deallocate<_New_alignof<_Ty>>(_Ptr, sizeof(_Ty) * _Count);

  0034d	8b c1		 mov	 eax, ecx

; 201  : 	if (_Bytes >= _Big_allocation_threshold)

  0034f	81 fa 00 10 00
	00		 cmp	 edx, 4096		; 00001000H
  00355	0f 82 72 fe ff
	ff		 jb	 $LN186@EnumerateU

; 118  : 	const uintptr_t _Ptr_container = _Ptr_user[-1];

  0035b	8b 49 fc	 mov	 ecx, DWORD PTR [ecx-4]
  0035e	83 c2 23	 add	 edx, 35			; 00000023H
  00361	2b c1		 sub	 eax, ecx

; 132  : 	_STL_VERIFY(_Back_shift >= _Min_back_shift && _Back_shift <= _Non_user_size, "invalid argument");

  00363	83 c0 fc	 add	 eax, -4			; fffffffcH
  00366	83 f8 1f	 cmp	 eax, 31			; 0000001fH
  00369	0f 87 b8 01 00
	00		 ja	 $LN500@EnumerateU
  0036f	e9 59 fe ff ff	 jmp	 $LN186@EnumerateU
$LN9@EnumerateU:
; File c:\users\giulif\downloads\study\git\sysstatus\usb.cpp

; 115  :     if ((lpfnCM_Locate_DevNodeA = (CMLOCATEDEVNODEA)GetProcAddress(hPnpDll, "CM_Locate_DevNodeA")) == NULL)

  00374	68 00 00 00 00	 push	 OFFSET ??_C@_0BD@FFDOPOAJ@CM_Locate_DevNodeA@
  00379	53		 push	 ebx
  0037a	ff d7		 call	 edi
  0037c	89 86 28 02 00
	00		 mov	 DWORD PTR [esi+552], eax
  00382	85 c0		 test	 eax, eax
  00384	75 6f		 jne	 SHORT $LN10@EnumerateU

; 117  :         Log(LOG_DEBUG, __LINE__, "<< USB.EnumUSB, GetProcAdr CM_Locate_DevNode %s", GetLastErrorMessage(GetLastError()).c_str());

  00386	ff 15 00 00 00
	00		 call	 DWORD PTR __imp__GetLastError@0
  0038c	8b d0		 mov	 edx, eax
  0038e	8d 4d c8	 lea	 ecx, DWORD PTR $T2[ebp]
  00391	e8 00 00 00 00	 call	 ?GetLastErrorMessage@@YA?AV?$basic_string@DU?$char_traits@D@std@@V?$allocator@D@2@@std@@K@Z ; GetLastErrorMessage
  00396	c7 45 fc 05 00
	00 00		 mov	 DWORD PTR __$EHRec$[ebp+8], 5
; File c:\program files (x86)\microsoft visual studio\2017\professional\vc\tools\msvc\14.16.27023\include\xstring

; 1825 : 		return (_BUF_SIZE <= _Myres);

  0039d	83 78 14 10	 cmp	 DWORD PTR [eax+20], 16	; 00000010H

; 1815 : 		if (_Large_string_engaged())

  003a1	72 02		 jb	 SHORT $LN415@EnumerateU
; File c:\program files (x86)\microsoft visual studio\2017\professional\vc\tools\msvc\14.16.27023\include\xstddef

; 346  : 	return (_Ptr);

  003a3	8b 00		 mov	 eax, DWORD PTR [eax]
$LN415@EnumerateU:
; File c:\users\giulif\downloads\study\git\sysstatus\usb.cpp

; 117  :         Log(LOG_DEBUG, __LINE__, "<< USB.EnumUSB, GetProcAdr CM_Locate_DevNode %s", GetLastErrorMessage(GetLastError()).c_str());

  003a5	50		 push	 eax
  003a6	68 00 00 00 00	 push	 OFFSET ??_C@_0DA@PBHEEKCL@?$DM?$DM?5USB?4EnumUSB?0?5GetProcAdr?5CM_L@
  003ab	6a 75		 push	 117			; 00000075H
  003ad	6a 10		 push	 16			; 00000010H
  003af	e8 00 00 00 00	 call	 ?Log@@YAXHHPBDZZ	; Log
  003b4	83 c4 10	 add	 esp, 16			; 00000010H
  003b7	c7 45 fc ff ff
	ff ff		 mov	 DWORD PTR __$EHRec$[ebp+8], -1
; File c:\program files (x86)\microsoft visual studio\2017\professional\vc\tools\msvc\14.16.27023\include\xstring

; 1825 : 		return (_BUF_SIZE <= _Myres);

  003be	8b 55 dc	 mov	 edx, DWORD PTR $T2[ebp+20]
  003c1	83 fa 10	 cmp	 edx, 16			; 00000010H

; 3987 : 		if (_My_data._Large_string_engaged())

  003c4	0f 82 0d fe ff
	ff		 jb	 $LN187@EnumerateU
; File c:\program files (x86)\microsoft visual studio\2017\professional\vc\tools\msvc\14.16.27023\include\xmemory0

; 992  : 		_Deallocate<_New_alignof<_Ty>>(_Ptr, sizeof(_Ty) * _Count);

  003ca	8b 4d c8	 mov	 ecx, DWORD PTR $T2[ebp]
; File c:\program files (x86)\microsoft visual studio\2017\professional\vc\tools\msvc\14.16.27023\include\xstring

; 3992 : 			_Al.deallocate(_Ptr, _My_data._Myres + 1);

  003cd	42		 inc	 edx
; File c:\program files (x86)\microsoft visual studio\2017\professional\vc\tools\msvc\14.16.27023\include\xmemory0

; 992  : 		_Deallocate<_New_alignof<_Ty>>(_Ptr, sizeof(_Ty) * _Count);

  003ce	8b c1		 mov	 eax, ecx

; 201  : 	if (_Bytes >= _Big_allocation_threshold)

  003d0	81 fa 00 10 00
	00		 cmp	 edx, 4096		; 00001000H
  003d6	0f 82 f1 fd ff
	ff		 jb	 $LN186@EnumerateU

; 118  : 	const uintptr_t _Ptr_container = _Ptr_user[-1];

  003dc	8b 49 fc	 mov	 ecx, DWORD PTR [ecx-4]
  003df	83 c2 23	 add	 edx, 35			; 00000023H
  003e2	2b c1		 sub	 eax, ecx

; 132  : 	_STL_VERIFY(_Back_shift >= _Min_back_shift && _Back_shift <= _Non_user_size, "invalid argument");

  003e4	83 c0 fc	 add	 eax, -4			; fffffffcH
  003e7	83 f8 1f	 cmp	 eax, 31			; 0000001fH
  003ea	0f 87 3c 01 00
	00		 ja	 $LN501@EnumerateU
  003f0	e9 d8 fd ff ff	 jmp	 $LN186@EnumerateU
$LN10@EnumerateU:
; File c:\users\giulif\downloads\study\git\sysstatus\usb.cpp

; 122  :     Log(LOG_HEADER, __LINE__, "Enumerate USB");

  003f5	68 00 00 00 00	 push	 OFFSET ??_C@_0O@BMIBGHPI@Enumerate?5USB@
  003fa	6a 7a		 push	 122			; 0000007aH
  003fc	6a 02		 push	 2
  003fe	e8 00 00 00 00	 call	 ?Log@@YAXHHPBDZZ	; Log
  00403	83 c4 0c	 add	 esp, 12			; 0000000cH
  00406	33 db		 xor	 ebx, ebx
  00408	0f 1f 84 00 00
	00 00 00	 npad	 8
$LL4@EnumerateU:

; 127  :     {
; 128  :         sprintf(HCName, "\\\\.\\HCD%d", HCNum);

  00410	53		 push	 ebx
  00411	8d 45 e0	 lea	 eax, DWORD PTR _HCName$[ebp]
  00414	68 00 00 00 00	 push	 OFFSET ??_C@_09PEILPPNA@?2?2?4?2HCD?$CFd@
  00419	50		 push	 eax
  0041a	e8 00 00 00 00	 call	 _sprintf
  0041f	83 c4 0c	 add	 esp, 12			; 0000000cH

; 129  : 
; 130  :         HANDLE hHCDev = CreateFile(HCName,

  00422	8d 45 e0	 lea	 eax, DWORD PTR _HCName$[ebp]
  00425	6a 00		 push	 0
  00427	6a 00		 push	 0
  00429	6a 03		 push	 3
  0042b	6a 00		 push	 0
  0042d	6a 02		 push	 2
  0042f	68 00 00 00 40	 push	 1073741824		; 40000000H
  00434	50		 push	 eax
  00435	ff 15 00 00 00
	00		 call	 DWORD PTR __imp__CreateFileA@28
  0043b	8b f8		 mov	 edi, eax

; 131  :             GENERIC_WRITE,
; 132  :             FILE_SHARE_WRITE,
; 133  :             NULL,
; 134  :             OPEN_EXISTING,
; 135  :             0,
; 136  :             NULL);
; 137  : 
; 138  :         // If the handle is valid, then we've successfully opened a Host
; 139  :         // Controller.  Display some info about the Host Controller itself,
; 140  :         // then enumerate the Root Hub attached to the Host Controller.
; 141  :         //
; 142  :         if (hHCDev != INVALID_HANDLE_VALUE)

  0043d	83 ff ff	 cmp	 edi, -1
  00440	74 65		 je	 SHORT $LN2@EnumerateU

; 143  :         {
; 144  :             PCHAR driverKeyName = GetHCDDriverKeyName(hHCDev);

  00442	57		 push	 edi
  00443	e8 00 00 00 00	 call	 ?GetHCDDriverKeyName@USB@@IAEPADPAX@Z ; USB::GetHCDDriverKeyName
  00448	89 45 c0	 mov	 DWORD PTR _driverKeyName$1$[ebp], eax

; 145  : 
; 146  :             leafName = HCName + sizeof("\\\\.\\") - sizeof("");

  0044b	8d 75 e4	 lea	 esi, DWORD PTR _HCName$[ebp+4]

; 147  : 
; 148  :             if (driverKeyName)

  0044e	85 c0		 test	 eax, eax
  00450	74 19		 je	 SHORT $LN12@EnumerateU

; 149  :             {
; 150  :                 PCHAR deviceDesc = DriverNameToDeviceDesc(driverKeyName);

  00452	8b 4d c4	 mov	 ecx, DWORD PTR _this$GSCopy$1$[ebp]
  00455	50		 push	 eax
  00456	e8 00 00 00 00	 call	 ?DriverNameToDeviceDesc@USB@@IAEPADPAD@Z ; USB::DriverNameToDeviceDesc

; 151  : 
; 152  :                 if (deviceDesc)
; 153  :                 {
; 154  :                     leafName = deviceDesc;
; 155  :                 }
; 156  : 
; 157  :                 free(driverKeyName);

  0045b	ff 75 c0	 push	 DWORD PTR _driverKeyName$1$[ebp]
  0045e	85 c0		 test	 eax, eax
  00460	0f 45 f0	 cmovne	 esi, eax
  00463	e8 00 00 00 00	 call	 _free
  00468	83 c4 04	 add	 esp, 4
$LN12@EnumerateU:

; 158  :             }
; 159  : 
; 160  :             Log(LOG_MESSAGE, __LINE__, "RootHub : %s", leafName);

  0046b	56		 push	 esi
  0046c	68 00 00 00 00	 push	 OFFSET ??_C@_0N@BEFNEIBE@RootHub?5?3?5?$CFs@
  00471	68 a0 00 00 00	 push	 160			; 000000a0H
  00476	6a 01		 push	 1
  00478	e8 00 00 00 00	 call	 ?Log@@YAXHHPBDZZ	; Log
  0047d	83 c4 10	 add	 esp, 16			; 00000010H

; 161  : 
; 162  :             rootHubName = GetRootHubName(hHCDev);

  00480	57		 push	 edi
  00481	e8 00 00 00 00	 call	 ?GetRootHubName@USB@@IAEPADPAX@Z ; USB::GetRootHubName

; 163  : 
; 164  :             if (rootHubName != NULL)

  00486	8b 75 c4	 mov	 esi, DWORD PTR _this$GSCopy$1$[ebp]
  00489	85 c0		 test	 eax, eax
  0048b	74 13		 je	 SHORT $LN14@EnumerateU

; 165  :             {
; 166  :                 EnumerateHub(rootHubName,

  0048d	68 00 00 00 00	 push	 OFFSET ??_C@_07FOIBMAON@RootHub@
  00492	6a 00		 push	 0
  00494	6a 00		 push	 0
  00496	6a 00		 push	 0
  00498	50		 push	 eax
  00499	8b ce		 mov	 ecx, esi
  0049b	e8 00 00 00 00	 call	 ?EnumerateHub@USB@@IAEXPADPAU_USB_NODE_CONNECTION_INFORMATION_EX@@PAU_USB_DESCRIPTOR_REQUEST@@PAU_STRING_DESCRIPTOR_NODE@@0@Z ; USB::EnumerateHub
$LN14@EnumerateU:

; 167  :                     NULL,      // ConnectionInfo
; 168  :                     NULL,      // ConfigDesc
; 169  :                     NULL,      // StringDescs
; 170  :                     "RootHub"  // DeviceDesc
; 171  :                 );
; 172  :             }
; 173  : 
; 174  :             CloseHandle(hHCDev);

  004a0	57		 push	 edi
  004a1	ff 15 00 00 00
	00		 call	 DWORD PTR __imp__CloseHandle@4
$LN2@EnumerateU:

; 123  : 
; 124  :     // Iterate over some Host Controller names and try to open them.
; 125  :     //
; 126  :     for (HCNum = 0; HCNum < NUM_HCS_TO_CHECK; HCNum++)

  004a7	43		 inc	 ebx
  004a8	83 fb 0a	 cmp	 ebx, 10			; 0000000aH
  004ab	0f 8c 5f ff ff
	ff		 jl	 $LL4@EnumerateU

; 175  :             hHCDev = 0;
; 176  :         }
; 177  :     }
; 178  : 
; 179  :     Log(LOG_MESSAGE, __LINE__, "Total Devices Connected %u", ulTotalDevicesConnected);

  004b1	ff 76 04	 push	 DWORD PTR [esi+4]
  004b4	68 00 00 00 00	 push	 OFFSET ??_C@_0BL@FOIGIFIJ@Total?5Devices?5Connected?5?$CFu@
  004b9	68 b3 00 00 00	 push	 179			; 000000b3H
  004be	6a 01		 push	 1
  004c0	e8 00 00 00 00	 call	 ?Log@@YAXHHPBDZZ	; Log
  004c5	83 c4 10	 add	 esp, 16			; 00000010H

; 180  :     FreeLibrary(hPnpDll);

  004c8	ff 75 bc	 push	 DWORD PTR _hPnpDll$1$[ebp]
  004cb	ff 15 00 00 00
	00		 call	 DWORD PTR __imp__FreeLibrary@4

; 181  :     LogElapsedTime(__LINE__, tickStart);

  004d1	ff 75 b8	 push	 DWORD PTR _tickStart$1$[ebp]
  004d4	33 d2		 xor	 edx, edx
  004d6	b9 b5 00 00 00	 mov	 ecx, 181		; 000000b5H
  004db	ff 75 b4	 push	 DWORD PTR _tickStart$2$[ebp]
  004de	e8 00 00 00 00	 call	 ?LogElapsedTime@@YAXK_KPBD@Z ; LogElapsedTime

; 182  :     Log(LOG_DEBUG, __LINE__, "<< USB.EnumUSB");

  004e3	68 00 00 00 00	 push	 OFFSET ??_C@_0P@NGAEOEJF@?$DM?$DM?5USB?4EnumUSB@
  004e8	68 b6 00 00 00	 push	 182			; 000000b6H
  004ed	6a 10		 push	 16			; 00000010H
  004ef	e8 00 00 00 00	 call	 ?Log@@YAXHHPBDZZ	; Log
  004f4	83 c4 14	 add	 esp, 20			; 00000014H
$LN1@EnumerateU:

; 183  : }

  004f7	8b 4d f4	 mov	 ecx, DWORD PTR __$EHRec$[ebp]
  004fa	64 89 0d 00 00
	00 00		 mov	 DWORD PTR fs:0, ecx
  00501	59		 pop	 ecx
  00502	5f		 pop	 edi
  00503	5e		 pop	 esi
  00504	5b		 pop	 ebx
  00505	8b 4d f0	 mov	 ecx, DWORD PTR __$ArrayPad$[ebp]
  00508	33 cd		 xor	 ecx, ebp
  0050a	e8 00 00 00 00	 call	 @__security_check_cookie@4
  0050f	8b e5		 mov	 esp, ebp
  00511	5d		 pop	 ebp
  00512	c3		 ret	 0
$LN496@EnumerateU:
; File c:\program files (x86)\microsoft visual studio\2017\professional\vc\tools\msvc\14.16.27023\include\xmemory0

; 132  : 	_STL_VERIFY(_Back_shift >= _Min_back_shift && _Back_shift <= _Non_user_size, "invalid argument");

  00513	e8 00 00 00 00	 call	 __invalid_parameter_noinfo_noreturn
$LN497@EnumerateU:
  00518	e8 00 00 00 00	 call	 __invalid_parameter_noinfo_noreturn
$LN498@EnumerateU:
  0051d	e8 00 00 00 00	 call	 __invalid_parameter_noinfo_noreturn
$LN499@EnumerateU:
  00522	e8 00 00 00 00	 call	 __invalid_parameter_noinfo_noreturn
$LN500@EnumerateU:
  00527	e8 00 00 00 00	 call	 __invalid_parameter_noinfo_noreturn
$LN501@EnumerateU:
  0052c	e8 00 00 00 00	 call	 __invalid_parameter_noinfo_noreturn
$LN494@EnumerateU:
  00531	cc		 int	 3
_TEXT	ENDS
text$x	SEGMENT
__unwindfunclet$?EnumerateUSB@USB@@QAEXXZ$0:
  00000	8d 4d c8	 lea	 ecx, DWORD PTR $T7[ebp]
  00003	e9 00 00 00 00	 jmp	 ??1?$basic_string@DU?$char_traits@D@std@@V?$allocator@D@2@@std@@QAE@XZ ; std::basic_string<char,std::char_traits<char>,std::allocator<char> >::~basic_string<char,std::char_traits<char>,std::allocator<char> >
__unwindfunclet$?EnumerateUSB@USB@@QAEXXZ$1:
  00008	8d 4d c8	 lea	 ecx, DWORD PTR $T6[ebp]
  0000b	e9 00 00 00 00	 jmp	 ??1?$basic_string@DU?$char_traits@D@std@@V?$allocator@D@2@@std@@QAE@XZ ; std::basic_string<char,std::char_traits<char>,std::allocator<char> >::~basic_string<char,std::char_traits<char>,std::allocator<char> >
__unwindfunclet$?EnumerateUSB@USB@@QAEXXZ$2:
  00010	8d 4d c8	 lea	 ecx, DWORD PTR $T5[ebp]
  00013	e9 00 00 00 00	 jmp	 ??1?$basic_string@DU?$char_traits@D@std@@V?$allocator@D@2@@std@@QAE@XZ ; std::basic_string<char,std::char_traits<char>,std::allocator<char> >::~basic_string<char,std::char_traits<char>,std::allocator<char> >
__unwindfunclet$?EnumerateUSB@USB@@QAEXXZ$3:
  00018	8d 4d c8	 lea	 ecx, DWORD PTR $T4[ebp]
  0001b	e9 00 00 00 00	 jmp	 ??1?$basic_string@DU?$char_traits@D@std@@V?$allocator@D@2@@std@@QAE@XZ ; std::basic_string<char,std::char_traits<char>,std::allocator<char> >::~basic_string<char,std::char_traits<char>,std::allocator<char> >
__unwindfunclet$?EnumerateUSB@USB@@QAEXXZ$4:
  00020	8d 4d c8	 lea	 ecx, DWORD PTR $T3[ebp]
  00023	e9 00 00 00 00	 jmp	 ??1?$basic_string@DU?$char_traits@D@std@@V?$allocator@D@2@@std@@QAE@XZ ; std::basic_string<char,std::char_traits<char>,std::allocator<char> >::~basic_string<char,std::char_traits<char>,std::allocator<char> >
__unwindfunclet$?EnumerateUSB@USB@@QAEXXZ$5:
  00028	8d 4d c8	 lea	 ecx, DWORD PTR $T2[ebp]
  0002b	e9 00 00 00 00	 jmp	 ??1?$basic_string@DU?$char_traits@D@std@@V?$allocator@D@2@@std@@QAE@XZ ; std::basic_string<char,std::char_traits<char>,std::allocator<char> >::~basic_string<char,std::char_traits<char>,std::allocator<char> >
__ehhandler$?EnumerateUSB@USB@@QAEXXZ:
  00030	8b 54 24 08	 mov	 edx, DWORD PTR [esp+8]
  00034	8d 42 0c	 lea	 eax, DWORD PTR [edx+12]
  00037	8b 4a b0	 mov	 ecx, DWORD PTR [edx-80]
  0003a	33 c8		 xor	 ecx, eax
  0003c	e8 00 00 00 00	 call	 @__security_check_cookie@4
  00041	8b 4a fc	 mov	 ecx, DWORD PTR [edx-4]
  00044	33 c8		 xor	 ecx, eax
  00046	e8 00 00 00 00	 call	 @__security_check_cookie@4
  0004b	b8 00 00 00 00	 mov	 eax, OFFSET __ehfuncinfo$?EnumerateUSB@USB@@QAEXXZ
  00050	e9 00 00 00 00	 jmp	 ___CxxFrameHandler3
text$x	ENDS
?EnumerateUSB@USB@@QAEXXZ ENDP				; USB::EnumerateUSB
; Function compile flags: /Ogtp
; File c:\users\giulif\downloads\study\git\sysstatus\usb.cpp
; File c:\program files (x86)\microsoft visual studio\2017\professional\vc\tools\msvc\14.16.27023\include\vector
; File c:\users\giulif\downloads\study\git\sysstatus\usb.cpp
; File c:\program files (x86)\microsoft visual studio\2017\professional\vc\tools\msvc\14.16.27023\include\vector
; File c:\users\giulif\downloads\study\git\sysstatus\usb.cpp
; File c:\program files (x86)\microsoft visual studio\2017\professional\vc\tools\msvc\14.16.27023\include\vector
; File c:\users\giulif\downloads\study\git\sysstatus\usb.cpp
; File c:\program files (x86)\microsoft visual studio\2017\professional\vc\tools\msvc\14.16.27023\include\xstring
; File c:\program files (x86)\microsoft visual studio\2017\professional\vc\tools\msvc\14.16.27023\include\xutility
; File c:\program files (x86)\microsoft visual studio\2017\professional\vc\tools\msvc\14.16.27023\include\xstring
; File c:\program files (x86)\microsoft visual studio\2017\professional\vc\tools\msvc\14.16.27023\include\xstddef
; File c:\users\giulif\downloads\study\git\sysstatus\usb.cpp
; File c:\program files (x86)\microsoft visual studio\2017\professional\vc\tools\msvc\14.16.27023\include\vector
; File c:\users\giulif\downloads\study\git\sysstatus\usb.cpp
; File c:\program files (x86)\microsoft visual studio\2017\professional\vc\tools\msvc\14.16.27023\include\vector
; File c:\users\giulif\downloads\study\git\sysstatus\usb.cpp
; File c:\users\giulif\downloads\study\git\sysstatus\sysstatus.cpp
; File c:\users\giulif\downloads\study\git\sysstatus\usb.cpp
_TEXT	SEGMENT
_seconds$1$ = -20					; size = 4
_this$1$ = -20						; size = 4
tv130 = -16						; size = 4
_tickStart$2$ = -16					; size = 4
_seconds$2$ = -12					; size = 4
_tickStart$1$ = -12					; size = 4
_timeElapsed$1$ = -8					; size = 8
?USBDevicesDetails@USB@@QAEXXZ PROC			; USB::USBDevicesDetails
; _this$ = ecx

; 189  : {

  00000	55		 push	 ebp
  00001	8b ec		 mov	 ebp, esp
  00003	83 e4 c0	 and	 esp, -64		; ffffffc0H
  00006	83 ec 34	 sub	 esp, 52			; 00000034H
  00009	53		 push	 ebx
  0000a	56		 push	 esi
  0000b	57		 push	 edi

; 190  : 	Log(LOG_DEBUG,__LINE__,">> USB.DevsDets");

  0000c	68 00 00 00 00	 push	 OFFSET ??_C@_0BA@EBIECMOG@?$DO?$DO?5USB?4DevsDets@
  00011	8b f9		 mov	 edi, ecx
  00013	68 be 00 00 00	 push	 190			; 000000beH
  00018	6a 10		 push	 16			; 00000010H
  0001a	89 7c 24 38	 mov	 DWORD PTR _this$1$[esp+76], edi
  0001e	e8 00 00 00 00	 call	 ?Log@@YAXHHPBDZZ	; Log

; 191  : 
; 192  :     uint64_t tickStart = SysTick();

  00023	e8 00 00 00 00	 call	 ?SysTick@@YA_KXZ	; SysTick

; 194  :     Log(LOG_HEADER,__LINE__,"USB Device Details");

  00028	68 00 00 00 00	 push	 OFFSET ??_C@_0BD@HNIJLKOP@USB?5Device?5Details@
  0002d	68 c2 00 00 00	 push	 194			; 000000c2H
  00032	6a 02		 push	 2
  00034	89 44 24 48	 mov	 DWORD PTR _tickStart$2$[esp+88], eax
  00038	89 54 24 4c	 mov	 DWORD PTR _tickStart$1$[esp+88], edx
  0003c	e8 00 00 00 00	 call	 ?Log@@YAXHHPBDZZ	; Log
; File c:\program files (x86)\microsoft visual studio\2017\professional\vc\tools\msvc\14.16.27023\include\vector

; 1704 : 		return (static_cast<size_type>(this->_Mylast() - this->_Myfirst()));

  00041	8b 8f 10 02 00
	00		 mov	 ecx, DWORD PTR [edi+528]
  00047	b8 ab aa aa 2a	 mov	 eax, 715827883		; 2aaaaaabH
  0004c	8b b7 0c 02 00
	00		 mov	 esi, DWORD PTR [edi+524]
; File c:\users\giulif\downloads\study\git\sysstatus\usb.cpp

; 194  :     Log(LOG_HEADER,__LINE__,"USB Device Details");

  00052	83 c4 18	 add	 esp, 24			; 00000018H
; File c:\program files (x86)\microsoft visual studio\2017\professional\vc\tools\msvc\14.16.27023\include\vector

; 1704 : 		return (static_cast<size_type>(this->_Mylast() - this->_Myfirst()));

  00055	2b ce		 sub	 ecx, esi
; File c:\users\giulif\downloads\study\git\sysstatus\usb.cpp

; 196  :     for(unsigned int x=0;x<usbDevDetails.size();x++)

  00057	33 db		 xor	 ebx, ebx
; File c:\program files (x86)\microsoft visual studio\2017\professional\vc\tools\msvc\14.16.27023\include\vector

; 1704 : 		return (static_cast<size_type>(this->_Mylast() - this->_Myfirst()));

  00059	f7 e9		 imul	 ecx
  0005b	c1 fa 02	 sar	 edx, 2
  0005e	8b c2		 mov	 eax, edx
  00060	c1 e8 1f	 shr	 eax, 31			; 0000001fH
  00063	03 c2		 add	 eax, edx
; File c:\users\giulif\downloads\study\git\sysstatus\usb.cpp

; 196  :     for(unsigned int x=0;x<usbDevDetails.size();x++)

  00065	74 55		 je	 SHORT $LN3@USBDevices
  00067	33 ff		 xor	 edi, edi
  00069	0f 1f 80 00 00
	00 00		 npad	 7
$LL4@USBDevices:
; File c:\program files (x86)\microsoft visual studio\2017\professional\vc\tools\msvc\14.16.27023\include\xstring

; 1825 : 		return (_BUF_SIZE <= _Myres);

  00070	83 7c 37 14 10	 cmp	 DWORD PTR [edi+esi+20], 16 ; 00000010H
; File c:\program files (x86)\microsoft visual studio\2017\professional\vc\tools\msvc\14.16.27023\include\xutility

; 307  : 		return (_Myval2);

  00075	8d 04 37	 lea	 eax, DWORD PTR [edi+esi]
; File c:\program files (x86)\microsoft visual studio\2017\professional\vc\tools\msvc\14.16.27023\include\xstring

; 1815 : 		if (_Large_string_engaged())

  00078	72 02		 jb	 SHORT $LN35@USBDevices
; File c:\program files (x86)\microsoft visual studio\2017\professional\vc\tools\msvc\14.16.27023\include\xstddef

; 346  : 	return (_Ptr);

  0007a	8b 00		 mov	 eax, DWORD PTR [eax]
$LN35@USBDevices:
; File c:\users\giulif\downloads\study\git\sysstatus\usb.cpp

; 198  :         Log(LOG_MESSAGE,__LINE__,"%s",usbDevDetails[x].c_str());

  0007c	50		 push	 eax
  0007d	68 00 00 00 00	 push	 OFFSET ??_C@_02DKCKIIND@?$CFs@
  00082	68 c6 00 00 00	 push	 198			; 000000c6H
  00087	6a 01		 push	 1
  00089	e8 00 00 00 00	 call	 ?Log@@YAXHHPBDZZ	; Log
; File c:\program files (x86)\microsoft visual studio\2017\professional\vc\tools\msvc\14.16.27023\include\vector

; 1704 : 		return (static_cast<size_type>(this->_Mylast() - this->_Myfirst()));

  0008e	8b 44 24 3c	 mov	 eax, DWORD PTR _this$1$[esp+80]
; File c:\users\giulif\downloads\study\git\sysstatus\usb.cpp

; 196  :     for(unsigned int x=0;x<usbDevDetails.size();x++)

  00092	43		 inc	 ebx

; 198  :         Log(LOG_MESSAGE,__LINE__,"%s",usbDevDetails[x].c_str());

  00093	83 c4 10	 add	 esp, 16			; 00000010H
  00096	83 c7 18	 add	 edi, 24			; 00000018H
; File c:\program files (x86)\microsoft visual studio\2017\professional\vc\tools\msvc\14.16.27023\include\vector

; 1704 : 		return (static_cast<size_type>(this->_Mylast() - this->_Myfirst()));

  00099	8b 88 10 02 00
	00		 mov	 ecx, DWORD PTR [eax+528]
  0009f	8b b0 0c 02 00
	00		 mov	 esi, DWORD PTR [eax+524]
  000a5	2b ce		 sub	 ecx, esi
  000a7	b8 ab aa aa 2a	 mov	 eax, 715827883		; 2aaaaaabH
  000ac	f7 e9		 imul	 ecx
  000ae	c1 fa 02	 sar	 edx, 2
  000b1	8b c2		 mov	 eax, edx
  000b3	c1 e8 1f	 shr	 eax, 31			; 0000001fH
  000b6	03 c2		 add	 eax, edx
; File c:\users\giulif\downloads\study\git\sysstatus\usb.cpp

; 196  :     for(unsigned int x=0;x<usbDevDetails.size();x++)

  000b8	3b d8		 cmp	 ebx, eax
  000ba	72 b4		 jb	 SHORT $LL4@USBDevices
$LN3@USBDevices:
; File c:\users\giulif\downloads\study\git\sysstatus\sysstatus.cpp

; 718  :     tickEnd = SysTick();

  000bc	e8 00 00 00 00	 call	 ?SysTick@@YA_KXZ	; SysTick

; 719  :     timeElapsed = (static_cast<double>(tickEnd - tickStart) / static_cast<double>(SECOND));

  000c1	2b 44 24 30	 sub	 eax, DWORD PTR _tickStart$2$[esp+64]
  000c5	8b c8		 mov	 ecx, eax
  000c7	1b 54 24 34	 sbb	 edx, DWORD PTR _tickStart$1$[esp+64]
  000cb	e8 00 00 00 00	 call	 __ultod3
  000d0	f2 0f 5e 05 00
	00 00 00	 divsd	 xmm0, QWORD PTR __real@408f400000000000
  000d8	f2 0f 11 44 24
	38		 movsd	 QWORD PTR _timeElapsed$1$[esp+64], xmm0

; 720  :     seconds = static_cast<uint64_t>(timeElapsed + 0.5);

  000de	f2 0f 58 05 00
	00 00 00	 addsd	 xmm0, QWORD PTR __real@3fe0000000000000
  000e6	e8 00 00 00 00	 call	 __dtoul3

; 738  :         Log(LOG_MESSAGE, line, "%02llu:%02llu:%02llu, %.3f s", seconds / 3600, (seconds % 3600) / 60, seconds % 60, timeElapsed);

  000eb	6a 00		 push	 0

; 720  :     seconds = static_cast<uint64_t>(timeElapsed + 0.5);

  000ed	8b f2		 mov	 esi, edx
  000ef	8b f8		 mov	 edi, eax

; 738  :         Log(LOG_MESSAGE, line, "%02llu:%02llu:%02llu, %.3f s", seconds / 3600, (seconds % 3600) / 60, seconds % 60, timeElapsed);

  000f1	68 10 0e 00 00	 push	 3600			; 00000e10H
  000f6	56		 push	 esi
  000f7	57		 push	 edi

; 720  :     seconds = static_cast<uint64_t>(timeElapsed + 0.5);

  000f8	89 7c 24 3c	 mov	 DWORD PTR _seconds$1$[esp+80], edi
  000fc	89 74 24 44	 mov	 DWORD PTR _seconds$2$[esp+80], esi

; 738  :         Log(LOG_MESSAGE, line, "%02llu:%02llu:%02llu, %.3f s", seconds / 3600, (seconds % 3600) / 60, seconds % 60, timeElapsed);

  00100	e8 00 00 00 00	 call	 __aulldiv
  00105	f2 0f 10 44 24
	38		 movsd	 xmm0, QWORD PTR _timeElapsed$1$[esp+64]
  0010b	83 ec 08	 sub	 esp, 8
  0010e	89 44 24 38	 mov	 DWORD PTR tv130[esp+72], eax
  00112	8b da		 mov	 ebx, edx
  00114	f2 0f 11 04 24	 movsd	 QWORD PTR [esp], xmm0
  00119	6a 00		 push	 0
  0011b	6a 3c		 push	 60			; 0000003cH
  0011d	56		 push	 esi
  0011e	57		 push	 edi
  0011f	e8 00 00 00 00	 call	 __aulldiv
  00124	8b 4c 24 34	 mov	 ecx, DWORD PTR _seconds$1$[esp+72]
  00128	8b f0		 mov	 esi, eax
  0012a	8b fa		 mov	 edi, edx
  0012c	0f a4 f7 04	 shld	 edi, esi, 4
  00130	c1 e6 04	 shl	 esi, 4
  00133	2b f0		 sub	 esi, eax
  00135	1b fa		 sbb	 edi, edx
  00137	0f a4 f7 02	 shld	 edi, esi, 2
  0013b	c1 e6 02	 shl	 esi, 2
  0013e	2b ce		 sub	 ecx, esi
  00140	8b 74 24 3c	 mov	 esi, DWORD PTR _seconds$2$[esp+72]
  00144	8b c6		 mov	 eax, esi
  00146	1b c7		 sbb	 eax, edi
  00148	8b 7c 24 38	 mov	 edi, DWORD PTR tv130[esp+72]
  0014c	50		 push	 eax
  0014d	51		 push	 ecx
  0014e	b9 10 0e 00 00	 mov	 ecx, 3600		; 00000e10H
  00153	8b c3		 mov	 eax, ebx
  00155	f7 e1		 mul	 ecx
  00157	ba 10 0e 00 00	 mov	 edx, 3600		; 00000e10H
  0015c	8b c8		 mov	 ecx, eax
  0015e	8b c7		 mov	 eax, edi
  00160	f7 e2		 mul	 edx
  00162	6a 00		 push	 0
  00164	03 ca		 add	 ecx, edx
  00166	8b 54 24 40	 mov	 edx, DWORD PTR _seconds$1$[esp+84]
  0016a	2b d0		 sub	 edx, eax
  0016c	6a 3c		 push	 60			; 0000003cH
  0016e	1b f1		 sbb	 esi, ecx
  00170	56		 push	 esi
  00171	52		 push	 edx
  00172	e8 00 00 00 00	 call	 __aulldiv
  00177	52		 push	 edx
  00178	50		 push	 eax
  00179	53		 push	 ebx
  0017a	57		 push	 edi
  0017b	68 00 00 00 00	 push	 OFFSET ??_C@_0BN@GOPGHHGJ@?$CF02llu?3?$CF02llu?3?$CF02llu?0?5?$CF?43f?5s@
  00180	68 c9 00 00 00	 push	 201			; 000000c9H
  00185	6a 01		 push	 1
  00187	e8 00 00 00 00	 call	 ?Log@@YAXHHPBDZZ	; Log
; File c:\users\giulif\downloads\study\git\sysstatus\usb.cpp

; 203  : 	Log(LOG_DEBUG,__LINE__,"<< USB.DevsDets");

  0018c	68 00 00 00 00	 push	 OFFSET ??_C@_0BA@GOKCLIBE@?$DM?$DM?5USB?4DevsDets@
  00191	68 cb 00 00 00	 push	 203			; 000000cbH
  00196	6a 10		 push	 16			; 00000010H
  00198	e8 00 00 00 00	 call	 ?Log@@YAXHHPBDZZ	; Log
  0019d	83 c4 38	 add	 esp, 56			; 00000038H

; 204  : }

  001a0	5f		 pop	 edi
  001a1	5e		 pop	 esi
  001a2	5b		 pop	 ebx
  001a3	8b e5		 mov	 esp, ebp
  001a5	5d		 pop	 ebp
  001a6	c3		 ret	 0
?USBDevicesDetails@USB@@QAEXXZ ENDP			; USB::USBDevicesDetails
_TEXT	ENDS
; Function compile flags: /Ogtp
; File c:\users\giulif\downloads\study\git\sysstatus\usb.h
; File c:\program files (x86)\microsoft visual studio\2017\professional\vc\tools\msvc\14.16.27023\include\xstring
; File c:\users\giulif\downloads\study\git\sysstatus\usb.h
; File c:\program files (x86)\microsoft visual studio\2017\professional\vc\tools\msvc\14.16.27023\include\xstring
; File c:\program files (x86)\microsoft visual studio\2017\professional\vc\tools\msvc\14.16.27023\include\xstddef
; File c:\users\giulif\downloads\study\git\sysstatus\usb.h
; File c:\program files (x86)\microsoft visual studio\2017\professional\vc\tools\msvc\14.16.27023\include\vector
; File c:\users\giulif\downloads\study\git\sysstatus\usb.h
; File c:\program files (x86)\microsoft visual studio\2017\professional\vc\tools\msvc\14.16.27023\include\vector
; File c:\program files (x86)\microsoft visual studio\2017\professional\vc\tools\msvc\14.16.27023\include\xmemory0
; File c:\program files (x86)\microsoft visual studio\2017\professional\vc\tools\msvc\14.16.27023\include\vector
; File c:\users\giulif\downloads\study\git\sysstatus\usb.h
; File c:\program files (x86)\microsoft visual studio\2017\professional\vc\tools\msvc\14.16.27023\include\vector
; File c:\users\giulif\downloads\study\git\sysstatus\usb.h
;	COMDAT ?PushBackDetails@USB@@IAEXABV?$basic_string@DU?$char_traits@D@std@@V?$allocator@D@2@@std@@@Z
_TEXT	SEGMENT
_detail$ = 8						; size = 4
?PushBackDetails@USB@@IAEXABV?$basic_string@DU?$char_traits@D@std@@V?$allocator@D@2@@std@@@Z PROC ; USB::PushBackDetails, COMDAT
; _this$ = ecx

; 127  :     void PushBackDetails(std::string const& detail) {

  00000	55		 push	 ebp
  00001	8b ec		 mov	 ebp, esp
  00003	56		 push	 esi
; File c:\program files (x86)\microsoft visual studio\2017\professional\vc\tools\msvc\14.16.27023\include\xstring

; 1814 : 		const value_type * _Result = _Bx._Buf;

  00004	8b 75 08	 mov	 esi, DWORD PTR _detail$[ebp]
  00007	8b c6		 mov	 eax, esi
; File c:\users\giulif\downloads\study\git\sysstatus\usb.h

; 127  :     void PushBackDetails(std::string const& detail) {

  00009	57		 push	 edi
  0000a	8b f9		 mov	 edi, ecx
; File c:\program files (x86)\microsoft visual studio\2017\professional\vc\tools\msvc\14.16.27023\include\xstring

; 1825 : 		return (_BUF_SIZE <= _Myres);

  0000c	83 7e 14 10	 cmp	 DWORD PTR [esi+20], 16	; 00000010H

; 1815 : 		if (_Large_string_engaged())

  00010	72 02		 jb	 SHORT $LN10@PushBackDe
; File c:\program files (x86)\microsoft visual studio\2017\professional\vc\tools\msvc\14.16.27023\include\xstddef

; 346  : 	return (_Ptr);

  00012	8b 06		 mov	 eax, DWORD PTR [esi]
$LN10@PushBackDe:
; File c:\users\giulif\downloads\study\git\sysstatus\usb.h

; 128  :         Log(LOG_DEBUG,__LINE__,"-- USB.PushBackDets, %s",detail.c_str());

  00014	50		 push	 eax
  00015	68 00 00 00 00	 push	 OFFSET ??_C@_0BI@GFKFEIAL@?9?9?5USB?4PushBackDets?0?5?$CFs@
  0001a	68 80 00 00 00	 push	 128			; 00000080H
  0001f	6a 10		 push	 16			; 00000010H
  00021	e8 00 00 00 00	 call	 ?Log@@YAXHHPBDZZ	; Log
; File c:\program files (x86)\microsoft visual studio\2017\professional\vc\tools\msvc\14.16.27023\include\vector

; 1726 : 		return (this->_Myend() != this->_Mylast());

  00026	8b 87 10 02 00
	00		 mov	 eax, DWORD PTR [edi+528]
; File c:\users\giulif\downloads\study\git\sysstatus\usb.h

; 128  :         Log(LOG_DEBUG,__LINE__,"-- USB.PushBackDets, %s",detail.c_str());

  0002c	83 c4 10	 add	 esp, 16			; 00000010H
; File c:\program files (x86)\microsoft visual studio\2017\professional\vc\tools\msvc\14.16.27023\include\vector

; 917  : 		if (_Has_unused_capacity())

  0002f	56		 push	 esi

; 1726 : 		return (this->_Myend() != this->_Mylast());

  00030	39 87 14 02 00
	00		 cmp	 DWORD PTR [edi+532], eax

; 917  : 		if (_Has_unused_capacity())

  00036	74 14		 je	 SHORT $LN19@PushBackDe
; File c:\program files (x86)\microsoft visual studio\2017\professional\vc\tools\msvc\14.16.27023\include\xmemory0

; 879  : 		{	// construct _Objty(_Types...) at _Ptr

  00038	8b c8		 mov	 ecx, eax
  0003a	e8 00 00 00 00	 call	 ??0?$basic_string@DU?$char_traits@D@std@@V?$allocator@D@2@@std@@QAE@ABV01@@Z ; std::basic_string<char,std::char_traits<char>,std::allocator<char> >::basic_string<char,std::char_traits<char>,std::allocator<char> >
; File c:\program files (x86)\microsoft visual studio\2017\professional\vc\tools\msvc\14.16.27023\include\vector

; 905  : 		++this->_Mylast();

  0003f	83 87 10 02 00
	00 18		 add	 DWORD PTR [edi+528], 24	; 00000018H
; File c:\users\giulif\downloads\study\git\sysstatus\usb.h

; 130  :     }

  00046	5f		 pop	 edi
  00047	5e		 pop	 esi
  00048	5d		 pop	 ebp
  00049	c2 04 00	 ret	 4
$LN19@PushBackDe:
; File c:\program files (x86)\microsoft visual studio\2017\professional\vc\tools\msvc\14.16.27023\include\vector

; 922  : 		_Ty& _Result = *_Emplace_reallocate(this->_Mylast(), _STD forward<_Valty>(_Val)...);

  0004c	50		 push	 eax
  0004d	8d 8f 0c 02 00
	00		 lea	 ecx, DWORD PTR [edi+524]
  00053	e8 00 00 00 00	 call	 ??$_Emplace_reallocate@ABV?$basic_string@DU?$char_traits@D@std@@V?$allocator@D@2@@std@@@?$vector@V?$basic_string@DU?$char_traits@D@std@@V?$allocator@D@2@@std@@V?$allocator@V?$basic_string@DU?$char_traits@D@std@@V?$allocator@D@2@@std@@@2@@std@@QAEPAV?$basic_string@DU?$char_traits@D@std@@V?$allocator@D@2@@1@QAV21@ABV21@@Z ; std::vector<std::basic_string<char,std::char_traits<char>,std::allocator<char> >,std::allocator<std::basic_string<char,std::char_traits<char>,std::allocator<char> > > >::_Emplace_reallocate<std::basic_string<char,std::char_traits<char>,std::allocator<char> > const &>
; File c:\users\giulif\downloads\study\git\sysstatus\usb.h

; 130  :     }

  00058	5f		 pop	 edi
  00059	5e		 pop	 esi
  0005a	5d		 pop	 ebp
  0005b	c2 04 00	 ret	 4
?PushBackDetails@USB@@IAEXABV?$basic_string@DU?$char_traits@D@std@@V?$allocator@D@2@@std@@@Z ENDP ; USB::PushBackDetails
_TEXT	ENDS
; Function compile flags: /Ogtp
; File c:\users\giulif\downloads\study\git\sysstatus\usb.cpp
; File c:\program files (x86)\microsoft visual studio\2017\professional\vc\tools\msvc\14.16.27023\include\xstring
; File c:\program files (x86)\microsoft visual studio\2017\professional\vc\tools\msvc\14.16.27023\include\xstddef
; File c:\users\giulif\downloads\study\git\sysstatus\usb.cpp
; File c:\program files (x86)\microsoft visual studio\2017\professional\vc\tools\msvc\14.16.27023\include\xstring
; File c:\program files (x86)\microsoft visual studio\2017\professional\vc\tools\msvc\14.16.27023\include\xmemory0
; File c:\program files (x86)\microsoft visual studio\2017\professional\vc\tools\msvc\14.16.27023\include\xstring
; File c:\program files (x86)\microsoft visual studio\2017\professional\vc\tools\msvc\14.16.27023\include\xmemory0
; File c:\program files (x86)\microsoft visual studio\2017\professional\vc\tools\msvc\14.16.27023\include\xstring
; File c:\program files (x86)\microsoft visual studio\2017\professional\vc\tools\msvc\14.16.27023\include\iosfwd
; File c:\users\giulif\downloads\study\git\sysstatus\usb.cpp
; File c:\program files (x86)\microsoft visual studio\2017\professional\vc\tools\msvc\14.16.27023\include\xmemory0
; File c:\users\giulif\downloads\study\git\sysstatus\usb.cpp
_TEXT	SEGMENT
_nBytes$1$ = -320					; size = 4
_nBytesReturned$ = -316					; size = 4
$T2 = -312						; size = 24
_stringDescReqBuf$ = -288				; size = 267
__$ArrayPad$ = -16					; size = 4
__$EHRec$ = -12						; size = 12
_hHubDevice$ = 8					; size = 4
_ConnectionIndex$ = 12					; size = 4
_DescriptorIndex$ = 16					; size = 1
_LanguageID$ = 20					; size = 2
?GetStringDescriptor@USB@@IAEPAU_STRING_DESCRIPTOR_NODE@@PAXKEG@Z PROC ; USB::GetStringDescriptor
; _this$dead$ = ecx

; 212  : {

  00000	55		 push	 ebp
  00001	8b ec		 mov	 ebp, esp
  00003	6a ff		 push	 -1
  00005	68 00 00 00 00	 push	 __ehhandler$?GetStringDescriptor@USB@@IAEPAU_STRING_DESCRIPTOR_NODE@@PAXKEG@Z
  0000a	64 a1 00 00 00
	00		 mov	 eax, DWORD PTR fs:0
  00010	50		 push	 eax
  00011	81 ec 34 01 00
	00		 sub	 esp, 308		; 00000134H
  00017	a1 00 00 00 00	 mov	 eax, DWORD PTR ___security_cookie
  0001c	33 c5		 xor	 eax, ebp
  0001e	89 45 f0	 mov	 DWORD PTR __$ArrayPad$[ebp], eax
  00021	53		 push	 ebx
  00022	56		 push	 esi
  00023	57		 push	 edi
  00024	50		 push	 eax
  00025	8d 45 f4	 lea	 eax, DWORD PTR __$EHRec$[ebp]
  00028	64 a3 00 00 00
	00		 mov	 DWORD PTR fs:0, eax
  0002e	8b 75 08	 mov	 esi, DWORD PTR _hHubDevice$[ebp]

; 213  :     BOOL    success;
; 214  :     ULONG   nBytes = 0;
; 215  :     ULONG   nBytesReturned = 0;
; 216  : 
; 217  :     Log(LOG_DEBUG, __LINE__, ">> USB.GetStrDesc");

  00031	68 00 00 00 00	 push	 OFFSET ??_C@_0BC@OBKJMAF@?$DO?$DO?5USB?4GetStrDesc@
  00036	68 d9 00 00 00	 push	 217			; 000000d9H
  0003b	6a 10		 push	 16			; 00000010H
  0003d	c7 85 c4 fe ff
	ff 00 00 00 00	 mov	 DWORD PTR _nBytesReturned$[ebp], 0
  00047	e8 00 00 00 00	 call	 ?Log@@YAXHHPBDZZ	; Log
  0004c	83 c4 0c	 add	 esp, 12			; 0000000cH

; 218  : 
; 219  :     UCHAR   stringDescReqBuf[sizeof(USB_DESCRIPTOR_REQUEST) + MAXIMUM_USB_STRING_LENGTH];
; 220  : 
; 221  :     PSTRING_DESCRIPTOR_NODE stringDescNode = NULL;
; 222  : 
; 223  :     nBytes = sizeof(stringDescReqBuf);
; 224  : 
; 225  :     PUSB_DESCRIPTOR_REQUEST stringDescReq = (PUSB_DESCRIPTOR_REQUEST)stringDescReqBuf;
; 226  :     PUSB_STRING_DESCRIPTOR stringDesc = (PUSB_STRING_DESCRIPTOR)(stringDescReq + 1);
; 227  : 
; 228  :     // Zero fill the entire request structure
; 229  :     //
; 230  :     memset(stringDescReq, 0, nBytes);

  0004f	8d 85 e0 fe ff
	ff		 lea	 eax, DWORD PTR _stringDescReqBuf$[ebp]
  00055	68 0b 01 00 00	 push	 267			; 0000010bH
  0005a	6a 00		 push	 0
  0005c	50		 push	 eax
  0005d	e8 00 00 00 00	 call	 _memset

; 231  : 
; 232  :     // Indicate the port from which the descriptor will be requested
; 233  :     //
; 234  :     stringDescReq->ConnectionIndex = ConnectionIndex;

  00062	8b 45 0c	 mov	 eax, DWORD PTR _ConnectionIndex$[ebp]
  00065	83 c4 0c	 add	 esp, 12			; 0000000cH

; 235  : 
; 236  :     //
; 237  :     // USBHUB uses URB_FUNCTION_GET_DESCRIPTOR_FROM_DEVICE to process this
; 238  :     // IOCTL_USB_GET_DESCRIPTOR_FROM_NODE_CONNECTION request.
; 239  :     //
; 240  :     // USBD will automatically initialize these fields:
; 241  :     //     bmRequest = 0x80
; 242  :     //     bRequest  = 0x06
; 243  :     //
; 244  :     // We must inititialize these fields:
; 245  :     //     wValue    = Descriptor Type (high) and Descriptor Index (low byte)
; 246  :     //     wIndex    = Zero (or Language ID for String Descriptors)
; 247  :     //     wLength   = Length of descriptor buffer
; 248  :     //
; 249  :     stringDescReq->SetupPacket.wValue = (USB_STRING_DESCRIPTOR_TYPE << 8)
; 250  :         | DescriptorIndex;
; 251  : 
; 252  :     stringDescReq->SetupPacket.wIndex = LanguageID;

  00068	66 8b 5d 14	 mov	 bx, WORD PTR _LanguageID$[ebp]
  0006c	b9 00 03 00 00	 mov	 ecx, 768		; 00000300H
  00071	89 85 e0 fe ff
	ff		 mov	 DWORD PTR _stringDescReqBuf$[ebp], eax
  00077	8a 45 10	 mov	 al, BYTE PTR _DescriptorIndex$[ebp]
  0007a	0f b6 c0	 movzx	 eax, al
  0007d	66 0b c1	 or	 ax, cx
  00080	66 89 9d e8 fe
	ff ff		 mov	 WORD PTR _stringDescReqBuf$[ebp+8], bx
  00087	66 89 85 e6 fe
	ff ff		 mov	 WORD PTR _stringDescReqBuf$[ebp+6], ax

; 253  : 
; 254  :     stringDescReq->SetupPacket.wLength = (USHORT)(nBytes - sizeof(USB_DESCRIPTOR_REQUEST));

  0008e	b8 ff 00 00 00	 mov	 eax, 255		; 000000ffH

; 255  : 
; 256  :     // Now issue the get descriptor request.
; 257  :     //
; 258  :     success = DeviceIoControl(hHubDevice,

  00093	6a 00		 push	 0
  00095	66 89 85 ea fe
	ff ff		 mov	 WORD PTR _stringDescReqBuf$[ebp+10], ax
  0009c	8d 85 c4 fe ff
	ff		 lea	 eax, DWORD PTR _nBytesReturned$[ebp]
  000a2	50		 push	 eax
  000a3	68 0b 01 00 00	 push	 267			; 0000010bH
  000a8	8d 85 e0 fe ff
	ff		 lea	 eax, DWORD PTR _stringDescReqBuf$[ebp]
  000ae	50		 push	 eax
  000af	68 0b 01 00 00	 push	 267			; 0000010bH
  000b4	50		 push	 eax
  000b5	68 10 04 22 00	 push	 2229264			; 00220410H
  000ba	56		 push	 esi
  000bb	ff 15 00 00 00
	00		 call	 DWORD PTR __imp__DeviceIoControl@32

; 259  :         IOCTL_USB_GET_DESCRIPTOR_FROM_NODE_CONNECTION,
; 260  :         stringDescReq,
; 261  :         nBytes,
; 262  :         stringDescReq,
; 263  :         nBytes,
; 264  :         &nBytesReturned,
; 265  :         NULL);
; 266  : 
; 267  :     //
; 268  :     // Do some sanity checks on the return from the get descriptor request.
; 269  :     //
; 270  : 
; 271  :     if (!success)

  000c1	85 c0		 test	 eax, eax
  000c3	75 1b		 jne	 SHORT $LN2@GetStringD

; 272  :     {
; 273  :         Log(LOG_DEBUG, __LINE__, "<< USB.GetStrDesc, DeviceIoControl False");

  000c5	68 00 00 00 00	 push	 OFFSET ??_C@_0CJ@MLNPNNOJ@?$DM?$DM?5USB?4GetStrDesc?0?5DeviceIoCont@
  000ca	68 11 01 00 00	 push	 273			; 00000111H
  000cf	6a 10		 push	 16			; 00000010H
  000d1	e8 00 00 00 00	 call	 ?Log@@YAXHHPBDZZ	; Log
  000d6	83 c4 0c	 add	 esp, 12			; 0000000cH

; 274  :         return NULL;

  000d9	33 c0		 xor	 eax, eax
  000db	e9 19 02 00 00	 jmp	 $LN1@GetStringD
$LN2@GetStringD:

; 275  :     }
; 276  : 
; 277  :     if (nBytesReturned < 2)

  000e0	8b 85 c4 fe ff
	ff		 mov	 eax, DWORD PTR _nBytesReturned$[ebp]
  000e6	83 f8 02	 cmp	 eax, 2
  000e9	73 1c		 jae	 SHORT $LN3@GetStringD

; 278  :     {
; 279  :         Log(LOG_DEBUG, __LINE__, "<< USB.GetStrDesc, Bytes Ret %u", nBytesReturned);

  000eb	50		 push	 eax
  000ec	68 00 00 00 00	 push	 OFFSET ??_C@_0CA@JKPBCDKN@?$DM?$DM?5USB?4GetStrDesc?0?5Bytes?5Ret?5?$CFu@
  000f1	68 17 01 00 00	 push	 279			; 00000117H
  000f6	6a 10		 push	 16			; 00000010H
  000f8	e8 00 00 00 00	 call	 ?Log@@YAXHHPBDZZ	; Log
  000fd	83 c4 10	 add	 esp, 16			; 00000010H

; 280  :         return NULL;

  00100	33 c0		 xor	 eax, eax
  00102	e9 f2 01 00 00	 jmp	 $LN1@GetStringD
$LN3@GetStringD:

; 281  :     }
; 282  : 
; 283  :     if (stringDesc->bDescriptorType != USB_STRING_DESCRIPTOR_TYPE)

  00107	8a 8d ed fe ff
	ff		 mov	 cl, BYTE PTR _stringDescReqBuf$[ebp+13]
  0010d	80 f9 03	 cmp	 cl, 3
  00110	74 1f		 je	 SHORT $LN4@GetStringD

; 284  :     {
; 285  :         Log(LOG_DEBUG, __LINE__, "<< USB.GetStrDesc, Inv DescriptorTp %d", stringDesc->bDescriptorType);

  00112	0f b6 c1	 movzx	 eax, cl
  00115	50		 push	 eax
  00116	68 00 00 00 00	 push	 OFFSET ??_C@_0CH@ELGGMNKC@?$DM?$DM?5USB?4GetStrDesc?0?5Inv?5Descript@
  0011b	68 1d 01 00 00	 push	 285			; 0000011dH
  00120	6a 10		 push	 16			; 00000010H
  00122	e8 00 00 00 00	 call	 ?Log@@YAXHHPBDZZ	; Log
  00127	83 c4 10	 add	 esp, 16			; 00000010H

; 286  :         return NULL;

  0012a	33 c0		 xor	 eax, eax
  0012c	e9 c8 01 00 00	 jmp	 $LN1@GetStringD
$LN4@GetStringD:

; 287  :     }
; 288  : 
; 289  :     if (stringDesc->bLength != nBytesReturned - sizeof(USB_DESCRIPTOR_REQUEST))

  00131	8d 48 f4	 lea	 ecx, DWORD PTR [eax-12]
  00134	0f b6 85 ec fe
	ff ff		 movzx	 eax, BYTE PTR _stringDescReqBuf$[ebp+12]
  0013b	3b c1		 cmp	 eax, ecx
  0013d	74 1d		 je	 SHORT $LN5@GetStringD

; 290  :     {
; 291  :         Log(LOG_DEBUG, __LINE__, "<< USB.GetStrDesc, Inv Sz %d <> %d", (int)stringDesc->bLength, nBytesReturned - sizeof(USB_DESCRIPTOR_REQUEST));

  0013f	51		 push	 ecx
  00140	50		 push	 eax
  00141	68 00 00 00 00	 push	 OFFSET ??_C@_0CD@CHKNKAPD@?$DM?$DM?5USB?4GetStrDesc?0?5Inv?5Sz?5?$CFd?5?$DM?$DO@
  00146	68 23 01 00 00	 push	 291			; 00000123H
  0014b	6a 10		 push	 16			; 00000010H
  0014d	e8 00 00 00 00	 call	 ?Log@@YAXHHPBDZZ	; Log
  00152	83 c4 14	 add	 esp, 20			; 00000014H

; 292  :         return NULL;

  00155	33 c0		 xor	 eax, eax
  00157	e9 9d 01 00 00	 jmp	 $LN1@GetStringD
$LN5@GetStringD:

; 293  :     }
; 294  : 
; 295  :     if (stringDesc->bLength % 2 != 0)

  0015c	a8 01		 test	 al, 1
  0015e	74 1c		 je	 SHORT $LN6@GetStringD

; 296  :     {
; 297  :         Log(LOG_DEBUG, __LINE__, "<< USB.GetStrDesc, Odd Sz %d", (int)stringDesc->bLength);

  00160	50		 push	 eax
  00161	68 00 00 00 00	 push	 OFFSET ??_C@_0BN@ILBIFDNN@?$DM?$DM?5USB?4GetStrDesc?0?5Odd?5Sz?5?$CFd@
  00166	68 29 01 00 00	 push	 297			; 00000129H
  0016b	6a 10		 push	 16			; 00000010H
  0016d	e8 00 00 00 00	 call	 ?Log@@YAXHHPBDZZ	; Log
  00172	83 c4 10	 add	 esp, 16			; 00000010H

; 298  :         return NULL;

  00175	33 c0		 xor	 eax, eax
  00177	e9 7d 01 00 00	 jmp	 $LN1@GetStringD
$LN6@GetStringD:

; 299  :     }
; 300  : 
; 301  :     //
; 302  :     // Looks good, allocate some (zero filled) space for the string descriptor
; 303  :     // node and copy the string descriptor to it.
; 304  :     //
; 305  : 
; 306  :     stringDescNode = (PSTRING_DESCRIPTOR_NODE)malloc(sizeof(STRING_DESCRIPTOR_NODE) + stringDesc->bLength);

  0017c	83 c0 08	 add	 eax, 8
  0017f	50		 push	 eax
  00180	e8 00 00 00 00	 call	 _malloc
  00185	8b f0		 mov	 esi, eax
  00187	83 c4 04	 add	 esp, 4

; 307  : 
; 308  :     if (stringDescNode == NULL)

  0018a	85 f6		 test	 esi, esi
  0018c	75 1b		 jne	 SHORT $LN7@GetStringD

; 309  :     {
; 310  :         Log(LOG_DEBUG, __LINE__, "<< USB.GetStrDesc, new DescNode null");

  0018e	68 00 00 00 00	 push	 OFFSET ??_C@_0CF@BKJLPKEL@?$DM?$DM?5USB?4GetStrDesc?0?5new?5DescNode@
  00193	68 36 01 00 00	 push	 310			; 00000136H
  00198	6a 10		 push	 16			; 00000010H
  0019a	e8 00 00 00 00	 call	 ?Log@@YAXHHPBDZZ	; Log
  0019f	83 c4 0c	 add	 esp, 12			; 0000000cH

; 311  :         return NULL;

  001a2	33 c0		 xor	 eax, eax
  001a4	e9 50 01 00 00	 jmp	 $LN1@GetStringD
$LN7@GetStringD:

; 312  :     }
; 313  : 
; 314  :     memset(stringDescNode, 0x00, sizeof(STRING_DESCRIPTOR_NODE) + stringDesc->bLength);

  001a9	0f b6 85 ec fe
	ff ff		 movzx	 eax, BYTE PTR _stringDescReqBuf$[ebp+12]
  001b0	83 c0 08	 add	 eax, 8
  001b3	50		 push	 eax
  001b4	6a 00		 push	 0
  001b6	56		 push	 esi
  001b7	e8 00 00 00 00	 call	 _memset

; 315  : 
; 316  :     stringDescNode->DescriptorIndex = DescriptorIndex;

  001bc	8a 45 10	 mov	 al, BYTE PTR _DescriptorIndex$[ebp]

; 317  :     stringDescNode->LanguageID = LanguageID;
; 318  : 
; 319  :     memcpy(stringDescNode->StringDescriptor, stringDesc, stringDesc->bLength);

  001bf	8d 7e 08	 lea	 edi, DWORD PTR [esi+8]
  001c2	83 c4 0c	 add	 esp, 12			; 0000000cH
  001c5	88 46 04	 mov	 BYTE PTR [esi+4], al
  001c8	66 89 5e 06	 mov	 WORD PTR [esi+6], bx
  001cc	0f b6 85 ec fe
	ff ff		 movzx	 eax, BYTE PTR _stringDescReqBuf$[ebp+12]
  001d3	50		 push	 eax
  001d4	8d 85 ec fe ff
	ff		 lea	 eax, DWORD PTR _stringDescReqBuf$[ebp+12]
  001da	50		 push	 eax
  001db	57		 push	 edi
  001dc	e8 00 00 00 00	 call	 _memcpy
  001e1	83 c4 0c	 add	 esp, 12			; 0000000cH

; 320  : 
; 321  :     if (LanguageID)

  001e4	66 85 db	 test	 bx, bx
  001e7	0f 84 f5 00 00
	00		 je	 $LN10@GetStringD

; 322  :     {
; 323  :         nBytes = WideCharToMultiByte(

  001ed	6a 00		 push	 0
  001ef	6a 00		 push	 0
  001f1	68 0b 01 00 00	 push	 267			; 0000010bH
  001f6	8d 85 e0 fe ff
	ff		 lea	 eax, DWORD PTR _stringDescReqBuf$[ebp]
  001fc	50		 push	 eax
  001fd	0f b6 07	 movzx	 eax, BYTE PTR [edi]
  00200	8d 5e 0a	 lea	 ebx, DWORD PTR [esi+10]
  00203	83 e8 02	 sub	 eax, 2
  00206	99		 cdq
  00207	2b c2		 sub	 eax, edx
  00209	d1 f8		 sar	 eax, 1
  0020b	50		 push	 eax
  0020c	53		 push	 ebx
  0020d	6a 00		 push	 0
  0020f	6a 00		 push	 0
  00211	ff 15 00 00 00
	00		 call	 DWORD PTR __imp__WideCharToMultiByte@32
  00217	89 85 c0 fe ff
	ff		 mov	 DWORD PTR _nBytes$1$[ebp], eax

; 324  :             CP_ACP,     // CodePage
; 325  :             0,          // CodePage
; 326  :             stringDescNode->StringDescriptor->bString,
; 327  :             (stringDescNode->StringDescriptor->bLength - 2) / 2,
; 328  :             (char *)stringDescReqBuf,
; 329  :             sizeof(USB_DESCRIPTOR_REQUEST) + MAXIMUM_USB_STRING_LENGTH,
; 330  :             NULL,       // lpDefaultChar
; 331  :             NULL);      // pUsedDefaultChar
; 332  :         if (!nBytes)

  0021d	85 c0		 test	 eax, eax
  0021f	0f 85 95 00 00
	00		 jne	 $LN9@GetStringD

; 334  :             Log(LOG_DEBUG, __LINE__, "-- USB.GetStrDesc, WideCharToMultiByte %s", GetLastErrorMessage(GetLastError()).c_str());

  00225	ff 15 00 00 00
	00		 call	 DWORD PTR __imp__GetLastError@0
  0022b	8b d0		 mov	 edx, eax
  0022d	8d 8d c8 fe ff
	ff		 lea	 ecx, DWORD PTR $T2[ebp]
  00233	e8 00 00 00 00	 call	 ?GetLastErrorMessage@@YA?AV?$basic_string@DU?$char_traits@D@std@@V?$allocator@D@2@@std@@K@Z ; GetLastErrorMessage
  00238	c7 45 fc 00 00
	00 00		 mov	 DWORD PTR __$EHRec$[ebp+8], 0
; File c:\program files (x86)\microsoft visual studio\2017\professional\vc\tools\msvc\14.16.27023\include\xstring

; 1825 : 		return (_BUF_SIZE <= _Myres);

  0023f	83 78 14 10	 cmp	 DWORD PTR [eax+20], 16	; 00000010H

; 1815 : 		if (_Large_string_engaged())

  00243	72 02		 jb	 SHORT $LN20@GetStringD
; File c:\program files (x86)\microsoft visual studio\2017\professional\vc\tools\msvc\14.16.27023\include\xstddef

; 346  : 	return (_Ptr);

  00245	8b 00		 mov	 eax, DWORD PTR [eax]
$LN20@GetStringD:
; File c:\users\giulif\downloads\study\git\sysstatus\usb.cpp

; 334  :             Log(LOG_DEBUG, __LINE__, "-- USB.GetStrDesc, WideCharToMultiByte %s", GetLastErrorMessage(GetLastError()).c_str());

  00247	50		 push	 eax
  00248	68 00 00 00 00	 push	 OFFSET ??_C@_0CK@NJJDPDGO@?9?9?5USB?4GetStrDesc?0?5WideCharToMu@
  0024d	68 4e 01 00 00	 push	 334			; 0000014eH
  00252	6a 10		 push	 16			; 00000010H
  00254	e8 00 00 00 00	 call	 ?Log@@YAXHHPBDZZ	; Log
  00259	83 c4 10	 add	 esp, 16			; 00000010H
  0025c	c7 45 fc ff ff
	ff ff		 mov	 DWORD PTR __$EHRec$[ebp+8], -1
; File c:\program files (x86)\microsoft visual studio\2017\professional\vc\tools\msvc\14.16.27023\include\xstring

; 1825 : 		return (_BUF_SIZE <= _Myres);

  00263	8b 95 dc fe ff
	ff		 mov	 edx, DWORD PTR $T2[ebp+20]
  00269	83 fa 10	 cmp	 edx, 16			; 00000010H

; 3987 : 		if (_My_data._Large_string_engaged())

  0026c	72 2f		 jb	 SHORT $LN68@GetStringD
; File c:\program files (x86)\microsoft visual studio\2017\professional\vc\tools\msvc\14.16.27023\include\xmemory0

; 992  : 		_Deallocate<_New_alignof<_Ty>>(_Ptr, sizeof(_Ty) * _Count);

  0026e	8b 8d c8 fe ff
	ff		 mov	 ecx, DWORD PTR $T2[ebp]
; File c:\program files (x86)\microsoft visual studio\2017\professional\vc\tools\msvc\14.16.27023\include\xstring

; 3992 : 			_Al.deallocate(_Ptr, _My_data._Myres + 1);

  00274	42		 inc	 edx
; File c:\program files (x86)\microsoft visual studio\2017\professional\vc\tools\msvc\14.16.27023\include\xmemory0

; 992  : 		_Deallocate<_New_alignof<_Ty>>(_Ptr, sizeof(_Ty) * _Count);

  00275	8b c1		 mov	 eax, ecx

; 201  : 	if (_Bytes >= _Big_allocation_threshold)

  00277	81 fa 00 10 00
	00		 cmp	 edx, 4096		; 00001000H
  0027d	72 14		 jb	 SHORT $LN67@GetStringD

; 118  : 	const uintptr_t _Ptr_container = _Ptr_user[-1];

  0027f	8b 49 fc	 mov	 ecx, DWORD PTR [ecx-4]
  00282	83 c2 23	 add	 edx, 35			; 00000023H
  00285	2b c1		 sub	 eax, ecx

; 132  : 	_STL_VERIFY(_Back_shift >= _Min_back_shift && _Back_shift <= _Non_user_size, "invalid argument");

  00287	83 c0 fc	 add	 eax, -4			; fffffffcH
  0028a	83 f8 1f	 cmp	 eax, 31			; 0000001fH
  0028d	0f 87 84 00 00
	00		 ja	 $LN86@GetStringD
$LN67@GetStringD:

; 207  : 	::operator delete(_Ptr, _Bytes);

  00293	52		 push	 edx
  00294	51		 push	 ecx
  00295	e8 00 00 00 00	 call	 ??3@YAXPAXI@Z		; operator delete
  0029a	83 c4 08	 add	 esp, 8
$LN68@GetStringD:
; File c:\program files (x86)\microsoft visual studio\2017\professional\vc\tools\msvc\14.16.27023\include\xstring

; 3995 : 		_My_data._Mysize = 0;

  0029d	c7 85 d8 fe ff
	ff 00 00 00 00	 mov	 DWORD PTR $T2[ebp+16], 0

; 3996 : 		_My_data._Myres = this->_BUF_SIZE - 1;

  002a7	c7 85 dc fe ff
	ff 0f 00 00 00	 mov	 DWORD PTR $T2[ebp+20], 15 ; 0000000fH
; File c:\program files (x86)\microsoft visual studio\2017\professional\vc\tools\msvc\14.16.27023\include\iosfwd

; 506  : 		_Left = _Right;

  002b1	c6 85 c8 fe ff
	ff 00		 mov	 BYTE PTR $T2[ebp], 0
; File c:\users\giulif\downloads\study\git\sysstatus\usb.cpp

; 336  :         else

  002b8	eb 28		 jmp	 SHORT $LN10@GetStringD
$LN9@GetStringD:

; 337  :         {
; 338  :             memset(stringDescNode->StringDescriptor->bString, 0x00, (stringDescNode->StringDescriptor->bLength - 2));

  002ba	0f b6 07	 movzx	 eax, BYTE PTR [edi]
  002bd	83 e8 02	 sub	 eax, 2
  002c0	50		 push	 eax
  002c1	6a 00		 push	 0
  002c3	53		 push	 ebx
  002c4	e8 00 00 00 00	 call	 _memset
  002c9	83 c4 0c	 add	 esp, 12			; 0000000cH

; 339  :             memcpy(stringDescNode->StringDescriptor->bString, stringDescReqBuf, nBytes);

  002cc	8d 85 e0 fe ff
	ff		 lea	 eax, DWORD PTR _stringDescReqBuf$[ebp]
  002d2	ff b5 c0 fe ff
	ff		 push	 DWORD PTR _nBytes$1$[ebp]
  002d8	50		 push	 eax
  002d9	53		 push	 ebx
  002da	e8 00 00 00 00	 call	 _memcpy
  002df	83 c4 0c	 add	 esp, 12			; 0000000cH
$LN10@GetStringD:

; 340  :         }
; 341  :     }
; 342  :     Log(LOG_DEBUG, __LINE__, "<< USB.GetStrDesc, DescNode 0x%p", stringDescNode);

  002e2	56		 push	 esi
  002e3	68 00 00 00 00	 push	 OFFSET ??_C@_0CB@LADAJLND@?$DM?$DM?5USB?4GetStrDesc?0?5DescNode?50x?$CF@
  002e8	68 56 01 00 00	 push	 342			; 00000156H
  002ed	6a 10		 push	 16			; 00000010H
  002ef	e8 00 00 00 00	 call	 ?Log@@YAXHHPBDZZ	; Log
  002f4	83 c4 10	 add	 esp, 16			; 00000010H

; 343  :     return stringDescNode;

  002f7	8b c6		 mov	 eax, esi
$LN1@GetStringD:

; 344  : }

  002f9	8b 4d f4	 mov	 ecx, DWORD PTR __$EHRec$[ebp]
  002fc	64 89 0d 00 00
	00 00		 mov	 DWORD PTR fs:0, ecx
  00303	59		 pop	 ecx
  00304	5f		 pop	 edi
  00305	5e		 pop	 esi
  00306	5b		 pop	 ebx
  00307	8b 4d f0	 mov	 ecx, DWORD PTR __$ArrayPad$[ebp]
  0030a	33 cd		 xor	 ecx, ebp
  0030c	e8 00 00 00 00	 call	 @__security_check_cookie@4
  00311	8b e5		 mov	 esp, ebp
  00313	5d		 pop	 ebp
  00314	c2 10 00	 ret	 16			; 00000010H
$LN86@GetStringD:
; File c:\program files (x86)\microsoft visual studio\2017\professional\vc\tools\msvc\14.16.27023\include\xmemory0

; 132  : 	_STL_VERIFY(_Back_shift >= _Min_back_shift && _Back_shift <= _Non_user_size, "invalid argument");

  00317	e8 00 00 00 00	 call	 __invalid_parameter_noinfo_noreturn
$LN84@GetStringD:
  0031c	cc		 int	 3
_TEXT	ENDS
text$x	SEGMENT
__unwindfunclet$?GetStringDescriptor@USB@@IAEPAU_STRING_DESCRIPTOR_NODE@@PAXKEG@Z$0:
  00000	8d 8d c8 fe ff
	ff		 lea	 ecx, DWORD PTR $T2[ebp]
  00006	e9 00 00 00 00	 jmp	 ??1?$basic_string@DU?$char_traits@D@std@@V?$allocator@D@2@@std@@QAE@XZ ; std::basic_string<char,std::char_traits<char>,std::allocator<char> >::~basic_string<char,std::char_traits<char>,std::allocator<char> >
__ehhandler$?GetStringDescriptor@USB@@IAEPAU_STRING_DESCRIPTOR_NODE@@PAXKEG@Z:
  0000b	8b 54 24 08	 mov	 edx, DWORD PTR [esp+8]
  0000f	8d 42 0c	 lea	 eax, DWORD PTR [edx+12]
  00012	8b 8a bc fe ff
	ff		 mov	 ecx, DWORD PTR [edx-324]
  00018	33 c8		 xor	 ecx, eax
  0001a	e8 00 00 00 00	 call	 @__security_check_cookie@4
  0001f	8b 4a fc	 mov	 ecx, DWORD PTR [edx-4]
  00022	33 c8		 xor	 ecx, eax
  00024	e8 00 00 00 00	 call	 @__security_check_cookie@4
  00029	b8 00 00 00 00	 mov	 eax, OFFSET __ehfuncinfo$?GetStringDescriptor@USB@@IAEPAU_STRING_DESCRIPTOR_NODE@@PAXKEG@Z
  0002e	e9 00 00 00 00	 jmp	 ___CxxFrameHandler3
text$x	ENDS
?GetStringDescriptor@USB@@IAEPAU_STRING_DESCRIPTOR_NODE@@PAXKEG@Z ENDP ; USB::GetStringDescriptor
; Function compile flags: /Ogtp
; File c:\users\giulif\downloads\study\git\sysstatus\usb.cpp
_TEXT	SEGMENT
_DeviceDesc$ = 8					; size = 4
_ConfigDesc$ = 12					; size = 4
?AreThereStringDescriptors@USB@@IAEHPAU_USB_DEVICE_DESCRIPTOR@@PAU_USB_CONFIGURATION_DESCRIPTOR@@@Z PROC ; USB::AreThereStringDescriptors
; _this$dead$ = ecx

; 347  : {

  00000	55		 push	 ebp
  00001	8b ec		 mov	 ebp, esp
  00003	83 e4 f8	 and	 esp, -8			; fffffff8H
  00006	56		 push	 esi
  00007	57		 push	 edi

; 348  :     PUCHAR descEnd = NULL;
; 349  :     //    PUSB_COMMON_DESCRIPTOR commonDesc = NULL;
; 350  :     PUCHAR commonDesc = NULL;
; 351  : 
; 352  :     Log(LOG_DEBUG, __LINE__, ">> USB.AreThrStrDesc");

  00008	68 00 00 00 00	 push	 OFFSET ??_C@_0BF@IPAKKGGO@?$DO?$DO?5USB?4AreThrStrDesc@
  0000d	68 60 01 00 00	 push	 352			; 00000160H
  00012	6a 10		 push	 16			; 00000010H
  00014	e8 00 00 00 00	 call	 ?Log@@YAXHHPBDZZ	; Log

; 353  : 
; 354  :     //
; 355  :     // Check Device Descriptor strings
; 356  :     //
; 357  :     if (DeviceDesc->iManufacturer || DeviceDesc->iProduct || DeviceDesc->iSerialNumber)

  00019	8b 4d 08	 mov	 ecx, DWORD PTR _DeviceDesc$[ebp]
  0001c	83 c4 0c	 add	 esp, 12			; 0000000cH
  0001f	8a 51 0e	 mov	 dl, BYTE PTR [ecx+14]
  00022	84 d2		 test	 dl, dl
  00024	0f 85 c8 00 00
	00		 jne	 $LN7@AreThereSt
  0002a	38 51 0f	 cmp	 BYTE PTR [ecx+15], dl
  0002d	0f 85 bf 00 00
	00		 jne	 $LN7@AreThereSt
  00033	38 51 10	 cmp	 BYTE PTR [ecx+16], dl
  00036	0f 85 b6 00 00
	00		 jne	 $LN7@AreThereSt

; 360  :         return TRUE;
; 361  :     }
; 362  : 
; 363  :     //
; 364  :     // Check the Configuration and Interface Descriptor strings
; 365  :     //
; 366  :     descEnd = (PUCHAR)ConfigDesc + ConfigDesc->wTotalLength;

  0003c	8b 4d 0c	 mov	 ecx, DWORD PTR _ConfigDesc$[ebp]
  0003f	0f b7 79 02	 movzx	 edi, WORD PTR [ecx+2]
  00043	8d 41 02	 lea	 eax, DWORD PTR [ecx+2]
  00046	03 f9		 add	 edi, ecx

; 367  : 
; 368  :     //    (USB_COMMON_DESCRIPTOR far *)commonDesc = (PUSB_COMMON_DESCRIPTOR)ConfigDesc;
; 369  :     commonDesc = (PUCHAR)ConfigDesc;
; 370  : 
; 371  :     while ((PUCHAR)commonDesc + sizeof(USB_COMMON_DESCRIPTOR) < descEnd &&

  00048	3b c7		 cmp	 eax, edi
  0004a	73 63		 jae	 SHORT $LN3@AreThereSt
  0004c	0f 1f 40 00	 npad	 4
$LL2@AreThereSt:
  00050	8a 11		 mov	 dl, BYTE PTR [ecx]
  00052	0f b6 f2	 movzx	 esi, dl
  00055	03 f1		 add	 esi, ecx
  00057	3b f7		 cmp	 esi, edi
  00059	77 54		 ja	 SHORT $LN3@AreThereSt

; 372  :         (PUCHAR)commonDesc + ((PUSB_COMMON_DESCRIPTOR)commonDesc)->bLength <= descEnd)
; 373  :     {
; 374  :         switch (((PUSB_COMMON_DESCRIPTOR)commonDesc)->bDescriptorType)

  0005b	0f b6 41 01	 movzx	 eax, BYTE PTR [ecx+1]
  0005f	83 e8 02	 sub	 eax, 2
  00062	74 36		 je	 SHORT $LN8@AreThereSt
  00064	83 e8 02	 sub	 eax, 2
  00067	75 3d		 jne	 SHORT $LN24@AreThereSt

; 384  :                 return TRUE;
; 385  :             }
; 386  :             (PUCHAR)commonDesc += ((PUSB_COMMON_DESCRIPTOR)commonDesc)->bLength;
; 387  :             continue;
; 388  : 
; 389  :         case USB_INTERFACE_DESCRIPTOR_TYPE:
; 390  :             //                if (commonDesc->bLength != sizeof(USB_INTERFACE_DESCRIPTOR) &&
; 391  :             //                    commonDesc->bLength != sizeof(USB_INTERFACE_DESCRIPTOR2))
; 392  :             if (((PUSB_COMMON_DESCRIPTOR)commonDesc)->bLength != sizeof(USB_INTERFACE_DESCRIPTOR))

  00069	80 fa 09	 cmp	 dl, 9
  0006c	75 41		 jne	 SHORT $LN3@AreThereSt

; 393  :             {
; 394  :                 break;
; 395  :             }
; 396  :             if (((PUSB_INTERFACE_DESCRIPTOR)commonDesc)->iInterface)

  0006e	8a 41 08	 mov	 al, BYTE PTR [ecx+8]
  00071	84 c0		 test	 al, al
  00073	74 31		 je	 SHORT $LN24@AreThereSt

; 397  :             {
; 398  :                 Log(LOG_DEBUG, __LINE__, "<< USB.AreThrStrDesc, Interface %d", (int)((PUSB_INTERFACE_DESCRIPTOR)commonDesc)->iInterface);

  00075	0f b6 c0	 movzx	 eax, al
  00078	50		 push	 eax
  00079	68 00 00 00 00	 push	 OFFSET ??_C@_0CD@NAENOJMA@?$DM?$DM?5USB?4AreThrStrDesc?0?5Interface@
  0007e	68 8e 01 00 00	 push	 398			; 0000018eH
  00083	6a 10		 push	 16			; 00000010H
  00085	e8 00 00 00 00	 call	 ?Log@@YAXHHPBDZZ	; Log
  0008a	83 c4 10	 add	 esp, 16			; 00000010H

; 413  : }

  0008d	b8 01 00 00 00	 mov	 eax, 1
  00092	5f		 pop	 edi
  00093	5e		 pop	 esi
  00094	8b e5		 mov	 esp, ebp
  00096	5d		 pop	 ebp
  00097	c2 08 00	 ret	 8
$LN8@AreThereSt:

; 375  :         {
; 376  :         case USB_CONFIGURATION_DESCRIPTOR_TYPE:
; 377  :             if (((PUSB_COMMON_DESCRIPTOR)commonDesc)->bLength != sizeof(USB_CONFIGURATION_DESCRIPTOR))

  0009a	80 fa 09	 cmp	 dl, 9
  0009d	75 10		 jne	 SHORT $LN3@AreThereSt

; 378  :             {
; 379  :                 break;
; 380  :             }
; 381  :             if (((PUSB_CONFIGURATION_DESCRIPTOR)commonDesc)->iConfiguration)

  0009f	8a 41 06	 mov	 al, BYTE PTR [ecx+6]
  000a2	84 c0		 test	 al, al
  000a4	75 27		 jne	 SHORT $LN23@AreThereSt
$LN24@AreThereSt:

; 367  : 
; 368  :     //    (USB_COMMON_DESCRIPTOR far *)commonDesc = (PUSB_COMMON_DESCRIPTOR)ConfigDesc;
; 369  :     commonDesc = (PUCHAR)ConfigDesc;
; 370  : 
; 371  :     while ((PUCHAR)commonDesc + sizeof(USB_COMMON_DESCRIPTOR) < descEnd &&

  000a6	8d 46 02	 lea	 eax, DWORD PTR [esi+2]
  000a9	8b ce		 mov	 ecx, esi
  000ab	3b c7		 cmp	 eax, edi
  000ad	72 a1		 jb	 SHORT $LL2@AreThereSt
$LN3@AreThereSt:

; 399  :                 return TRUE;
; 400  :             }
; 401  :             (PUCHAR)commonDesc += ((PUSB_COMMON_DESCRIPTOR)commonDesc)->bLength;
; 402  :             continue;
; 403  : 
; 404  :         default:
; 405  :             (PUCHAR)commonDesc += ((PUSB_COMMON_DESCRIPTOR)commonDesc)->bLength;
; 406  :             continue;
; 407  :         }
; 408  :         break;
; 409  :     }
; 410  : 
; 411  :     Log(LOG_DEBUG, __LINE__, "<< USB.AreThrStrDesc, Ret False");

  000af	68 00 00 00 00	 push	 OFFSET ??_C@_0CA@JFAJNON@?$DM?$DM?5USB?4AreThrStrDesc?0?5Ret?5False@
  000b4	68 9b 01 00 00	 push	 411			; 0000019bH
  000b9	6a 10		 push	 16			; 00000010H
  000bb	e8 00 00 00 00	 call	 ?Log@@YAXHHPBDZZ	; Log
  000c0	83 c4 0c	 add	 esp, 12			; 0000000cH

; 412  :     return FALSE;

  000c3	33 c0		 xor	 eax, eax

; 413  : }

  000c5	5f		 pop	 edi
  000c6	5e		 pop	 esi
  000c7	8b e5		 mov	 esp, ebp
  000c9	5d		 pop	 ebp
  000ca	c2 08 00	 ret	 8
$LN23@AreThereSt:

; 382  :             {
; 383  :                 Log(LOG_DEBUG, __LINE__, "<< USB.AreThrStrDesc, Cfg %d", (int)((PUSB_CONFIGURATION_DESCRIPTOR)commonDesc)->iConfiguration);

  000cd	0f b6 c0	 movzx	 eax, al
  000d0	50		 push	 eax
  000d1	68 00 00 00 00	 push	 OFFSET ??_C@_0BN@DEJJKGAD@?$DM?$DM?5USB?4AreThrStrDesc?0?5Cfg?5?$CFd@
  000d6	68 7f 01 00 00	 push	 383			; 0000017fH
  000db	6a 10		 push	 16			; 00000010H
  000dd	e8 00 00 00 00	 call	 ?Log@@YAXHHPBDZZ	; Log
  000e2	83 c4 10	 add	 esp, 16			; 00000010H

; 413  : }

  000e5	b8 01 00 00 00	 mov	 eax, 1
  000ea	5f		 pop	 edi
  000eb	5e		 pop	 esi
  000ec	8b e5		 mov	 esp, ebp
  000ee	5d		 pop	 ebp
  000ef	c2 08 00	 ret	 8
$LN7@AreThereSt:

; 358  :     {
; 359  :         Log(LOG_DEBUG, __LINE__, "<< USB.AreThrStrDesc, Manufact %d, Prod %d, SN %d", (int)DeviceDesc->iManufacturer, (int)DeviceDesc->iProduct, (int)DeviceDesc->iSerialNumber);

  000f2	0f b6 41 10	 movzx	 eax, BYTE PTR [ecx+16]
  000f6	50		 push	 eax
  000f7	0f b6 41 0f	 movzx	 eax, BYTE PTR [ecx+15]
  000fb	50		 push	 eax
  000fc	0f b6 c2	 movzx	 eax, dl
  000ff	50		 push	 eax
  00100	68 00 00 00 00	 push	 OFFSET ??_C@_0DC@KIEGOLFL@?$DM?$DM?5USB?4AreThrStrDesc?0?5Manufact?5@
  00105	68 67 01 00 00	 push	 359			; 00000167H
  0010a	6a 10		 push	 16			; 00000010H
  0010c	e8 00 00 00 00	 call	 ?Log@@YAXHHPBDZZ	; Log
  00111	83 c4 18	 add	 esp, 24			; 00000018H

; 413  : }

  00114	b8 01 00 00 00	 mov	 eax, 1
  00119	5f		 pop	 edi
  0011a	5e		 pop	 esi
  0011b	8b e5		 mov	 esp, ebp
  0011d	5d		 pop	 ebp
  0011e	c2 08 00	 ret	 8
?AreThereStringDescriptors@USB@@IAEHPAU_USB_DEVICE_DESCRIPTOR@@PAU_USB_CONFIGURATION_DESCRIPTOR@@@Z ENDP ; USB::AreThereStringDescriptors
_TEXT	ENDS
; Function compile flags: /Ogtp
; File c:\users\giulif\downloads\study\git\sysstatus\usb.cpp
_TEXT	SEGMENT
_languageIDs$1$ = -16					; size = 4
_supportedLanguagesString$1$ = -12			; size = 4
_numLanguageIDs$1$ = -8					; size = 4
tv416 = -4						; size = 4
_descEnd$1$ = -4					; size = 4
_hHubDevice$ = 8					; size = 4
_ConnectionIndex$ = 12					; size = 4
_DeviceDesc$ = 16					; size = 4
_ConfigDesc$ = 20					; size = 4
?GetAllStringDescriptors@USB@@IAEPAU_STRING_DESCRIPTOR_NODE@@PAXKPAU_USB_DEVICE_DESCRIPTOR@@PAU_USB_CONFIGURATION_DESCRIPTOR@@@Z PROC ; USB::GetAllStringDescriptors
; _this$dead$ = ecx

; 416  : {

  00000	55		 push	 ebp
  00001	8b ec		 mov	 ebp, esp
  00003	83 e4 f8	 and	 esp, -8			; fffffff8H
  00006	83 ec 14	 sub	 esp, 20			; 00000014H
  00009	53		 push	 ebx
  0000a	56		 push	 esi
  0000b	57		 push	 edi

; 417  :     ULONG                   numLanguageIDs = 0;
; 418  :     USHORT                  *languageIDs = NULL;
; 419  : 
; 420  :     PUCHAR                  descEnd = NULL;
; 421  :     //    PUSB_COMMON_DESCRIPTOR  commonDesc = NULL;
; 422  :     PUCHAR  commonDesc = NULL;
; 423  : 
; 424  :     Log(LOG_DEBUG, __LINE__, ">> USB.GetAllStrDescs");

  0000c	68 00 00 00 00	 push	 OFFSET ??_C@_0BG@PLIGAJPI@?$DO?$DO?5USB?4GetAllStrDescs@
  00011	68 a8 01 00 00	 push	 424			; 000001a8H
  00016	6a 10		 push	 16			; 00000010H
  00018	e8 00 00 00 00	 call	 ?Log@@YAXHHPBDZZ	; Log

; 425  : 
; 426  :     //
; 427  :     // Get the array of supported Language IDs, which is returned
; 428  :     // in String Descriptor 0
; 429  :     //
; 430  :     PSTRING_DESCRIPTOR_NODE supportedLanguagesString = GetStringDescriptor(hHubDevice, ConnectionIndex, 0, 0);

  0001d	8b 7d 0c	 mov	 edi, DWORD PTR _ConnectionIndex$[ebp]
  00020	83 c4 0c	 add	 esp, 12			; 0000000cH
  00023	8b 5d 08	 mov	 ebx, DWORD PTR _hHubDevice$[ebp]
  00026	6a 00		 push	 0
  00028	6a 00		 push	 0
  0002a	57		 push	 edi
  0002b	53		 push	 ebx
  0002c	e8 00 00 00 00	 call	 ?GetStringDescriptor@USB@@IAEPAU_STRING_DESCRIPTOR_NODE@@PAXKEG@Z ; USB::GetStringDescriptor
  00031	8b c8		 mov	 ecx, eax
  00033	89 4c 24 14	 mov	 DWORD PTR _supportedLanguagesString$1$[esp+32], ecx

; 431  :     if (supportedLanguagesString == NULL)

  00037	85 c9		 test	 ecx, ecx
  00039	75 1f		 jne	 SHORT $LN6@GetAllStri

; 432  :     {
; 433  :         Log(LOG_DEBUG, __LINE__, "<< USB.GetAllStrDescs, SuppLangsStr null");

  0003b	68 00 00 00 00	 push	 OFFSET ??_C@_0CJ@HBMGBPGH@?$DM?$DM?5USB?4GetAllStrDescs?0?5SuppLang@
  00040	68 b1 01 00 00	 push	 433			; 000001b1H
  00045	6a 10		 push	 16			; 00000010H
  00047	e8 00 00 00 00	 call	 ?Log@@YAXHHPBDZZ	; Log
  0004c	83 c4 0c	 add	 esp, 12			; 0000000cH

; 434  :         return NULL;

  0004f	33 c0		 xor	 eax, eax

; 535  : }

  00051	5f		 pop	 edi
  00052	5e		 pop	 esi
  00053	5b		 pop	 ebx
  00054	8b e5		 mov	 esp, ebp
  00056	5d		 pop	 ebp
  00057	c2 10 00	 ret	 16			; 00000010H
$LN6@GetAllStri:

; 435  :     }
; 436  : 
; 437  :     numLanguageIDs = (supportedLanguagesString->StringDescriptor->bLength - 2) / 2;

  0005a	0f b6 41 08	 movzx	 eax, BYTE PTR [ecx+8]

; 438  : 
; 439  :     languageIDs = (USHORT*)&supportedLanguagesString->StringDescriptor->bString[0];

  0005e	83 c1 0a	 add	 ecx, 10			; 0000000aH
  00061	83 e8 02	 sub	 eax, 2
  00064	89 4c 24 10	 mov	 DWORD PTR _languageIDs$1$[esp+32], ecx
  00068	99		 cdq
  00069	2b c2		 sub	 eax, edx

; 440  : 
; 441  :     PSTRING_DESCRIPTOR_NODE stringDescNodeTail = supportedLanguagesString;

  0006b	8b 54 24 14	 mov	 edx, DWORD PTR _supportedLanguagesString$1$[esp+32]
  0006f	8b f0		 mov	 esi, eax

; 442  : 
; 443  :     //
; 444  :     // Get the Device Descriptor strings
; 445  :     //
; 446  :     if (DeviceDesc->iManufacturer)

  00071	8b 45 10	 mov	 eax, DWORD PTR _DeviceDesc$[ebp]
  00074	d1 fe		 sar	 esi, 1
  00076	89 74 24 18	 mov	 DWORD PTR _numLanguageIDs$1$[esp+32], esi
  0007a	8a 58 0e	 mov	 bl, BYTE PTR [eax+14]
  0007d	89 5c 24 1c	 mov	 DWORD PTR tv416[esp+32], ebx
  00081	84 db		 test	 bl, bl
  00083	8b 5d 08	 mov	 ebx, DWORD PTR _hHubDevice$[ebp]
  00086	74 17		 je	 SHORT $LN7@GetAllStri

; 447  :     {
; 448  :         stringDescNodeTail = GetStringDescriptors(hHubDevice,

  00088	52		 push	 edx
  00089	51		 push	 ecx
  0008a	56		 push	 esi
  0008b	ff 74 24 28	 push	 DWORD PTR tv416[esp+44]
  0008f	57		 push	 edi
  00090	53		 push	 ebx
  00091	e8 00 00 00 00	 call	 ?GetStringDescriptors@USB@@IAEPAU_STRING_DESCRIPTOR_NODE@@PAXKEKPAGPAU2@@Z ; USB::GetStringDescriptors
  00096	8b 4c 24 10	 mov	 ecx, DWORD PTR _languageIDs$1$[esp+32]
  0009a	8b d0		 mov	 edx, eax
  0009c	8b 45 10	 mov	 eax, DWORD PTR _DeviceDesc$[ebp]
$LN7@GetAllStri:

; 449  :             ConnectionIndex,
; 450  :             DeviceDesc->iManufacturer,
; 451  :             numLanguageIDs,
; 452  :             languageIDs,
; 453  :             stringDescNodeTail);
; 454  :     }
; 455  : 
; 456  :     if (DeviceDesc->iProduct)

  0009f	8a 40 0f	 mov	 al, BYTE PTR [eax+15]
  000a2	84 c0		 test	 al, al
  000a4	74 0d		 je	 SHORT $LN8@GetAllStri

; 457  :     {
; 458  :         stringDescNodeTail = GetStringDescriptors(hHubDevice,

  000a6	52		 push	 edx
  000a7	51		 push	 ecx
  000a8	56		 push	 esi
  000a9	50		 push	 eax
  000aa	57		 push	 edi
  000ab	53		 push	 ebx
  000ac	e8 00 00 00 00	 call	 ?GetStringDescriptors@USB@@IAEPAU_STRING_DESCRIPTOR_NODE@@PAXKEKPAGPAU2@@Z ; USB::GetStringDescriptors
  000b1	8b d0		 mov	 edx, eax
$LN8@GetAllStri:

; 459  :             ConnectionIndex,
; 460  :             DeviceDesc->iProduct,
; 461  :             numLanguageIDs,
; 462  :             languageIDs,
; 463  :             stringDescNodeTail);
; 464  :     }
; 465  : 
; 466  :     if (DeviceDesc->iSerialNumber)

  000b3	8b 45 10	 mov	 eax, DWORD PTR _DeviceDesc$[ebp]
  000b6	8a 40 10	 mov	 al, BYTE PTR [eax+16]
  000b9	84 c0		 test	 al, al
  000bb	74 10		 je	 SHORT $LN9@GetAllStri

; 467  :     {
; 468  :         stringDescNodeTail = GetStringDescriptors(hHubDevice,

  000bd	52		 push	 edx
  000be	ff 74 24 14	 push	 DWORD PTR _languageIDs$1$[esp+36]
  000c2	56		 push	 esi
  000c3	50		 push	 eax
  000c4	57		 push	 edi
  000c5	53		 push	 ebx
  000c6	e8 00 00 00 00	 call	 ?GetStringDescriptors@USB@@IAEPAU_STRING_DESCRIPTOR_NODE@@PAXKEKPAGPAU2@@Z ; USB::GetStringDescriptors
  000cb	8b d0		 mov	 edx, eax
$LN9@GetAllStri:

; 469  :             ConnectionIndex,
; 470  :             DeviceDesc->iSerialNumber,
; 471  :             numLanguageIDs,
; 472  :             languageIDs,
; 473  :             stringDescNodeTail);
; 474  :     }
; 475  : 
; 476  :     //
; 477  :     // Get the Configuration and Interface Descriptor strings
; 478  :     //
; 479  :     descEnd = (PUCHAR)ConfigDesc + ConfigDesc->wTotalLength;

  000cd	8b 75 14	 mov	 esi, DWORD PTR _ConfigDesc$[ebp]
  000d0	0f b7 4e 02	 movzx	 ecx, WORD PTR [esi+2]
  000d4	8d 46 02	 lea	 eax, DWORD PTR [esi+2]
  000d7	03 ce		 add	 ecx, esi
  000d9	89 4c 24 1c	 mov	 DWORD PTR _descEnd$1$[esp+32], ecx

; 480  :     //    commonDesc = (PUSB_COMMON_DESCRIPTOR)ConfigDesc;
; 481  :     commonDesc = (PUCHAR)ConfigDesc;
; 482  : 
; 483  :     while ((DWORD)((PUCHAR)commonDesc + sizeof(USB_COMMON_DESCRIPTOR)) < (DWORD)descEnd &&

  000dd	3b c1		 cmp	 eax, ecx
  000df	73 56		 jae	 SHORT $LN22@GetAllStri
$LL2@GetAllStri:
  000e1	8a 0e		 mov	 cl, BYTE PTR [esi]
  000e3	0f b6 c1	 movzx	 eax, cl
  000e6	03 c6		 add	 eax, esi
  000e8	3b 44 24 1c	 cmp	 eax, DWORD PTR _descEnd$1$[esp+32]
  000ec	77 49		 ja	 SHORT $LN22@GetAllStri

; 484  :         (DWORD)((PUCHAR)commonDesc + ((PUSB_COMMON_DESCRIPTOR)commonDesc)->bLength) <= (DWORD)descEnd)
; 485  :     {
; 486  :         switch (((PUSB_COMMON_DESCRIPTOR)commonDesc)->bDescriptorType)

  000ee	0f b6 46 01	 movzx	 eax, BYTE PTR [esi+1]
  000f2	83 e8 02	 sub	 eax, 2
  000f5	74 0f		 je	 SHORT $LN10@GetAllStri
  000f7	83 e8 02	 sub	 eax, 2
  000fa	75 2d		 jne	 SHORT $LN24@GetAllStri

; 494  :             {
; 495  :                 stringDescNodeTail = GetStringDescriptors(
; 496  :                     hHubDevice,
; 497  :                     ConnectionIndex,
; 498  :                     ((PUSB_CONFIGURATION_DESCRIPTOR)commonDesc)->iConfiguration,
; 499  :                     numLanguageIDs,
; 500  :                     languageIDs,
; 501  :                     stringDescNodeTail);
; 502  :             }
; 503  :             (PUCHAR)commonDesc += ((PUSB_COMMON_DESCRIPTOR)commonDesc)->bLength;
; 504  :             continue;
; 505  : 
; 506  :         case USB_INTERFACE_DESCRIPTOR_TYPE:
; 507  :             //                if (commonDesc->bLength != sizeof(USB_INTERFACE_DESCRIPTOR) &&
; 508  :             //                    commonDesc->bLength != sizeof(USB_INTERFACE_DESCRIPTOR2))
; 509  :             if (((PUSB_COMMON_DESCRIPTOR)commonDesc)->bLength != sizeof(USB_INTERFACE_DESCRIPTOR))

  000fc	80 f9 09	 cmp	 cl, 9
  000ff	75 36		 jne	 SHORT $LN22@GetAllStri

; 510  :             {
; 511  :                 break;
; 512  :             }
; 513  :             if (((PUSB_INTERFACE_DESCRIPTOR)commonDesc)->iInterface)

  00101	8a 46 08	 mov	 al, BYTE PTR [esi+8]

; 514  :             {
; 515  :                 stringDescNodeTail = GetStringDescriptors(
; 516  :                     hHubDevice,
; 517  :                     ConnectionIndex,
; 518  :                     ((PUSB_INTERFACE_DESCRIPTOR)commonDesc)->iInterface,
; 519  :                     numLanguageIDs,
; 520  :                     languageIDs,
; 521  :                     stringDescNodeTail);
; 522  :             }
; 523  :             (PUCHAR)commonDesc += ((PUSB_COMMON_DESCRIPTOR)commonDesc)->bLength;
; 524  :             continue;

  00104	eb 08		 jmp	 SHORT $LN30@GetAllStri
$LN10@GetAllStri:

; 487  :         {
; 488  :         case USB_CONFIGURATION_DESCRIPTOR_TYPE:
; 489  :             if (((PUSB_COMMON_DESCRIPTOR)commonDesc)->bLength != sizeof(USB_CONFIGURATION_DESCRIPTOR))

  00106	80 f9 09	 cmp	 cl, 9
  00109	75 2c		 jne	 SHORT $LN22@GetAllStri

; 490  :             {
; 491  :                 break;
; 492  :             }
; 493  :             if (((PUSB_CONFIGURATION_DESCRIPTOR)commonDesc)->iConfiguration)

  0010b	8a 46 06	 mov	 al, BYTE PTR [esi+6]
$LN30@GetAllStri:

; 480  :     //    commonDesc = (PUSB_COMMON_DESCRIPTOR)ConfigDesc;
; 481  :     commonDesc = (PUCHAR)ConfigDesc;
; 482  : 
; 483  :     while ((DWORD)((PUCHAR)commonDesc + sizeof(USB_COMMON_DESCRIPTOR)) < (DWORD)descEnd &&

  0010e	b1 09		 mov	 cl, 9
  00110	84 c0		 test	 al, al
  00112	74 15		 je	 SHORT $LN24@GetAllStri
  00114	52		 push	 edx
  00115	ff 74 24 14	 push	 DWORD PTR _languageIDs$1$[esp+36]
  00119	ff 74 24 20	 push	 DWORD PTR _numLanguageIDs$1$[esp+40]
  0011d	50		 push	 eax
  0011e	57		 push	 edi
  0011f	53		 push	 ebx
  00120	e8 00 00 00 00	 call	 ?GetStringDescriptors@USB@@IAEPAU_STRING_DESCRIPTOR_NODE@@PAXKEKPAGPAU2@@Z ; USB::GetStringDescriptors
  00125	8a 0e		 mov	 cl, BYTE PTR [esi]
  00127	8b d0		 mov	 edx, eax
$LN24@GetAllStri:
  00129	0f b6 c1	 movzx	 eax, cl
  0012c	03 f0		 add	 esi, eax
  0012e	8d 46 02	 lea	 eax, DWORD PTR [esi+2]
  00131	3b 44 24 1c	 cmp	 eax, DWORD PTR _descEnd$1$[esp+32]
  00135	72 aa		 jb	 SHORT $LL2@GetAllStri
$LN22@GetAllStri:

; 525  : 
; 526  :         default:
; 527  :             (PUCHAR)commonDesc += ((PUSB_COMMON_DESCRIPTOR)commonDesc)->bLength;
; 528  :             continue;
; 529  :         }
; 530  :         break;
; 531  :     }
; 532  : 
; 533  :     Log(LOG_DEBUG, __LINE__, "<< USB.GetAllStrDescs, SuppLangsStr 0x%p", supportedLanguagesString);

  00137	8b 5c 24 14	 mov	 ebx, DWORD PTR _supportedLanguagesString$1$[esp+32]
  0013b	53		 push	 ebx
  0013c	68 00 00 00 00	 push	 OFFSET ??_C@_0CJ@JNLDFNAC@?$DM?$DM?5USB?4GetAllStrDescs?0?5SuppLang@
  00141	68 15 02 00 00	 push	 533			; 00000215H
  00146	6a 10		 push	 16			; 00000010H
  00148	e8 00 00 00 00	 call	 ?Log@@YAXHHPBDZZ	; Log
  0014d	83 c4 10	 add	 esp, 16			; 00000010H

; 534  :     return supportedLanguagesString;

  00150	8b c3		 mov	 eax, ebx

; 535  : }

  00152	5f		 pop	 edi
  00153	5e		 pop	 esi
  00154	5b		 pop	 ebx
  00155	8b e5		 mov	 esp, ebp
  00157	5d		 pop	 ebp
  00158	c2 10 00	 ret	 16			; 00000010H
?GetAllStringDescriptors@USB@@IAEPAU_STRING_DESCRIPTOR_NODE@@PAXKPAU_USB_DEVICE_DESCRIPTOR@@PAU_USB_CONFIGURATION_DESCRIPTOR@@@Z ENDP ; USB::GetAllStringDescriptors
_TEXT	ENDS
; Function compile flags: /Ogtp
; File c:\users\giulif\downloads\study\git\sysstatus\usb.cpp
_TEXT	SEGMENT
_nBytes$ = -20						; size = 4
_driverKeyName$ = -16					; size = 10
__$ArrayPad$ = -4					; size = 4
_Hub$ = 8						; size = 4
_ConnectionIndex$ = 12					; size = 4
?GetDriverKeyName@USB@@IAEPADPAXK@Z PROC		; USB::GetDriverKeyName
; _this$dead$ = ecx

; 538  : {

  00000	55		 push	 ebp
  00001	8b ec		 mov	 ebp, esp
  00003	83 e4 f8	 and	 esp, -8			; fffffff8H
  00006	83 ec 14	 sub	 esp, 20			; 00000014H
  00009	a1 00 00 00 00	 mov	 eax, DWORD PTR ___security_cookie
  0000e	33 c4		 xor	 eax, esp
  00010	89 44 24 10	 mov	 DWORD PTR __$ArrayPad$[esp+20], eax
  00014	53		 push	 ebx
  00015	8b 5d 08	 mov	 ebx, DWORD PTR _Hub$[ebp]
  00018	56		 push	 esi
  00019	57		 push	 edi

; 539  :     BOOL                                success;
; 540  :     ULONG                               nBytes = 0;
; 541  :     USB_NODE_CONNECTION_DRIVERKEY_NAME  driverKeyName;
; 542  :     PUSB_NODE_CONNECTION_DRIVERKEY_NAME driverKeyNameW = NULL;
; 543  :     PCHAR                               driverKeyNameA = NULL;
; 544  : 
; 545  :     Log(LOG_DEBUG, __LINE__, ">> USB.GetDrvKeyName");

  0001a	68 00 00 00 00	 push	 OFFSET ??_C@_0BF@GLJHIDAC@?$DO?$DO?5USB?4GetDrvKeyName@
  0001f	68 21 02 00 00	 push	 545			; 00000221H
  00024	6a 10		 push	 16			; 00000010H
  00026	c7 44 24 18 00
	00 00 00	 mov	 DWORD PTR _nBytes$[esp+44], 0
  0002e	33 ff		 xor	 edi, edi
  00030	e8 00 00 00 00	 call	 ?Log@@YAXHHPBDZZ	; Log

; 546  : 
; 547  :     // Get the length of the name of the driver key of the device attached to
; 548  :     // the specified port.
; 549  :     //
; 550  :     memset(&driverKeyName, 0, sizeof(driverKeyName));
; 551  :     driverKeyName.ConnectionIndex = ConnectionIndex;

  00035	8b 45 0c	 mov	 eax, DWORD PTR _ConnectionIndex$[ebp]
  00038	83 c4 0c	 add	 esp, 12			; 0000000cH
  0003b	0f 57 c0	 xorps	 xmm0, xmm0
  0003e	66 89 7c 24 18	 mov	 WORD PTR _driverKeyName$[esp+40], di
  00043	66 0f d6 44 24
	10		 movq	 QWORD PTR _driverKeyName$[esp+32], xmm0
  00049	89 44 24 10	 mov	 DWORD PTR _driverKeyName$[esp+32], eax

; 552  : 
; 553  :     success = DeviceIoControl(Hub,

  0004d	8d 44 24 0c	 lea	 eax, DWORD PTR _nBytes$[esp+32]
  00051	57		 push	 edi
  00052	50		 push	 eax
  00053	6a 0a		 push	 10			; 0000000aH
  00055	8d 44 24 1c	 lea	 eax, DWORD PTR _driverKeyName$[esp+44]
  00059	50		 push	 eax
  0005a	6a 0a		 push	 10			; 0000000aH
  0005c	50		 push	 eax
  0005d	68 20 04 22 00	 push	 2229280			; 00220420H
  00062	53		 push	 ebx
  00063	ff 15 00 00 00
	00		 call	 DWORD PTR __imp__DeviceIoControl@32

; 554  :         IOCTL_USB_GET_NODE_CONNECTION_DRIVERKEY_NAME,
; 555  :         &driverKeyName,
; 556  :         sizeof(driverKeyName),
; 557  :         &driverKeyName,
; 558  :         sizeof(driverKeyName),
; 559  :         &nBytes,
; 560  :         NULL);
; 561  : 
; 562  :     if (success)

  00069	85 c0		 test	 eax, eax
  0006b	74 76		 je	 SHORT $LN5@GetDriverK

; 563  :     {
; 564  :         // Allocate space to hold the driver key name
; 565  :         //
; 566  :         nBytes = driverKeyName.ActualLength;

  0006d	8b 44 24 14	 mov	 eax, DWORD PTR _driverKeyName$[esp+36]
  00071	89 44 24 0c	 mov	 DWORD PTR _nBytes$[esp+32], eax

; 567  : 
; 568  :         if (nBytes > sizeof(driverKeyName))

  00075	83 f8 0a	 cmp	 eax, 10			; 0000000aH
  00078	76 69		 jbe	 SHORT $LN5@GetDriverK

; 569  :         {
; 570  :             driverKeyNameW = (struct _USB_NODE_CONNECTION_DRIVERKEY_NAME *)malloc(nBytes);

  0007a	50		 push	 eax
  0007b	e8 00 00 00 00	 call	 _malloc
  00080	83 c4 04	 add	 esp, 4
  00083	8b f0		 mov	 esi, eax

; 571  :             if (driverKeyNameW)

  00085	ff 74 24 0c	 push	 DWORD PTR _nBytes$[esp+32]
  00089	85 f6		 test	 esi, esi
  0008b	74 42		 je	 SHORT $LN4@GetDriverK

; 572  :             {
; 573  :                 memset(driverKeyNameW, 0x00, nBytes);

  0008d	57		 push	 edi
  0008e	56		 push	 esi
  0008f	e8 00 00 00 00	 call	 _memset

; 574  : 
; 575  :                 // Get the name of the driver key of the device attached to
; 576  :                 // the specified port.
; 577  :                 //
; 578  :                 driverKeyNameW->ConnectionIndex = ConnectionIndex;

  00094	8b 45 0c	 mov	 eax, DWORD PTR _ConnectionIndex$[ebp]
  00097	83 c4 0c	 add	 esp, 12			; 0000000cH
  0009a	89 06		 mov	 DWORD PTR [esi], eax

; 579  : 
; 580  :                 success = DeviceIoControl(Hub,

  0009c	8d 44 24 0c	 lea	 eax, DWORD PTR _nBytes$[esp+32]
  000a0	57		 push	 edi
  000a1	50		 push	 eax
  000a2	8b 44 24 14	 mov	 eax, DWORD PTR _nBytes$[esp+40]
  000a6	50		 push	 eax
  000a7	56		 push	 esi
  000a8	50		 push	 eax
  000a9	56		 push	 esi
  000aa	68 20 04 22 00	 push	 2229280			; 00220420H
  000af	53		 push	 ebx
  000b0	ff 15 00 00 00
	00		 call	 DWORD PTR __imp__DeviceIoControl@32

; 581  :                     IOCTL_USB_GET_NODE_CONNECTION_DRIVERKEY_NAME,
; 582  :                     driverKeyNameW,
; 583  :                     nBytes,
; 584  :                     driverKeyNameW,
; 585  :                     nBytes,
; 586  :                     &nBytes,
; 587  :                     NULL);
; 588  : 
; 589  :                 if (success)

  000b6	85 c0		 test	 eax, eax
  000b8	74 0a		 je	 SHORT $LN6@GetDriverK

; 590  :                 {
; 591  :                     // Convert the driver key name
; 592  :                     //
; 593  :                     driverKeyNameA = WideStrToMultiStr(driverKeyNameW->DriverKeyName);

  000ba	8d 4e 08	 lea	 ecx, DWORD PTR [esi+8]
  000bd	e8 00 00 00 00	 call	 ?WideStrToMultiStr@@YAPADPA_W@Z ; WideStrToMultiStr
  000c2	8b f8		 mov	 edi, eax
$LN6@GetDriverK:

; 594  :                 }
; 595  :                 free(driverKeyNameW);

  000c4	56		 push	 esi
  000c5	e8 00 00 00 00	 call	 _free
  000ca	83 c4 04	 add	 esp, 4

; 596  :             }
; 597  :             else

  000cd	eb 14		 jmp	 SHORT $LN5@GetDriverK
$LN4@GetDriverK:

; 598  :             {
; 599  :                 Log(LOG_DEBUG, __LINE__, "-- USB.GetDriverKeyName, new KeyNameW (%u) null", nBytes);

  000cf	68 00 00 00 00	 push	 OFFSET ??_C@_0DA@OGKODAJE@?9?9?5USB?4GetDriverKeyName?0?5new?5Ke@
  000d4	68 57 02 00 00	 push	 599			; 00000257H
  000d9	6a 10		 push	 16			; 00000010H
  000db	e8 00 00 00 00	 call	 ?Log@@YAXHHPBDZZ	; Log
  000e0	83 c4 10	 add	 esp, 16			; 00000010H
$LN5@GetDriverK:

; 600  :             }
; 601  :         }
; 602  :     }
; 603  :     Log(LOG_DEBUG, __LINE__, "<< USB.GetDrvKeyName, AName %s", driverKeyNameA);

  000e3	57		 push	 edi
  000e4	68 00 00 00 00	 push	 OFFSET ??_C@_0BP@PGCNCFEB@?$DM?$DM?5USB?4GetDrvKeyName?0?5AName?5?$CFs@
  000e9	68 5b 02 00 00	 push	 603			; 0000025bH
  000ee	6a 10		 push	 16			; 00000010H
  000f0	e8 00 00 00 00	 call	 ?Log@@YAXHHPBDZZ	; Log

; 604  :     return driverKeyNameA;
; 605  : }

  000f5	8b 4c 24 2c	 mov	 ecx, DWORD PTR __$ArrayPad$[esp+48]
  000f9	83 c4 10	 add	 esp, 16			; 00000010H
  000fc	8b c7		 mov	 eax, edi
  000fe	5f		 pop	 edi
  000ff	5e		 pop	 esi
  00100	5b		 pop	 ebx
  00101	33 cc		 xor	 ecx, esp
  00103	e8 00 00 00 00	 call	 @__security_check_cookie@4
  00108	8b e5		 mov	 esp, ebp
  0010a	5d		 pop	 ebp
  0010b	c2 08 00	 ret	 8
?GetDriverKeyName@USB@@IAEPADPAXK@Z ENDP		; USB::GetDriverKeyName
_TEXT	ENDS
; Function compile flags: /Ogtp
; File c:\users\giulif\downloads\study\git\sysstatus\usb.cpp
_TEXT	SEGMENT
_nBytes$ = -20						; size = 4
_extHubName$ = -16					; size = 10
__$ArrayPad$ = -4					; size = 4
_Hub$ = 8						; size = 4
_ConnectionIndex$ = 12					; size = 4
?GetExternalHubName@USB@@IAEPADPAXK@Z PROC		; USB::GetExternalHubName
; _this$dead$ = ecx

; 608  : {

  00000	55		 push	 ebp
  00001	8b ec		 mov	 ebp, esp
  00003	83 e4 f8	 and	 esp, -8			; fffffff8H
  00006	83 ec 14	 sub	 esp, 20			; 00000014H
  00009	a1 00 00 00 00	 mov	 eax, DWORD PTR ___security_cookie
  0000e	33 c4		 xor	 eax, esp
  00010	89 44 24 10	 mov	 DWORD PTR __$ArrayPad$[esp+20], eax
  00014	53		 push	 ebx
  00015	8b 5d 08	 mov	 ebx, DWORD PTR _Hub$[ebp]
  00018	56		 push	 esi
  00019	57		 push	 edi

; 609  :     BOOL                        success;
; 610  :     ULONG                       nBytes = 0;
; 611  :     USB_NODE_CONNECTION_NAME    extHubName;
; 612  :     PUSB_NODE_CONNECTION_NAME   extHubNameW = NULL;
; 613  :     PCHAR                       extHubNameA = NULL;
; 614  : 
; 615  :     Log(LOG_DEBUG, __LINE__, ">> USB.GetExternHub");

  0001a	68 00 00 00 00	 push	 OFFSET ??_C@_0BE@BDIOPGJF@?$DO?$DO?5USB?4GetExternHub@
  0001f	68 67 02 00 00	 push	 615			; 00000267H
  00024	6a 10		 push	 16			; 00000010H
  00026	c7 44 24 18 00
	00 00 00	 mov	 DWORD PTR _nBytes$[esp+44], 0
  0002e	33 ff		 xor	 edi, edi
  00030	e8 00 00 00 00	 call	 ?Log@@YAXHHPBDZZ	; Log

; 616  : 
; 617  :     // Get the length of the name of the external hub attached to the
; 618  :     // specified port.
; 619  :     //
; 620  :     memset(&extHubName, 0, sizeof(extHubName));
; 621  :     extHubName.ConnectionIndex = ConnectionIndex;

  00035	8b 45 0c	 mov	 eax, DWORD PTR _ConnectionIndex$[ebp]
  00038	83 c4 0c	 add	 esp, 12			; 0000000cH
  0003b	0f 57 c0	 xorps	 xmm0, xmm0
  0003e	66 89 7c 24 18	 mov	 WORD PTR _extHubName$[esp+40], di
  00043	66 0f d6 44 24
	10		 movq	 QWORD PTR _extHubName$[esp+32], xmm0
  00049	89 44 24 10	 mov	 DWORD PTR _extHubName$[esp+32], eax

; 622  : 
; 623  :     success = DeviceIoControl(Hub,

  0004d	8d 44 24 0c	 lea	 eax, DWORD PTR _nBytes$[esp+32]
  00051	57		 push	 edi
  00052	50		 push	 eax
  00053	6a 0a		 push	 10			; 0000000aH
  00055	8d 44 24 1c	 lea	 eax, DWORD PTR _extHubName$[esp+44]
  00059	50		 push	 eax
  0005a	6a 0a		 push	 10			; 0000000aH
  0005c	50		 push	 eax
  0005d	68 14 04 22 00	 push	 2229268			; 00220414H
  00062	53		 push	 ebx
  00063	ff 15 00 00 00
	00		 call	 DWORD PTR __imp__DeviceIoControl@32

; 624  :         IOCTL_USB_GET_NODE_CONNECTION_NAME,
; 625  :         &extHubName,
; 626  :         sizeof(extHubName),
; 627  :         &extHubName,
; 628  :         sizeof(extHubName),
; 629  :         &nBytes,
; 630  :         NULL);
; 631  : 
; 632  :     if (success)

  00069	85 c0		 test	 eax, eax
  0006b	74 76		 je	 SHORT $LN5@GetExterna

; 633  :     {
; 634  :         // Allocate space to hold the external hub name
; 635  :         //
; 636  :         nBytes = extHubName.ActualLength;

  0006d	8b 44 24 14	 mov	 eax, DWORD PTR _extHubName$[esp+36]
  00071	89 44 24 0c	 mov	 DWORD PTR _nBytes$[esp+32], eax

; 637  : 
; 638  :         if (nBytes > sizeof(extHubName))

  00075	83 f8 0a	 cmp	 eax, 10			; 0000000aH
  00078	76 69		 jbe	 SHORT $LN5@GetExterna

; 639  :         {
; 640  :             extHubNameW = (struct _USB_NODE_CONNECTION_NAME *)malloc(nBytes);

  0007a	50		 push	 eax
  0007b	e8 00 00 00 00	 call	 _malloc
  00080	83 c4 04	 add	 esp, 4
  00083	8b f0		 mov	 esi, eax

; 641  :             if (extHubNameW)

  00085	ff 74 24 0c	 push	 DWORD PTR _nBytes$[esp+32]
  00089	85 f6		 test	 esi, esi
  0008b	74 42		 je	 SHORT $LN4@GetExterna

; 642  :             {
; 643  :                 memset(extHubNameW, 0x00, nBytes);

  0008d	57		 push	 edi
  0008e	56		 push	 esi
  0008f	e8 00 00 00 00	 call	 _memset

; 644  : 
; 645  :                 // Get the name of the external hub attached to the specified port
; 646  :                 //
; 647  :                 extHubNameW->ConnectionIndex = ConnectionIndex;

  00094	8b 45 0c	 mov	 eax, DWORD PTR _ConnectionIndex$[ebp]
  00097	83 c4 0c	 add	 esp, 12			; 0000000cH
  0009a	89 06		 mov	 DWORD PTR [esi], eax

; 648  : 
; 649  :                 success = DeviceIoControl(Hub,

  0009c	8d 44 24 0c	 lea	 eax, DWORD PTR _nBytes$[esp+32]
  000a0	57		 push	 edi
  000a1	50		 push	 eax
  000a2	8b 44 24 14	 mov	 eax, DWORD PTR _nBytes$[esp+40]
  000a6	50		 push	 eax
  000a7	56		 push	 esi
  000a8	50		 push	 eax
  000a9	56		 push	 esi
  000aa	68 14 04 22 00	 push	 2229268			; 00220414H
  000af	53		 push	 ebx
  000b0	ff 15 00 00 00
	00		 call	 DWORD PTR __imp__DeviceIoControl@32

; 650  :                     IOCTL_USB_GET_NODE_CONNECTION_NAME,
; 651  :                     extHubNameW,
; 652  :                     nBytes,
; 653  :                     extHubNameW,
; 654  :                     nBytes,
; 655  :                     &nBytes,
; 656  :                     NULL);
; 657  : 
; 658  :                 if (success)

  000b6	85 c0		 test	 eax, eax
  000b8	74 0a		 je	 SHORT $LN6@GetExterna

; 659  :                 {
; 660  :                     // Convert the External Hub name
; 661  :                     //
; 662  :                     extHubNameA = WideStrToMultiStr(extHubNameW->NodeName);

  000ba	8d 4e 08	 lea	 ecx, DWORD PTR [esi+8]
  000bd	e8 00 00 00 00	 call	 ?WideStrToMultiStr@@YAPADPA_W@Z ; WideStrToMultiStr
  000c2	8b f8		 mov	 edi, eax
$LN6@GetExterna:

; 663  :                 }
; 664  :                 free(extHubNameW);

  000c4	56		 push	 esi
  000c5	e8 00 00 00 00	 call	 _free
  000ca	83 c4 04	 add	 esp, 4

; 665  :             }
; 666  :             else

  000cd	eb 14		 jmp	 SHORT $LN5@GetExterna
$LN4@GetExterna:

; 667  :             {
; 668  :                 Log(LOG_DEBUG, __LINE__, "-- USB.GetExtHubName, new extHubNameW (%u) null", nBytes);

  000cf	68 00 00 00 00	 push	 OFFSET ??_C@_0DA@HJNGPFIB@?9?9?5USB?4GetExtHubName?0?5new?5extHu@
  000d4	68 9c 02 00 00	 push	 668			; 0000029cH
  000d9	6a 10		 push	 16			; 00000010H
  000db	e8 00 00 00 00	 call	 ?Log@@YAXHHPBDZZ	; Log
  000e0	83 c4 10	 add	 esp, 16			; 00000010H
$LN5@GetExterna:

; 669  :             }
; 670  :         }
; 671  :     }
; 672  :     Log(LOG_DEBUG, __LINE__, "<< USB.GetExternHub, HubName %s", extHubNameA);

  000e3	57		 push	 edi
  000e4	68 00 00 00 00	 push	 OFFSET ??_C@_0CA@IMMCIHAH@?$DM?$DM?5USB?4GetExternHub?0?5HubName?5?$CFs@
  000e9	68 a0 02 00 00	 push	 672			; 000002a0H
  000ee	6a 10		 push	 16			; 00000010H
  000f0	e8 00 00 00 00	 call	 ?Log@@YAXHHPBDZZ	; Log

; 673  :     return extHubNameA;
; 674  : }

  000f5	8b 4c 24 2c	 mov	 ecx, DWORD PTR __$ArrayPad$[esp+48]
  000f9	83 c4 10	 add	 esp, 16			; 00000010H
  000fc	8b c7		 mov	 eax, edi
  000fe	5f		 pop	 edi
  000ff	5e		 pop	 esi
  00100	5b		 pop	 ebx
  00101	33 cc		 xor	 ecx, esp
  00103	e8 00 00 00 00	 call	 @__security_check_cookie@4
  00108	8b e5		 mov	 esp, ebp
  0010a	5d		 pop	 ebp
  0010b	c2 08 00	 ret	 8
?GetExternalHubName@USB@@IAEPADPAXK@Z ENDP		; USB::GetExternalHubName
_TEXT	ENDS
; Function compile flags: /Ogtp
; File c:\users\giulif\downloads\study\git\sysstatus\usb.cpp
; File c:\program files (x86)\microsoft visual studio\2017\professional\vc\tools\msvc\14.16.27023\include\iosfwd
; File c:\program files (x86)\microsoft visual studio\2017\professional\vc\tools\msvc\14.16.27023\include\xstring
; File c:\program files (x86)\microsoft visual studio\2017\professional\vc\tools\msvc\14.16.27023\include\iosfwd
; File c:\users\giulif\downloads\study\git\sysstatus\usb.cpp
; File c:\program files (x86)\microsoft visual studio\2017\professional\vc\tools\msvc\14.16.27023\include\xstring
; File c:\program files (x86)\microsoft visual studio\2017\professional\vc\tools\msvc\14.16.27023\include\iosfwd
; File c:\program files (x86)\microsoft visual studio\2017\professional\vc\tools\msvc\14.16.27023\include\xstring
; File c:\users\giulif\downloads\study\git\sysstatus\usb.cpp
; File c:\program files (x86)\microsoft visual studio\2017\professional\vc\tools\msvc\14.16.27023\include\xstring
; File c:\program files (x86)\microsoft visual studio\2017\professional\vc\tools\msvc\14.16.27023\include\xmemory0
; File c:\program files (x86)\microsoft visual studio\2017\professional\vc\tools\msvc\14.16.27023\include\xstring
; File c:\program files (x86)\microsoft visual studio\2017\professional\vc\tools\msvc\14.16.27023\include\xmemory0
; File c:\users\giulif\downloads\study\git\sysstatus\usb.cpp
; File c:\program files (x86)\microsoft visual studio\2017\professional\vc\tools\msvc\14.16.27023\include\xstring
; File c:\program files (x86)\microsoft visual studio\2017\professional\vc\tools\msvc\14.16.27023\include\iosfwd
; File c:\users\giulif\downloads\study\git\sysstatus\usb.cpp
; File c:\program files (x86)\microsoft visual studio\2017\professional\vc\tools\msvc\14.16.27023\include\xmemory0
; File c:\users\giulif\downloads\study\git\sysstatus\usb.cpp
_TEXT	SEGMENT
tv1004 = -1600						; size = 4
_connectionInfo$1$ = -1596				; size = 4
tv1003 = -1592						; size = 4
_extHubName$1$ = -1588					; size = 4
_info$1$ = -1588					; size = 4
_nBytes$2 = -1584					; size = 4
_configDesc$1$ = -1580					; size = 4
_deviceDesc$1$ = -1576					; size = 4
_hHubDevice$GSCopy$1$ = -1572				; size = 4
_index$1$ = -1568					; size = 4
_this$GSCopy$1$ = -1564					; size = 4
$T3 = -1560						; size = 24
_deviceInfo$ = -1536					; size = 1000
_leafName$ = -536					; size = 512
_deviceSpeed$ = -24					; size = 5
__$ArrayPad$ = -16					; size = 4
__$EHRec$ = -12						; size = 12
_hHubDevice$ = 8					; size = 4
_NumPorts$ = 12						; size = 4
?EnumerateHubPorts@USB@@IAEXPAXK@Z PROC			; USB::EnumerateHubPorts
; _this$ = ecx

; 677  : {

  00000	55		 push	 ebp
  00001	8b ec		 mov	 ebp, esp
  00003	6a ff		 push	 -1
  00005	68 00 00 00 00	 push	 __ehhandler$?EnumerateHubPorts@USB@@IAEXPAXK@Z
  0000a	64 a1 00 00 00
	00		 mov	 eax, DWORD PTR fs:0
  00010	50		 push	 eax
  00011	81 ec 34 06 00
	00		 sub	 esp, 1588		; 00000634H
  00017	a1 00 00 00 00	 mov	 eax, DWORD PTR ___security_cookie
  0001c	33 c5		 xor	 eax, ebp
  0001e	89 45 f0	 mov	 DWORD PTR __$ArrayPad$[ebp], eax
  00021	53		 push	 ebx
  00022	56		 push	 esi
  00023	57		 push	 edi
  00024	50		 push	 eax
  00025	8d 45 f4	 lea	 eax, DWORD PTR __$EHRec$[ebp]
  00028	64 a3 00 00 00
	00		 mov	 DWORD PTR fs:0, eax
  0002e	8b f1		 mov	 esi, ecx
  00030	89 b5 e4 f9 ff
	ff		 mov	 DWORD PTR _this$GSCopy$1$[ebp], esi
  00036	8b 45 08	 mov	 eax, DWORD PTR _hHubDevice$[ebp]

; 678  :     ULONG       index = 0;
; 679  :     BOOL        success;
; 680  : 
; 681  :     PUSB_NODE_CONNECTION_INFORMATION_EX connectionInfo = NULL;
; 682  :     PUSB_DESCRIPTOR_REQUEST             configDesc = NULL;
; 683  :     PSTRING_DESCRIPTOR_NODE             stringDescs = NULL;
; 684  :     PSTRING_DESCRIPTOR_NODE				Next = NULL;
; 685  :     PUSBDEVICEINFO                      info = NULL;
; 686  : 
; 687  :     PCHAR driverKeyName = NULL;
; 688  :     PCHAR deviceDesc = NULL;
; 689  :     CHAR  leafName[512] = { 0 };

  00039	68 00 02 00 00	 push	 512			; 00000200H
  0003e	89 85 dc f9 ff
	ff		 mov	 DWORD PTR _hHubDevice$GSCopy$1$[ebp], eax
  00044	8d 85 e8 fd ff
	ff		 lea	 eax, DWORD PTR _leafName$[ebp]
  0004a	6a 00		 push	 0
  0004c	50		 push	 eax
  0004d	e8 00 00 00 00	 call	 _memset

; 690  :     char deviceSpeed[5] = { 0 };
; 691  :     char deviceInfo[1000] = { 0 };

  00052	68 e8 03 00 00	 push	 1000			; 000003e8H
  00057	8d 85 00 fa ff
	ff		 lea	 eax, DWORD PTR _deviceInfo$[ebp]
  0005d	c7 45 e8 00 00
	00 00		 mov	 DWORD PTR _deviceSpeed$[ebp], 0
  00064	6a 00		 push	 0
  00066	50		 push	 eax
  00067	c6 45 ec 00	 mov	 BYTE PTR _deviceSpeed$[ebp+4], 0
  0006b	e8 00 00 00 00	 call	 _memset

; 692  : 
; 693  :     Log(LOG_DEBUG, __LINE__, ">> USB.EnumHubPorts");

  00070	68 00 00 00 00	 push	 OFFSET ??_C@_0BE@CPBFJJJ@?$DO?$DO?5USB?4EnumHubPorts@
  00075	68 b5 02 00 00	 push	 693			; 000002b5H
  0007a	6a 10		 push	 16			; 00000010H
  0007c	e8 00 00 00 00	 call	 ?Log@@YAXHHPBDZZ	; Log

; 694  : 
; 695  :     NestedLevel++;

  00081	ff 46 08	 inc	 DWORD PTR [esi+8]

; 696  :     // Loop over all ports of the hub.
; 697  :     //
; 698  :     // Port indices are 1 based, not 0 based.
; 699  :     //
; 700  : 
; 701  :     // for (index=1; index <= NumPorts; index++)
; 702  :     for (index = 1; index <= NumPorts; index++)

  00084	bb 01 00 00 00	 mov	 ebx, 1
  00089	8b 46 08	 mov	 eax, DWORD PTR [esi+8]
  0008c	83 c4 24	 add	 esp, 36			; 00000024H
  0008f	89 9d e0 f9 ff
	ff		 mov	 DWORD PTR _index$1$[ebp], ebx
  00095	39 5d 0c	 cmp	 DWORD PTR _NumPorts$[ebp], ebx
  00098	0f 82 82 02 00
	00		 jb	 $LN3@EnumerateH
  0009e	a1 00 00 00 00	 mov	 eax, DWORD PTR __imp__DeviceIoControl@32
  000a3	89 85 c0 f9 ff
	ff		 mov	 DWORD PTR tv1004[ebp], eax
  000a9	a1 00 00 00 00	 mov	 eax, DWORD PTR __imp__wsprintfA
  000ae	89 85 c8 f9 ff
	ff		 mov	 DWORD PTR tv1003[ebp], eax
  000b4	0f 1f 40 00 0f
	1f 84 00 00 00
	00 00		 npad	 12
$LL4@EnumerateH:

; 703  :     {
; 704  :         ULONG nBytes = 0;
; 705  : 
; 706  :         // Allocate space to hold the connection info for this port.
; 707  :         // For now, allocate it big enough to hold info for 30 pipes.
; 708  :         //
; 709  :         // Endpoint numbers are 0-15.  Endpoint number 0 is the standard
; 710  :         // control endpoint which is not explicitly listed in the Configuration
; 711  :         // Descriptor.  There can be an IN endpoint and an OUT endpoint at
; 712  :         // endpoint numbers 1-15 so there can be a maximum of 30 endpoints
; 713  :         // per device configuration.
; 714  :         //
; 715  :         // Should probably size this dynamically at some point.
; 716  :         //
; 717  :         nBytes = sizeof(USB_NODE_CONNECTION_INFORMATION_EX) +
; 718  :             sizeof(USB_PIPE_INFO) * 30;
; 719  : 
; 720  :         connectionInfo = (PUSB_NODE_CONNECTION_INFORMATION_EX)malloc(nBytes);

  000c0	68 6d 01 00 00	 push	 365			; 0000016dH
  000c5	c7 85 d0 f9 ff
	ff 6d 01 00 00	 mov	 DWORD PTR _nBytes$2[ebp], 365 ; 0000016dH
  000cf	e8 00 00 00 00	 call	 _malloc
  000d4	83 c4 04	 add	 esp, 4
  000d7	8b f8		 mov	 edi, eax
  000d9	89 bd c4 f9 ff
	ff		 mov	 DWORD PTR _connectionInfo$1$[ebp], edi

; 721  :         if (connectionInfo)

  000df	ff b5 d0 f9 ff
	ff		 push	 DWORD PTR _nBytes$2[ebp]
  000e5	85 ff		 test	 edi, edi
  000e7	0f 84 79 05 00
	00		 je	 $LN11@EnumerateH

; 722  :         {
; 723  :             memset(connectionInfo, 0x00, nBytes);

  000ed	6a 00		 push	 0
  000ef	57		 push	 edi
  000f0	e8 00 00 00 00	 call	 _memset
  000f5	83 c4 0c	 add	 esp, 12			; 0000000cH

; 724  : 
; 725  :             //
; 726  :             // Now query USBHUB for the USB_NODE_CONNECTION_INFORMATION_EX structure
; 727  :             // for this port.  This will tell us if a device is attached to this
; 728  :             // port, among other things.
; 729  :             //
; 730  :             connectionInfo->ConnectionIndex = index;

  000f8	89 1f		 mov	 DWORD PTR [edi], ebx

; 731  : 
; 732  :             success = DeviceIoControl(hHubDevice,

  000fa	8d 85 d0 f9 ff
	ff		 lea	 eax, DWORD PTR _nBytes$2[ebp]
  00100	6a 00		 push	 0
  00102	50		 push	 eax
  00103	8b 85 d0 f9 ff
	ff		 mov	 eax, DWORD PTR _nBytes$2[ebp]
  00109	50		 push	 eax
  0010a	57		 push	 edi
  0010b	50		 push	 eax
  0010c	57		 push	 edi
  0010d	68 48 04 22 00	 push	 2229320			; 00220448H
  00112	ff b5 dc f9 ff
	ff		 push	 DWORD PTR _hHubDevice$GSCopy$1$[ebp]
  00118	ff 95 c0 f9 ff
	ff		 call	 DWORD PTR tv1004[ebp]

; 733  :                 IOCTL_USB_GET_NODE_CONNECTION_INFORMATION_EX,
; 734  :                 connectionInfo,
; 735  :                 nBytes,
; 736  :                 connectionInfo,
; 737  :                 nBytes,
; 738  :                 &nBytes,
; 739  :                 NULL);
; 740  : 
; 741  :             if (!success)

  0011e	85 c0		 test	 eax, eax
  00120	75 0e		 jne	 SHORT $LN13@EnumerateH

; 742  :             {
; 743  :                 free(connectionInfo);

  00122	57		 push	 edi
  00123	e8 00 00 00 00	 call	 _free
  00128	83 c4 04	 add	 esp, 4

; 744  :                 continue;

  0012b	e9 dd 01 00 00	 jmp	 $LN2@EnumerateH
$LN13@EnumerateH:

; 750  :             continue;
; 751  :         }
; 752  : 
; 753  :         // Update the count of connected devices
; 754  :         //
; 755  :         if (connectionInfo->ConnectionStatus == DeviceConnected)

  00130	8b 47 1f	 mov	 eax, DWORD PTR [edi+31]
  00133	83 f8 01	 cmp	 eax, 1
  00136	75 06		 jne	 SHORT $LN14@EnumerateH

; 756  :         {
; 757  :             ulTotalDevicesConnected++;

  00138	ff 46 04	 inc	 DWORD PTR [esi+4]
  0013b	8b 47 1f	 mov	 eax, DWORD PTR [edi+31]
$LN14@EnumerateH:

; 758  :         }
; 759  : 
; 760  :         // If there is a device connected, get the Device Description
; 761  :         //
; 762  :         deviceDesc = NULL;

  0013e	33 c9		 xor	 ecx, ecx
  00140	89 8d d8 f9 ff
	ff		 mov	 DWORD PTR _deviceDesc$1$[ebp], ecx

; 763  :         if (connectionInfo->ConnectionStatus != NoDeviceConnected)

  00146	85 c0		 test	 eax, eax
  00148	74 2d		 je	 SHORT $LN16@EnumerateH

; 764  :         {
; 765  :             driverKeyName = GetDriverKeyName(hHubDevice,

  0014a	53		 push	 ebx
  0014b	ff b5 dc f9 ff
	ff		 push	 DWORD PTR _hHubDevice$GSCopy$1$[ebp]
  00151	e8 00 00 00 00	 call	 ?GetDriverKeyName@USB@@IAEPADPAXK@Z ; USB::GetDriverKeyName
  00156	8b f0		 mov	 esi, eax

; 766  :                 index);
; 767  : 
; 768  :             if (driverKeyName)

  00158	85 f6		 test	 esi, esi
  0015a	74 1b		 je	 SHORT $LN16@EnumerateH

; 769  :             {
; 770  :                 deviceDesc = DriverNameToDeviceDesc(driverKeyName);

  0015c	8b 8d e4 f9 ff
	ff		 mov	 ecx, DWORD PTR _this$GSCopy$1$[ebp]
  00162	56		 push	 esi
  00163	e8 00 00 00 00	 call	 ?DriverNameToDeviceDesc@USB@@IAEPADPAD@Z ; USB::DriverNameToDeviceDesc

; 771  :                 free(driverKeyName);

  00168	56		 push	 esi
  00169	89 85 d8 f9 ff
	ff		 mov	 DWORD PTR _deviceDesc$1$[ebp], eax
  0016f	e8 00 00 00 00	 call	 _free
  00174	83 c4 04	 add	 esp, 4
$LN16@EnumerateH:

; 772  :             }
; 773  :         }
; 774  : 
; 775  :         // If there is a device connected to the port, try to retrieve the
; 776  :         // Configuration Descriptor from the device.
; 777  :         //
; 778  :         if (connectionInfo->ConnectionStatus == DeviceConnected)

  00177	83 7f 1f 01	 cmp	 DWORD PTR [edi+31], 1
  0017b	75 40		 jne	 SHORT $LN17@EnumerateH

; 779  :         {
; 780  :             configDesc = GetConfigDescriptor(hHubDevice, index, 0);

  0017d	51		 push	 ecx
  0017e	53		 push	 ebx
  0017f	ff b5 dc f9 ff
	ff		 push	 DWORD PTR _hHubDevice$GSCopy$1$[ebp]
  00185	e8 00 00 00 00	 call	 ?GetConfigDescriptor@USB@@IAEPAU_USB_DESCRIPTOR_REQUEST@@PAXKE@Z ; USB::GetConfigDescriptor
  0018a	89 85 d4 f9 ff
	ff		 mov	 DWORD PTR _configDesc$1$[ebp], eax

; 785  :         }
; 786  : 
; 787  :         if (configDesc != NULL &&

  00190	85 c0		 test	 eax, eax
  00192	74 33		 je	 SHORT $LN19@EnumerateH
  00194	8d 70 0c	 lea	 esi, DWORD PTR [eax+12]
  00197	56		 push	 esi
  00198	8d 5f 04	 lea	 ebx, DWORD PTR [edi+4]
  0019b	53		 push	 ebx
  0019c	e8 00 00 00 00	 call	 ?AreThereStringDescriptors@USB@@IAEHPAU_USB_DEVICE_DESCRIPTOR@@PAU_USB_CONFIGURATION_DESCRIPTOR@@@Z ; USB::AreThereStringDescriptors
  001a1	85 c0		 test	 eax, eax
  001a3	74 22		 je	 SHORT $LN19@EnumerateH

; 788  :             AreThereStringDescriptors(&connectionInfo->DeviceDescriptor,
; 789  :             (PUSB_CONFIGURATION_DESCRIPTOR)(configDesc + 1)))
; 790  :         {
; 791  :             stringDescs = GetAllStringDescriptors(hHubDevice, index,

  001a5	56		 push	 esi
  001a6	8b b5 e0 f9 ff
	ff		 mov	 esi, DWORD PTR _index$1$[ebp]
  001ac	53		 push	 ebx
  001ad	56		 push	 esi
  001ae	ff b5 dc f9 ff
	ff		 push	 DWORD PTR _hHubDevice$GSCopy$1$[ebp]
  001b4	e8 00 00 00 00	 call	 ?GetAllStringDescriptors@USB@@IAEPAU_STRING_DESCRIPTOR_NODE@@PAXKPAU_USB_DEVICE_DESCRIPTOR@@PAU_USB_CONFIGURATION_DESCRIPTOR@@@Z ; USB::GetAllStringDescriptors
  001b9	8b d8		 mov	 ebx, eax

; 792  :                 &connectionInfo->DeviceDescriptor,
; 793  :                 (PUSB_CONFIGURATION_DESCRIPTOR)(configDesc + 1));
; 794  :         }
; 795  :         else

  001bb	eb 12		 jmp	 SHORT $LN20@EnumerateH
$LN17@EnumerateH:

; 781  :         }
; 782  :         else
; 783  :         {
; 784  :             configDesc = NULL;

  001bd	c7 85 d4 f9 ff
	ff 00 00 00 00	 mov	 DWORD PTR _configDesc$1$[ebp], 0
$LN19@EnumerateH:
  001c7	8b b5 e0 f9 ff
	ff		 mov	 esi, DWORD PTR _index$1$[ebp]

; 796  :         {
; 797  :             stringDescs = NULL;

  001cd	33 db		 xor	 ebx, ebx
$LN20@EnumerateH:

; 798  :         }
; 799  : 
; 800  :         // If the device connected to the port is an external hub, get the
; 801  :         // name of the external hub and recursively enumerate it.
; 802  :         //
; 803  :         if (connectionInfo->DeviceIsHub)

  001cf	80 7f 18 00	 cmp	 BYTE PTR [edi+24], 0
  001d3	0f 84 81 01 00
	00		 je	 $LN22@EnumerateH

; 804  :         {
; 805  :             PCHAR extHubName = GetExternalHubName(hHubDevice, index);

  001d9	56		 push	 esi
  001da	ff b5 dc f9 ff
	ff		 push	 DWORD PTR _hHubDevice$GSCopy$1$[ebp]
  001e0	e8 00 00 00 00	 call	 ?GetExternalHubName@USB@@IAEPADPAXK@Z ; USB::GetExternalHubName
  001e5	89 85 cc f9 ff
	ff		 mov	 DWORD PTR _extHubName$1$[ebp], eax

; 806  :             if (extHubName != NULL)

  001eb	85 c0		 test	 eax, eax
  001ed	0f 84 67 01 00
	00		 je	 $LN22@EnumerateH

; 807  :             {
; 808  :                 wsprintf(leafName, "%s[Port%lu] ", UsbViewIndent[NestedLevel], index);

  001f3	8b 85 e4 f9 ff
	ff		 mov	 eax, DWORD PTR _this$GSCopy$1$[ebp]
  001f9	56		 push	 esi
  001fa	8b 48 08	 mov	 ecx, DWORD PTR [eax+8]
  001fd	8d 85 e8 fd ff
	ff		 lea	 eax, DWORD PTR _leafName$[ebp]
  00203	ff 34 8d 00 00
	00 00		 push	 DWORD PTR ?UsbViewIndent@@3PAPADA[ecx*4]
  0020a	68 00 00 00 00	 push	 OFFSET ??_C@_0N@DMKPCFDB@?$CFs?$FLPort?$CFlu?$FN?5@
  0020f	50		 push	 eax
  00210	ff 95 c8 f9 ff
	ff		 call	 DWORD PTR tv1003[ebp]

; 809  :                 strcat(leafName, ConnectionStatuses[connectionInfo->ConnectionStatus]);

  00216	8b 47 1f	 mov	 eax, DWORD PTR [edi+31]
  00219	83 c4 10	 add	 esp, 16			; 00000010H
  0021c	8b 14 85 00 00
	00 00		 mov	 edx, DWORD PTR ?ConnectionStatuses@@3PAPADA[eax*4]
  00223	8b f2		 mov	 esi, edx
$LL366@EnumerateH:
  00225	8a 02		 mov	 al, BYTE PTR [edx]
  00227	42		 inc	 edx
  00228	84 c0		 test	 al, al
  0022a	75 f9		 jne	 SHORT $LL366@EnumerateH
  0022c	8d bd e8 fd ff
	ff		 lea	 edi, DWORD PTR _leafName$[ebp]
  00232	2b d6		 sub	 edx, esi
  00234	4f		 dec	 edi
$LL367@EnumerateH:
  00235	8a 47 01	 mov	 al, BYTE PTR [edi+1]
  00238	47		 inc	 edi
  00239	84 c0		 test	 al, al
  0023b	75 f8		 jne	 SHORT $LL367@EnumerateH
  0023d	8b ca		 mov	 ecx, edx
  0023f	c1 e9 02	 shr	 ecx, 2
  00242	f3 a5		 rep movsd
  00244	8b ca		 mov	 ecx, edx
  00246	83 e1 03	 and	 ecx, 3
  00249	f3 a4		 rep movsb

; 810  :                 if (deviceDesc)

  0024b	8b 8d d8 f9 ff
	ff		 mov	 ecx, DWORD PTR _deviceDesc$1$[ebp]
  00251	85 c9		 test	 ecx, ecx
  00253	74 46		 je	 SHORT $LN23@EnumerateH

; 811  :                 {
; 812  :                     strcat(leafName, " : ");

  00255	8d bd e8 fd ff
	ff		 lea	 edi, DWORD PTR _leafName$[ebp]
  0025b	4f		 dec	 edi
  0025c	0f 1f 40 00	 npad	 4
$LL368@EnumerateH:
  00260	8a 47 01	 mov	 al, BYTE PTR [edi+1]
  00263	8d 7f 01	 lea	 edi, DWORD PTR [edi+1]
  00266	84 c0		 test	 al, al
  00268	75 f6		 jne	 SHORT $LL368@EnumerateH
  0026a	a1 00 00 00 00	 mov	 eax, DWORD PTR ??_C@_03MCPBMLDJ@?5?3?5@

; 813  :                     strcat(leafName, deviceDesc);

  0026f	8b d1		 mov	 edx, ecx
  00271	89 07		 mov	 DWORD PTR [edi], eax
  00273	8b f2		 mov	 esi, edx
$LL369@EnumerateH:
  00275	8a 02		 mov	 al, BYTE PTR [edx]
  00277	42		 inc	 edx
  00278	84 c0		 test	 al, al
  0027a	75 f9		 jne	 SHORT $LL369@EnumerateH
  0027c	8d bd e8 fd ff
	ff		 lea	 edi, DWORD PTR _leafName$[ebp]
  00282	2b d6		 sub	 edx, esi
  00284	4f		 dec	 edi
$LL370@EnumerateH:
  00285	8a 47 01	 mov	 al, BYTE PTR [edi+1]
  00288	47		 inc	 edi
  00289	84 c0		 test	 al, al
  0028b	75 f8		 jne	 SHORT $LL370@EnumerateH
  0028d	8b ca		 mov	 ecx, edx
  0028f	c1 e9 02	 shr	 ecx, 2
  00292	f3 a5		 rep movsd
  00294	8b ca		 mov	 ecx, edx
  00296	83 e1 03	 and	 ecx, 3
  00299	f3 a4		 rep movsb
$LN23@EnumerateH:

; 814  :                 }
; 815  :                 USBTraceInfo(leafName, extHubName);

  0029b	8b bd cc f9 ff
	ff		 mov	 edi, DWORD PTR _extHubName$1$[ebp]
  002a1	8d 8d e8 fd ff
	ff		 lea	 ecx, DWORD PTR _leafName$[ebp]
  002a7	8b d7		 mov	 edx, edi
  002a9	e8 00 00 00 00	 call	 ?USBTraceInfo@@YAXPAD0@Z ; USBTraceInfo

; 816  : 
; 817  :                 EnumerateHub(extHubName,

  002ae	8b 8d d8 f9 ff
	ff		 mov	 ecx, DWORD PTR _deviceDesc$1$[ebp]
  002b4	8b b5 c4 f9 ff
	ff		 mov	 esi, DWORD PTR _connectionInfo$1$[ebp]
  002ba	51		 push	 ecx
  002bb	8b 8d d4 f9 ff
	ff		 mov	 ecx, DWORD PTR _configDesc$1$[ebp]
  002c1	53		 push	 ebx
  002c2	51		 push	 ecx
  002c3	8b 8d e4 f9 ff
	ff		 mov	 ecx, DWORD PTR _this$GSCopy$1$[ebp]
  002c9	56		 push	 esi
  002ca	57		 push	 edi
  002cb	e8 00 00 00 00	 call	 ?EnumerateHub@USB@@IAEXPADPAU_USB_NODE_CONNECTION_INFORMATION_EX@@PAU_USB_DESCRIPTOR_REQUEST@@PAU_STRING_DESCRIPTOR_NODE@@0@Z ; USB::EnumerateHub

; 818  :                     connectionInfo,
; 819  :                     configDesc,
; 820  :                     stringDescs,
; 821  :                     deviceDesc);
; 822  : 
; 823  :                 if (configDesc != NULL)

  002d0	8b 85 d4 f9 ff
	ff		 mov	 eax, DWORD PTR _configDesc$1$[ebp]
  002d6	85 c0		 test	 eax, eax
  002d8	74 09		 je	 SHORT $LN24@EnumerateH

; 824  :                     free(configDesc);

  002da	50		 push	 eax
  002db	e8 00 00 00 00	 call	 _free
  002e0	83 c4 04	 add	 esp, 4
$LN24@EnumerateH:

; 825  : 
; 826  :                 if (connectionInfo != NULL)
; 827  :                     free(connectionInfo);

  002e3	56		 push	 esi
  002e4	e8 00 00 00 00	 call	 _free
  002e9	83 c4 04	 add	 esp, 4

; 828  : 
; 829  :                 while (stringDescs != NULL)

  002ec	85 db		 test	 ebx, ebx
  002ee	74 11		 je	 SHORT $LN376@EnumerateH
$LL5@EnumerateH:

; 830  :                 {
; 831  :                     Next = stringDescs->Next;

  002f0	8b 33		 mov	 esi, DWORD PTR [ebx]

; 832  :                     free(stringDescs);

  002f2	53		 push	 ebx
  002f3	e8 00 00 00 00	 call	 _free
  002f8	83 c4 04	 add	 esp, 4

; 833  :                     stringDescs = Next;

  002fb	8b de		 mov	 ebx, esi
  002fd	85 f6		 test	 esi, esi
  002ff	75 ef		 jne	 SHORT $LL5@EnumerateH
$LN376@EnumerateH:

; 696  :     // Loop over all ports of the hub.
; 697  :     //
; 698  :     // Port indices are 1 based, not 0 based.
; 699  :     //
; 700  : 
; 701  :     // for (index=1; index <= NumPorts; index++)
; 702  :     for (index = 1; index <= NumPorts; index++)

  00301	8b b5 e4 f9 ff
	ff		 mov	 esi, DWORD PTR _this$GSCopy$1$[ebp]
  00307	8b 9d e0 f9 ff
	ff		 mov	 ebx, DWORD PTR _index$1$[ebp]
$LN2@EnumerateH:
  0030d	43		 inc	 ebx
  0030e	89 9d e0 f9 ff
	ff		 mov	 DWORD PTR _index$1$[ebp], ebx
  00314	3b 5d 0c	 cmp	 ebx, DWORD PTR _NumPorts$[ebp]
  00317	0f 86 a3 fd ff
	ff		 jbe	 $LL4@EnumerateH

; 888  :                     {
; 889  :                         if (pDescNode->DescriptorIndex == info->ConnectionInfo->DeviceDescriptor.iSerialNumber)

  0031d	8b 46 08	 mov	 eax, DWORD PTR [esi+8]
$LN3@EnumerateH:

; 940  : 
; 941  :     if (NestedLevel)			// only for prevent bugs

  00320	85 c0		 test	 eax, eax
  00322	74 04		 je	 SHORT $LN44@EnumerateH

; 942  :         NestedLevel--;

  00324	48		 dec	 eax
  00325	89 46 08	 mov	 DWORD PTR [esi+8], eax
$LN44@EnumerateH:

; 943  : 
; 944  :     Log(LOG_DEBUG, __LINE__, "<< USB.EnumHubPorts");

  00328	68 00 00 00 00	 push	 OFFSET ??_C@_0BE@LMILCJOE@?$DM?$DM?5USB?4EnumHubPorts@
  0032d	68 b0 03 00 00	 push	 944			; 000003b0H
  00332	6a 10		 push	 16			; 00000010H
  00334	e8 00 00 00 00	 call	 ?Log@@YAXHHPBDZZ	; Log
  00339	83 c4 0c	 add	 esp, 12			; 0000000cH

; 945  : }

  0033c	8b 4d f4	 mov	 ecx, DWORD PTR __$EHRec$[ebp]
  0033f	64 89 0d 00 00
	00 00		 mov	 DWORD PTR fs:0, ecx
  00346	59		 pop	 ecx
  00347	5f		 pop	 edi
  00348	5e		 pop	 esi
  00349	5b		 pop	 ebx
  0034a	8b 4d f0	 mov	 ecx, DWORD PTR __$ArrayPad$[ebp]
  0034d	33 cd		 xor	 ecx, ebp
  0034f	e8 00 00 00 00	 call	 @__security_check_cookie@4
  00354	8b e5		 mov	 esp, ebp
  00356	5d		 pop	 ebp
  00357	c2 08 00	 ret	 8
$LN22@EnumerateH:

; 834  :                 }
; 835  : 
; 836  :                 // On to the next port
; 837  :                 //
; 838  :                 continue;
; 839  :             }
; 840  :         }
; 841  : 
; 842  :         // Allocate some space for a USBDEVICEINFO structure to hold the
; 843  :         // hub info, hub name, and connection info pointers.  GPTR zero
; 844  :         // initializes the structure for us.
; 845  :         //
; 846  :         info = (PUSBDEVICEINFO)malloc(sizeof(USBDEVICEINFO));

  0035a	6a 14		 push	 20			; 00000014H
  0035c	e8 00 00 00 00	 call	 _malloc
  00361	83 c4 04	 add	 esp, 4
  00364	89 85 cc f9 ff
	ff		 mov	 DWORD PTR _info$1$[ebp], eax

; 847  :         if (info)

  0036a	85 c0		 test	 eax, eax
  0036c	0f 84 b5 02 00
	00		 je	 $LN26@EnumerateH

; 848  :         {
; 849  :             memset(info, 0x00, sizeof(USBDEVICEINFO));
; 850  : 
; 851  :             info->ConnectionInfo = connectionInfo;
; 852  :             info->ConfigDesc = configDesc;

  00372	8b 8d d4 f9 ff
	ff		 mov	 ecx, DWORD PTR _configDesc$1$[ebp]
  00378	c7 00 00 00 00
	00		 mov	 DWORD PTR [eax], 0
  0037e	c7 40 04 00 00
	00 00		 mov	 DWORD PTR [eax+4], 0

; 853  :             info->StringDescs = stringDescs;
; 854  : 
; 855  :             wsprintf(leafName, "[Port%lu] ", index);

  00385	56		 push	 esi
  00386	89 78 08	 mov	 DWORD PTR [eax+8], edi
  00389	89 48 0c	 mov	 DWORD PTR [eax+12], ecx
  0038c	89 58 10	 mov	 DWORD PTR [eax+16], ebx
  0038f	8d 85 e8 fd ff
	ff		 lea	 eax, DWORD PTR _leafName$[ebp]
  00395	68 00 00 00 00	 push	 OFFSET ??_C@_0L@KFNJHJLN@?$FLPort?$CFlu?$FN?5@
  0039a	50		 push	 eax
  0039b	ff 95 c8 f9 ff
	ff		 call	 DWORD PTR tv1003[ebp]

; 856  :             strcat(leafName, ConnectionStatuses[connectionInfo->ConnectionStatus]);

  003a1	8b 47 1f	 mov	 eax, DWORD PTR [edi+31]
  003a4	83 c4 0c	 add	 esp, 12			; 0000000cH
  003a7	8b 14 85 00 00
	00 00		 mov	 edx, DWORD PTR ?ConnectionStatuses@@3PAPADA[eax*4]
  003ae	8b f2		 mov	 esi, edx
$LL371@EnumerateH:
  003b0	8a 02		 mov	 al, BYTE PTR [edx]
  003b2	42		 inc	 edx
  003b3	84 c0		 test	 al, al
  003b5	75 f9		 jne	 SHORT $LL371@EnumerateH
  003b7	8d bd e8 fd ff
	ff		 lea	 edi, DWORD PTR _leafName$[ebp]
  003bd	2b d6		 sub	 edx, esi
  003bf	4f		 dec	 edi
$LL372@EnumerateH:
  003c0	8a 47 01	 mov	 al, BYTE PTR [edi+1]
  003c3	47		 inc	 edi
  003c4	84 c0		 test	 al, al
  003c6	75 f8		 jne	 SHORT $LL372@EnumerateH
  003c8	8b ca		 mov	 ecx, edx
  003ca	c1 e9 02	 shr	 ecx, 2
  003cd	f3 a5		 rep movsd
  003cf	8b ca		 mov	 ecx, edx
  003d1	83 e1 03	 and	 ecx, 3
  003d4	f3 a4		 rep movsb

; 857  :             if (deviceDesc)

  003d6	8b bd d8 f9 ff
	ff		 mov	 edi, DWORD PTR _deviceDesc$1$[ebp]
  003dc	85 ff		 test	 edi, edi
  003de	74 1e		 je	 SHORT $LN27@EnumerateH

; 858  :             {
; 859  :                 strcat(leafName, " : ");

  003e0	8d bd e8 fd ff
	ff		 lea	 edi, DWORD PTR _leafName$[ebp]
  003e6	4f		 dec	 edi
$LL373@EnumerateH:
  003e7	8a 47 01	 mov	 al, BYTE PTR [edi+1]
  003ea	8d 7f 01	 lea	 edi, DWORD PTR [edi+1]
  003ed	84 c0		 test	 al, al
  003ef	75 f6		 jne	 SHORT $LL373@EnumerateH
  003f1	a1 00 00 00 00	 mov	 eax, DWORD PTR ??_C@_03MCPBMLDJ@?5?3?5@
  003f6	89 07		 mov	 DWORD PTR [edi], eax
  003f8	8b bd d8 f9 ff
	ff		 mov	 edi, DWORD PTR _deviceDesc$1$[ebp]
$LN27@EnumerateH:

; 860  :             }
; 861  : 
; 862  :             memset(deviceInfo, 0x00, sizeof(deviceInfo));

  003fe	68 e8 03 00 00	 push	 1000			; 000003e8H
  00403	8d 85 00 fa ff
	ff		 lea	 eax, DWORD PTR _deviceInfo$[ebp]
  00409	6a 00		 push	 0
  0040b	50		 push	 eax
  0040c	e8 00 00 00 00	 call	 _memset

; 863  :             if (info->ConnectionInfo->ConnectionStatus == DeviceConnected)

  00411	8b b5 cc f9 ff
	ff		 mov	 esi, DWORD PTR _info$1$[ebp]
  00417	83 c4 0c	 add	 esp, 12			; 0000000cH
  0041a	8b 46 08	 mov	 eax, DWORD PTR [esi+8]
  0041d	83 78 1f 01	 cmp	 DWORD PTR [eax+31], 1
  00421	0f 85 c6 01 00
	00		 jne	 $LN28@EnumerateH

; 864  :             {
; 865  :                 PSTRING_DESCRIPTOR_NODE pDescNode = NULL;
; 866  : 
; 867  :                 //get speed of device - Low/Full/High
; 868  :                 memset(deviceSpeed, 0x0, 5);

  00427	c6 45 ec 00	 mov	 BYTE PTR _deviceSpeed$[ebp+4], 0

; 869  :                 strcpy(deviceSpeed, "???");

  0042b	c7 45 e8 3f 3f
	3f 00		 mov	 DWORD PTR _deviceSpeed$[ebp], 4144959 ; 003f3f3fH

; 870  : 
; 871  :                 if (info->ConnectionInfo->Speed == UsbHighSpeed)

  00432	8b 46 08	 mov	 eax, DWORD PTR [esi+8]
  00435	8a 40 17	 mov	 al, BYTE PTR [eax+23]
  00438	3c 02		 cmp	 al, 2
  0043a	75 0f		 jne	 SHORT $LN30@EnumerateH

; 872  :                 {
; 873  :                     strcpy(deviceSpeed, "HIGH");

  0043c	a1 00 00 00 00	 mov	 eax, DWORD PTR ??_C@_04PKDHFCJF@HIGH@
  00441	89 45 e8	 mov	 DWORD PTR _deviceSpeed$[ebp], eax
  00444	a0 04 00 00 00	 mov	 al, BYTE PTR ??_C@_04PKDHFCJF@HIGH@+4
  00449	eb 1e		 jmp	 SHORT $LN379@EnumerateH
$LN30@EnumerateH:

; 874  :                 }
; 875  :                 else if (info->ConnectionInfo->Speed == UsbLowSpeed)

  0044b	84 c0		 test	 al, al
  0044d	75 09		 jne	 SHORT $LN32@EnumerateH

; 876  :                 {
; 877  :                     strcpy(deviceSpeed, "LOW");

  0044f	c7 45 e8 4c 4f
	57 00		 mov	 DWORD PTR _deviceSpeed$[ebp], 5721932 ; 00574f4cH
  00456	eb 14		 jmp	 SHORT $LN34@EnumerateH
$LN32@EnumerateH:

; 878  :                 }
; 879  :                 else if (info->ConnectionInfo->Speed == UsbFullSpeed)

  00458	3c 01		 cmp	 al, 1
  0045a	75 10		 jne	 SHORT $LN34@EnumerateH

; 880  :                 {
; 881  :                     strcpy(deviceSpeed, "FULL");

  0045c	a1 00 00 00 00	 mov	 eax, DWORD PTR ??_C@_04DHPBCODG@FULL@
  00461	89 45 e8	 mov	 DWORD PTR _deviceSpeed$[ebp], eax
  00464	a0 04 00 00 00	 mov	 al, BYTE PTR ??_C@_04DHPBCODG@FULL@+4
$LN379@EnumerateH:

; 882  :                 }
; 883  : 
; 884  :                 if (info->ConnectionInfo->DeviceDescriptor.iSerialNumber)

  00469	88 45 ec	 mov	 BYTE PTR _deviceSpeed$[ebp+4], al
$LN34@EnumerateH:
  0046c	8b 56 08	 mov	 edx, DWORD PTR [esi+8]
  0046f	8a 4a 14	 mov	 cl, BYTE PTR [edx+20]
  00472	84 c9		 test	 cl, cl
  00474	74 2a		 je	 SHORT $LN35@EnumerateH

; 885  :                 {
; 886  :                     pDescNode = info->StringDescs;

  00476	8b 46 10	 mov	 eax, DWORD PTR [esi+16]

; 887  :                     while (pDescNode)

  00479	85 c0		 test	 eax, eax
  0047b	74 0e		 je	 SHORT $LN38@EnumerateH
  0047d	0f 1f 00	 npad	 3
$LL7@EnumerateH:

; 888  :                     {
; 889  :                         if (pDescNode->DescriptorIndex == info->ConnectionInfo->DeviceDescriptor.iSerialNumber)

  00480	38 48 04	 cmp	 BYTE PTR [eax+4], cl
  00483	74 11		 je	 SHORT $LN352@EnumerateH

; 890  :                             break;
; 891  :                         pDescNode = pDescNode->Next;

  00485	8b 00		 mov	 eax, DWORD PTR [eax]
  00487	85 c0		 test	 eax, eax
  00489	75 f5		 jne	 SHORT $LL7@EnumerateH
$LN38@EnumerateH:

; 900  :                         _snprintf(deviceInfo, sizeof(deviceInfo) - 1, "%s [VID:%.4X PID:%.4X SN:%s Spd: %s]", deviceDesc,

  0048b	8d 45 e8	 lea	 eax, DWORD PTR _deviceSpeed$[ebp]
  0048e	50		 push	 eax
  0048f	68 00 00 00 00	 push	 OFFSET ??_C@_0BA@CGBIAJFO@Not?5Initialized@

; 901  :                             info->ConnectionInfo->DeviceDescriptor.idVendor,
; 902  :                             info->ConnectionInfo->DeviceDescriptor.idProduct,
; 903  :                             "Not Initialized", deviceSpeed);
; 904  :                 }
; 905  :                 else

  00494	eb 13		 jmp	 SHORT $LN380@EnumerateH
$LN352@EnumerateH:

; 892  :                     }
; 893  :                     // Modified to fix the SCR 3176
; 894  :                     if (pDescNode)
; 895  :                         _snprintf(deviceInfo, sizeof(deviceInfo) - 1, "%s [VID:%.4X PID:%.4X SN:%s Spd: %s]", deviceDesc,

  00496	8d 4d e8	 lea	 ecx, DWORD PTR _deviceSpeed$[ebp]
  00499	83 c0 0a	 add	 eax, 10			; 0000000aH
  0049c	51		 push	 ecx
  0049d	50		 push	 eax

; 896  :                             info->ConnectionInfo->DeviceDescriptor.idVendor,
; 897  :                             info->ConnectionInfo->DeviceDescriptor.idProduct,
; 898  :                             (char const* )pDescNode->StringDescriptor->bString, deviceSpeed);
; 899  :                     else

  0049e	eb 09		 jmp	 SHORT $LN380@EnumerateH
$LN35@EnumerateH:

; 906  :                     _snprintf(deviceInfo, sizeof(deviceInfo) - 1, "%s [VID:%.4X PID:%.4X SN:%s Spd: %s]", deviceDesc,

  004a0	8d 45 e8	 lea	 eax, DWORD PTR _deviceSpeed$[ebp]
  004a3	50		 push	 eax
  004a4	68 00 00 00 00	 push	 OFFSET ??_C@_09CFCBFJND@Not?5Found@
$LN380@EnumerateH:

; 911  :                 Log(LOG_MESSAGE, __LINE__, "%s%s%s", UsbViewIndent[NestedLevel], leafName, deviceInfo);

  004a9	0f b7 42 0e	 movzx	 eax, WORD PTR [edx+14]
  004ad	50		 push	 eax
  004ae	0f b7 42 0c	 movzx	 eax, WORD PTR [edx+12]
  004b2	50		 push	 eax
  004b3	57		 push	 edi
  004b4	68 00 00 00 00	 push	 OFFSET ??_C@_0CF@LGIDNAEF@?$CFs?5?$FLVID?3?$CF?44X?5PID?3?$CF?44X?5SN?3?$CFs?5Spd@
  004b9	8d 85 00 fa ff
	ff		 lea	 eax, DWORD PTR _deviceInfo$[ebp]
  004bf	68 e7 03 00 00	 push	 999			; 000003e7H
  004c4	50		 push	 eax
  004c5	e8 00 00 00 00	 call	 __snprintf
  004ca	8b bd e4 f9 ff
	ff		 mov	 edi, DWORD PTR _this$GSCopy$1$[ebp]
  004d0	8d 85 00 fa ff
	ff		 lea	 eax, DWORD PTR _deviceInfo$[ebp]
  004d6	83 c4 20	 add	 esp, 32			; 00000020H
  004d9	50		 push	 eax
  004da	8d 85 e8 fd ff
	ff		 lea	 eax, DWORD PTR _leafName$[ebp]
  004e0	50		 push	 eax
  004e1	8b 47 08	 mov	 eax, DWORD PTR [edi+8]
  004e4	ff 34 85 00 00
	00 00		 push	 DWORD PTR ?UsbViewIndent@@3PAPADA[eax*4]
  004eb	68 00 00 00 00	 push	 OFFSET ??_C@_06DIJPEION@?$CFs?$CFs?$CFs@
  004f0	68 8f 03 00 00	 push	 911			; 0000038fH
  004f5	6a 01		 push	 1
  004f7	e8 00 00 00 00	 call	 ?Log@@YAXHHPBDZZ	; Log
; File c:\program files (x86)\microsoft visual studio\2017\professional\vc\tools\msvc\14.16.27023\include\iosfwd

; 462  : 		return (__builtin_strlen(_First));

  004fc	8d 8d 00 fa ff
	ff		 lea	 ecx, DWORD PTR _deviceInfo$[ebp]
; File c:\program files (x86)\microsoft visual studio\2017\professional\vc\tools\msvc\14.16.27023\include\xstring

; 1784 : 		_Mysize(0),

  00502	c7 85 f8 f9 ff
	ff 00 00 00 00	 mov	 DWORD PTR $T3[ebp+16], 0

; 1785 : 		_Myres(0)

  0050c	c7 85 fc f9 ff
	ff 00 00 00 00	 mov	 DWORD PTR $T3[ebp+20], 0
; File c:\program files (x86)\microsoft visual studio\2017\professional\vc\tools\msvc\14.16.27023\include\iosfwd

; 462  : 		return (__builtin_strlen(_First));

  00516	8d 51 01	 lea	 edx, DWORD PTR [ecx+1]
; File c:\users\giulif\downloads\study\git\sysstatus\usb.cpp

; 911  :                 Log(LOG_MESSAGE, __LINE__, "%s%s%s", UsbViewIndent[NestedLevel], leafName, deviceInfo);

  00519	83 c4 18	 add	 esp, 24			; 00000018H
; File c:\program files (x86)\microsoft visual studio\2017\professional\vc\tools\msvc\14.16.27023\include\xstring

; 3976 : 		_My_data._Mysize = 0;

  0051c	c7 85 f8 f9 ff
	ff 00 00 00 00	 mov	 DWORD PTR $T3[ebp+16], 0

; 3977 : 		_My_data._Myres = this->_BUF_SIZE - 1;

  00526	c7 85 fc f9 ff
	ff 0f 00 00 00	 mov	 DWORD PTR $T3[ebp+20], 15 ; 0000000fH
; File c:\program files (x86)\microsoft visual studio\2017\professional\vc\tools\msvc\14.16.27023\include\iosfwd

; 506  : 		_Left = _Right;

  00530	c6 85 e8 f9 ff
	ff 00		 mov	 BYTE PTR $T3[ebp], 0
$LL374@EnumerateH:

; 462  : 		return (__builtin_strlen(_First));

  00537	8a 01		 mov	 al, BYTE PTR [ecx]
  00539	41		 inc	 ecx
  0053a	84 c0		 test	 al, al
  0053c	75 f9		 jne	 SHORT $LL374@EnumerateH
  0053e	2b ca		 sub	 ecx, edx
; File c:\program files (x86)\microsoft visual studio\2017\professional\vc\tools\msvc\14.16.27023\include\xstring

; 2676 : 		return (assign(_Ptr, _Convert_size<size_type>(_Traits::length(_Ptr))));

  00540	8d 85 00 fa ff
	ff		 lea	 eax, DWORD PTR _deviceInfo$[ebp]
  00546	51		 push	 ecx
  00547	50		 push	 eax
  00548	8d 8d e8 f9 ff
	ff		 lea	 ecx, DWORD PTR $T3[ebp]
  0054e	e8 00 00 00 00	 call	 ?assign@?$basic_string@DU?$char_traits@D@std@@V?$allocator@D@2@@std@@QAEAAV12@QBDI@Z ; std::basic_string<char,std::char_traits<char>,std::allocator<char> >::assign
; File c:\users\giulif\downloads\study\git\sysstatus\usb.cpp

; 913  :                 PushBackDetails(deviceInfo);

  00553	c7 45 fc 00 00
	00 00		 mov	 DWORD PTR __$EHRec$[ebp+8], 0
  0055a	8d 85 e8 f9 ff
	ff		 lea	 eax, DWORD PTR $T3[ebp]
  00560	50		 push	 eax
  00561	8b cf		 mov	 ecx, edi
  00563	e8 00 00 00 00	 call	 ?PushBackDetails@USB@@IAEXABV?$basic_string@DU?$char_traits@D@std@@V?$allocator@D@2@@std@@@Z ; USB::PushBackDetails
  00568	c7 45 fc ff ff
	ff ff		 mov	 DWORD PTR __$EHRec$[ebp+8], -1
; File c:\program files (x86)\microsoft visual studio\2017\professional\vc\tools\msvc\14.16.27023\include\xstring

; 1825 : 		return (_BUF_SIZE <= _Myres);

  0056f	8b 95 fc f9 ff
	ff		 mov	 edx, DWORD PTR $T3[ebp+20]
  00575	83 fa 10	 cmp	 edx, 16			; 00000010H

; 3987 : 		if (_My_data._Large_string_engaged())

  00578	72 2f		 jb	 SHORT $LN315@EnumerateH
; File c:\program files (x86)\microsoft visual studio\2017\professional\vc\tools\msvc\14.16.27023\include\xmemory0

; 992  : 		_Deallocate<_New_alignof<_Ty>>(_Ptr, sizeof(_Ty) * _Count);

  0057a	8b 8d e8 f9 ff
	ff		 mov	 ecx, DWORD PTR $T3[ebp]
; File c:\program files (x86)\microsoft visual studio\2017\professional\vc\tools\msvc\14.16.27023\include\xstring

; 3992 : 			_Al.deallocate(_Ptr, _My_data._Myres + 1);

  00580	42		 inc	 edx
; File c:\program files (x86)\microsoft visual studio\2017\professional\vc\tools\msvc\14.16.27023\include\xmemory0

; 992  : 		_Deallocate<_New_alignof<_Ty>>(_Ptr, sizeof(_Ty) * _Count);

  00581	8b c1		 mov	 eax, ecx

; 201  : 	if (_Bytes >= _Big_allocation_threshold)

  00583	81 fa 00 10 00
	00		 cmp	 edx, 4096		; 00001000H
  00589	72 14		 jb	 SHORT $LN314@EnumerateH

; 118  : 	const uintptr_t _Ptr_container = _Ptr_user[-1];

  0058b	8b 49 fc	 mov	 ecx, DWORD PTR [ecx-4]
  0058e	83 c2 23	 add	 edx, 35			; 00000023H
  00591	2b c1		 sub	 eax, ecx

; 132  : 	_STL_VERIFY(_Back_shift >= _Min_back_shift && _Back_shift <= _Non_user_size, "invalid argument");

  00593	83 c0 fc	 add	 eax, -4			; fffffffcH
  00596	83 f8 1f	 cmp	 eax, 31			; 0000001fH
  00599	0f 87 e1 00 00
	00		 ja	 $LN311@EnumerateH
$LN314@EnumerateH:

; 207  : 	::operator delete(_Ptr, _Bytes);

  0059f	52		 push	 edx
  005a0	51		 push	 ecx
  005a1	e8 00 00 00 00	 call	 ??3@YAXPAXI@Z		; operator delete
  005a6	83 c4 08	 add	 esp, 8
$LN315@EnumerateH:
; File c:\users\giulif\downloads\study\git\sysstatus\usb.cpp

; 914  :                 if (info->ConnectionInfo)

  005a9	8b 46 08	 mov	 eax, DWORD PTR [esi+8]
; File c:\program files (x86)\microsoft visual studio\2017\professional\vc\tools\msvc\14.16.27023\include\xstring

; 3995 : 		_My_data._Mysize = 0;

  005ac	c7 85 f8 f9 ff
	ff 00 00 00 00	 mov	 DWORD PTR $T3[ebp+16], 0

; 3996 : 		_My_data._Myres = this->_BUF_SIZE - 1;

  005b6	c7 85 fc f9 ff
	ff 0f 00 00 00	 mov	 DWORD PTR $T3[ebp+20], 15 ; 0000000fH
; File c:\program files (x86)\microsoft visual studio\2017\professional\vc\tools\msvc\14.16.27023\include\iosfwd

; 506  : 		_Left = _Right;

  005c0	c6 85 e8 f9 ff
	ff 00		 mov	 BYTE PTR $T3[ebp], 0
; File c:\users\giulif\downloads\study\git\sysstatus\usb.cpp

; 914  :                 if (info->ConnectionInfo)

  005c7	85 c0		 test	 eax, eax
  005c9	74 0b		 je	 SHORT $LN40@EnumerateH

; 915  :                     ConnectionInfo(info->ConnectionInfo, info->StringDescs);

  005cb	ff 76 10	 push	 DWORD PTR [esi+16]
  005ce	8b cf		 mov	 ecx, edi
  005d0	50		 push	 eax
  005d1	e8 00 00 00 00	 call	 ?ConnectionInfo@USB@@IAEXPAU_USB_NODE_CONNECTION_INFORMATION_EX@@PAU_STRING_DESCRIPTOR_NODE@@@Z ; USB::ConnectionInfo
$LN40@EnumerateH:

; 916  :                 if (info->ConfigDesc)

  005d6	8b 46 0c	 mov	 eax, DWORD PTR [esi+12]
  005d9	85 c0		 test	 eax, eax
  005db	74 3b		 je	 SHORT $LN29@EnumerateH

; 917  :                     ConfigDesc((PUSB_CONFIGURATION_DESCRIPTOR)(info->ConfigDesc + 1), info->StringDescs);

  005dd	ff 76 10	 push	 DWORD PTR [esi+16]
  005e0	83 c0 0c	 add	 eax, 12			; 0000000cH
  005e3	8b cf		 mov	 ecx, edi
  005e5	50		 push	 eax
  005e6	e8 00 00 00 00	 call	 ?ConfigDesc@USB@@IAEXPAU_USB_CONFIGURATION_DESCRIPTOR@@PAU_STRING_DESCRIPTOR_NODE@@@Z ; USB::ConfigDesc

; 918  :             }
; 919  :             else

  005eb	eb 2b		 jmp	 SHORT $LN29@EnumerateH
$LN28@EnumerateH:

; 920  :             {
; 921  :                 Log(LOG_MESSAGE, __LINE__, "%s%s", UsbViewIndent[NestedLevel], leafName);

  005ed	8d 85 e8 fd ff
	ff		 lea	 eax, DWORD PTR _leafName$[ebp]
  005f3	50		 push	 eax
  005f4	8b 85 e4 f9 ff
	ff		 mov	 eax, DWORD PTR _this$GSCopy$1$[ebp]
  005fa	8b 40 08	 mov	 eax, DWORD PTR [eax+8]
  005fd	ff 34 85 00 00
	00 00		 push	 DWORD PTR ?UsbViewIndent@@3PAPADA[eax*4]
  00604	68 00 00 00 00	 push	 OFFSET ??_C@_04HDOCAJNK@?$CFs?$CFs@
  00609	68 99 03 00 00	 push	 921			; 00000399H
  0060e	6a 01		 push	 1
  00610	e8 00 00 00 00	 call	 ?Log@@YAXHHPBDZZ	; Log
  00615	83 c4 14	 add	 esp, 20			; 00000014H
$LN29@EnumerateH:

; 922  :             }
; 923  :             free(info);

  00618	56		 push	 esi
  00619	e8 00 00 00 00	 call	 _free
  0061e	8b bd c4 f9 ff
	ff		 mov	 edi, DWORD PTR _connectionInfo$1$[ebp]
  00624	83 c4 04	 add	 esp, 4
$LN26@EnumerateH:

; 924  :             info = NULL;
; 925  :         }   //END: if(info)
; 926  : 
; 927  :         if (configDesc != NULL)

  00627	8b 85 d4 f9 ff
	ff		 mov	 eax, DWORD PTR _configDesc$1$[ebp]
  0062d	85 c0		 test	 eax, eax
  0062f	74 09		 je	 SHORT $LN42@EnumerateH

; 928  :             free(configDesc);

  00631	50		 push	 eax
  00632	e8 00 00 00 00	 call	 _free
  00637	83 c4 04	 add	 esp, 4
$LN42@EnumerateH:

; 929  : 
; 930  :         if (connectionInfo != NULL)
; 931  :             free(connectionInfo);

  0063a	57		 push	 edi
  0063b	e8 00 00 00 00	 call	 _free
  00640	83 c4 04	 add	 esp, 4

; 932  : 
; 933  :         while (stringDescs != NULL)

  00643	85 db		 test	 ebx, ebx
  00645	0f 84 b6 fc ff
	ff		 je	 $LN376@EnumerateH
  0064b	0f 1f 44 00 00	 npad	 5
$LL9@EnumerateH:

; 934  :         {
; 935  :             Next = stringDescs->Next;

  00650	8b 33		 mov	 esi, DWORD PTR [ebx]

; 936  :             free(stringDescs);

  00652	53		 push	 ebx
  00653	e8 00 00 00 00	 call	 _free
  00658	83 c4 04	 add	 esp, 4

; 937  :             stringDescs = Next;

  0065b	8b de		 mov	 ebx, esi
  0065d	85 f6		 test	 esi, esi
  0065f	75 ef		 jne	 SHORT $LL9@EnumerateH

; 938  :         }
; 939  :     }

  00661	e9 9b fc ff ff	 jmp	 $LN376@EnumerateH
$LN11@EnumerateH:

; 745  :             }
; 746  :         }
; 747  :         else
; 748  :         {
; 749  :             Log(LOG_DEBUG, __LINE__, "-- USB.EnumHubPorts, new Port %d ConnInfo (%u) null", index, nBytes);

  00666	53		 push	 ebx
  00667	68 00 00 00 00	 push	 OFFSET ??_C@_0DE@EKAJALEI@?9?9?5USB?4EnumHubPorts?0?5new?5Port?5?$CF@
  0066c	68 ed 02 00 00	 push	 749			; 000002edH
  00671	6a 10		 push	 16			; 00000010H
  00673	e8 00 00 00 00	 call	 ?Log@@YAXHHPBDZZ	; Log
  00678	83 c4 14	 add	 esp, 20			; 00000014H

; 932  : 
; 933  :         while (stringDescs != NULL)

  0067b	e9 8d fc ff ff	 jmp	 $LN2@EnumerateH
$LN311@EnumerateH:
; File c:\program files (x86)\microsoft visual studio\2017\professional\vc\tools\msvc\14.16.27023\include\xmemory0

; 132  : 	_STL_VERIFY(_Back_shift >= _Min_back_shift && _Back_shift <= _Non_user_size, "invalid argument");

  00680	e8 00 00 00 00	 call	 __invalid_parameter_noinfo_noreturn
$LN378@EnumerateH:
  00685	cc		 int	 3
_TEXT	ENDS
text$x	SEGMENT
__unwindfunclet$?EnumerateHubPorts@USB@@IAEXPAXK@Z$0:
  00000	8d 8d e8 f9 ff
	ff		 lea	 ecx, DWORD PTR $T3[ebp]
  00006	e9 00 00 00 00	 jmp	 ??1?$basic_string@DU?$char_traits@D@std@@V?$allocator@D@2@@std@@QAE@XZ ; std::basic_string<char,std::char_traits<char>,std::allocator<char> >::~basic_string<char,std::char_traits<char>,std::allocator<char> >
__ehhandler$?EnumerateHubPorts@USB@@IAEXPAXK@Z:
  0000b	8b 54 24 08	 mov	 edx, DWORD PTR [esp+8]
  0000f	8d 42 0c	 lea	 eax, DWORD PTR [edx+12]
  00012	8b 8a bc f9 ff
	ff		 mov	 ecx, DWORD PTR [edx-1604]
  00018	33 c8		 xor	 ecx, eax
  0001a	e8 00 00 00 00	 call	 @__security_check_cookie@4
  0001f	8b 4a fc	 mov	 ecx, DWORD PTR [edx-4]
  00022	33 c8		 xor	 ecx, eax
  00024	e8 00 00 00 00	 call	 @__security_check_cookie@4
  00029	b8 00 00 00 00	 mov	 eax, OFFSET __ehfuncinfo$?EnumerateHubPorts@USB@@IAEXPAXK@Z
  0002e	e9 00 00 00 00	 jmp	 ___CxxFrameHandler3
text$x	ENDS
?EnumerateHubPorts@USB@@IAEXPAXK@Z ENDP			; USB::EnumerateHubPorts
; Function compile flags: /Ogtp
; File c:\users\giulif\downloads\study\git\sysstatus\usb.cpp
_TEXT	SEGMENT
_devInst$ = -12						; size = 4
_devInstNext$ = -8					; size = 4
_len$ = -4						; size = 4
_DriverName$ = 8					; size = 4
?DriverNameToDeviceDesc@USB@@IAEPADPAD@Z PROC		; USB::DriverNameToDeviceDesc
; _this$ = ecx

; 948  : {

  00000	55		 push	 ebp
  00001	8b ec		 mov	 ebp, esp
  00003	83 e4 f8	 and	 esp, -8			; fffffff8H
  00006	83 ec 0c	 sub	 esp, 12			; 0000000cH
  00009	53		 push	 ebx

; 949  :     DEVINST     devInst = 0;
; 950  :     DEVINST     devInstNext = 0;
; 951  :     CONFIGRET   cr = 0;
; 952  :     ULONG       walkDone = 0;
; 953  :     ULONG       len = 0;
; 954  : 
; 955  :     Log(LOG_DEBUG, __LINE__, ">> USB.DrvName2DevDesc, Drv %s", DriverName);

  0000a	8b 5d 08	 mov	 ebx, DWORD PTR _DriverName$[ebp]
  0000d	56		 push	 esi
  0000e	57		 push	 edi
  0000f	53		 push	 ebx
  00010	68 00 00 00 00	 push	 OFFSET ??_C@_0BP@KMJAGKHH@?$DO?$DO?5USB?4DrvName2DevDesc?0?5Drv?5?$CFs@
  00015	68 bb 03 00 00	 push	 955			; 000003bbH
  0001a	6a 10		 push	 16			; 00000010H
  0001c	8b f1		 mov	 esi, ecx
  0001e	c7 44 24 1c 00
	00 00 00	 mov	 DWORD PTR _devInst$[esp+40], 0
  00026	c7 44 24 20 00
	00 00 00	 mov	 DWORD PTR _devInstNext$[esp+40], 0
  0002e	c7 44 24 24 00
	00 00 00	 mov	 DWORD PTR _len$[esp+40], 0
  00036	e8 00 00 00 00	 call	 ?Log@@YAXHHPBDZZ	; Log

; 956  : 
; 957  :     // Get Root DevNode
; 958  :     //
; 959  :     cr = (*lpfnCM_Locate_DevNodeA)(&devInst, NULL, 0);

  0003b	8b 86 28 02 00
	00		 mov	 eax, DWORD PTR [esi+552]
  00041	8d 4c 24 1c	 lea	 ecx, DWORD PTR _devInst$[esp+40]
  00045	83 c4 10	 add	 esp, 16			; 00000010H
  00048	6a 00		 push	 0
  0004a	6a 00		 push	 0
  0004c	51		 push	 ecx
  0004d	ff d0		 call	 eax

; 960  :     if (cr != CR_SUCCESS)

  0004f	85 c0		 test	 eax, eax
  00051	74 20		 je	 SHORT $LN28@DriverName

; 961  :     {
; 962  :         Log(LOG_DEBUG, __LINE__, "<< USB.DrvName2DevDesc, LocateDevNote %u", cr);

  00053	50		 push	 eax
  00054	68 00 00 00 00	 push	 OFFSET ??_C@_0CJ@PHHANNLH@?$DM?$DM?5USB?4DrvName2DevDesc?0?5LocateD@
  00059	68 c2 03 00 00	 push	 962			; 000003c2H
  0005e	6a 10		 push	 16			; 00000010H
  00060	e8 00 00 00 00	 call	 ?Log@@YAXHHPBDZZ	; Log
  00065	83 c4 10	 add	 esp, 16			; 00000010H

; 1042 :     return NULL;
; 1043 : }

  00068	33 c0		 xor	 eax, eax
  0006a	5f		 pop	 edi
  0006b	5e		 pop	 esi
  0006c	5b		 pop	 ebx
  0006d	8b e5		 mov	 esp, ebp
  0006f	5d		 pop	 ebp
  00070	c2 04 00	 ret	 4
$LN28@DriverName:
  00073	8b 4c 24 0c	 mov	 ecx, DWORD PTR _devInst$[esp+24]
  00077	8d 7e 0c	 lea	 edi, DWORD PTR [esi+12]
  0007a	66 0f 1f 44 00
	00		 npad	 6
$LL2@DriverName:

; 963  :         return NULL;
; 964  :     }
; 965  : 
; 966  :     // Do a depth first search for the DevNode with a matching
; 967  :     // DriverName value
; 968  :     //
; 969  :     while (!walkDone)
; 970  :     {
; 971  :         // Get the DriverName value
; 972  :         //
; 973  :         len = sizeof(buf);
; 974  :         cr = (*lpfnCM_Get_DevNode_Registry_PropertyA)(devInst,

  00080	8b 86 24 02 00
	00		 mov	 eax, DWORD PTR [esi+548]
  00086	8d 54 24 14	 lea	 edx, DWORD PTR _len$[esp+24]
  0008a	6a 00		 push	 0
  0008c	52		 push	 edx
  0008d	57		 push	 edi
  0008e	6a 00		 push	 0
  00090	6a 0a		 push	 10			; 0000000aH
  00092	51		 push	 ecx
  00093	c7 44 24 2c 00
	02 00 00	 mov	 DWORD PTR _len$[esp+48], 512 ; 00000200H
  0009b	ff d0		 call	 eax

; 975  :             CM_DRP_DRIVER,
; 976  :             NULL,
; 977  :             buf,
; 978  :             &len,
; 979  :             0);
; 980  : 
; 981  :         // If the DriverName value matches, return the DeviceDescription
; 982  :         //
; 983  :         if (cr == CR_SUCCESS && strcmp(DriverName, buf) == 0)

  0009d	85 c0		 test	 eax, eax
  0009f	75 2d		 jne	 SHORT $LN23@DriverName
  000a1	8b c7		 mov	 eax, edi
  000a3	8b cb		 mov	 ecx, ebx
$LL31@DriverName:
  000a5	8a 11		 mov	 dl, BYTE PTR [ecx]
  000a7	3a 10		 cmp	 dl, BYTE PTR [eax]
  000a9	75 1a		 jne	 SHORT $LN32@DriverName
  000ab	84 d2		 test	 dl, dl
  000ad	74 12		 je	 SHORT $LN33@DriverName
  000af	8a 51 01	 mov	 dl, BYTE PTR [ecx+1]
  000b2	3a 50 01	 cmp	 dl, BYTE PTR [eax+1]
  000b5	75 0e		 jne	 SHORT $LN32@DriverName
  000b7	83 c1 02	 add	 ecx, 2
  000ba	83 c0 02	 add	 eax, 2
  000bd	84 d2		 test	 dl, dl
  000bf	75 e4		 jne	 SHORT $LL31@DriverName
$LN33@DriverName:
  000c1	33 c0		 xor	 eax, eax
  000c3	eb 05		 jmp	 SHORT $LN34@DriverName
$LN32@DriverName:
  000c5	1b c0		 sbb	 eax, eax
  000c7	83 c8 01	 or	 eax, 1
$LN34@DriverName:
  000ca	85 c0		 test	 eax, eax
  000cc	74 76		 je	 SHORT $LN20@DriverName
$LN23@DriverName:

; 1001 :                 return NULL;
; 1002 :             }
; 1003 :         }
; 1004 : 
; 1005 :         // This DevNode didn't match, go down a level to the first child.
; 1006 :         //
; 1007 :         cr = (*lpfnCM_Get_Child)(&devInstNext, devInst, 0);

  000ce	8b 86 20 02 00
	00		 mov	 eax, DWORD PTR [esi+544]
  000d4	8d 4c 24 10	 lea	 ecx, DWORD PTR _devInstNext$[esp+24]
  000d8	6a 00		 push	 0
  000da	ff 74 24 10	 push	 DWORD PTR _devInst$[esp+28]
  000de	51		 push	 ecx
  000df	ff d0		 call	 eax

; 1008 :         if (cr == CR_SUCCESS)

  000e1	85 c0		 test	 eax, eax
  000e3	74 52		 je	 SHORT $LN19@DriverName

; 1009 :         {
; 1010 :             devInst = devInstNext;
; 1011 :             continue;
; 1012 :         }
; 1013 : 
; 1014 :         // Can't go down any further, go across to the next sibling.  If
; 1015 :         // there are no more siblings, go back up until there is a sibling.
; 1016 :         // If we can't go up any further, we're back at the root and we're
; 1017 :         // done.
; 1018 :         //
; 1019 :         for (;;)
; 1020 :         {
; 1021 :             cr = (*lpfnCM_Get_Sibling)(&devInstNext, devInst, 0);

  000e5	8b 86 1c 02 00
	00		 mov	 eax, DWORD PTR [esi+540]
  000eb	8d 4c 24 10	 lea	 ecx, DWORD PTR _devInstNext$[esp+24]
  000ef	6a 00		 push	 0
  000f1	ff 74 24 10	 push	 DWORD PTR _devInst$[esp+28]
  000f5	51		 push	 ecx
  000f6	ff d0		 call	 eax

; 1022 :             if (cr == CR_SUCCESS)

  000f8	85 c0		 test	 eax, eax
  000fa	74 3b		 je	 SHORT $LN19@DriverName
  000fc	0f 1f 40 00	 npad	 4
$LL4@DriverName:

; 1025 :                 break;
; 1026 :             }
; 1027 : 
; 1028 :             cr = (*lpfnCM_Get_Parent)(&devInstNext, devInst, 0);

  00100	8b 86 18 02 00
	00		 mov	 eax, DWORD PTR [esi+536]
  00106	8d 4c 24 10	 lea	 ecx, DWORD PTR _devInstNext$[esp+24]
  0010a	6a 00		 push	 0
  0010c	ff 74 24 10	 push	 DWORD PTR _devInst$[esp+28]
  00110	51		 push	 ecx
  00111	ff d0		 call	 eax

; 1029 :             if (cr == CR_SUCCESS)

  00113	85 c0		 test	 eax, eax
  00115	0f 85 8d 00 00
	00		 jne	 $LN3@DriverName

; 1030 :             {
; 1031 :                 devInst = devInstNext;

  0011b	8b 44 24 10	 mov	 eax, DWORD PTR _devInstNext$[esp+24]
  0011f	8b 8e 1c 02 00
	00		 mov	 ecx, DWORD PTR [esi+540]
  00125	6a 00		 push	 0
  00127	50		 push	 eax
  00128	89 44 24 14	 mov	 DWORD PTR _devInst$[esp+32], eax
  0012c	8d 44 24 18	 lea	 eax, DWORD PTR _devInstNext$[esp+32]
  00130	50		 push	 eax
  00131	ff d1		 call	 ecx
  00133	85 c0		 test	 eax, eax
  00135	75 c9		 jne	 SHORT $LL4@DriverName
$LN19@DriverName:

; 1023 :             {
; 1024 :                 devInst = devInstNext;

  00137	8b 4c 24 10	 mov	 ecx, DWORD PTR _devInstNext$[esp+24]
  0013b	89 4c 24 0c	 mov	 DWORD PTR _devInst$[esp+24], ecx
  0013f	e9 3c ff ff ff	 jmp	 $LL2@DriverName
$LN20@DriverName:

; 984  :         {
; 985  :             len = sizeof(buf);
; 986  :             cr = (*lpfnCM_Get_DevNode_Registry_PropertyA)(devInst,

  00144	8b 86 24 02 00
	00		 mov	 eax, DWORD PTR [esi+548]
  0014a	8d 4c 24 14	 lea	 ecx, DWORD PTR _len$[esp+24]
  0014e	6a 00		 push	 0
  00150	51		 push	 ecx
  00151	57		 push	 edi
  00152	6a 00		 push	 0
  00154	6a 01		 push	 1
  00156	ff 74 24 20	 push	 DWORD PTR _devInst$[esp+44]
  0015a	c7 44 24 2c 00
	02 00 00	 mov	 DWORD PTR _len$[esp+48], 512 ; 00000200H
  00162	ff d0		 call	 eax

; 987  :                 CM_DRP_DEVICEDESC,
; 988  :                 NULL,
; 989  :                 buf,
; 990  :                 &len,
; 991  :                 0);
; 992  : 
; 993  :             if (cr == CR_SUCCESS)

  00164	85 c0		 test	 eax, eax
  00166	75 20		 jne	 SHORT $LN9@DriverName

; 994  :             {
; 995  :                 Log(LOG_DEBUG, __LINE__, "<< USB.DrvName2DevDesc, ret %s", buf);

  00168	57		 push	 edi
  00169	68 00 00 00 00	 push	 OFFSET ??_C@_0BP@GGDOIMOO@?$DM?$DM?5USB?4DrvName2DevDesc?0?5ret?5?$CFs@
  0016e	68 e3 03 00 00	 push	 995			; 000003e3H
  00173	6a 10		 push	 16			; 00000010H
  00175	e8 00 00 00 00	 call	 ?Log@@YAXHHPBDZZ	; Log
  0017a	83 c4 10	 add	 esp, 16			; 00000010H

; 996  :                 return buf;

  0017d	8b c7		 mov	 eax, edi

; 1042 :     return NULL;
; 1043 : }

  0017f	5f		 pop	 edi
  00180	5e		 pop	 esi
  00181	5b		 pop	 ebx
  00182	8b e5		 mov	 esp, ebp
  00184	5d		 pop	 ebp
  00185	c2 04 00	 ret	 4
$LN9@DriverName:

; 997  :             }
; 998  :             else
; 999  :             {
; 1000 :                 Log(LOG_DEBUG, __LINE__, "<< USB.DrvName2DevDesc, GetDevNodeRegProps %u", cr);

  00188	50		 push	 eax
  00189	68 00 00 00 00	 push	 OFFSET ??_C@_0CO@BAPAALJK@?$DM?$DM?5USB?4DrvName2DevDesc?0?5GetDevN@
  0018e	68 e8 03 00 00	 push	 1000			; 000003e8H
  00193	6a 10		 push	 16			; 00000010H
  00195	e8 00 00 00 00	 call	 ?Log@@YAXHHPBDZZ	; Log
  0019a	83 c4 10	 add	 esp, 16			; 00000010H

; 1042 :     return NULL;
; 1043 : }

  0019d	33 c0		 xor	 eax, eax
  0019f	5f		 pop	 edi
  001a0	5e		 pop	 esi
  001a1	5b		 pop	 ebx
  001a2	8b e5		 mov	 esp, ebp
  001a4	5d		 pop	 ebp
  001a5	c2 04 00	 ret	 4
$LN3@DriverName:

; 1032 :             }
; 1033 :             else
; 1034 :             {
; 1035 :                 walkDone = 1;
; 1036 :                 break;
; 1037 :             }
; 1038 :         }
; 1039 :     }
; 1040 : 
; 1041 :     Log(LOG_DEBUG, __LINE__, "<< USB.DrvName2DevDesc, Ret Null");

  001a8	68 00 00 00 00	 push	 OFFSET ??_C@_0CB@OFAOPKJL@?$DM?$DM?5USB?4DrvName2DevDesc?0?5Ret?5Nul@
  001ad	68 11 04 00 00	 push	 1041			; 00000411H
  001b2	6a 10		 push	 16			; 00000010H
  001b4	e8 00 00 00 00	 call	 ?Log@@YAXHHPBDZZ	; Log
  001b9	83 c4 0c	 add	 esp, 12			; 0000000cH

; 1042 :     return NULL;
; 1043 : }

  001bc	33 c0		 xor	 eax, eax
  001be	5f		 pop	 edi
  001bf	5e		 pop	 esi
  001c0	5b		 pop	 ebx
  001c1	8b e5		 mov	 esp, ebp
  001c3	5d		 pop	 ebp
  001c4	c2 04 00	 ret	 4
?DriverNameToDeviceDesc@USB@@IAEPADPAD@Z ENDP		; USB::DriverNameToDeviceDesc
_TEXT	ENDS
; Function compile flags: /Ogtp
; File c:\users\giulif\downloads\study\git\sysstatus\usb.cpp
; File c:\program files (x86)\microsoft visual studio\2017\professional\vc\tools\msvc\14.16.27023\include\xstring
; File c:\program files (x86)\microsoft visual studio\2017\professional\vc\tools\msvc\14.16.27023\include\iosfwd
; File c:\program files (x86)\microsoft visual studio\2017\professional\vc\tools\msvc\14.16.27023\include\xstring
; File c:\users\giulif\downloads\study\git\sysstatus\usb.cpp
; File c:\program files (x86)\microsoft visual studio\2017\professional\vc\tools\msvc\14.16.27023\include\xstring
; File c:\users\giulif\downloads\study\git\sysstatus\usb.cpp
; File c:\program files (x86)\microsoft visual studio\2017\professional\vc\tools\msvc\14.16.27023\include\xstring
; File c:\users\giulif\downloads\study\git\sysstatus\usb.cpp
; File c:\program files (x86)\microsoft visual studio\2017\professional\vc\tools\msvc\14.16.27023\include\xstring
; File c:\program files (x86)\microsoft visual studio\2017\professional\vc\tools\msvc\14.16.27023\include\xmemory0
; File c:\program files (x86)\microsoft visual studio\2017\professional\vc\tools\msvc\14.16.27023\include\xstring
; File c:\program files (x86)\microsoft visual studio\2017\professional\vc\tools\msvc\14.16.27023\include\xmemory0
; File c:\users\giulif\downloads\study\git\sysstatus\usb.cpp
; File c:\program files (x86)\microsoft visual studio\2017\professional\vc\tools\msvc\14.16.27023\include\xstring
; File c:\users\giulif\downloads\study\git\sysstatus\usb.cpp
; File c:\program files (x86)\microsoft visual studio\2017\professional\vc\tools\msvc\14.16.27023\include\xstring
; File c:\program files (x86)\microsoft visual studio\2017\professional\vc\tools\msvc\14.16.27023\include\iosfwd
; File c:\users\giulif\downloads\study\git\sysstatus\usb.cpp
; File c:\program files (x86)\microsoft visual studio\2017\professional\vc\tools\msvc\14.16.27023\include\xstring
; File c:\program files (x86)\microsoft visual studio\2017\professional\vc\tools\msvc\14.16.27023\include\xmemory0
; File c:\program files (x86)\microsoft visual studio\2017\professional\vc\tools\msvc\14.16.27023\include\xstring
; File c:\program files (x86)\microsoft visual studio\2017\professional\vc\tools\msvc\14.16.27023\include\xmemory0
; File c:\users\giulif\downloads\study\git\sysstatus\usb.cpp
; File c:\program files (x86)\microsoft visual studio\2017\professional\vc\tools\msvc\14.16.27023\include\xstring
; File c:\program files (x86)\microsoft visual studio\2017\professional\vc\tools\msvc\14.16.27023\include\iosfwd
; File c:\users\giulif\downloads\study\git\sysstatus\usb.cpp
; File c:\program files (x86)\microsoft visual studio\2017\professional\vc\tools\msvc\14.16.27023\include\xmemory0
; File c:\users\giulif\downloads\study\git\sysstatus\usb.cpp
_TEXT	SEGMENT
_this$GSCopy$1$ = -596					; size = 4
_nBytes$ = -592						; size = 4
_hHubDevice$1$ = -588					; size = 4
_HubName$GSCopy$1$ = -584				; size = 4
_info$1$ = -580						; size = 4
$T2 = -576						; size = 24
_deviceName$3 = -552					; size = 24
_leafName$4 = -528					; size = 512
__$ArrayPad$ = -16					; size = 4
__$EHRec$ = -12						; size = 12
_HubName$ = 8						; size = 4
_ConnectionInfo$ = 12					; size = 4
_ConfigDesc$ = 16					; size = 4
_StringDescs$ = 20					; size = 4
_DeviceDesc$ = 24					; size = 4
?EnumerateHub@USB@@IAEXPADPAU_USB_NODE_CONNECTION_INFORMATION_EX@@PAU_USB_DESCRIPTOR_REQUEST@@PAU_STRING_DESCRIPTOR_NODE@@0@Z PROC ; USB::EnumerateHub
; _this$ = ecx

; 1046 : {

  00000	55		 push	 ebp
  00001	8b ec		 mov	 ebp, esp
  00003	6a ff		 push	 -1
  00005	68 00 00 00 00	 push	 __ehhandler$?EnumerateHub@USB@@IAEXPADPAU_USB_NODE_CONNECTION_INFORMATION_EX@@PAU_USB_DESCRIPTOR_REQUEST@@PAU_STRING_DESCRIPTOR_NODE@@0@Z
  0000a	64 a1 00 00 00
	00		 mov	 eax, DWORD PTR fs:0
  00010	50		 push	 eax
  00011	81 ec 48 02 00
	00		 sub	 esp, 584		; 00000248H
  00017	a1 00 00 00 00	 mov	 eax, DWORD PTR ___security_cookie
  0001c	33 c5		 xor	 eax, ebp
  0001e	89 45 f0	 mov	 DWORD PTR __$ArrayPad$[ebp], eax
  00021	53		 push	 ebx
  00022	56		 push	 esi
  00023	57		 push	 edi
  00024	50		 push	 eax
  00025	8d 45 f4	 lea	 eax, DWORD PTR __$EHRec$[ebp]
  00028	64 a3 00 00 00
	00		 mov	 DWORD PTR fs:0, eax
  0002e	89 8d ac fd ff
	ff		 mov	 DWORD PTR _this$GSCopy$1$[ebp], ecx
  00034	8b 45 08	 mov	 eax, DWORD PTR _HubName$[ebp]
  00037	8b 7d 0c	 mov	 edi, DWORD PTR _ConnectionInfo$[ebp]
  0003a	8b 5d 18	 mov	 ebx, DWORD PTR _DeviceDesc$[ebp]

; 1047 :     HANDLE          hHubDevice = NULL;
; 1048 :     ULONG           nBytes = 0;
; 1049 : 
; 1050 :     Log(LOG_DEBUG, __LINE__, ">> USB.EnumHub");

  0003d	68 00 00 00 00	 push	 OFFSET ??_C@_0P@JENLAABL@?$DO?$DO?5USB?4EnumHub@
  00042	68 1a 04 00 00	 push	 1050			; 0000041aH
  00047	6a 10		 push	 16			; 00000010H
  00049	89 85 b8 fd ff
	ff		 mov	 DWORD PTR _HubName$GSCopy$1$[ebp], eax
  0004f	c7 85 b0 fd ff
	ff 00 00 00 00	 mov	 DWORD PTR _nBytes$[ebp], 0
  00059	e8 00 00 00 00	 call	 ?Log@@YAXHHPBDZZ	; Log

; 1051 : 
; 1052 :     // Allocate some space for a USBDEVICEINFO structure to hold the
; 1053 :     // hub info, hub name, and connection info pointers.  GPTR zero
; 1054 :     // initializes the structure for us.
; 1055 :     //
; 1056 :     PUSBDEVICEINFO info = (PUSBDEVICEINFO)malloc(sizeof(USBDEVICEINFO));

  0005e	6a 14		 push	 20			; 00000014H
  00060	e8 00 00 00 00	 call	 _malloc
  00065	8b f0		 mov	 esi, eax
  00067	83 c4 10	 add	 esp, 16			; 00000010H
  0006a	89 b5 bc fd ff
	ff		 mov	 DWORD PTR _info$1$[ebp], esi

; 1057 :     if (info)

  00070	85 f6		 test	 esi, esi
  00072	0f 84 4e 03 00
	00		 je	 $LN2@EnumerateH

; 1058 :     {
; 1059 :         memset(info, 0x00, sizeof(USBDEVICEINFO));
; 1060 : 
; 1061 :         // Keep copies of the Hub Name, Connection Info, and Configuration
; 1062 :         // Descriptor pointers
; 1063 :         //
; 1064 :         info->HubName = HubName;

  00078	8b 85 b8 fd ff
	ff		 mov	 eax, DWORD PTR _HubName$GSCopy$1$[ebp]
  0007e	c7 06 00 00 00
	00		 mov	 DWORD PTR [esi], 0
  00084	89 46 04	 mov	 DWORD PTR [esi+4], eax

; 1065 :         info->ConnectionInfo = ConnectionInfo;
; 1066 :         info->ConfigDesc = ConfigDesc;

  00087	8b 45 10	 mov	 eax, DWORD PTR _ConfigDesc$[ebp]
