; Listing generated by Microsoft (R) Optimizing Compiler Version 15.00.30729.01 

	TITLE	e:\Tools\SysStatus\MonitorIPs.cpp
	.686P
	.XMM
	include listing.inc
	.model	flat

INCLUDELIB OLDNAMES

PUBLIC	??_R4Thank_you@Define_the_symbol__ATL_MIXED@@6B@ ; Define_the_symbol__ATL_MIXED::Thank_you::`RTTI Complete Object Locator'
PUBLIC	??_R3Thank_you@Define_the_symbol__ATL_MIXED@@8	; Define_the_symbol__ATL_MIXED::Thank_you::`RTTI Class Hierarchy Descriptor'
PUBLIC	??_R2Thank_you@Define_the_symbol__ATL_MIXED@@8	; Define_the_symbol__ATL_MIXED::Thank_you::`RTTI Base Class Array'
PUBLIC	??_R1A@?0A@EA@Thank_you@Define_the_symbol__ATL_MIXED@@8 ; Define_the_symbol__ATL_MIXED::Thank_you::`RTTI Base Class Descriptor at (0,-1,0,64)'
PUBLIC	??_R0?AUThank_you@Define_the_symbol__ATL_MIXED@@@8 ; Define_the_symbol__ATL_MIXED::Thank_you `RTTI Type Descriptor'
PUBLIC	??_R4length_error@std@@6B@			; std::length_error::`RTTI Complete Object Locator'
PUBLIC	??_R3length_error@std@@8			; std::length_error::`RTTI Class Hierarchy Descriptor'
PUBLIC	??_R2length_error@std@@8			; std::length_error::`RTTI Base Class Array'
PUBLIC	??_R1A@?0A@EA@length_error@std@@8		; std::length_error::`RTTI Base Class Descriptor at (0,-1,0,64)'
PUBLIC	??_R4logic_error@std@@6B@			; std::logic_error::`RTTI Complete Object Locator'
PUBLIC	??_R3logic_error@std@@8				; std::logic_error::`RTTI Class Hierarchy Descriptor'
PUBLIC	??_R2logic_error@std@@8				; std::logic_error::`RTTI Base Class Array'
PUBLIC	??_R1A@?0A@EA@logic_error@std@@8		; std::logic_error::`RTTI Base Class Descriptor at (0,-1,0,64)'
PUBLIC	??_R4bad_alloc@std@@6B@				; std::bad_alloc::`RTTI Complete Object Locator'
PUBLIC	??_R3bad_alloc@std@@8				; std::bad_alloc::`RTTI Class Hierarchy Descriptor'
PUBLIC	??_R2bad_alloc@std@@8				; std::bad_alloc::`RTTI Base Class Array'
PUBLIC	??_R1A@?0A@EA@exception@std@@8			; std::exception::`RTTI Base Class Descriptor at (0,-1,0,64)'
PUBLIC	??_R3exception@std@@8				; std::exception::`RTTI Class Hierarchy Descriptor'
PUBLIC	??_R2exception@std@@8				; std::exception::`RTTI Base Class Array'
PUBLIC	??_R1A@?0A@EA@bad_alloc@std@@8			; std::bad_alloc::`RTTI Base Class Descriptor at (0,-1,0,64)'
PUBLIC	??_C@_07KJLOKDKB@TypeLib?$AA@			; `string'
PUBLIC	??_C@_08KEKAJNJI@Software?$AA@			; `string'
PUBLIC	??_C@_06FDHFNJBJ@SYSTEM?$AA@			; `string'
PUBLIC	??_C@_08LOPHEHKG@SECURITY?$AA@			; `string'
PUBLIC	??_C@_03DDIMFGBA@SAM?$AA@			; `string'
PUBLIC	??_C@_04IHBFOLAC@Mime?$AA@			; `string'
PUBLIC	??_C@_08PPIOJEA@Hardware?$AA@			; `string'
PUBLIC	??_C@_09JKPGEJCH@Interface?$AA@			; `string'
PUBLIC	??_C@_08PICKODJL@FileType?$AA@			; `string'
PUBLIC	??_C@_0BF@HDDNNDFH@Component?5Categories?$AA@	; `string'
PUBLIC	??_C@_06JBKGCNBB@Delete?$AA@			; `string'
PUBLIC	??_C@_08KAAPDIAN@NoRemove?$AA@			; `string'
PUBLIC	??_C@_0M@DBGDLGLL@ForceRemove?$AA@		; `string'
PUBLIC	??_C@_03LAIAPFCB@Val?$AA@			; `string'
PUBLIC	??_C@_01HMGJMAIH@B?$AA@				; `string'
PUBLIC	??_C@_01CKDDGHAB@D?$AA@				; `string'
PUBLIC	??_C@_01PLPBNMEI@M?$AA@				; `string'
PUBLIC	??_C@_01CPLAODJH@S?$AA@				; `string'
PUBLIC	??_C@_0P@GHFPNOJB@bad?5allocation?$AA@		; `string'
PUBLIC	?SetChange@MonitorIPs@@IAEXXZ			; MonitorIPs::SetChange
PUBLIC	?s_OnChange@MonitorIPs@@KGXPAXE@Z		; MonitorIPs::s_OnChange
PUBLIC	?append@?$basic_string@DU?$char_traits@D@std@@V?$allocator@D@2@@std@@QAEAAV12@ABV12@II@Z ; std::basic_string<char,std::char_traits<char>,std::allocator<char> >::append
PUBLIC	?append@?$basic_string@DU?$char_traits@D@std@@V?$allocator@D@2@@std@@QAEAAV12@PBDI@Z ; std::basic_string<char,std::char_traits<char>,std::allocator<char> >::append
PUBLIC	?append@?$basic_string@DU?$char_traits@D@std@@V?$allocator@D@2@@std@@QAEAAV12@PBD@Z ; std::basic_string<char,std::char_traits<char>,std::allocator<char> >::append
PUBLIC	?deallocate@?$allocator@V?$basic_string@DU?$char_traits@D@std@@V?$allocator@D@2@@std@@@std@@QAEXPAV?$basic_string@DU?$char_traits@D@std@@V?$allocator@D@2@@2@I@Z ; std::allocator<std::basic_string<char,std::char_traits<char>,std::allocator<char> > >::deallocate
PUBLIC	??$_Allocate@V?$basic_string@DU?$char_traits@D@std@@V?$allocator@D@2@@std@@@std@@YAPAV?$basic_string@DU?$char_traits@D@std@@V?$allocator@D@2@@0@IPAV10@@Z ; std::_Allocate<std::basic_string<char,std::char_traits<char>,std::allocator<char> > >
PUBLIC	?allocate@?$allocator@V?$basic_string@DU?$char_traits@D@std@@V?$allocator@D@2@@std@@@std@@QAEPAV?$basic_string@DU?$char_traits@D@std@@V?$allocator@D@2@@2@I@Z ; std::allocator<std::basic_string<char,std::char_traits<char>,std::allocator<char> > >::allocate
PUBLIC	?capacity@?$vector@V?$basic_string@DU?$char_traits@D@std@@V?$allocator@D@2@@std@@V?$allocator@V?$basic_string@DU?$char_traits@D@std@@V?$allocator@D@2@@std@@@2@@std@@QBEIXZ ; std::vector<std::basic_string<char,std::char_traits<char>,std::allocator<char> >,std::allocator<std::basic_string<char,std::char_traits<char>,std::allocator<char> > > >::capacity
PUBLIC	?size@?$vector@V?$basic_string@DU?$char_traits@D@std@@V?$allocator@D@2@@std@@V?$allocator@V?$basic_string@DU?$char_traits@D@std@@V?$allocator@D@2@@std@@@2@@std@@QBEIXZ ; std::vector<std::basic_string<char,std::char_traits<char>,std::allocator<char> >,std::allocator<std::basic_string<char,std::char_traits<char>,std::allocator<char> > > >::size
PUBLIC	?max_size@?$allocator@V?$basic_string@DU?$char_traits@D@std@@V?$allocator@D@2@@std@@@std@@QBEIXZ ; std::allocator<std::basic_string<char,std::char_traits<char>,std::allocator<char> > >::max_size
PUBLIC	?max_size@?$vector@V?$basic_string@DU?$char_traits@D@std@@V?$allocator@D@2@@std@@V?$allocator@V?$basic_string@DU?$char_traits@D@std@@V?$allocator@D@2@@std@@@2@@std@@QBEIXZ ; std::vector<std::basic_string<char,std::char_traits<char>,std::allocator<char> >,std::allocator<std::basic_string<char,std::char_traits<char>,std::allocator<char> > > >::max_size
PUBLIC	?length@?$char_traits@D@std@@SAIPBD@Z		; std::char_traits<char>::length
PUBLIC	?_Inside@?$basic_string@DU?$char_traits@D@std@@V?$allocator@D@2@@std@@IAE_NPBD@Z ; std::basic_string<char,std::char_traits<char>,std::allocator<char> >::_Inside
PUBLIC	?assign@?$basic_string@DU?$char_traits@D@std@@V?$allocator@D@2@@std@@QAEAAV12@PBDI@Z ; std::basic_string<char,std::char_traits<char>,std::allocator<char> >::assign
PUBLIC	?assign@?$basic_string@DU?$char_traits@D@std@@V?$allocator@D@2@@std@@QAEAAV12@PBD@Z ; std::basic_string<char,std::char_traits<char>,std::allocator<char> >::assign
PUBLIC	??0?$basic_string@DU?$char_traits@D@std@@V?$allocator@D@2@@std@@QAE@PBD@Z ; std::basic_string<char,std::char_traits<char>,std::allocator<char> >::basic_string<char,std::char_traits<char>,std::allocator<char> >
PUBLIC	??0logic_error@std@@QAE@ABV?$basic_string@DU?$char_traits@D@std@@V?$allocator@D@2@@1@@Z ; std::logic_error::logic_error
PUBLIC	??0length_error@std@@QAE@ABV?$basic_string@DU?$char_traits@D@std@@V?$allocator@D@2@@1@@Z ; std::length_error::length_error
PUBLIC	??0logic_error@std@@QAE@ABV01@@Z		; std::logic_error::logic_error
PUBLIC	?c_str@?$basic_string@DU?$char_traits@D@std@@V?$allocator@D@2@@std@@QBEPBDXZ ; std::basic_string<char,std::char_traits<char>,std::allocator<char> >::c_str
PUBLIC	?what@logic_error@std@@UBEPBDXZ			; std::logic_error::what
PUBLIC	??_Glogic_error@std@@UAEPAXI@Z			; std::logic_error::`scalar deleting destructor'
PUBLIC	??1logic_error@std@@UAE@XZ			; std::logic_error::~logic_error
PUBLIC	??1length_error@std@@UAE@XZ			; std::length_error::~length_error
PUBLIC	??_Glength_error@std@@UAEPAXI@Z			; std::length_error::`scalar deleting destructor'
PUBLIC	??0length_error@std@@QAE@ABV01@@Z		; std::length_error::length_error
PUBLIC	?_Xlen@?$vector@V?$basic_string@DU?$char_traits@D@std@@V?$allocator@D@2@@std@@V?$allocator@V?$basic_string@DU?$char_traits@D@std@@V?$allocator@D@2@@std@@@2@@std@@KAXXZ ; std::vector<std::basic_string<char,std::char_traits<char>,std::allocator<char> >,std::allocator<std::basic_string<char,std::char_traits<char>,std::allocator<char> > > >::_Xlen
PUBLIC	??0?$allocator@D@std@@QAE@XZ			; std::allocator<char>::allocator<char>
PUBLIC	??0?$_String_val@DV?$allocator@D@std@@@std@@IAE@V?$allocator@D@1@@Z ; std::_String_val<char,std::allocator<char> >::_String_val<char,std::allocator<char> >
PUBLIC	??0?$basic_string@DU?$char_traits@D@std@@V?$allocator@D@2@@std@@QAE@XZ ; std::basic_string<char,std::char_traits<char>,std::allocator<char> >::basic_string<char,std::char_traits<char>,std::allocator<char> >
PUBLIC	??$_Uninit_move@PAV?$basic_string@DU?$char_traits@D@std@@V?$allocator@D@2@@std@@PAV12@V?$allocator@V?$basic_string@DU?$char_traits@D@std@@V?$allocator@D@2@@std@@@2@@std@@YAPAV?$basic_string@DU?$char_traits@D@std@@V?$allocator@D@2@@0@PAV10@00AAV?$allocator@V?$basic_string@DU?$char_traits@D@std@@V?$allocator@D@2@@std@@@0@U_Swap_move_tag@0@U_Range_checked_iterator_tag@0@@Z ; std::_Uninit_move<std::basic_string<char,std::char_traits<char>,std::allocator<char> > *,std::basic_string<char,std::char_traits<char>,std::allocator<char> > *,std::allocator<std::basic_string<char,std::char_traits<char>,std::allocator<char> > > >
PUBLIC	??$_Unchecked_uninitialized_move@PAV?$basic_string@DU?$char_traits@D@std@@V?$allocator@D@2@@std@@PAV12@V?$allocator@V?$basic_string@DU?$char_traits@D@std@@V?$allocator@D@2@@std@@@2@@stdext@@YAPAV?$basic_string@DU?$char_traits@D@std@@V?$allocator@D@2@@std@@PAV12@00AAV?$allocator@V?$basic_string@DU?$char_traits@D@std@@V?$allocator@D@2@@std@@@2@@Z ; stdext::_Unchecked_uninitialized_move<std::basic_string<char,std::char_traits<char>,std::allocator<char> > *,std::basic_string<char,std::char_traits<char>,std::allocator<char> > *,std::allocator<std::basic_string<char,std::char_traits<char>,std::allocator<char> > > >
PUBLIC	??$_Umove@PAV?$basic_string@DU?$char_traits@D@std@@V?$allocator@D@2@@std@@@?$vector@V?$basic_string@DU?$char_traits@D@std@@V?$allocator@D@2@@std@@V?$allocator@V?$basic_string@DU?$char_traits@D@std@@V?$allocator@D@2@@std@@@2@@std@@IAEPAV?$basic_string@DU?$char_traits@D@std@@V?$allocator@D@2@@1@PAV21@00@Z ; std::vector<std::basic_string<char,std::char_traits<char>,std::allocator<char> >,std::allocator<std::basic_string<char,std::char_traits<char>,std::allocator<char> > > >::_Umove<std::basic_string<char,std::char_traits<char>,std::allocator<char> > *>
PUBLIC	??$_Fill@PAV?$basic_string@DU?$char_traits@D@std@@V?$allocator@D@2@@std@@V12@@std@@YAXPAV?$basic_string@DU?$char_traits@D@std@@V?$allocator@D@2@@0@0ABV10@@Z ; std::_Fill<std::basic_string<char,std::char_traits<char>,std::allocator<char> > *,std::basic_string<char,std::char_traits<char>,std::allocator<char> > >
PUBLIC	??$fill@PAV?$basic_string@DU?$char_traits@D@std@@V?$allocator@D@2@@std@@V12@@std@@YAXPAV?$basic_string@DU?$char_traits@D@std@@V?$allocator@D@2@@0@0ABV10@@Z ; std::fill<std::basic_string<char,std::char_traits<char>,std::allocator<char> > *,std::basic_string<char,std::char_traits<char>,std::allocator<char> > >
PUBLIC	??$_Move_cat@PAV?$basic_string@DU?$char_traits@D@std@@V?$allocator@D@2@@std@@@std@@YA?AU_Swap_move_tag@0@ABQAV?$basic_string@DU?$char_traits@D@std@@V?$allocator@D@2@@0@@Z ; std::_Move_cat<std::basic_string<char,std::char_traits<char>,std::allocator<char> > *>
PUBLIC	??$?8DD@std@@YA_NABV?$allocator@D@0@0@Z		; std::operator==<char,char>
PUBLIC	?swap@?$basic_string@DU?$char_traits@D@std@@V?$allocator@D@2@@std@@QAEXAAV12@@Z ; std::basic_string<char,std::char_traits<char>,std::allocator<char> >::swap
PUBLIC	??$swap@DU?$char_traits@D@std@@V?$allocator@D@2@@std@@YAXAAV?$basic_string@DU?$char_traits@D@std@@V?$allocator@D@2@@0@0@Z ; std::swap<char,std::char_traits<char>,std::allocator<char> >
PUBLIC	??$_Swap_adl@V?$basic_string@DU?$char_traits@D@std@@V?$allocator@D@2@@std@@@std@@YAXAAV?$basic_string@DU?$char_traits@D@std@@V?$allocator@D@2@@0@0@Z ; std::_Swap_adl<std::basic_string<char,std::char_traits<char>,std::allocator<char> > >
PUBLIC	??$_Move_backward_opt@PAV?$basic_string@DU?$char_traits@D@std@@V?$allocator@D@2@@std@@PAV12@Uforward_iterator_tag@2@@std@@YAPAV?$basic_string@DU?$char_traits@D@std@@V?$allocator@D@2@@0@PAV10@00Uforward_iterator_tag@0@U_Swap_move_tag@0@U_Range_checked_iterator_tag@0@@Z ; std::_Move_backward_opt<std::basic_string<char,std::char_traits<char>,std::allocator<char> > *,std::basic_string<char,std::char_traits<char>,std::allocator<char> > *,std::forward_iterator_tag>
PUBLIC	??$_Move_backward_opt@PAV?$basic_string@DU?$char_traits@D@std@@V?$allocator@D@2@@std@@PAV12@@std@@YAPAV?$basic_string@DU?$char_traits@D@std@@V?$allocator@D@2@@0@PAV10@00Urandom_access_iterator_tag@0@U_Swap_move_tag@0@U_Range_checked_iterator_tag@0@@Z ; std::_Move_backward_opt<std::basic_string<char,std::char_traits<char>,std::allocator<char> > *,std::basic_string<char,std::char_traits<char>,std::allocator<char> > *>
PUBLIC	??$_Unchecked_move_backward@PAV?$basic_string@DU?$char_traits@D@std@@V?$allocator@D@2@@std@@PAV12@@stdext@@YAPAV?$basic_string@DU?$char_traits@D@std@@V?$allocator@D@2@@std@@PAV12@00@Z ; stdext::_Unchecked_move_backward<std::basic_string<char,std::char_traits<char>,std::allocator<char> > *,std::basic_string<char,std::char_traits<char>,std::allocator<char> > *>
PUBLIC	?_Insert_n@?$vector@V?$basic_string@DU?$char_traits@D@std@@V?$allocator@D@2@@std@@V?$allocator@V?$basic_string@DU?$char_traits@D@std@@V?$allocator@D@2@@std@@@2@@std@@IAEXV?$_Vector_const_iterator@V?$basic_string@DU?$char_traits@D@std@@V?$allocator@D@2@@std@@V?$allocator@V?$basic_string@DU?$char_traits@D@std@@V?$allocator@D@2@@std@@@2@@2@IABV?$basic_string@DU?$char_traits@D@std@@V?$allocator@D@2@@2@@Z ; std::vector<std::basic_string<char,std::char_traits<char>,std::allocator<char> >,std::allocator<std::basic_string<char,std::char_traits<char>,std::allocator<char> > > >::_Insert_n
PUBLIC	??G?$_Vector_const_iterator@V?$basic_string@DU?$char_traits@D@std@@V?$allocator@D@2@@std@@V?$allocator@V?$basic_string@DU?$char_traits@D@std@@V?$allocator@D@2@@std@@@2@@std@@QBEHABV01@@Z ; std::_Vector_const_iterator<std::basic_string<char,std::char_traits<char>,std::allocator<char> >,std::allocator<std::basic_string<char,std::char_traits<char>,std::allocator<char> > > >::operator-
PUBLIC	?_Getcont@_Aux_cont@std@@QBEPBV_Container_base_aux@2@XZ ; std::_Aux_cont::_Getcont
PUBLIC	?_Getmycont@_Iterator_base_aux@std@@QBEPBV_Container_base_aux@2@XZ ; std::_Iterator_base_aux::_Getmycont
PUBLIC	??Y?$_Vector_const_iterator@V?$basic_string@DU?$char_traits@D@std@@V?$allocator@D@2@@std@@V?$allocator@V?$basic_string@DU?$char_traits@D@std@@V?$allocator@D@2@@std@@@2@@std@@QAEAAV01@H@Z ; std::_Vector_const_iterator<std::basic_string<char,std::char_traits<char>,std::allocator<char> >,std::allocator<std::basic_string<char,std::char_traits<char>,std::allocator<char> > > >::operator+=
PUBLIC	??Y?$_Vector_iterator@V?$basic_string@DU?$char_traits@D@std@@V?$allocator@D@2@@std@@V?$allocator@V?$basic_string@DU?$char_traits@D@std@@V?$allocator@D@2@@std@@@2@@std@@QAEAAV01@H@Z ; std::_Vector_iterator<std::basic_string<char,std::char_traits<char>,std::allocator<char> >,std::allocator<std::basic_string<char,std::char_traits<char>,std::allocator<char> > > >::operator+=
PUBLIC	??H?$_Vector_iterator@V?$basic_string@DU?$char_traits@D@std@@V?$allocator@D@2@@std@@V?$allocator@V?$basic_string@DU?$char_traits@D@std@@V?$allocator@D@2@@std@@@2@@std@@QBE?AV01@H@Z ; std::_Vector_iterator<std::basic_string<char,std::char_traits<char>,std::allocator<char> >,std::allocator<std::basic_string<char,std::char_traits<char>,std::allocator<char> > > >::operator+
PUBLIC	?insert@?$vector@V?$basic_string@DU?$char_traits@D@std@@V?$allocator@D@2@@std@@V?$allocator@V?$basic_string@DU?$char_traits@D@std@@V?$allocator@D@2@@std@@@2@@std@@QAE?AV?$_Vector_iterator@V?$basic_string@DU?$char_traits@D@std@@V?$allocator@D@2@@std@@V?$allocator@V?$basic_string@DU?$char_traits@D@std@@V?$allocator@D@2@@std@@@2@@2@V?$_Vector_const_iterator@V?$basic_string@DU?$char_traits@D@std@@V?$allocator@D@2@@std@@V?$allocator@V?$basic_string@DU?$char_traits@D@std@@V?$allocator@D@2@@std@@@2@@2@ABV?$basic_string@DU?$char_traits@D@std@@V?$allocator@D@2@@2@@Z ; std::vector<std::basic_string<char,std::char_traits<char>,std::allocator<char> >,std::allocator<std::basic_string<char,std::char_traits<char>,std::allocator<char> > > >::insert
PUBLIC	??2@YAPAXIPAX@Z					; operator new
PUBLIC	??3@YAXPAX0@Z					; operator delete
PUBLIC	??0?$allocator@D@std@@QAE@ABV01@@Z		; std::allocator<char>::allocator<char>
PUBLIC	??0?$_String_val@DV?$allocator@D@std@@@std@@QAE@ABV01@@Z ; std::_String_val<char,std::allocator<char> >::_String_val<char,std::allocator<char> >
PUBLIC	??0?$basic_string@DU?$char_traits@D@std@@V?$allocator@D@2@@std@@QAE@ABV01@@Z ; std::basic_string<char,std::char_traits<char>,std::allocator<char> >::basic_string<char,std::char_traits<char>,std::allocator<char> >
PUBLIC	??$_Construct@V?$basic_string@DU?$char_traits@D@std@@V?$allocator@D@2@@std@@V12@@std@@YAXPAV?$basic_string@DU?$char_traits@D@std@@V?$allocator@D@2@@0@ABV10@@Z ; std::_Construct<std::basic_string<char,std::char_traits<char>,std::allocator<char> >,std::basic_string<char,std::char_traits<char>,std::allocator<char> > >
PUBLIC	?construct@?$allocator@V?$basic_string@DU?$char_traits@D@std@@V?$allocator@D@2@@std@@@std@@QAEXPAV?$basic_string@DU?$char_traits@D@std@@V?$allocator@D@2@@2@ABV32@@Z ; std::allocator<std::basic_string<char,std::char_traits<char>,std::allocator<char> > >::construct
PUBLIC	??$_Uninit_fill_n@PAV?$basic_string@DU?$char_traits@D@std@@V?$allocator@D@2@@std@@IV12@V?$allocator@V?$basic_string@DU?$char_traits@D@std@@V?$allocator@D@2@@std@@@2@@std@@YAXPAV?$basic_string@DU?$char_traits@D@std@@V?$allocator@D@2@@0@IABV10@AAV?$allocator@V?$basic_string@DU?$char_traits@D@std@@V?$allocator@D@2@@std@@@0@U_Nonscalar_ptr_iterator_tag@0@U_Range_checked_iterator_tag@0@@Z ; std::_Uninit_fill_n<std::basic_string<char,std::char_traits<char>,std::allocator<char> > *,unsigned int,std::basic_string<char,std::char_traits<char>,std::allocator<char> >,std::allocator<std::basic_string<char,std::char_traits<char>,std::allocator<char> > > >
PUBLIC	??$unchecked_uninitialized_fill_n@PAV?$basic_string@DU?$char_traits@D@std@@V?$allocator@D@2@@std@@IV12@V?$allocator@V?$basic_string@DU?$char_traits@D@std@@V?$allocator@D@2@@std@@@2@@stdext@@YAXPAV?$basic_string@DU?$char_traits@D@std@@V?$allocator@D@2@@std@@IABV12@AAV?$allocator@V?$basic_string@DU?$char_traits@D@std@@V?$allocator@D@2@@std@@@2@@Z ; stdext::unchecked_uninitialized_fill_n<std::basic_string<char,std::char_traits<char>,std::allocator<char> > *,unsigned int,std::basic_string<char,std::char_traits<char>,std::allocator<char> >,std::allocator<std::basic_string<char,std::char_traits<char>,std::allocator<char> > > >
PUBLIC	?_Ufill@?$vector@V?$basic_string@DU?$char_traits@D@std@@V?$allocator@D@2@@std@@V?$allocator@V?$basic_string@DU?$char_traits@D@std@@V?$allocator@D@2@@std@@@2@@std@@IAEPAV?$basic_string@DU?$char_traits@D@std@@V?$allocator@D@2@@2@PAV32@IABV32@@Z ; std::vector<std::basic_string<char,std::char_traits<char>,std::allocator<char> >,std::allocator<std::basic_string<char,std::char_traits<char>,std::allocator<char> > > >::_Ufill
PUBLIC	?push_back@?$vector@V?$basic_string@DU?$char_traits@D@std@@V?$allocator@D@2@@std@@V?$allocator@V?$basic_string@DU?$char_traits@D@std@@V?$allocator@D@2@@std@@@2@@std@@QAEXABV?$basic_string@DU?$char_traits@D@std@@V?$allocator@D@2@@2@@Z ; std::vector<std::basic_string<char,std::char_traits<char>,std::allocator<char> >,std::allocator<std::basic_string<char,std::char_traits<char>,std::allocator<char> > > >::push_back
PUBLIC	?begin@?$vector@V?$basic_string@DU?$char_traits@D@std@@V?$allocator@D@2@@std@@V?$allocator@V?$basic_string@DU?$char_traits@D@std@@V?$allocator@D@2@@std@@@2@@std@@QAE?AV?$_Vector_iterator@V?$basic_string@DU?$char_traits@D@std@@V?$allocator@D@2@@std@@V?$allocator@V?$basic_string@DU?$char_traits@D@std@@V?$allocator@D@2@@std@@@2@@2@XZ ; std::vector<std::basic_string<char,std::char_traits<char>,std::allocator<char> >,std::allocator<std::basic_string<char,std::char_traits<char>,std::allocator<char> > > >::begin
PUBLIC	?end@?$vector@V?$basic_string@DU?$char_traits@D@std@@V?$allocator@D@2@@std@@V?$allocator@V?$basic_string@DU?$char_traits@D@std@@V?$allocator@D@2@@std@@@2@@std@@QAE?AV?$_Vector_iterator@V?$basic_string@DU?$char_traits@D@std@@V?$allocator@D@2@@std@@V?$allocator@V?$basic_string@DU?$char_traits@D@std@@V?$allocator@D@2@@std@@@2@@2@XZ ; std::vector<std::basic_string<char,std::char_traits<char>,std::allocator<char> >,std::allocator<std::basic_string<char,std::char_traits<char>,std::allocator<char> > > >::end
PUBLIC	?_Set_container@_Iterator_base_aux@std@@QAEXQBV_Container_base_aux@2@@Z ; std::_Iterator_base_aux::_Set_container
PUBLIC	??0_Iterator_base_aux@std@@QAE@XZ		; std::_Iterator_base_aux::_Iterator_base_aux
PUBLIC	??0?$_Iterator_with_base@Urandom_access_iterator_tag@std@@V?$basic_string@DU?$char_traits@D@std@@V?$allocator@D@2@@2@HPBV32@ABV32@V_Iterator_base_aux@2@@std@@QAE@XZ ; std::_Iterator_with_base<std::random_access_iterator_tag,std::basic_string<char,std::char_traits<char>,std::allocator<char> >,int,std::basic_string<char,std::char_traits<char>,std::allocator<char> > const *,std::basic_string<char,std::char_traits<char>,std::allocator<char> > const &,std::_Iterator_base_aux>::_Iterator_with_base<std::random_access_iterator_tag,std::basic_string<char,std::char_traits<char>,std::allocator<char> >,int,std::basic_string<char,std::char_traits<char>,std::allocator<char> > const *,std::basic_string<char,std::char_traits<char>,std::allocator<char> > const &,std::_Iterator_base_aux>
PUBLIC	??0?$_Ranit@V?$basic_string@DU?$char_traits@D@std@@V?$allocator@D@2@@std@@HPBV12@ABV12@@std@@QAE@XZ ; std::_Ranit<std::basic_string<char,std::char_traits<char>,std::allocator<char> >,int,std::basic_string<char,std::char_traits<char>,std::allocator<char> > const *,std::basic_string<char,std::char_traits<char>,std::allocator<char> > const &>::_Ranit<std::basic_string<char,std::char_traits<char>,std::allocator<char> >,int,std::basic_string<char,std::char_traits<char>,std::allocator<char> > const *,std::basic_string<char,std::char_traits<char>,std::allocator<char> > const &>
PUBLIC	??0?$_Vector_const_iterator@V?$basic_string@DU?$char_traits@D@std@@V?$allocator@D@2@@std@@V?$allocator@V?$basic_string@DU?$char_traits@D@std@@V?$allocator@D@2@@std@@@2@@std@@QAE@PAV?$basic_string@DU?$char_traits@D@std@@V?$allocator@D@2@@1@PBV_Container_base_aux@1@@Z ; std::_Vector_const_iterator<std::basic_string<char,std::char_traits<char>,std::allocator<char> >,std::allocator<std::basic_string<char,std::char_traits<char>,std::allocator<char> > > >::_Vector_const_iterator<std::basic_string<char,std::char_traits<char>,std::allocator<char> >,std::allocator<std::basic_string<char,std::char_traits<char>,std::allocator<char> > > >
PUBLIC	??0?$_Vector_iterator@V?$basic_string@DU?$char_traits@D@std@@V?$allocator@D@2@@std@@V?$allocator@V?$basic_string@DU?$char_traits@D@std@@V?$allocator@D@2@@std@@@2@@std@@QAE@PAV?$basic_string@DU?$char_traits@D@std@@V?$allocator@D@2@@1@PBV_Container_base_aux@1@@Z ; std::_Vector_iterator<std::basic_string<char,std::char_traits<char>,std::allocator<char> >,std::allocator<std::basic_string<char,std::char_traits<char>,std::allocator<char> > > >::_Vector_iterator<std::basic_string<char,std::char_traits<char>,std::allocator<char> >,std::allocator<std::basic_string<char,std::char_traits<char>,std::allocator<char> > > >
PUBLIC	?_Make_iter@?$vector@V?$basic_string@DU?$char_traits@D@std@@V?$allocator@D@2@@std@@V?$allocator@V?$basic_string@DU?$char_traits@D@std@@V?$allocator@D@2@@std@@@2@@std@@QBE?AV?$_Vector_iterator@V?$basic_string@DU?$char_traits@D@std@@V?$allocator@D@2@@std@@V?$allocator@V?$basic_string@DU?$char_traits@D@std@@V?$allocator@D@2@@std@@@2@@2@V?$_Vector_const_iterator@V?$basic_string@DU?$char_traits@D@std@@V?$allocator@D@2@@std@@V?$allocator@V?$basic_string@DU?$char_traits@D@std@@V?$allocator@D@2@@std@@@2@@2@@Z ; std::vector<std::basic_string<char,std::char_traits<char>,std::allocator<char> >,std::allocator<std::basic_string<char,std::char_traits<char>,std::allocator<char> > > >::_Make_iter
PUBLIC	??1?$basic_string@DU?$char_traits@D@std@@V?$allocator@D@2@@std@@QAE@XZ ; std::basic_string<char,std::char_traits<char>,std::allocator<char> >::~basic_string<char,std::char_traits<char>,std::allocator<char> >
PUBLIC	??_G?$basic_string@DU?$char_traits@D@std@@V?$allocator@D@2@@std@@QAEPAXI@Z ; std::basic_string<char,std::char_traits<char>,std::allocator<char> >::`scalar deleting destructor'
PUBLIC	??$_Destroy@V?$basic_string@DU?$char_traits@D@std@@V?$allocator@D@2@@std@@@std@@YAXPAV?$basic_string@DU?$char_traits@D@std@@V?$allocator@D@2@@0@@Z ; std::_Destroy<std::basic_string<char,std::char_traits<char>,std::allocator<char> > >
PUBLIC	?destroy@?$allocator@V?$basic_string@DU?$char_traits@D@std@@V?$allocator@D@2@@std@@@std@@QAEXPAV?$basic_string@DU?$char_traits@D@std@@V?$allocator@D@2@@2@@Z ; std::allocator<std::basic_string<char,std::char_traits<char>,std::allocator<char> > >::destroy
PUBLIC	??$_Destroy_range@V?$allocator@V?$basic_string@DU?$char_traits@D@std@@V?$allocator@D@2@@std@@@std@@@std@@YAXPAV?$basic_string@DU?$char_traits@D@std@@V?$allocator@D@2@@0@0AAV?$allocator@V?$basic_string@DU?$char_traits@D@std@@V?$allocator@D@2@@std@@@0@U_Nonscalar_ptr_iterator_tag@0@@Z ; std::_Destroy_range<std::allocator<std::basic_string<char,std::char_traits<char>,std::allocator<char> > > >
PUBLIC	??$_Destroy_range@V?$allocator@V?$basic_string@DU?$char_traits@D@std@@V?$allocator@D@2@@std@@@std@@@std@@YAXPAV?$basic_string@DU?$char_traits@D@std@@V?$allocator@D@2@@0@0AAV?$allocator@V?$basic_string@DU?$char_traits@D@std@@V?$allocator@D@2@@std@@@0@@Z ; std::_Destroy_range<std::allocator<std::basic_string<char,std::char_traits<char>,std::allocator<char> > > >
PUBLIC	?_Destroy@?$vector@V?$basic_string@DU?$char_traits@D@std@@V?$allocator@D@2@@std@@V?$allocator@V?$basic_string@DU?$char_traits@D@std@@V?$allocator@D@2@@std@@@2@@std@@IAEXPAV?$basic_string@DU?$char_traits@D@std@@V?$allocator@D@2@@2@0@Z ; std::vector<std::basic_string<char,std::char_traits<char>,std::allocator<char> >,std::allocator<std::basic_string<char,std::char_traits<char>,std::allocator<char> > > >::_Destroy
PUBLIC	??$_Iter_random@PAV?$basic_string@DU?$char_traits@D@std@@V?$allocator@D@2@@std@@PAV12@@std@@YA?AUrandom_access_iterator_tag@0@ABQAV?$basic_string@DU?$char_traits@D@std@@V?$allocator@D@2@@0@0@Z ; std::_Iter_random<std::basic_string<char,std::char_traits<char>,std::allocator<char> > *,std::basic_string<char,std::char_traits<char>,std::allocator<char> > *>
PUBLIC	??$_Ptr_cat@PAV?$basic_string@DU?$char_traits@D@std@@V?$allocator@D@2@@std@@PAV12@@std@@YA?AU_Nonscalar_ptr_iterator_tag@0@AAPAV?$basic_string@DU?$char_traits@D@std@@V?$allocator@D@2@@0@0@Z ; std::_Ptr_cat<std::basic_string<char,std::char_traits<char>,std::allocator<char> > *,std::basic_string<char,std::char_traits<char>,std::allocator<char> > *>
PUBLIC	??$_Checked_base@PAV?$basic_string@DU?$char_traits@D@std@@V?$allocator@D@2@@std@@@std@@YAPAV?$basic_string@DU?$char_traits@D@std@@V?$allocator@D@2@@0@AAPAV10@U_Unchanged_checked_iterator_base_type_tag@0@@Z ; std::_Checked_base<std::basic_string<char,std::char_traits<char>,std::allocator<char> > *>
PUBLIC	??$_Checked_base@PAV?$basic_string@DU?$char_traits@D@std@@V?$allocator@D@2@@std@@@std@@YAPAV?$basic_string@DU?$char_traits@D@std@@V?$allocator@D@2@@0@AAPAV10@@Z ; std::_Checked_base<std::basic_string<char,std::char_traits<char>,std::allocator<char> > *>
PUBLIC	?_Move_s@?$char_traits@D@std@@SAPADPADIPBDI@Z	; std::char_traits<char>::_Move_s
PUBLIC	??$move_s@U?$char_traits@D@std@@@_Traits_helper@std@@YAPADPADIPBDIU_Secure_char_traits_tag@1@@Z ; std::_Traits_helper::move_s<std::char_traits<char> >
PUBLIC	??$move_s@U?$char_traits@D@std@@@_Traits_helper@std@@YAPADPADIPBDI@Z ; std::_Traits_helper::move_s<std::char_traits<char> >
PUBLIC	?erase@?$basic_string@DU?$char_traits@D@std@@V?$allocator@D@2@@std@@QAEAAV12@II@Z ; std::basic_string<char,std::char_traits<char>,std::allocator<char> >::erase
PUBLIC	?size@?$basic_string@DU?$char_traits@D@std@@V?$allocator@D@2@@std@@QBEIXZ ; std::basic_string<char,std::char_traits<char>,std::allocator<char> >::size
PUBLIC	??0bad_alloc@std@@QAE@PBD@Z			; std::bad_alloc::bad_alloc
PUBLIC	??1bad_alloc@std@@UAE@XZ			; std::bad_alloc::~bad_alloc
PUBLIC	??_Gbad_alloc@std@@UAEPAXI@Z			; std::bad_alloc::`scalar deleting destructor'
PUBLIC	??0bad_alloc@std@@QAE@ABV01@@Z			; std::bad_alloc::bad_alloc
PUBLIC	??$_Allocate@D@std@@YAPADIPAD@Z			; std::_Allocate<char>
PUBLIC	?allocate@?$allocator@D@std@@QAEPADI@Z		; std::allocator<char>::allocate
PUBLIC	?max_size@?$allocator@D@std@@QBEIXZ		; std::allocator<char>::max_size
PUBLIC	?max_size@?$basic_string@DU?$char_traits@D@std@@V?$allocator@D@2@@std@@QBEIXZ ; std::basic_string<char,std::char_traits<char>,std::allocator<char> >::max_size
PUBLIC	?_Copy@?$basic_string@DU?$char_traits@D@std@@V?$allocator@D@2@@std@@IAEXII@Z ; std::basic_string<char,std::char_traits<char>,std::allocator<char> >::_Copy
PUBLIC	?deallocate@?$allocator@D@std@@QAEXPADI@Z	; std::allocator<char>::deallocate
PUBLIC	?assign@?$char_traits@D@std@@SAXAADABD@Z	; std::char_traits<char>::assign
PUBLIC	?_Eos@?$basic_string@DU?$char_traits@D@std@@V?$allocator@D@2@@std@@IAEXI@Z ; std::basic_string<char,std::char_traits<char>,std::allocator<char> >::_Eos
PUBLIC	?_Tidy@?$basic_string@DU?$char_traits@D@std@@V?$allocator@D@2@@std@@IAEX_NI@Z ; std::basic_string<char,std::char_traits<char>,std::allocator<char> >::_Tidy
PUBLIC	?_Grow@?$basic_string@DU?$char_traits@D@std@@V?$allocator@D@2@@std@@IAE_NI_N@Z ; std::basic_string<char,std::char_traits<char>,std::allocator<char> >::_Grow
PUBLIC	?_Myptr@?$basic_string@DU?$char_traits@D@std@@V?$allocator@D@2@@std@@IAEPADXZ ; std::basic_string<char,std::char_traits<char>,std::allocator<char> >::_Myptr
PUBLIC	?_Myptr@?$basic_string@DU?$char_traits@D@std@@V?$allocator@D@2@@std@@IBEPBDXZ ; std::basic_string<char,std::char_traits<char>,std::allocator<char> >::_Myptr
PUBLIC	??$_Char_traits_cat@U?$char_traits@D@std@@@std@@YA?AU_Secure_char_traits_tag@0@XZ ; std::_Char_traits_cat<std::char_traits<char> >
PUBLIC	?_Copy_s@?$char_traits@D@std@@SAPADPADIPBDI@Z	; std::char_traits<char>::_Copy_s
PUBLIC	??$copy_s@U?$char_traits@D@std@@@_Traits_helper@std@@YAPADPADIPBDIU_Secure_char_traits_tag@1@@Z ; std::_Traits_helper::copy_s<std::char_traits<char> >
PUBLIC	??$copy_s@U?$char_traits@D@std@@@_Traits_helper@std@@YAPADPADIPBDI@Z ; std::_Traits_helper::copy_s<std::char_traits<char> >
PUBLIC	?assign@?$basic_string@DU?$char_traits@D@std@@V?$allocator@D@2@@std@@QAEAAV12@ABV12@II@Z ; std::basic_string<char,std::char_traits<char>,std::allocator<char> >::assign
PUBLIC	?assign@?$basic_string@DU?$char_traits@D@std@@V?$allocator@D@2@@std@@QAEAAV12@ABV12@@Z ; std::basic_string<char,std::char_traits<char>,std::allocator<char> >::assign
PUBLIC	??4?$basic_string@DU?$char_traits@D@std@@V?$allocator@D@2@@std@@QAEAAV01@ABV01@@Z ; std::basic_string<char,std::char_traits<char>,std::allocator<char> >::operator=
PUBLIC	??$_Copy_opt@PAV?$basic_string@DU?$char_traits@D@std@@V?$allocator@D@2@@std@@PAV12@Uforward_iterator_tag@2@@std@@YAPAV?$basic_string@DU?$char_traits@D@std@@V?$allocator@D@2@@0@PAV10@00Uforward_iterator_tag@0@U_Nonscalar_ptr_iterator_tag@0@U_Range_checked_iterator_tag@0@@Z ; std::_Copy_opt<std::basic_string<char,std::char_traits<char>,std::allocator<char> > *,std::basic_string<char,std::char_traits<char>,std::allocator<char> > *,std::forward_iterator_tag>
PUBLIC	??$_Copy_opt@PAV?$basic_string@DU?$char_traits@D@std@@V?$allocator@D@2@@std@@PAV12@@std@@YAPAV?$basic_string@DU?$char_traits@D@std@@V?$allocator@D@2@@0@PAV10@00Urandom_access_iterator_tag@0@U_Nonscalar_ptr_iterator_tag@0@U_Range_checked_iterator_tag@0@@Z ; std::_Copy_opt<std::basic_string<char,std::char_traits<char>,std::allocator<char> > *,std::basic_string<char,std::char_traits<char>,std::allocator<char> > *>
PUBLIC	??$unchecked_copy@PAV?$basic_string@DU?$char_traits@D@std@@V?$allocator@D@2@@std@@PAV12@@stdext@@YAPAV?$basic_string@DU?$char_traits@D@std@@V?$allocator@D@2@@std@@PAV12@00@Z ; stdext::unchecked_copy<std::basic_string<char,std::char_traits<char>,std::allocator<char> > *,std::basic_string<char,std::char_traits<char>,std::allocator<char> > *>
PUBLIC	?_Same_container@_Iterator_base_aux@std@@QBE_NABV12@@Z ; std::_Iterator_base_aux::_Same_container
PUBLIC	?_Has_container@_Iterator_base_aux@std@@QBE_NXZ	; std::_Iterator_base_aux::_Has_container
PUBLIC	??8?$_Vector_const_iterator@V?$basic_string@DU?$char_traits@D@std@@V?$allocator@D@2@@std@@V?$allocator@V?$basic_string@DU?$char_traits@D@std@@V?$allocator@D@2@@std@@@2@@std@@QBE_NABV01@@Z ; std::_Vector_const_iterator<std::basic_string<char,std::char_traits<char>,std::allocator<char> >,std::allocator<std::basic_string<char,std::char_traits<char>,std::allocator<char> > > >::operator==
PUBLIC	??9?$_Vector_const_iterator@V?$basic_string@DU?$char_traits@D@std@@V?$allocator@D@2@@std@@V?$allocator@V?$basic_string@DU?$char_traits@D@std@@V?$allocator@D@2@@std@@@2@@std@@QBE_NABV01@@Z ; std::_Vector_const_iterator<std::basic_string<char,std::char_traits<char>,std::allocator<char> >,std::allocator<std::basic_string<char,std::char_traits<char>,std::allocator<char> > > >::operator!=
PUBLIC	?erase@?$vector@V?$basic_string@DU?$char_traits@D@std@@V?$allocator@D@2@@std@@V?$allocator@V?$basic_string@DU?$char_traits@D@std@@V?$allocator@D@2@@std@@@2@@std@@QAE?AV?$_Vector_iterator@V?$basic_string@DU?$char_traits@D@std@@V?$allocator@D@2@@std@@V?$allocator@V?$basic_string@DU?$char_traits@D@std@@V?$allocator@D@2@@std@@@2@@2@V?$_Vector_const_iterator@V?$basic_string@DU?$char_traits@D@std@@V?$allocator@D@2@@std@@V?$allocator@V?$basic_string@DU?$char_traits@D@std@@V?$allocator@D@2@@std@@@2@@2@0@Z ; std::vector<std::basic_string<char,std::char_traits<char>,std::allocator<char> >,std::allocator<std::basic_string<char,std::char_traits<char>,std::allocator<char> > > >::erase
PUBLIC	?clear@?$vector@V?$basic_string@DU?$char_traits@D@std@@V?$allocator@D@2@@std@@V?$allocator@V?$basic_string@DU?$char_traits@D@std@@V?$allocator@D@2@@std@@@2@@std@@QAEXXZ ; std::vector<std::basic_string<char,std::char_traits<char>,std::allocator<char> >,std::allocator<std::basic_string<char,std::char_traits<char>,std::allocator<char> > > >::clear
PUBLIC	?one@Thank_you@Define_the_symbol__ATL_MIXED@@UAEXXZ ; Define_the_symbol__ATL_MIXED::Thank_you::one
PUBLIC	??0Thank_you@Define_the_symbol__ATL_MIXED@@QAE@XZ ; Define_the_symbol__ATL_MIXED::Thank_you::Thank_you
PUBLIC	?_Value@?$_Is_swap_move@U_Swap_move_tag@std@@@std@@2_NB ; std::_Is_swap_move<std::_Swap_move_tag>::_Value
PUBLIC	??_R0?AVexception@std@@@8			; std::exception `RTTI Type Descriptor'
PUBLIC	__CT??_R0?AVexception@std@@@8??0exception@std@@QAE@ABV01@@Z12
PUBLIC	?collate@?$_Locbase@H@std@@2HB			; std::_Locbase<int>::collate
PUBLIC	?ctype@?$_Locbase@H@std@@2HB			; std::_Locbase<int>::ctype
PUBLIC	?monetary@?$_Locbase@H@std@@2HB			; std::_Locbase<int>::monetary
PUBLIC	?numeric@?$_Locbase@H@std@@2HB			; std::_Locbase<int>::numeric
PUBLIC	?time@?$_Locbase@H@std@@2HB			; std::_Locbase<int>::time
PUBLIC	?messages@?$_Locbase@H@std@@2HB			; std::_Locbase<int>::messages
PUBLIC	?all@?$_Locbase@H@std@@2HB			; std::_Locbase<int>::all
PUBLIC	?none@?$_Locbase@H@std@@2HB			; std::_Locbase<int>::none
PUBLIC	??_R0?AVlogic_error@std@@@8			; std::logic_error `RTTI Type Descriptor'
PUBLIC	__CT??_R0?AVlogic_error@std@@@8??0logic_error@std@@QAE@ABV01@@Z40
PUBLIC	?table_size@?$ctype@D@std@@2IB			; std::ctype<char>::table_size
PUBLIC	?skipws@?$_Iosb@H@std@@2W4_Fmtflags@12@B	; std::_Iosb<int>::skipws
PUBLIC	?unitbuf@?$_Iosb@H@std@@2W4_Fmtflags@12@B	; std::_Iosb<int>::unitbuf
PUBLIC	?uppercase@?$_Iosb@H@std@@2W4_Fmtflags@12@B	; std::_Iosb<int>::uppercase
PUBLIC	?showbase@?$_Iosb@H@std@@2W4_Fmtflags@12@B	; std::_Iosb<int>::showbase
PUBLIC	?showpoint@?$_Iosb@H@std@@2W4_Fmtflags@12@B	; std::_Iosb<int>::showpoint
PUBLIC	?showpos@?$_Iosb@H@std@@2W4_Fmtflags@12@B	; std::_Iosb<int>::showpos
PUBLIC	?left@?$_Iosb@H@std@@2W4_Fmtflags@12@B		; std::_Iosb<int>::left
PUBLIC	?right@?$_Iosb@H@std@@2W4_Fmtflags@12@B		; std::_Iosb<int>::right
PUBLIC	?internal@?$_Iosb@H@std@@2W4_Fmtflags@12@B	; std::_Iosb<int>::internal
PUBLIC	?dec@?$_Iosb@H@std@@2W4_Fmtflags@12@B		; std::_Iosb<int>::dec
PUBLIC	?oct@?$_Iosb@H@std@@2W4_Fmtflags@12@B		; std::_Iosb<int>::oct
PUBLIC	?hex@?$_Iosb@H@std@@2W4_Fmtflags@12@B		; std::_Iosb<int>::hex
PUBLIC	?scientific@?$_Iosb@H@std@@2W4_Fmtflags@12@B	; std::_Iosb<int>::scientific
PUBLIC	?fixed@?$_Iosb@H@std@@2W4_Fmtflags@12@B		; std::_Iosb<int>::fixed
PUBLIC	?hexfloat@?$_Iosb@H@std@@2W4_Fmtflags@12@B	; std::_Iosb<int>::hexfloat
PUBLIC	?boolalpha@?$_Iosb@H@std@@2W4_Fmtflags@12@B	; std::_Iosb<int>::boolalpha
PUBLIC	?_Stdio@?$_Iosb@H@std@@2W4_Fmtflags@12@B	; std::_Iosb<int>::_Stdio
PUBLIC	?adjustfield@?$_Iosb@H@std@@2W4_Fmtflags@12@B	; std::_Iosb<int>::adjustfield
PUBLIC	?basefield@?$_Iosb@H@std@@2W4_Fmtflags@12@B	; std::_Iosb<int>::basefield
PUBLIC	?floatfield@?$_Iosb@H@std@@2W4_Fmtflags@12@B	; std::_Iosb<int>::floatfield
PUBLIC	?goodbit@?$_Iosb@H@std@@2W4_Iostate@12@B	; std::_Iosb<int>::goodbit
PUBLIC	?eofbit@?$_Iosb@H@std@@2W4_Iostate@12@B		; std::_Iosb<int>::eofbit
PUBLIC	?failbit@?$_Iosb@H@std@@2W4_Iostate@12@B	; std::_Iosb<int>::failbit
PUBLIC	?badbit@?$_Iosb@H@std@@2W4_Iostate@12@B		; std::_Iosb<int>::badbit
PUBLIC	?_Hardfail@?$_Iosb@H@std@@2W4_Iostate@12@B	; std::_Iosb<int>::_Hardfail
PUBLIC	?in@?$_Iosb@H@std@@2W4_Openmode@12@B		; std::_Iosb<int>::in
PUBLIC	?out@?$_Iosb@H@std@@2W4_Openmode@12@B		; std::_Iosb<int>::out
PUBLIC	?ate@?$_Iosb@H@std@@2W4_Openmode@12@B		; std::_Iosb<int>::ate
PUBLIC	?app@?$_Iosb@H@std@@2W4_Openmode@12@B		; std::_Iosb<int>::app
PUBLIC	?trunc@?$_Iosb@H@std@@2W4_Openmode@12@B		; std::_Iosb<int>::trunc
PUBLIC	?_Nocreate@?$_Iosb@H@std@@2W4_Openmode@12@B	; std::_Iosb<int>::_Nocreate
PUBLIC	?_Noreplace@?$_Iosb@H@std@@2W4_Openmode@12@B	; std::_Iosb<int>::_Noreplace
PUBLIC	?binary@?$_Iosb@H@std@@2W4_Openmode@12@B	; std::_Iosb<int>::binary
PUBLIC	?beg@?$_Iosb@H@std@@2W4_Seekdir@12@B		; std::_Iosb<int>::beg
PUBLIC	?cur@?$_Iosb@H@std@@2W4_Seekdir@12@B		; std::_Iosb<int>::cur
PUBLIC	?end@?$_Iosb@H@std@@2W4_Seekdir@12@B		; std::_Iosb<int>::end
PUBLIC	_GUID_DEVINTERFACE_USB_HUB
PUBLIC	_GUID_DEVINTERFACE_USB_DEVICE
PUBLIC	___pobjMapEntryFirst
PUBLIC	___pobjMapEntryLast
PUBLIC	??_C@_05GIBEAPNE@CLSID?$AA@			; `string'
PUBLIC	??_C@_05PDIKPLII@AppID?$AA@			; `string'
PUBLIC	?rgszNeverDelete@CRegParser@ATL@@1QBQBDB	; ATL::CRegParser::rgszNeverDelete
PUBLIC	??_C@_0BK@KHJJMKHH@?9?9?5MonIPs?4OnChng?0?5?$CFX?5?$CF?42X?$AA@ ; `string'
PUBLIC	??_C@_0P@DNHLOBGB@?$DO?$DO?5MonIPs?4Init?$AA@	; `string'
PUBLIC	??_C@_0BM@LPPKJDAO@?$DM?$DM?5MonIPs?4Init?0?5Sync?5Obj?5?$CFu?$AA@ ; `string'
PUBLIC	??_C@_0BM@EDMNPOCE@?$DM?$DM?5MonIPs?4Init?0?5CreateEv?5?$CFu?$AA@ ; `string'
PUBLIC	??_C@_0CF@HDGCLEAK@?$DM?$DM?5MonIPs?4Init?0?5RegWaitForSnglOb@ ; `string'
PUBLIC	??_C@_0CA@EENNBNBM@?$DM?$DM?5MonIPs?4Init?0?5Ev?5?$CFX?0?5ret?5True?$AA@ ; `string'
PUBLIC	??_C@_0BF@PFFODCIL@?$DO?$DO?5MonIPs?4ChkIPAddrs?$AA@ ; `string'
PUBLIC	??_C@_0DL@DAAGENEF@Addr?5?$CFu?0?5Idx?5?$CFu?0?5Mask?5?$CFu?0?5BCastA@ ; `string'
PUBLIC	??_C@_08BKNGEFGB@Primary?4?$AA@			; `string'
PUBLIC	??_C@_08FHKMKPIG@Dynamic?4?$AA@			; `string'
PUBLIC	??_C@_0O@HGEAPED@Disconnected?4?$AA@		; `string'
PUBLIC	??_C@_08FCNPIEBD@Deleted?4?$AA@			; `string'
PUBLIC	??_C@_0L@HFLHPH@Transient?4?$AA@		; `string'
PUBLIC	??_C@_0BC@PFKLNNIM@Published?5in?5DNS?4?$AA@	; `string'
PUBLIC	??_C@_0BF@NLFEEFHK@?$DM?$DM?5MonIPs?4ChkIPAddrs?$AA@ ; `string'
PUBLIC	??_C@_0BD@OLBABOEK@vector?$DMT?$DO?5too?5long?$AA@ ; `string'
PUBLIC	??_R0?AVlength_error@std@@@8			; std::length_error `RTTI Type Descriptor'
PUBLIC	__CT??_R0?AVlength_error@std@@@8??0length_error@std@@QAE@ABV01@@Z40
PUBLIC	__CTA3?AVlength_error@std@@
PUBLIC	__TI3?AVlength_error@std@@
PUBLIC	?npos@?$basic_string@DU?$char_traits@D@std@@V?$allocator@D@2@@std@@2IB ; std::basic_string<char,std::char_traits<char>,std::allocator<char> >::npos
PUBLIC	??_R0?AVbad_alloc@std@@@8			; std::bad_alloc `RTTI Type Descriptor'
PUBLIC	__CT??_R0?AVbad_alloc@std@@@8??0bad_alloc@std@@QAE@ABV01@@Z12
PUBLIC	__CTA2?AVbad_alloc@std@@
PUBLIC	__TI2?AVbad_alloc@std@@
PUBLIC	??_7bad_alloc@std@@6B@				; std::bad_alloc::`vftable'
PUBLIC	??_7logic_error@std@@6B@			; std::logic_error::`vftable'
PUBLIC	??_7length_error@std@@6B@			; std::length_error::`vftable'
PUBLIC	??_7Thank_you@Define_the_symbol__ATL_MIXED@@6B@	; Define_the_symbol__ATL_MIXED::Thank_you::`vftable'
EXTRN	@__security_check_cookie@4:PROC
EXTRN	__imp__GetLastError@0:PROC
EXTRN	__imp__CreateMutexA@12:PROC
EXTRN	__imp__CreateEventA@16:PROC
EXTRN	__imp__RegisterWaitForSingleObject@24:PROC
EXTRN	__imp__LocalAlloc@8:PROC
EXTRN	__imp__LocalFree@4:PROC
EXTRN	__imp__ReleaseMutex@4:PROC
EXTRN	__imp__WaitForSingleObject@8:PROC
EXTRN	__snprintf:PROC
EXTRN	_GetIpAddrTable@12:PROC
EXTRN	_NotifyAddrChange@8:PROC
EXTRN	??0exception@std@@QAE@XZ:PROC			; std::exception::exception
EXTRN	??_Elogic_error@std@@UAEPAXI@Z:PROC		; std::logic_error::`vector deleting destructor'
EXTRN	??_Elength_error@std@@UAEPAXI@Z:PROC		; std::length_error::`vector deleting destructor'
EXTRN	?_Xran@_String_base@std@@SAXXZ:PROC		; std::_String_base::_Xran
EXTRN	_memmove_s:PROC
EXTRN	?_Xlen@_String_base@std@@SAXXZ:PROC		; std::_String_base::_Xlen
EXTRN	??2@YAPAXI@Z:PROC				; operator new
EXTRN	??0exception@std@@QAE@ABQBD@Z:PROC		; std::exception::exception
EXTRN	??0exception@std@@QAE@ABV01@@Z:PROC		; std::exception::exception
EXTRN	?what@exception@std@@UBEPBDXZ:PROC		; std::exception::what
EXTRN	??1exception@std@@UAE@XZ:PROC			; std::exception::~exception
EXTRN	??_Ebad_alloc@std@@UAEPAXI@Z:PROC		; std::bad_alloc::`vector deleting destructor'
EXTRN	??3@YAXPAX@Z:PROC				; operator delete
EXTRN	_memcpy_s:PROC
EXTRN	__invalid_parameter_noinfo:PROC
EXTRN	??_7type_info@@6B@:QWORD			; type_info::`vftable'
;	COMDAT ??_7Thank_you@Define_the_symbol__ATL_MIXED@@6B@
CONST	SEGMENT
??_7Thank_you@Define_the_symbol__ATL_MIXED@@6B@ DD FLAT:??_R4Thank_you@Define_the_symbol__ATL_MIXED@@6B@ ; Define_the_symbol__ATL_MIXED::Thank_you::`vftable'
	DD	FLAT:?one@Thank_you@Define_the_symbol__ATL_MIXED@@UAEXXZ
CONST	ENDS
;	COMDAT ??_R4Thank_you@Define_the_symbol__ATL_MIXED@@6B@
rdata$r	SEGMENT
??_R4Thank_you@Define_the_symbol__ATL_MIXED@@6B@ DD 00H	; Define_the_symbol__ATL_MIXED::Thank_you::`RTTI Complete Object Locator'
	DD	00H
	DD	00H
	DD	FLAT:??_R0?AUThank_you@Define_the_symbol__ATL_MIXED@@@8
	DD	FLAT:??_R3Thank_you@Define_the_symbol__ATL_MIXED@@8
rdata$r	ENDS
;	COMDAT ??_R3Thank_you@Define_the_symbol__ATL_MIXED@@8
rdata$r	SEGMENT
??_R3Thank_you@Define_the_symbol__ATL_MIXED@@8 DD 00H	; Define_the_symbol__ATL_MIXED::Thank_you::`RTTI Class Hierarchy Descriptor'
	DD	00H
	DD	01H
	DD	FLAT:??_R2Thank_you@Define_the_symbol__ATL_MIXED@@8
rdata$r	ENDS
;	COMDAT ??_R2Thank_you@Define_the_symbol__ATL_MIXED@@8
rdata$r	SEGMENT
??_R2Thank_you@Define_the_symbol__ATL_MIXED@@8 DD FLAT:??_R1A@?0A@EA@Thank_you@Define_the_symbol__ATL_MIXED@@8 ; Define_the_symbol__ATL_MIXED::Thank_you::`RTTI Base Class Array'
rdata$r	ENDS
;	COMDAT ??_R1A@?0A@EA@Thank_you@Define_the_symbol__ATL_MIXED@@8
rdata$r	SEGMENT
??_R1A@?0A@EA@Thank_you@Define_the_symbol__ATL_MIXED@@8 DD FLAT:??_R0?AUThank_you@Define_the_symbol__ATL_MIXED@@@8 ; Define_the_symbol__ATL_MIXED::Thank_you::`RTTI Base Class Descriptor at (0,-1,0,64)'
	DD	00H
	DD	00H
	DD	0ffffffffH
	DD	00H
	DD	040H
	DD	FLAT:??_R3Thank_you@Define_the_symbol__ATL_MIXED@@8
rdata$r	ENDS
;	COMDAT ??_R0?AUThank_you@Define_the_symbol__ATL_MIXED@@@8
_DATA	SEGMENT
??_R0?AUThank_you@Define_the_symbol__ATL_MIXED@@@8 DD FLAT:??_7type_info@@6B@ ; Define_the_symbol__ATL_MIXED::Thank_you `RTTI Type Descriptor'
	DD	00H
	DB	'.?AUThank_you@Define_the_symbol__ATL_MIXED@@', 00H
_DATA	ENDS
;	COMDAT ??_7length_error@std@@6B@
CONST	SEGMENT
??_7length_error@std@@6B@ DD FLAT:??_R4length_error@std@@6B@ ; std::length_error::`vftable'
	DD	FLAT:??_Elength_error@std@@UAEPAXI@Z
	DD	FLAT:?what@logic_error@std@@UBEPBDXZ
CONST	ENDS
;	COMDAT ??_R4length_error@std@@6B@
rdata$r	SEGMENT
??_R4length_error@std@@6B@ DD 00H			; std::length_error::`RTTI Complete Object Locator'
	DD	00H
	DD	00H
	DD	FLAT:??_R0?AVlength_error@std@@@8
	DD	FLAT:??_R3length_error@std@@8
rdata$r	ENDS
;	COMDAT ??_R3length_error@std@@8
rdata$r	SEGMENT
??_R3length_error@std@@8 DD 00H				; std::length_error::`RTTI Class Hierarchy Descriptor'
	DD	00H
	DD	03H
	DD	FLAT:??_R2length_error@std@@8
rdata$r	ENDS
;	COMDAT ??_R2length_error@std@@8
rdata$r	SEGMENT
??_R2length_error@std@@8 DD FLAT:??_R1A@?0A@EA@length_error@std@@8 ; std::length_error::`RTTI Base Class Array'
	DD	FLAT:??_R1A@?0A@EA@logic_error@std@@8
	DD	FLAT:??_R1A@?0A@EA@exception@std@@8
rdata$r	ENDS
;	COMDAT ??_R1A@?0A@EA@length_error@std@@8
rdata$r	SEGMENT
??_R1A@?0A@EA@length_error@std@@8 DD FLAT:??_R0?AVlength_error@std@@@8 ; std::length_error::`RTTI Base Class Descriptor at (0,-1,0,64)'
	DD	02H
	DD	00H
	DD	0ffffffffH
	DD	00H
	DD	040H
	DD	FLAT:??_R3length_error@std@@8
rdata$r	ENDS
;	COMDAT ??_7logic_error@std@@6B@
CONST	SEGMENT
??_7logic_error@std@@6B@ DD FLAT:??_R4logic_error@std@@6B@ ; std::logic_error::`vftable'
	DD	FLAT:??_Elogic_error@std@@UAEPAXI@Z
	DD	FLAT:?what@logic_error@std@@UBEPBDXZ
CONST	ENDS
;	COMDAT ??_R4logic_error@std@@6B@
rdata$r	SEGMENT
??_R4logic_error@std@@6B@ DD 00H			; std::logic_error::`RTTI Complete Object Locator'
	DD	00H
	DD	00H
	DD	FLAT:??_R0?AVlogic_error@std@@@8
	DD	FLAT:??_R3logic_error@std@@8
rdata$r	ENDS
;	COMDAT ??_R3logic_error@std@@8
rdata$r	SEGMENT
??_R3logic_error@std@@8 DD 00H				; std::logic_error::`RTTI Class Hierarchy Descriptor'
	DD	00H
	DD	02H
	DD	FLAT:??_R2logic_error@std@@8
rdata$r	ENDS
;	COMDAT ??_R2logic_error@std@@8
rdata$r	SEGMENT
??_R2logic_error@std@@8 DD FLAT:??_R1A@?0A@EA@logic_error@std@@8 ; std::logic_error::`RTTI Base Class Array'
	DD	FLAT:??_R1A@?0A@EA@exception@std@@8
rdata$r	ENDS
;	COMDAT ??_R1A@?0A@EA@logic_error@std@@8
rdata$r	SEGMENT
??_R1A@?0A@EA@logic_error@std@@8 DD FLAT:??_R0?AVlogic_error@std@@@8 ; std::logic_error::`RTTI Base Class Descriptor at (0,-1,0,64)'
	DD	01H
	DD	00H
	DD	0ffffffffH
	DD	00H
	DD	040H
	DD	FLAT:??_R3logic_error@std@@8
rdata$r	ENDS
;	COMDAT ??_7bad_alloc@std@@6B@
CONST	SEGMENT
??_7bad_alloc@std@@6B@ DD FLAT:??_R4bad_alloc@std@@6B@	; std::bad_alloc::`vftable'
	DD	FLAT:??_Ebad_alloc@std@@UAEPAXI@Z
	DD	FLAT:?what@exception@std@@UBEPBDXZ
CONST	ENDS
;	COMDAT ??_R4bad_alloc@std@@6B@
rdata$r	SEGMENT
??_R4bad_alloc@std@@6B@ DD 00H				; std::bad_alloc::`RTTI Complete Object Locator'
	DD	00H
	DD	00H
	DD	FLAT:??_R0?AVbad_alloc@std@@@8
	DD	FLAT:??_R3bad_alloc@std@@8
rdata$r	ENDS
;	COMDAT ??_R3bad_alloc@std@@8
rdata$r	SEGMENT
??_R3bad_alloc@std@@8 DD 00H				; std::bad_alloc::`RTTI Class Hierarchy Descriptor'
	DD	00H
	DD	02H
	DD	FLAT:??_R2bad_alloc@std@@8
rdata$r	ENDS
;	COMDAT ??_R2bad_alloc@std@@8
rdata$r	SEGMENT
??_R2bad_alloc@std@@8 DD FLAT:??_R1A@?0A@EA@bad_alloc@std@@8 ; std::bad_alloc::`RTTI Base Class Array'
	DD	FLAT:??_R1A@?0A@EA@exception@std@@8
rdata$r	ENDS
;	COMDAT ??_R1A@?0A@EA@exception@std@@8
rdata$r	SEGMENT
??_R1A@?0A@EA@exception@std@@8 DD FLAT:??_R0?AVexception@std@@@8 ; std::exception::`RTTI Base Class Descriptor at (0,-1,0,64)'
	DD	00H
	DD	00H
	DD	0ffffffffH
	DD	00H
	DD	040H
	DD	FLAT:??_R3exception@std@@8
rdata$r	ENDS
;	COMDAT ??_R3exception@std@@8
rdata$r	SEGMENT
??_R3exception@std@@8 DD 00H				; std::exception::`RTTI Class Hierarchy Descriptor'
	DD	00H
	DD	01H
	DD	FLAT:??_R2exception@std@@8
rdata$r	ENDS
;	COMDAT ??_R2exception@std@@8
rdata$r	SEGMENT
??_R2exception@std@@8 DD FLAT:??_R1A@?0A@EA@exception@std@@8 ; std::exception::`RTTI Base Class Array'
rdata$r	ENDS
;	COMDAT ??_R1A@?0A@EA@bad_alloc@std@@8
rdata$r	SEGMENT
??_R1A@?0A@EA@bad_alloc@std@@8 DD FLAT:??_R0?AVbad_alloc@std@@@8 ; std::bad_alloc::`RTTI Base Class Descriptor at (0,-1,0,64)'
	DD	01H
	DD	00H
	DD	0ffffffffH
	DD	00H
	DD	040H
	DD	FLAT:??_R3bad_alloc@std@@8
rdata$r	ENDS
;	COMDAT __TI2?AVbad_alloc@std@@
xdata$x	SEGMENT
__TI2?AVbad_alloc@std@@ DD 00H
	DD	FLAT:??1bad_alloc@std@@UAE@XZ
	DD	00H
	DD	FLAT:__CTA2?AVbad_alloc@std@@
xdata$x	ENDS
;	COMDAT __CTA2?AVbad_alloc@std@@
xdata$x	SEGMENT
__CTA2?AVbad_alloc@std@@ DD 02H
	DD	FLAT:__CT??_R0?AVbad_alloc@std@@@8??0bad_alloc@std@@QAE@ABV01@@Z12
	DD	FLAT:__CT??_R0?AVexception@std@@@8??0exception@std@@QAE@ABV01@@Z12
xdata$x	ENDS
;	COMDAT __CT??_R0?AVbad_alloc@std@@@8??0bad_alloc@std@@QAE@ABV01@@Z12
xdata$x	SEGMENT
__CT??_R0?AVbad_alloc@std@@@8??0bad_alloc@std@@QAE@ABV01@@Z12 DD 00H
	DD	FLAT:??_R0?AVbad_alloc@std@@@8
	DD	00H
	DD	0ffffffffH
	ORG $+4
	DD	0cH
	DD	FLAT:??0bad_alloc@std@@QAE@ABV01@@Z
xdata$x	ENDS
;	COMDAT ??_R0?AVbad_alloc@std@@@8
_DATA	SEGMENT
??_R0?AVbad_alloc@std@@@8 DD FLAT:??_7type_info@@6B@	; std::bad_alloc `RTTI Type Descriptor'
	DD	00H
	DB	'.?AVbad_alloc@std@@', 00H
_DATA	ENDS
;	COMDAT ?npos@?$basic_string@DU?$char_traits@D@std@@V?$allocator@D@2@@std@@2IB
CONST	SEGMENT
?npos@?$basic_string@DU?$char_traits@D@std@@V?$allocator@D@2@@std@@2IB DD 0ffffffffH ; std::basic_string<char,std::char_traits<char>,std::allocator<char> >::npos
CONST	ENDS
;	COMDAT __TI3?AVlength_error@std@@
xdata$x	SEGMENT
__TI3?AVlength_error@std@@ DD 00H
	DD	FLAT:??1length_error@std@@UAE@XZ
	DD	00H
	DD	FLAT:__CTA3?AVlength_error@std@@
xdata$x	ENDS
;	COMDAT __CTA3?AVlength_error@std@@
xdata$x	SEGMENT
__CTA3?AVlength_error@std@@ DD 03H
	DD	FLAT:__CT??_R0?AVlength_error@std@@@8??0length_error@std@@QAE@ABV01@@Z40
	DD	FLAT:__CT??_R0?AVlogic_error@std@@@8??0logic_error@std@@QAE@ABV01@@Z40
	DD	FLAT:__CT??_R0?AVexception@std@@@8??0exception@std@@QAE@ABV01@@Z12
xdata$x	ENDS
;	COMDAT __CT??_R0?AVlength_error@std@@@8??0length_error@std@@QAE@ABV01@@Z40
xdata$x	SEGMENT
__CT??_R0?AVlength_error@std@@@8??0length_error@std@@QAE@ABV01@@Z40 DD 00H
	DD	FLAT:??_R0?AVlength_error@std@@@8
	DD	00H
	DD	0ffffffffH
	ORG $+4
	DD	028H
	DD	FLAT:??0length_error@std@@QAE@ABV01@@Z
xdata$x	ENDS
;	COMDAT ??_R0?AVlength_error@std@@@8
_DATA	SEGMENT
??_R0?AVlength_error@std@@@8 DD FLAT:??_7type_info@@6B@	; std::length_error `RTTI Type Descriptor'
	DD	00H
	DB	'.?AVlength_error@std@@', 00H
_DATA	ENDS
;	COMDAT ??_C@_0BD@OLBABOEK@vector?$DMT?$DO?5too?5long?$AA@
CONST	SEGMENT
??_C@_0BD@OLBABOEK@vector?$DMT?$DO?5too?5long?$AA@ DB 'vector<T> too long'
	DB	00H						; `string'
CONST	ENDS
;	COMDAT ??_C@_0BF@NLFEEFHK@?$DM?$DM?5MonIPs?4ChkIPAddrs?$AA@
CONST	SEGMENT
??_C@_0BF@NLFEEFHK@?$DM?$DM?5MonIPs?4ChkIPAddrs?$AA@ DB '<< MonIPs.ChkIPA'
	DB	'ddrs', 00H					; `string'
CONST	ENDS
;	COMDAT ??_C@_0BC@PFKLNNIM@Published?5in?5DNS?4?$AA@
CONST	SEGMENT
??_C@_0BC@PFKLNNIM@Published?5in?5DNS?4?$AA@ DB 'Published in DNS.', 00H ; `string'
CONST	ENDS
;	COMDAT ??_C@_0L@HFLHPH@Transient?4?$AA@
CONST	SEGMENT
??_C@_0L@HFLHPH@Transient?4?$AA@ DB 'Transient.', 00H	; `string'
CONST	ENDS
;	COMDAT ??_C@_08FCNPIEBD@Deleted?4?$AA@
CONST	SEGMENT
??_C@_08FCNPIEBD@Deleted?4?$AA@ DB 'Deleted.', 00H	; `string'
CONST	ENDS
;	COMDAT ??_C@_0O@HGEAPED@Disconnected?4?$AA@
CONST	SEGMENT
??_C@_0O@HGEAPED@Disconnected?4?$AA@ DB 'Disconnected.', 00H ; `string'
CONST	ENDS
;	COMDAT ??_C@_08FHKMKPIG@Dynamic?4?$AA@
CONST	SEGMENT
??_C@_08FHKMKPIG@Dynamic?4?$AA@ DB 'Dynamic.', 00H	; `string'
CONST	ENDS
;	COMDAT ??_C@_08BKNGEFGB@Primary?4?$AA@
CONST	SEGMENT
??_C@_08BKNGEFGB@Primary?4?$AA@ DB 'Primary.', 00H	; `string'
CONST	ENDS
;	COMDAT ??_C@_0DL@DAAGENEF@Addr?5?$CFu?0?5Idx?5?$CFu?0?5Mask?5?$CFu?0?5BCastA@
CONST	SEGMENT
??_C@_0DL@DAAGENEF@Addr?5?$CFu?0?5Idx?5?$CFu?0?5Mask?5?$CFu?0?5BCastA@ DB 'A'
	DB	'ddr %u, Idx %u, Mask %u, BCastAddr %u, ReasmSz %u, Tp %X.', 00H ; `string'
CONST	ENDS
;	COMDAT ??_C@_0BF@PFFODCIL@?$DO?$DO?5MonIPs?4ChkIPAddrs?$AA@
CONST	SEGMENT
??_C@_0BF@PFFODCIL@?$DO?$DO?5MonIPs?4ChkIPAddrs?$AA@ DB '>> MonIPs.ChkIPA'
	DB	'ddrs', 00H					; `string'
CONST	ENDS
;	COMDAT ??_C@_0CA@EENNBNBM@?$DM?$DM?5MonIPs?4Init?0?5Ev?5?$CFX?0?5ret?5True?$AA@
CONST	SEGMENT
??_C@_0CA@EENNBNBM@?$DM?$DM?5MonIPs?4Init?0?5Ev?5?$CFX?0?5ret?5True?$AA@ DB '<'
	DB	'< MonIPs.Init, Ev %X, ret True', 00H	; `string'
CONST	ENDS
;	COMDAT ??_C@_0CF@HDGCLEAK@?$DM?$DM?5MonIPs?4Init?0?5RegWaitForSnglOb@
CONST	SEGMENT
??_C@_0CF@HDGCLEAK@?$DM?$DM?5MonIPs?4Init?0?5RegWaitForSnglOb@ DB '<< Mon'
	DB	'IPs.Init, RegWaitForSnglObj %u', 00H	; `string'
CONST	ENDS
;	COMDAT ??_C@_0BM@EDMNPOCE@?$DM?$DM?5MonIPs?4Init?0?5CreateEv?5?$CFu?$AA@
CONST	SEGMENT
??_C@_0BM@EDMNPOCE@?$DM?$DM?5MonIPs?4Init?0?5CreateEv?5?$CFu?$AA@ DB '<< '
	DB	'MonIPs.Init, CreateEv %u', 00H		; `string'
CONST	ENDS
;	COMDAT ??_C@_0BM@LPPKJDAO@?$DM?$DM?5MonIPs?4Init?0?5Sync?5Obj?5?$CFu?$AA@
CONST	SEGMENT
??_C@_0BM@LPPKJDAO@?$DM?$DM?5MonIPs?4Init?0?5Sync?5Obj?5?$CFu?$AA@ DB '<<'
	DB	' MonIPs.Init, Sync Obj %u', 00H		; `string'
CONST	ENDS
;	COMDAT ??_C@_0P@DNHLOBGB@?$DO?$DO?5MonIPs?4Init?$AA@
CONST	SEGMENT
??_C@_0P@DNHLOBGB@?$DO?$DO?5MonIPs?4Init?$AA@ DB '>> MonIPs.Init', 00H ; `string'
CONST	ENDS
;	COMDAT ??_C@_0BK@KHJJMKHH@?9?9?5MonIPs?4OnChng?0?5?$CFX?5?$CF?42X?$AA@
CONST	SEGMENT
??_C@_0BK@KHJJMKHH@?9?9?5MonIPs?4OnChng?0?5?$CFX?5?$CF?42X?$AA@ DB '-- Mo'
	DB	'nIPs.OnChng, %X %.2X', 00H			; `string'
CONST	ENDS
;	COMDAT ?rgszNeverDelete@CRegParser@ATL@@1QBQBDB
CONST	SEGMENT
?rgszNeverDelete@CRegParser@ATL@@1QBQBDB DD FLAT:??_C@_05PDIKPLII@AppID?$AA@ ; ATL::CRegParser::rgszNeverDelete
	DD	FLAT:??_C@_05GIBEAPNE@CLSID?$AA@
	DD	FLAT:??_C@_0BF@HDDNNDFH@Component?5Categories?$AA@
	DD	FLAT:??_C@_08PICKODJL@FileType?$AA@
	DD	FLAT:??_C@_09JKPGEJCH@Interface?$AA@
	DD	FLAT:??_C@_08PPIOJEA@Hardware?$AA@
	DD	FLAT:??_C@_04IHBFOLAC@Mime?$AA@
	DD	FLAT:??_C@_03DDIMFGBA@SAM?$AA@
	DD	FLAT:??_C@_08LOPHEHKG@SECURITY?$AA@
	DD	FLAT:??_C@_06FDHFNJBJ@SYSTEM?$AA@
	DD	FLAT:??_C@_08KEKAJNJI@Software?$AA@
	DD	FLAT:??_C@_07KJLOKDKB@TypeLib?$AA@
CONST	ENDS
;	COMDAT ??_C@_07KJLOKDKB@TypeLib?$AA@
CONST	SEGMENT
??_C@_07KJLOKDKB@TypeLib?$AA@ DB 'TypeLib', 00H		; `string'
CONST	ENDS
;	COMDAT ??_C@_08KEKAJNJI@Software?$AA@
CONST	SEGMENT
??_C@_08KEKAJNJI@Software?$AA@ DB 'Software', 00H	; `string'
CONST	ENDS
;	COMDAT ??_C@_06FDHFNJBJ@SYSTEM?$AA@
CONST	SEGMENT
??_C@_06FDHFNJBJ@SYSTEM?$AA@ DB 'SYSTEM', 00H		; `string'
CONST	ENDS
;	COMDAT ??_C@_08LOPHEHKG@SECURITY?$AA@
CONST	SEGMENT
??_C@_08LOPHEHKG@SECURITY?$AA@ DB 'SECURITY', 00H	; `string'
CONST	ENDS
;	COMDAT ??_C@_03DDIMFGBA@SAM?$AA@
CONST	SEGMENT
??_C@_03DDIMFGBA@SAM?$AA@ DB 'SAM', 00H			; `string'
CONST	ENDS
;	COMDAT ??_C@_04IHBFOLAC@Mime?$AA@
CONST	SEGMENT
??_C@_04IHBFOLAC@Mime?$AA@ DB 'Mime', 00H		; `string'
CONST	ENDS
;	COMDAT ??_C@_08PPIOJEA@Hardware?$AA@
CONST	SEGMENT
??_C@_08PPIOJEA@Hardware?$AA@ DB 'Hardware', 00H	; `string'
CONST	ENDS
;	COMDAT ??_C@_09JKPGEJCH@Interface?$AA@
CONST	SEGMENT
??_C@_09JKPGEJCH@Interface?$AA@ DB 'Interface', 00H	; `string'
CONST	ENDS
;	COMDAT ??_C@_08PICKODJL@FileType?$AA@
CONST	SEGMENT
??_C@_08PICKODJL@FileType?$AA@ DB 'FileType', 00H	; `string'
CONST	ENDS
;	COMDAT ??_C@_0BF@HDDNNDFH@Component?5Categories?$AA@
CONST	SEGMENT
??_C@_0BF@HDDNNDFH@Component?5Categories?$AA@ DB 'Component Categories', 00H ; `string'
CONST	ENDS
;	COMDAT ??_C@_06JBKGCNBB@Delete?$AA@
CONST	SEGMENT
??_C@_06JBKGCNBB@Delete?$AA@ DB 'Delete', 00H		; `string'
CONST	ENDS
;	COMDAT ??_C@_08KAAPDIAN@NoRemove?$AA@
CONST	SEGMENT
??_C@_08KAAPDIAN@NoRemove?$AA@ DB 'NoRemove', 00H	; `string'
CONST	ENDS
;	COMDAT ??_C@_0M@DBGDLGLL@ForceRemove?$AA@
CONST	SEGMENT
??_C@_0M@DBGDLGLL@ForceRemove?$AA@ DB 'ForceRemove', 00H ; `string'
CONST	ENDS
;	COMDAT ??_C@_03LAIAPFCB@Val?$AA@
CONST	SEGMENT
??_C@_03LAIAPFCB@Val?$AA@ DB 'Val', 00H			; `string'
CONST	ENDS
;	COMDAT ??_C@_01HMGJMAIH@B?$AA@
CONST	SEGMENT
??_C@_01HMGJMAIH@B?$AA@ DB 'B', 00H			; `string'
CONST	ENDS
;	COMDAT ??_C@_01CKDDGHAB@D?$AA@
CONST	SEGMENT
??_C@_01CKDDGHAB@D?$AA@ DB 'D', 00H			; `string'
CONST	ENDS
;	COMDAT ??_C@_01PLPBNMEI@M?$AA@
CONST	SEGMENT
??_C@_01PLPBNMEI@M?$AA@ DB 'M', 00H			; `string'
CONST	ENDS
;	COMDAT ??_C@_01CPLAODJH@S?$AA@
CONST	SEGMENT
??_C@_01CPLAODJH@S?$AA@ DB 'S', 00H			; `string'
CONST	ENDS
;	COMDAT ??_C@_05PDIKPLII@AppID?$AA@
CONST	SEGMENT
??_C@_05PDIKPLII@AppID?$AA@ DB 'AppID', 00H		; `string'
CONST	ENDS
;	COMDAT ??_C@_05GIBEAPNE@CLSID?$AA@
CONST	SEGMENT
??_C@_05GIBEAPNE@CLSID?$AA@ DB 'CLSID', 00H		; `string'
CONST	ENDS
;	COMDAT ___pobjMapEntryLast
ATL$__z	SEGMENT
___pobjMapEntryLast DD 00H
ATL$__z	ENDS
;	COMDAT ___pobjMapEntryFirst
ATL$__a	SEGMENT
___pobjMapEntryFirst DD 00H
ATL$__a	ENDS
;	COMDAT _GUID_DEVINTERFACE_USB_DEVICE
CONST	SEGMENT
_GUID_DEVINTERFACE_USB_DEVICE DD 0a5dcbf10H
	DW	06530H
	DW	011d2H
	DB	090H
	DB	01fH
	DB	00H
	DB	0c0H
	DB	04fH
	DB	0b9H
	DB	051H
	DB	0edH
CONST	ENDS
;	COMDAT _GUID_DEVINTERFACE_USB_HUB
CONST	SEGMENT
_GUID_DEVINTERFACE_USB_HUB DD 0f18a0e88H
	DW	0c30cH
	DW	011d0H
	DB	088H
	DB	015H
	DB	00H
	DB	0a0H
	DB	0c9H
	DB	06H
	DB	0beH
	DB	0d8H
CONST	ENDS
;	COMDAT ?end@?$_Iosb@H@std@@2W4_Seekdir@12@B
CONST	SEGMENT
?end@?$_Iosb@H@std@@2W4_Seekdir@12@B DD 02H		; std::_Iosb<int>::end
CONST	ENDS
;	COMDAT ?cur@?$_Iosb@H@std@@2W4_Seekdir@12@B
CONST	SEGMENT
?cur@?$_Iosb@H@std@@2W4_Seekdir@12@B DD 01H		; std::_Iosb<int>::cur
CONST	ENDS
;	COMDAT ?beg@?$_Iosb@H@std@@2W4_Seekdir@12@B
CONST	SEGMENT
?beg@?$_Iosb@H@std@@2W4_Seekdir@12@B DD 00H		; std::_Iosb<int>::beg
CONST	ENDS
;	COMDAT ?binary@?$_Iosb@H@std@@2W4_Openmode@12@B
CONST	SEGMENT
?binary@?$_Iosb@H@std@@2W4_Openmode@12@B DD 020H	; std::_Iosb<int>::binary
CONST	ENDS
;	COMDAT ?_Noreplace@?$_Iosb@H@std@@2W4_Openmode@12@B
CONST	SEGMENT
?_Noreplace@?$_Iosb@H@std@@2W4_Openmode@12@B DD 080H	; std::_Iosb<int>::_Noreplace
CONST	ENDS
;	COMDAT ?_Nocreate@?$_Iosb@H@std@@2W4_Openmode@12@B
CONST	SEGMENT
?_Nocreate@?$_Iosb@H@std@@2W4_Openmode@12@B DD 040H	; std::_Iosb<int>::_Nocreate
CONST	ENDS
;	COMDAT ?trunc@?$_Iosb@H@std@@2W4_Openmode@12@B
CONST	SEGMENT
?trunc@?$_Iosb@H@std@@2W4_Openmode@12@B DD 010H		; std::_Iosb<int>::trunc
CONST	ENDS
;	COMDAT ?app@?$_Iosb@H@std@@2W4_Openmode@12@B
CONST	SEGMENT
?app@?$_Iosb@H@std@@2W4_Openmode@12@B DD 08H		; std::_Iosb<int>::app
CONST	ENDS
;	COMDAT ?ate@?$_Iosb@H@std@@2W4_Openmode@12@B
CONST	SEGMENT
?ate@?$_Iosb@H@std@@2W4_Openmode@12@B DD 04H		; std::_Iosb<int>::ate
CONST	ENDS
;	COMDAT ?out@?$_Iosb@H@std@@2W4_Openmode@12@B
CONST	SEGMENT
?out@?$_Iosb@H@std@@2W4_Openmode@12@B DD 02H		; std::_Iosb<int>::out
CONST	ENDS
;	COMDAT ?in@?$_Iosb@H@std@@2W4_Openmode@12@B
CONST	SEGMENT
?in@?$_Iosb@H@std@@2W4_Openmode@12@B DD 01H		; std::_Iosb<int>::in
CONST	ENDS
;	COMDAT ?_Hardfail@?$_Iosb@H@std@@2W4_Iostate@12@B
CONST	SEGMENT
?_Hardfail@?$_Iosb@H@std@@2W4_Iostate@12@B DD 010H	; std::_Iosb<int>::_Hardfail
CONST	ENDS
;	COMDAT ?badbit@?$_Iosb@H@std@@2W4_Iostate@12@B
CONST	SEGMENT
?badbit@?$_Iosb@H@std@@2W4_Iostate@12@B DD 04H		; std::_Iosb<int>::badbit
CONST	ENDS
;	COMDAT ?failbit@?$_Iosb@H@std@@2W4_Iostate@12@B
CONST	SEGMENT
?failbit@?$_Iosb@H@std@@2W4_Iostate@12@B DD 02H		; std::_Iosb<int>::failbit
CONST	ENDS
;	COMDAT ?eofbit@?$_Iosb@H@std@@2W4_Iostate@12@B
CONST	SEGMENT
?eofbit@?$_Iosb@H@std@@2W4_Iostate@12@B DD 01H		; std::_Iosb<int>::eofbit
CONST	ENDS
;	COMDAT ?goodbit@?$_Iosb@H@std@@2W4_Iostate@12@B
CONST	SEGMENT
?goodbit@?$_Iosb@H@std@@2W4_Iostate@12@B DD 00H		; std::_Iosb<int>::goodbit
CONST	ENDS
;	COMDAT ?floatfield@?$_Iosb@H@std@@2W4_Fmtflags@12@B
CONST	SEGMENT
?floatfield@?$_Iosb@H@std@@2W4_Fmtflags@12@B DD 03000H	; std::_Iosb<int>::floatfield
CONST	ENDS
;	COMDAT ?basefield@?$_Iosb@H@std@@2W4_Fmtflags@12@B
CONST	SEGMENT
?basefield@?$_Iosb@H@std@@2W4_Fmtflags@12@B DD 0e00H	; std::_Iosb<int>::basefield
CONST	ENDS
;	COMDAT ?adjustfield@?$_Iosb@H@std@@2W4_Fmtflags@12@B
CONST	SEGMENT
?adjustfield@?$_Iosb@H@std@@2W4_Fmtflags@12@B DD 01c0H	; std::_Iosb<int>::adjustfield
CONST	ENDS
;	COMDAT ?_Stdio@?$_Iosb@H@std@@2W4_Fmtflags@12@B
CONST	SEGMENT
?_Stdio@?$_Iosb@H@std@@2W4_Fmtflags@12@B DD 08000H	; std::_Iosb<int>::_Stdio
CONST	ENDS
;	COMDAT ?boolalpha@?$_Iosb@H@std@@2W4_Fmtflags@12@B
CONST	SEGMENT
?boolalpha@?$_Iosb@H@std@@2W4_Fmtflags@12@B DD 04000H	; std::_Iosb<int>::boolalpha
CONST	ENDS
;	COMDAT ?hexfloat@?$_Iosb@H@std@@2W4_Fmtflags@12@B
CONST	SEGMENT
?hexfloat@?$_Iosb@H@std@@2W4_Fmtflags@12@B DD 03000H	; std::_Iosb<int>::hexfloat
CONST	ENDS
;	COMDAT ?fixed@?$_Iosb@H@std@@2W4_Fmtflags@12@B
CONST	SEGMENT
?fixed@?$_Iosb@H@std@@2W4_Fmtflags@12@B DD 02000H	; std::_Iosb<int>::fixed
CONST	ENDS
;	COMDAT ?scientific@?$_Iosb@H@std@@2W4_Fmtflags@12@B
CONST	SEGMENT
?scientific@?$_Iosb@H@std@@2W4_Fmtflags@12@B DD 01000H	; std::_Iosb<int>::scientific
CONST	ENDS
;	COMDAT ?hex@?$_Iosb@H@std@@2W4_Fmtflags@12@B
CONST	SEGMENT
?hex@?$_Iosb@H@std@@2W4_Fmtflags@12@B DD 0800H		; std::_Iosb<int>::hex
CONST	ENDS
;	COMDAT ?oct@?$_Iosb@H@std@@2W4_Fmtflags@12@B
CONST	SEGMENT
?oct@?$_Iosb@H@std@@2W4_Fmtflags@12@B DD 0400H		; std::_Iosb<int>::oct
CONST	ENDS
;	COMDAT ?dec@?$_Iosb@H@std@@2W4_Fmtflags@12@B
CONST	SEGMENT
?dec@?$_Iosb@H@std@@2W4_Fmtflags@12@B DD 0200H		; std::_Iosb<int>::dec
CONST	ENDS
;	COMDAT ?internal@?$_Iosb@H@std@@2W4_Fmtflags@12@B
CONST	SEGMENT
?internal@?$_Iosb@H@std@@2W4_Fmtflags@12@B DD 0100H	; std::_Iosb<int>::internal
CONST	ENDS
;	COMDAT ?right@?$_Iosb@H@std@@2W4_Fmtflags@12@B
CONST	SEGMENT
?right@?$_Iosb@H@std@@2W4_Fmtflags@12@B DD 080H		; std::_Iosb<int>::right
CONST	ENDS
;	COMDAT ?left@?$_Iosb@H@std@@2W4_Fmtflags@12@B
CONST	SEGMENT
?left@?$_Iosb@H@std@@2W4_Fmtflags@12@B DD 040H		; std::_Iosb<int>::left
CONST	ENDS
;	COMDAT ?showpos@?$_Iosb@H@std@@2W4_Fmtflags@12@B
CONST	SEGMENT
?showpos@?$_Iosb@H@std@@2W4_Fmtflags@12@B DD 020H	; std::_Iosb<int>::showpos
CONST	ENDS
;	COMDAT ?showpoint@?$_Iosb@H@std@@2W4_Fmtflags@12@B
CONST	SEGMENT
?showpoint@?$_Iosb@H@std@@2W4_Fmtflags@12@B DD 010H	; std::_Iosb<int>::showpoint
CONST	ENDS
;	COMDAT ?showbase@?$_Iosb@H@std@@2W4_Fmtflags@12@B
CONST	SEGMENT
?showbase@?$_Iosb@H@std@@2W4_Fmtflags@12@B DD 08H	; std::_Iosb<int>::showbase
CONST	ENDS
;	COMDAT ?uppercase@?$_Iosb@H@std@@2W4_Fmtflags@12@B
CONST	SEGMENT
?uppercase@?$_Iosb@H@std@@2W4_Fmtflags@12@B DD 04H	; std::_Iosb<int>::uppercase
CONST	ENDS
;	COMDAT ?unitbuf@?$_Iosb@H@std@@2W4_Fmtflags@12@B
CONST	SEGMENT
?unitbuf@?$_Iosb@H@std@@2W4_Fmtflags@12@B DD 02H	; std::_Iosb<int>::unitbuf
CONST	ENDS
;	COMDAT ?skipws@?$_Iosb@H@std@@2W4_Fmtflags@12@B
CONST	SEGMENT
?skipws@?$_Iosb@H@std@@2W4_Fmtflags@12@B DD 01H		; std::_Iosb<int>::skipws
CONST	ENDS
;	COMDAT ?table_size@?$ctype@D@std@@2IB
CONST	SEGMENT
?table_size@?$ctype@D@std@@2IB DD 0100H			; std::ctype<char>::table_size
CONST	ENDS
;	COMDAT __CT??_R0?AVlogic_error@std@@@8??0logic_error@std@@QAE@ABV01@@Z40
xdata$x	SEGMENT
__CT??_R0?AVlogic_error@std@@@8??0logic_error@std@@QAE@ABV01@@Z40 DD 00H
	DD	FLAT:??_R0?AVlogic_error@std@@@8
	DD	00H
	DD	0ffffffffH
	ORG $+4
	DD	028H
	DD	FLAT:??0logic_error@std@@QAE@ABV01@@Z
xdata$x	ENDS
;	COMDAT ??_R0?AVlogic_error@std@@@8
_DATA	SEGMENT
??_R0?AVlogic_error@std@@@8 DD FLAT:??_7type_info@@6B@	; std::logic_error `RTTI Type Descriptor'
	DD	00H
	DB	'.?AVlogic_error@std@@', 00H
_DATA	ENDS
;	COMDAT ?none@?$_Locbase@H@std@@2HB
CONST	SEGMENT
?none@?$_Locbase@H@std@@2HB DD 00H			; std::_Locbase<int>::none
CONST	ENDS
;	COMDAT ?all@?$_Locbase@H@std@@2HB
CONST	SEGMENT
?all@?$_Locbase@H@std@@2HB DD 03fH			; std::_Locbase<int>::all
CONST	ENDS
;	COMDAT ?messages@?$_Locbase@H@std@@2HB
CONST	SEGMENT
?messages@?$_Locbase@H@std@@2HB DD 020H			; std::_Locbase<int>::messages
CONST	ENDS
;	COMDAT ?time@?$_Locbase@H@std@@2HB
CONST	SEGMENT
?time@?$_Locbase@H@std@@2HB DD 010H			; std::_Locbase<int>::time
CONST	ENDS
;	COMDAT ?numeric@?$_Locbase@H@std@@2HB
CONST	SEGMENT
?numeric@?$_Locbase@H@std@@2HB DD 08H			; std::_Locbase<int>::numeric
CONST	ENDS
;	COMDAT ?monetary@?$_Locbase@H@std@@2HB
CONST	SEGMENT
?monetary@?$_Locbase@H@std@@2HB DD 04H			; std::_Locbase<int>::monetary
CONST	ENDS
;	COMDAT ?ctype@?$_Locbase@H@std@@2HB
CONST	SEGMENT
?ctype@?$_Locbase@H@std@@2HB DD 02H			; std::_Locbase<int>::ctype
CONST	ENDS
;	COMDAT ?collate@?$_Locbase@H@std@@2HB
CONST	SEGMENT
?collate@?$_Locbase@H@std@@2HB DD 01H			; std::_Locbase<int>::collate
CONST	ENDS
;	COMDAT __CT??_R0?AVexception@std@@@8??0exception@std@@QAE@ABV01@@Z12
xdata$x	SEGMENT
__CT??_R0?AVexception@std@@@8??0exception@std@@QAE@ABV01@@Z12 DD 00H
	DD	FLAT:??_R0?AVexception@std@@@8
	DD	00H
	DD	0ffffffffH
	ORG $+4
	DD	0cH
	DD	FLAT:??0exception@std@@QAE@ABV01@@Z
xdata$x	ENDS
;	COMDAT ??_R0?AVexception@std@@@8
_DATA	SEGMENT
??_R0?AVexception@std@@@8 DD FLAT:??_7type_info@@6B@	; std::exception `RTTI Type Descriptor'
	DD	00H
	DB	'.?AVexception@std@@', 00H
_DATA	ENDS
;	COMDAT ??_C@_0P@GHFPNOJB@bad?5allocation?$AA@
CONST	SEGMENT
??_C@_0P@GHFPNOJB@bad?5allocation?$AA@ DB 'bad allocation', 00H ; `string'
CONST	ENDS
;	COMDAT ?_Value@?$_Is_swap_move@U_Swap_move_tag@std@@@std@@2_NB
CONST	SEGMENT
?_Value@?$_Is_swap_move@U_Swap_move_tag@std@@@std@@2_NB DB 01H ; std::_Is_swap_move<std::_Swap_move_tag>::_Value
__bad_alloc_Message DD FLAT:??_C@_0P@GHFPNOJB@bad?5allocation?$AA@
; Function compile flags: /Ogtpy
; File c:\program files\microsoft visual studio 9.0\vc\include\xmemory
;	COMDAT ??$?8DD@std@@YA_NABV?$allocator@D@0@0@Z
_TEXT	SEGMENT
??$?8DD@std@@YA_NABV?$allocator@D@0@0@Z PROC		; std::operator==<char,char>, COMDAT

; 175  : 	return (true);

  00000	b0 01		 mov	 al, 1

; 176  : 	}

  00002	c3		 ret	 0
??$?8DD@std@@YA_NABV?$allocator@D@0@0@Z ENDP		; std::operator==<char,char>
; Function compile flags: /Ogtpy
; File c:\program files\microsoft visual studio 9.0\vc\include\xutility
_TEXT	ENDS
;	COMDAT ??$_Checked_base@PAV?$basic_string@DU?$char_traits@D@std@@V?$allocator@D@2@@std@@@std@@YAPAV?$basic_string@DU?$char_traits@D@std@@V?$allocator@D@2@@0@AAPAV10@U_Unchanged_checked_iterator_base_type_tag@0@@Z
_TEXT	SEGMENT
___formal$ = 8						; size = 1
??$_Checked_base@PAV?$basic_string@DU?$char_traits@D@std@@V?$allocator@D@2@@std@@@std@@YAPAV?$basic_string@DU?$char_traits@D@std@@V?$allocator@D@2@@0@AAPAV10@U_Unchanged_checked_iterator_base_type_tag@0@@Z PROC ; std::_Checked_base<std::basic_string<char,std::char_traits<char>,std::allocator<char> > *>, COMDAT
; __It$ = eax

; 1147 : 		return _It;

  00000	8b 00		 mov	 eax, DWORD PTR [eax]

; 1148 : 	}

  00002	c3		 ret	 0
??$_Checked_base@PAV?$basic_string@DU?$char_traits@D@std@@V?$allocator@D@2@@std@@@std@@YAPAV?$basic_string@DU?$char_traits@D@std@@V?$allocator@D@2@@0@AAPAV10@U_Unchanged_checked_iterator_base_type_tag@0@@Z ENDP ; std::_Checked_base<std::basic_string<char,std::char_traits<char>,std::allocator<char> > *>
; Function compile flags: /Ogtpy
_TEXT	ENDS
;	COMDAT ??$_Move_cat@PAV?$basic_string@DU?$char_traits@D@std@@V?$allocator@D@2@@std@@@std@@YA?AU_Swap_move_tag@0@ABQAV?$basic_string@DU?$char_traits@D@std@@V?$allocator@D@2@@0@@Z
_TEXT	SEGMENT
__Cat$ = -1						; size = 1
??$_Move_cat@PAV?$basic_string@DU?$char_traits@D@std@@V?$allocator@D@2@@std@@@std@@YA?AU_Swap_move_tag@0@ABQAV?$basic_string@DU?$char_traits@D@std@@V?$allocator@D@2@@0@@Z PROC ; std::_Move_cat<std::basic_string<char,std::char_traits<char>,std::allocator<char> > *>, COMDAT

; 1200 : 	{

  00000	51		 push	 ecx

; 1201 : 		typename _Move_operation_category<typename iterator_traits<_Iter>::value_type>::_Move_cat _Cat;
; 1202 : 		return (_Cat);

  00001	8a 44 24 03	 mov	 al, BYTE PTR __Cat$[esp+4]

; 1203 : 	}

  00005	59		 pop	 ecx
  00006	c3		 ret	 0
??$_Move_cat@PAV?$basic_string@DU?$char_traits@D@std@@V?$allocator@D@2@@std@@@std@@YA?AU_Swap_move_tag@0@ABQAV?$basic_string@DU?$char_traits@D@std@@V?$allocator@D@2@@0@@Z ENDP ; std::_Move_cat<std::basic_string<char,std::char_traits<char>,std::allocator<char> > *>
; Function compile flags: /Ogtpy
_TEXT	ENDS
;	COMDAT ??$_Ptr_cat@PAV?$basic_string@DU?$char_traits@D@std@@V?$allocator@D@2@@std@@PAV12@@std@@YA?AU_Nonscalar_ptr_iterator_tag@0@AAPAV?$basic_string@DU?$char_traits@D@std@@V?$allocator@D@2@@0@0@Z
_TEXT	SEGMENT
__Cat$ = -1						; size = 1
??$_Ptr_cat@PAV?$basic_string@DU?$char_traits@D@std@@V?$allocator@D@2@@std@@PAV12@@std@@YA?AU_Nonscalar_ptr_iterator_tag@0@AAPAV?$basic_string@DU?$char_traits@D@std@@V?$allocator@D@2@@0@0@Z PROC ; std::_Ptr_cat<std::basic_string<char,std::char_traits<char>,std::allocator<char> > *,std::basic_string<char,std::char_traits<char>,std::allocator<char> > *>, COMDAT

; 1509 : 	{

  00000	51		 push	 ecx

; 1510 : 	typename _Ptr_cat_helper<_T1, _T2>::_Ptr_cat _Cat;
; 1511 : 	return (_Cat);

  00001	8a 44 24 03	 mov	 al, BYTE PTR __Cat$[esp+4]

; 1512 : 	}

  00005	59		 pop	 ecx
  00006	c3		 ret	 0
??$_Ptr_cat@PAV?$basic_string@DU?$char_traits@D@std@@V?$allocator@D@2@@std@@PAV12@@std@@YA?AU_Nonscalar_ptr_iterator_tag@0@AAPAV?$basic_string@DU?$char_traits@D@std@@V?$allocator@D@2@@0@0@Z ENDP ; std::_Ptr_cat<std::basic_string<char,std::char_traits<char>,std::allocator<char> > *,std::basic_string<char,std::char_traits<char>,std::allocator<char> > *>
; Function compile flags: /Ogtpy
_TEXT	ENDS
;	COMDAT ??$_Iter_random@PAV?$basic_string@DU?$char_traits@D@std@@V?$allocator@D@2@@std@@PAV12@@std@@YA?AUrandom_access_iterator_tag@0@ABQAV?$basic_string@DU?$char_traits@D@std@@V?$allocator@D@2@@0@0@Z
_TEXT	SEGMENT
??$_Iter_random@PAV?$basic_string@DU?$char_traits@D@std@@V?$allocator@D@2@@std@@PAV12@@std@@YA?AUrandom_access_iterator_tag@0@ABQAV?$basic_string@DU?$char_traits@D@std@@V?$allocator@D@2@@0@0@Z PROC ; std::_Iter_random<std::basic_string<char,std::char_traits<char>,std::allocator<char> > *,std::basic_string<char,std::char_traits<char>,std::allocator<char> > *>, COMDAT
; ___$ReturnUdt$ = eax

; 994  : 	typename _Iter_random_helper<
; 995  : 		iterator_traits<_Iter1>::iterator_category, 
; 996  : 		iterator_traits<_Iter2>::iterator_category>::_Iter_random_cat _Cat;
; 997  : 	return (_Cat);
; 998  : 	}

  00000	c3		 ret	 0
??$_Iter_random@PAV?$basic_string@DU?$char_traits@D@std@@V?$allocator@D@2@@std@@PAV12@@std@@YA?AUrandom_access_iterator_tag@0@ABQAV?$basic_string@DU?$char_traits@D@std@@V?$allocator@D@2@@0@0@Z ENDP ; std::_Iter_random<std::basic_string<char,std::char_traits<char>,std::allocator<char> > *,std::basic_string<char,std::char_traits<char>,std::allocator<char> > *>
; Function compile flags: /Ogtpy
_TEXT	ENDS
;	COMDAT ??$_Checked_base@PAV?$basic_string@DU?$char_traits@D@std@@V?$allocator@D@2@@std@@@std@@YAPAV?$basic_string@DU?$char_traits@D@std@@V?$allocator@D@2@@0@AAPAV10@@Z
_TEXT	SEGMENT
??$_Checked_base@PAV?$basic_string@DU?$char_traits@D@std@@V?$allocator@D@2@@std@@@std@@YAPAV?$basic_string@DU?$char_traits@D@std@@V?$allocator@D@2@@0@AAPAV10@@Z PROC ; std::_Checked_base<std::basic_string<char,std::char_traits<char>,std::allocator<char> > *>, COMDAT
; __It$ = eax

; 1164 : 		typename _Checked_iterator_base_helper<_Iter>::_Checked_iterator_base_type_tag _Base_tag;
; 1165 : 		return _Checked_base(_It, _Base_tag);

  00000	8b 00		 mov	 eax, DWORD PTR [eax]

; 1166 : 	}

  00002	c3		 ret	 0
??$_Checked_base@PAV?$basic_string@DU?$char_traits@D@std@@V?$allocator@D@2@@std@@@std@@YAPAV?$basic_string@DU?$char_traits@D@std@@V?$allocator@D@2@@0@AAPAV10@@Z ENDP ; std::_Checked_base<std::basic_string<char,std::char_traits<char>,std::allocator<char> > *>
; Function compile flags: /Ogtpy
; File c:\program files\microsoft visual studio 9.0\vc\include\iosfwd
_TEXT	ENDS
;	COMDAT ??$_Char_traits_cat@U?$char_traits@D@std@@@std@@YA?AU_Secure_char_traits_tag@0@XZ
_TEXT	SEGMENT
__Secure$ = -1						; size = 1
??$_Char_traits_cat@U?$char_traits@D@std@@@std@@YA?AU_Secure_char_traits_tag@0@XZ PROC ; std::_Char_traits_cat<std::char_traits<char> >, COMDAT

; 575  : 	{

  00000	51		 push	 ecx

; 576  : 		typename _Char_traits_category<_Traits>::_Secure_char_traits _Secure;
; 577  : 		return (_Secure);

  00001	8a 44 24 03	 mov	 al, BYTE PTR __Secure$[esp+4]

; 578  : 	}

  00005	59		 pop	 ecx
  00006	c3		 ret	 0
??$_Char_traits_cat@U?$char_traits@D@std@@@std@@YA?AU_Secure_char_traits_tag@0@XZ ENDP ; std::_Char_traits_cat<std::char_traits<char> >
_TEXT	ENDS
;	COMDAT xdata$x
xdata$x	SEGMENT
__unwindtable$??0bad_alloc@std@@QAE@ABV01@@Z DD 0ffffffffH
	DD	FLAT:__unwindfunclet$??0bad_alloc@std@@QAE@ABV01@@Z$0
__ehfuncinfo$??0bad_alloc@std@@QAE@ABV01@@Z DD 019930522H
	DD	01H
	DD	FLAT:__unwindtable$??0bad_alloc@std@@QAE@ABV01@@Z
	DD	2 DUP(00H)
	DD	2 DUP(00H)
	DD	00H
	DD	00H
; Function compile flags: /Ogtpy
xdata$x	ENDS
;	COMDAT ??0bad_alloc@std@@QAE@ABV01@@Z
_TEXT	SEGMENT
_this$ = -16						; size = 4
__$EHRec$ = -12						; size = 12
___that$ = 8						; size = 4
??0bad_alloc@std@@QAE@ABV01@@Z PROC			; std::bad_alloc::bad_alloc, COMDAT
; _this$ = ecx
  00000	6a ff		 push	 -1
  00002	68 00 00 00 00	 push	 __ehhandler$??0bad_alloc@std@@QAE@ABV01@@Z
  00007	64 a1 00 00 00
	00		 mov	 eax, DWORD PTR fs:0
  0000d	50		 push	 eax
  0000e	51		 push	 ecx
  0000f	56		 push	 esi
  00010	a1 00 00 00 00	 mov	 eax, DWORD PTR ___security_cookie
  00015	33 c4		 xor	 eax, esp
  00017	50		 push	 eax
  00018	8d 44 24 0c	 lea	 eax, DWORD PTR __$EHRec$[esp+24]
  0001c	64 a3 00 00 00
	00		 mov	 DWORD PTR fs:0, eax
  00022	8b f1		 mov	 esi, ecx
  00024	89 74 24 08	 mov	 DWORD PTR _this$[esp+24], esi
  00028	8b 44 24 1c	 mov	 eax, DWORD PTR ___that$[esp+20]
  0002c	50		 push	 eax
  0002d	e8 00 00 00 00	 call	 ??0exception@std@@QAE@ABV01@@Z ; std::exception::exception
  00032	c7 44 24 14 00
	00 00 00	 mov	 DWORD PTR __$EHRec$[esp+32], 0
  0003a	c7 06 00 00 00
	00		 mov	 DWORD PTR [esi], OFFSET ??_7bad_alloc@std@@6B@
  00040	c7 44 24 14 ff
	ff ff ff	 mov	 DWORD PTR __$EHRec$[esp+32], -1
  00048	8b c6		 mov	 eax, esi
  0004a	8b 4c 24 0c	 mov	 ecx, DWORD PTR __$EHRec$[esp+24]
  0004e	64 89 0d 00 00
	00 00		 mov	 DWORD PTR fs:0, ecx
  00055	59		 pop	 ecx
  00056	5e		 pop	 esi
  00057	83 c4 10	 add	 esp, 16			; 00000010H
  0005a	c2 04 00	 ret	 4
_TEXT	ENDS
;	COMDAT text$x
text$x	SEGMENT
__unwindfunclet$??0bad_alloc@std@@QAE@ABV01@@Z$0:
  00000	8b 4d f0	 mov	 ecx, DWORD PTR _this$[ebp]
  00003	e9 00 00 00 00	 jmp	 ??1exception@std@@UAE@XZ ; std::exception::~exception
__ehhandler$??0bad_alloc@std@@QAE@ABV01@@Z:
  00008	8b 54 24 08	 mov	 edx, DWORD PTR [esp+8]
  0000c	8d 42 f8	 lea	 eax, DWORD PTR [edx-8]
  0000f	8b 4a f4	 mov	 ecx, DWORD PTR [edx-12]
  00012	33 c8		 xor	 ecx, eax
  00014	e8 00 00 00 00	 call	 @__security_check_cookie@4
  00019	b8 00 00 00 00	 mov	 eax, OFFSET __ehfuncinfo$??0bad_alloc@std@@QAE@ABV01@@Z
  0001e	e9 00 00 00 00	 jmp	 ___CxxFrameHandler3
text$x	ENDS
??0bad_alloc@std@@QAE@ABV01@@Z ENDP			; std::bad_alloc::bad_alloc
; Function compile flags: /Ogtpy
; File c:\program files\microsoft visual studio 9.0\vc\include\xmemory
;	COMDAT ?max_size@?$allocator@D@std@@QBEIXZ
_TEXT	SEGMENT
?max_size@?$allocator@D@std@@QBEIXZ PROC		; std::allocator<char>::max_size, COMDAT
; _this$ = ecx

; 165  : 		_SIZT _Count = (_SIZT)(-1) / sizeof (_Ty);
; 166  : 		return (0 < _Count ? _Count : 1);

  00000	83 c8 ff	 or	 eax, -1

; 167  : 		}

  00003	c3		 ret	 0
?max_size@?$allocator@D@std@@QBEIXZ ENDP		; std::allocator<char>::max_size
; Function compile flags: /Ogtpy
_TEXT	ENDS
;	COMDAT ?max_size@?$allocator@V?$basic_string@DU?$char_traits@D@std@@V?$allocator@D@2@@std@@@std@@QBEIXZ
_TEXT	SEGMENT
?max_size@?$allocator@V?$basic_string@DU?$char_traits@D@std@@V?$allocator@D@2@@std@@@std@@QBEIXZ PROC ; std::allocator<std::basic_string<char,std::char_traits<char>,std::allocator<char> > >::max_size, COMDAT

; 165  : 		_SIZT _Count = (_SIZT)(-1) / sizeof (_Ty);
; 166  : 		return (0 < _Count ? _Count : 1);

  00000	b8 49 92 24 09	 mov	 eax, 153391689		; 09249249H

; 167  : 		}

  00005	c3		 ret	 0
?max_size@?$allocator@V?$basic_string@DU?$char_traits@D@std@@V?$allocator@D@2@@std@@@std@@QBEIXZ ENDP ; std::allocator<std::basic_string<char,std::char_traits<char>,std::allocator<char> > >::max_size
; Function compile flags: /Ogtpy
; File c:\program files\microsoft visual studio 9.0\vc\include\xstring
_TEXT	ENDS
;	COMDAT ?max_size@?$basic_string@DU?$char_traits@D@std@@V?$allocator@D@2@@std@@QBEIXZ
_TEXT	SEGMENT
?max_size@?$basic_string@DU?$char_traits@D@std@@V?$allocator@D@2@@std@@QBEIXZ PROC ; std::basic_string<char,std::char_traits<char>,std::allocator<char> >::max_size, COMDAT
; _this$ = ecx

; 1671 : 		size_type _Num = _Mybase::_Alval.max_size();
; 1672 : 		return (_Num <= 1 ? 1 : _Num - 1);

  00000	b8 fe ff ff ff	 mov	 eax, -2			; fffffffeH

; 1673 : 		}

  00005	c3		 ret	 0
?max_size@?$basic_string@DU?$char_traits@D@std@@V?$allocator@D@2@@std@@QBEIXZ ENDP ; std::basic_string<char,std::char_traits<char>,std::allocator<char> >::max_size
; Function compile flags: /Ogtpy
; File c:\program files\microsoft visual studio 9.0\vc\include\vector
_TEXT	ENDS
;	COMDAT ?max_size@?$vector@V?$basic_string@DU?$char_traits@D@std@@V?$allocator@D@2@@std@@V?$allocator@V?$basic_string@DU?$char_traits@D@std@@V?$allocator@D@2@@std@@@2@@std@@QBEIXZ
_TEXT	SEGMENT
?max_size@?$vector@V?$basic_string@DU?$char_traits@D@std@@V?$allocator@D@2@@std@@V?$allocator@V?$basic_string@DU?$char_traits@D@std@@V?$allocator@D@2@@std@@@2@@std@@QBEIXZ PROC ; std::vector<std::basic_string<char,std::char_traits<char>,std::allocator<char> >,std::allocator<std::basic_string<char,std::char_traits<char>,std::allocator<char> > > >::max_size, COMDAT

; 731  : 		return (this->_Alval.max_size());

  00000	b8 49 92 24 09	 mov	 eax, 153391689		; 09249249H

; 732  : 		}

  00005	c3		 ret	 0
?max_size@?$vector@V?$basic_string@DU?$char_traits@D@std@@V?$allocator@D@2@@std@@V?$allocator@V?$basic_string@DU?$char_traits@D@std@@V?$allocator@D@2@@std@@@2@@std@@QBEIXZ ENDP ; std::vector<std::basic_string<char,std::char_traits<char>,std::allocator<char> >,std::allocator<std::basic_string<char,std::char_traits<char>,std::allocator<char> > > >::max_size
; Function compile flags: /Ogtpy
; File c:\program files\microsoft visual studio 9.0\vc\include\xmemory
_TEXT	ENDS
;	COMDAT ?deallocate@?$allocator@D@std@@QAEXPADI@Z
_TEXT	SEGMENT
__Ptr$ = 8						; size = 4
___formal$ = 12						; size = 4
?deallocate@?$allocator@D@std@@QAEXPADI@Z PROC		; std::allocator<char>::deallocate, COMDAT
; _this$ = ecx

; 140  : 		::operator delete(_Ptr);

  00000	8b 44 24 04	 mov	 eax, DWORD PTR __Ptr$[esp-4]
  00004	50		 push	 eax
  00005	e8 00 00 00 00	 call	 ??3@YAXPAX@Z		; operator delete
  0000a	59		 pop	 ecx

; 141  : 		}

  0000b	c2 08 00	 ret	 8
?deallocate@?$allocator@D@std@@QAEXPADI@Z ENDP		; std::allocator<char>::deallocate
; Function compile flags: /Ogtpy
_TEXT	ENDS
;	COMDAT ??0?$allocator@D@std@@QAE@ABV01@@Z
_TEXT	SEGMENT
___formal$ = 8						; size = 4
??0?$allocator@D@std@@QAE@ABV01@@Z PROC			; std::allocator<char>::allocator<char>, COMDAT
; _this$ = ecx

; 123  : 	allocator(const allocator<_Ty>&) _THROW0()

  00000	8b c1		 mov	 eax, ecx

; 124  : 		{	// construct by copying (do nothing)
; 125  : 		}

  00002	c2 04 00	 ret	 4
??0?$allocator@D@std@@QAE@ABV01@@Z ENDP			; std::allocator<char>::allocator<char>
; Function compile flags: /Ogtpy
; File c:\program files\microsoft visual studio 9.0\vc\include\xstring
_TEXT	ENDS
;	COMDAT ?_Myptr@?$basic_string@DU?$char_traits@D@std@@V?$allocator@D@2@@std@@IAEPADXZ
_TEXT	SEGMENT
?_Myptr@?$basic_string@DU?$char_traits@D@std@@V?$allocator@D@2@@std@@IAEPADXZ PROC ; std::basic_string<char,std::char_traits<char>,std::allocator<char> >::_Myptr, COMDAT
; _this$ = ecx

; 2170 : 		return (_BUF_SIZE <= _Myres ? _Bx._Ptr : _Bx._Buf);

  00000	83 79 18 10	 cmp	 DWORD PTR [ecx+24], 16	; 00000010H
  00004	72 04		 jb	 SHORT $LN3@Myptr
  00006	8b 41 04	 mov	 eax, DWORD PTR [ecx+4]

; 2171 : 		}

  00009	c3		 ret	 0
$LN3@Myptr:

; 2170 : 		return (_BUF_SIZE <= _Myres ? _Bx._Ptr : _Bx._Buf);

  0000a	8d 41 04	 lea	 eax, DWORD PTR [ecx+4]

; 2171 : 		}

  0000d	c3		 ret	 0
?_Myptr@?$basic_string@DU?$char_traits@D@std@@V?$allocator@D@2@@std@@IAEPADXZ ENDP ; std::basic_string<char,std::char_traits<char>,std::allocator<char> >::_Myptr
; Function compile flags: /Ogtpy
_TEXT	ENDS
;	COMDAT ?_Inside@?$basic_string@DU?$char_traits@D@std@@V?$allocator@D@2@@std@@IAE_NPBD@Z
_TEXT	SEGMENT
__Ptr$ = 8						; size = 4
?_Inside@?$basic_string@DU?$char_traits@D@std@@V?$allocator@D@2@@std@@IAE_NPBD@Z PROC ; std::basic_string<char,std::char_traits<char>,std::allocator<char> >::_Inside, COMDAT
; _this$ = ecx

; 2133 : 		{	// test if _Ptr points inside string

  00000	56		 push	 esi
  00001	57		 push	 edi

; 2134 : 		if (_Ptr == 0 || _Ptr < _Myptr() || _Myptr() + _Mysize <= _Ptr)

  00002	8b 7c 24 0c	 mov	 edi, DWORD PTR __Ptr$[esp+4]
  00006	85 ff		 test	 edi, edi
  00008	74 2c		 je	 SHORT $LN2@Inside
  0000a	8b 71 18	 mov	 esi, DWORD PTR [ecx+24]
  0000d	8d 41 04	 lea	 eax, DWORD PTR [ecx+4]
  00010	83 fe 10	 cmp	 esi, 16			; 00000010H
  00013	72 04		 jb	 SHORT $LN8@Inside
  00015	8b 10		 mov	 edx, DWORD PTR [eax]
  00017	eb 02		 jmp	 SHORT $LN9@Inside
$LN8@Inside:
  00019	8b d0		 mov	 edx, eax
$LN9@Inside:
  0001b	3b fa		 cmp	 edi, edx
  0001d	72 17		 jb	 SHORT $LN2@Inside
  0001f	83 fe 10	 cmp	 esi, 16			; 00000010H
  00022	72 02		 jb	 SHORT $LN12@Inside
  00024	8b 00		 mov	 eax, DWORD PTR [eax]
$LN12@Inside:
  00026	8b 49 14	 mov	 ecx, DWORD PTR [ecx+20]
  00029	03 c8		 add	 ecx, eax
  0002b	3b cf		 cmp	 ecx, edi
  0002d	76 07		 jbe	 SHORT $LN2@Inside
  0002f	5f		 pop	 edi

; 2136 : 		else
; 2137 : 			return (true);

  00030	b0 01		 mov	 al, 1
  00032	5e		 pop	 esi

; 2138 : 		}

  00033	c2 04 00	 ret	 4
$LN2@Inside:
  00036	5f		 pop	 edi

; 2135 : 			return (false);	// don't ask

  00037	32 c0		 xor	 al, al
  00039	5e		 pop	 esi

; 2138 : 		}

  0003a	c2 04 00	 ret	 4
?_Inside@?$basic_string@DU?$char_traits@D@std@@V?$allocator@D@2@@std@@IAE_NPBD@Z ENDP ; std::basic_string<char,std::char_traits<char>,std::allocator<char> >::_Inside
; Function compile flags: /Ogtpy
; File c:\program files\microsoft visual studio 9.0\vc\include\xmemory
_TEXT	ENDS
;	COMDAT ?deallocate@?$allocator@V?$basic_string@DU?$char_traits@D@std@@V?$allocator@D@2@@std@@@std@@QAEXPAV?$basic_string@DU?$char_traits@D@std@@V?$allocator@D@2@@2@I@Z
_TEXT	SEGMENT
?deallocate@?$allocator@V?$basic_string@DU?$char_traits@D@std@@V?$allocator@D@2@@std@@@std@@QAEXPAV?$basic_string@DU?$char_traits@D@std@@V?$allocator@D@2@@2@I@Z PROC ; std::allocator<std::basic_string<char,std::char_traits<char>,std::allocator<char> > >::deallocate, COMDAT
; __Ptr$ = eax

; 140  : 		::operator delete(_Ptr);

  00000	50		 push	 eax
  00001	e8 00 00 00 00	 call	 ??3@YAXPAX@Z		; operator delete
  00006	59		 pop	 ecx

; 141  : 		}

  00007	c3		 ret	 0
?deallocate@?$allocator@V?$basic_string@DU?$char_traits@D@std@@V?$allocator@D@2@@std@@@std@@QAEXPAV?$basic_string@DU?$char_traits@D@std@@V?$allocator@D@2@@2@I@Z ENDP ; std::allocator<std::basic_string<char,std::char_traits<char>,std::allocator<char> > >::deallocate
; Function compile flags: /Ogtpy
; File c:\program files\microsoft visual studio 9.0\vc\include\vector
_TEXT	ENDS
;	COMDAT ?size@?$vector@V?$basic_string@DU?$char_traits@D@std@@V?$allocator@D@2@@std@@V?$allocator@V?$basic_string@DU?$char_traits@D@std@@V?$allocator@D@2@@std@@@2@@std@@QBEIXZ
_TEXT	SEGMENT
?size@?$vector@V?$basic_string@DU?$char_traits@D@std@@V?$allocator@D@2@@std@@V?$allocator@V?$basic_string@DU?$char_traits@D@std@@V?$allocator@D@2@@std@@@2@@std@@QBEIXZ PROC ; std::vector<std::basic_string<char,std::char_traits<char>,std::allocator<char> >,std::allocator<std::basic_string<char,std::char_traits<char>,std::allocator<char> > > >::size, COMDAT
; _this$ = eax

; 726  : 		return (_Mylast - _Myfirst);

  00000	8b 48 10	 mov	 ecx, DWORD PTR [eax+16]
  00003	2b 48 0c	 sub	 ecx, DWORD PTR [eax+12]
  00006	b8 93 24 49 92	 mov	 eax, -1840700269	; 92492493H
  0000b	f7 e9		 imul	 ecx
  0000d	03 d1		 add	 edx, ecx
  0000f	c1 fa 04	 sar	 edx, 4
  00012	8b c2		 mov	 eax, edx
  00014	c1 e8 1f	 shr	 eax, 31			; 0000001fH
  00017	03 c2		 add	 eax, edx

; 727  : 		}

  00019	c3		 ret	 0
?size@?$vector@V?$basic_string@DU?$char_traits@D@std@@V?$allocator@D@2@@std@@V?$allocator@V?$basic_string@DU?$char_traits@D@std@@V?$allocator@D@2@@std@@@2@@std@@QBEIXZ ENDP ; std::vector<std::basic_string<char,std::char_traits<char>,std::allocator<char> >,std::allocator<std::basic_string<char,std::char_traits<char>,std::allocator<char> > > >::size
; Function compile flags: /Ogtpy
_TEXT	ENDS
;	COMDAT ?capacity@?$vector@V?$basic_string@DU?$char_traits@D@std@@V?$allocator@D@2@@std@@V?$allocator@V?$basic_string@DU?$char_traits@D@std@@V?$allocator@D@2@@std@@@2@@std@@QBEIXZ
_TEXT	SEGMENT
?capacity@?$vector@V?$basic_string@DU?$char_traits@D@std@@V?$allocator@D@2@@std@@V?$allocator@V?$basic_string@DU?$char_traits@D@std@@V?$allocator@D@2@@std@@@2@@std@@QBEIXZ PROC ; std::vector<std::basic_string<char,std::char_traits<char>,std::allocator<char> >,std::allocator<std::basic_string<char,std::char_traits<char>,std::allocator<char> > > >::capacity, COMDAT
; _this$ = ecx

; 635  : 		return (_Myfirst == 0 ? 0 : _Myend - _Myfirst);

  00000	8b 41 0c	 mov	 eax, DWORD PTR [ecx+12]
  00003	85 c0		 test	 eax, eax
  00005	75 01		 jne	 SHORT $LN3@capacity@9

; 636  : 		}

  00007	c3		 ret	 0
$LN3@capacity@9:

; 635  : 		return (_Myfirst == 0 ? 0 : _Myend - _Myfirst);

  00008	8b 49 14	 mov	 ecx, DWORD PTR [ecx+20]
  0000b	2b c8		 sub	 ecx, eax
  0000d	b8 93 24 49 92	 mov	 eax, -1840700269	; 92492493H
  00012	f7 e9		 imul	 ecx
  00014	03 d1		 add	 edx, ecx
  00016	c1 fa 04	 sar	 edx, 4
  00019	8b c2		 mov	 eax, edx
  0001b	c1 e8 1f	 shr	 eax, 31			; 0000001fH
  0001e	03 c2		 add	 eax, edx

; 636  : 		}

  00020	c3		 ret	 0
?capacity@?$vector@V?$basic_string@DU?$char_traits@D@std@@V?$allocator@D@2@@std@@V?$allocator@V?$basic_string@DU?$char_traits@D@std@@V?$allocator@D@2@@std@@@2@@std@@QBEIXZ ENDP ; std::vector<std::basic_string<char,std::char_traits<char>,std::allocator<char> >,std::allocator<std::basic_string<char,std::char_traits<char>,std::allocator<char> > > >::capacity
; Function compile flags: /Ogtpy
; File c:\program files\microsoft visual studio 9.0\vc\include\xmemory
_TEXT	ENDS
;	COMDAT ??0?$allocator@D@std@@QAE@XZ
_TEXT	SEGMENT
??0?$allocator@D@std@@QAE@XZ PROC			; std::allocator<char>::allocator<char>, COMDAT
; _this$ = ecx

; 119  : 	allocator() _THROW0()

  00000	8b c1		 mov	 eax, ecx

; 120  : 		{	// construct default allocator (do nothing)
; 121  : 		}

  00002	c3		 ret	 0
??0?$allocator@D@std@@QAE@XZ ENDP			; std::allocator<char>::allocator<char>
; Function compile flags: /Ogtpy
; File c:\program files\microsoft visual studio 9.0\vc\include\xstring
_TEXT	ENDS
;	COMDAT ??0?$_String_val@DV?$allocator@D@std@@@std@@QAE@ABV01@@Z
_TEXT	SEGMENT
__Right$ = 8						; size = 4
??0?$_String_val@DV?$allocator@D@std@@@std@@QAE@ABV01@@Z PROC ; std::_String_val<char,std::allocator<char> >::_String_val<char,std::allocator<char> >, COMDAT
; _this$ = ecx

; 478  : 		{	// copy constructor

  00000	8b c1		 mov	 eax, ecx

; 479  : #if defined(_DEBUG)
; 480  : 		if (_Right._Myfirstiter == _IGNORE_MYITERLIST)
; 481  : 			{
; 482  : 			this->_Myfirstiter = _IGNORE_MYITERLIST;
; 483  : 			}
; 484  : #endif
; 485  : 		}

  00002	c2 04 00	 ret	 4
??0?$_String_val@DV?$allocator@D@std@@@std@@QAE@ABV01@@Z ENDP ; std::_String_val<char,std::allocator<char> >::_String_val<char,std::allocator<char> >
; Function compile flags: /Ogtpy
_TEXT	ENDS
;	COMDAT ??0?$_String_val@DV?$allocator@D@std@@@std@@IAE@V?$allocator@D@1@@Z
_TEXT	SEGMENT
__Al$ = 8						; size = 1
??0?$_String_val@DV?$allocator@D@std@@@std@@IAE@V?$allocator@D@1@@Z PROC ; std::_String_val<char,std::allocator<char> >::_String_val<char,std::allocator<char> >, COMDAT
; _this$ = ecx

; 472  : 		{	// construct allocator from _Al

  00000	8b c1		 mov	 eax, ecx

; 473  : 		}

  00002	c2 04 00	 ret	 4
??0?$_String_val@DV?$allocator@D@std@@@std@@IAE@V?$allocator@D@1@@Z ENDP ; std::_String_val<char,std::allocator<char> >::_String_val<char,std::allocator<char> >
; Function compile flags: /Ogtpy
_TEXT	ENDS
;	COMDAT ?_Myptr@?$basic_string@DU?$char_traits@D@std@@V?$allocator@D@2@@std@@IBEPBDXZ
_TEXT	SEGMENT
?_Myptr@?$basic_string@DU?$char_traits@D@std@@V?$allocator@D@2@@std@@IBEPBDXZ PROC ; std::basic_string<char,std::char_traits<char>,std::allocator<char> >::_Myptr, COMDAT
; _this$ = ecx

; 2175 : 		return (_BUF_SIZE <= _Myres ? _Bx._Ptr : _Bx._Buf);

  00000	83 79 18 10	 cmp	 DWORD PTR [ecx+24], 16	; 00000010H
  00004	72 04		 jb	 SHORT $LN3@Myptr@2
  00006	8b 41 04	 mov	 eax, DWORD PTR [ecx+4]

; 2176 : 		}

  00009	c3		 ret	 0
$LN3@Myptr@2:

; 2175 : 		return (_BUF_SIZE <= _Myres ? _Bx._Ptr : _Bx._Buf);

  0000a	8d 41 04	 lea	 eax, DWORD PTR [ecx+4]

; 2176 : 		}

  0000d	c3		 ret	 0
?_Myptr@?$basic_string@DU?$char_traits@D@std@@V?$allocator@D@2@@std@@IBEPBDXZ ENDP ; std::basic_string<char,std::char_traits<char>,std::allocator<char> >::_Myptr
; Function compile flags: /Ogtpy
_TEXT	ENDS
;	COMDAT ?size@?$basic_string@DU?$char_traits@D@std@@V?$allocator@D@2@@std@@QBEIXZ
_TEXT	SEGMENT
?size@?$basic_string@DU?$char_traits@D@std@@V?$allocator@D@2@@std@@QBEIXZ PROC ; std::basic_string<char,std::char_traits<char>,std::allocator<char> >::size, COMDAT
; _this$ = ecx

; 1666 : 		return (_Mysize);

  00000	8b 41 14	 mov	 eax, DWORD PTR [ecx+20]

; 1667 : 		}

  00003	c3		 ret	 0
?size@?$basic_string@DU?$char_traits@D@std@@V?$allocator@D@2@@std@@QBEIXZ ENDP ; std::basic_string<char,std::char_traits<char>,std::allocator<char> >::size
; Function compile flags: /Ogtpy
_TEXT	ENDS
;	COMDAT ?c_str@?$basic_string@DU?$char_traits@D@std@@V?$allocator@D@2@@std@@QBEPBDXZ
_TEXT	SEGMENT
?c_str@?$basic_string@DU?$char_traits@D@std@@V?$allocator@D@2@@std@@QBEPBDXZ PROC ; std::basic_string<char,std::char_traits<char>,std::allocator<char> >::c_str, COMDAT
; _this$ = ecx

; 1651 : 		return (_Myptr());

  00000	83 79 18 10	 cmp	 DWORD PTR [ecx+24], 16	; 00000010H
  00004	72 04		 jb	 SHORT $LN5@c_str
  00006	8b 41 04	 mov	 eax, DWORD PTR [ecx+4]

; 1652 : 		}

  00009	c3		 ret	 0

; 1651 : 		return (_Myptr());

$LN5@c_str:
  0000a	8d 41 04	 lea	 eax, DWORD PTR [ecx+4]

; 1652 : 		}

  0000d	c3		 ret	 0
?c_str@?$basic_string@DU?$char_traits@D@std@@V?$allocator@D@2@@std@@QBEPBDXZ ENDP ; std::basic_string<char,std::char_traits<char>,std::allocator<char> >::c_str
; Function compile flags: /Ogtpy
; File e:\tools\sysstatus\monitorips.h
_TEXT	ENDS
;	COMDAT ?SetChange@MonitorIPs@@IAEXXZ
_TEXT	SEGMENT
?SetChange@MonitorIPs@@IAEXXZ PROC			; MonitorIPs::SetChange, COMDAT
; _this$ = esi

; 73   :         WaitForSingleObject(m_hSync,MINUTE);

  00000	8b 06		 mov	 eax, DWORD PTR [esi]
  00002	68 60 ea 00 00	 push	 60000			; 0000ea60H
  00007	50		 push	 eax
  00008	ff 15 00 00 00
	00		 call	 DWORD PTR __imp__WaitForSingleObject@8

; 74   :         m_changed = true;
; 75   :         ReleaseMutex(m_hSync);

  0000e	8b 0e		 mov	 ecx, DWORD PTR [esi]
  00010	51		 push	 ecx
  00011	c6 46 34 01	 mov	 BYTE PTR [esi+52], 1
  00015	ff 15 00 00 00
	00		 call	 DWORD PTR __imp__ReleaseMutex@4

; 76   :     }

  0001b	c3		 ret	 0
?SetChange@MonitorIPs@@IAEXXZ ENDP			; MonitorIPs::SetChange
; Function compile flags: /Ogtpy
_TEXT	ENDS
;	COMDAT ??0Thank_you@Define_the_symbol__ATL_MIXED@@QAE@XZ
_TEXT	SEGMENT
??0Thank_you@Define_the_symbol__ATL_MIXED@@QAE@XZ PROC	; Define_the_symbol__ATL_MIXED::Thank_you::Thank_you, COMDAT
  00000	c7 05 00 00 00
	00 00 00 00 00	 mov	 DWORD PTR ?clash@Define_the_symbol__ATL_MIXED@@3UThank_you@1@A, OFFSET ??_7Thank_you@Define_the_symbol__ATL_MIXED@@6B@ ; Define_the_symbol__ATL_MIXED::clash
  0000a	b8 00 00 00 00	 mov	 eax, OFFSET ?clash@Define_the_symbol__ATL_MIXED@@3UThank_you@1@A ; Define_the_symbol__ATL_MIXED::clash
  0000f	c3		 ret	 0
??0Thank_you@Define_the_symbol__ATL_MIXED@@QAE@XZ ENDP	; Define_the_symbol__ATL_MIXED::Thank_you::Thank_you
; Function compile flags: /Ogtpy
; File c:\program files\microsoft visual studio 9.0\vc\atlmfc\include\atldef.h
_TEXT	ENDS
;	COMDAT ?one@Thank_you@Define_the_symbol__ATL_MIXED@@UAEXXZ
_TEXT	SEGMENT
?one@Thank_you@Define_the_symbol__ATL_MIXED@@UAEXXZ PROC ; Define_the_symbol__ATL_MIXED::Thank_you::one, COMDAT
; _this$ = ecx

; 80   : 	struct Thank_you { virtual void one(){} };

  00000	c3		 ret	 0
?one@Thank_you@Define_the_symbol__ATL_MIXED@@UAEXXZ ENDP ; Define_the_symbol__ATL_MIXED::Thank_you::one
; Function compile flags: /Ogtpy
; File c:\program files\microsoft visual studio 9.0\vc\include\stdexcept
_TEXT	ENDS
;	COMDAT ?what@logic_error@std@@UBEPBDXZ
_TEXT	SEGMENT
?what@logic_error@std@@UBEPBDXZ PROC			; std::logic_error::what, COMDAT
; _this$ = ecx

; 35   : 		return (_Str.c_str());

  00000	83 79 24 10	 cmp	 DWORD PTR [ecx+36], 16	; 00000010H
  00004	72 04		 jb	 SHORT $LN7@what
  00006	8b 41 10	 mov	 eax, DWORD PTR [ecx+16]

; 36   : 		}

  00009	c3		 ret	 0

; 35   : 		return (_Str.c_str());

$LN7@what:
  0000a	8d 41 10	 lea	 eax, DWORD PTR [ecx+16]

; 36   : 		}

  0000d	c3		 ret	 0
?what@logic_error@std@@UBEPBDXZ ENDP			; std::logic_error::what
; Function compile flags: /Ogtpy
; File c:\program files\microsoft visual studio 9.0\vc\include\new
_TEXT	ENDS
;	COMDAT ??3@YAXPAX0@Z
_TEXT	SEGMENT
??3@YAXPAX0@Z PROC					; operator delete, COMDAT

; 64   : 	}

  00000	c3		 ret	 0
??3@YAXPAX0@Z ENDP					; operator delete
; Function compile flags: /Ogtpy
_TEXT	ENDS
;	COMDAT ??2@YAPAXIPAX@Z
_TEXT	SEGMENT
??2@YAPAXIPAX@Z PROC					; operator new, COMDAT
; __Where$ = eax

; 59   : 	return (_Where);
; 60   : 	}

  00000	c3		 ret	 0
??2@YAPAXIPAX@Z ENDP					; operator new
_TEXT	ENDS
;	COMDAT xdata$x
; File c:\program files\microsoft visual studio 9.0\vc\include\exception
xdata$x	SEGMENT
__unwindtable$??1bad_alloc@std@@UAE@XZ DD 0ffffffffH
	DD	FLAT:__unwindfunclet$??1bad_alloc@std@@UAE@XZ$0
__ehfuncinfo$??1bad_alloc@std@@UAE@XZ DD 019930522H
	DD	01H
	DD	FLAT:__unwindtable$??1bad_alloc@std@@UAE@XZ
	DD	2 DUP(00H)
	DD	2 DUP(00H)
	DD	00H
	DD	00H
; Function compile flags: /Ogtpy
xdata$x	ENDS
;	COMDAT ??1bad_alloc@std@@UAE@XZ
_TEXT	SEGMENT
_this$ = -16						; size = 4
__$EHRec$ = -12						; size = 12
??1bad_alloc@std@@UAE@XZ PROC				; std::bad_alloc::~bad_alloc, COMDAT
; _this$ = ecx

; 380  : 		{	// destroy the object

  00000	6a ff		 push	 -1
  00002	68 00 00 00 00	 push	 __ehhandler$??1bad_alloc@std@@UAE@XZ
  00007	64 a1 00 00 00
	00		 mov	 eax, DWORD PTR fs:0
  0000d	50		 push	 eax
  0000e	51		 push	 ecx
  0000f	a1 00 00 00 00	 mov	 eax, DWORD PTR ___security_cookie
  00014	33 c4		 xor	 eax, esp
  00016	50		 push	 eax
  00017	8d 44 24 08	 lea	 eax, DWORD PTR __$EHRec$[esp+20]
  0001b	64 a3 00 00 00
	00		 mov	 DWORD PTR fs:0, eax
  00021	89 4c 24 04	 mov	 DWORD PTR _this$[esp+20], ecx
  00025	c7 01 00 00 00
	00		 mov	 DWORD PTR [ecx], OFFSET ??_7bad_alloc@std@@6B@

; 381  : 		}

  0002b	c7 44 24 10 ff
	ff ff ff	 mov	 DWORD PTR __$EHRec$[esp+28], -1
  00033	e8 00 00 00 00	 call	 ??1exception@std@@UAE@XZ ; std::exception::~exception
  00038	8b 4c 24 08	 mov	 ecx, DWORD PTR __$EHRec$[esp+20]
  0003c	64 89 0d 00 00
	00 00		 mov	 DWORD PTR fs:0, ecx
  00043	59		 pop	 ecx
  00044	83 c4 10	 add	 esp, 16			; 00000010H
  00047	c3		 ret	 0
_TEXT	ENDS
;	COMDAT text$x
text$x	SEGMENT
__unwindfunclet$??1bad_alloc@std@@UAE@XZ$0:
  00000	8b 4d f0	 mov	 ecx, DWORD PTR _this$[ebp]
  00003	e9 00 00 00 00	 jmp	 ??1exception@std@@UAE@XZ ; std::exception::~exception
__ehhandler$??1bad_alloc@std@@UAE@XZ:
  00008	8b 54 24 08	 mov	 edx, DWORD PTR [esp+8]
  0000c	8d 42 fc	 lea	 eax, DWORD PTR [edx-4]
  0000f	8b 4a f8	 mov	 ecx, DWORD PTR [edx-8]
  00012	33 c8		 xor	 ecx, eax
  00014	e8 00 00 00 00	 call	 @__security_check_cookie@4
  00019	b8 00 00 00 00	 mov	 eax, OFFSET __ehfuncinfo$??1bad_alloc@std@@UAE@XZ
  0001e	e9 00 00 00 00	 jmp	 ___CxxFrameHandler3
text$x	ENDS
??1bad_alloc@std@@UAE@XZ ENDP				; std::bad_alloc::~bad_alloc
;	COMDAT xdata$x
xdata$x	SEGMENT
__unwindtable$??0bad_alloc@std@@QAE@PBD@Z DD 0ffffffffH
	DD	FLAT:__unwindfunclet$??0bad_alloc@std@@QAE@PBD@Z$0
__ehfuncinfo$??0bad_alloc@std@@QAE@PBD@Z DD 019930522H
	DD	01H
	DD	FLAT:__unwindtable$??0bad_alloc@std@@QAE@PBD@Z
	DD	2 DUP(00H)
	DD	2 DUP(00H)
	DD	00H
	DD	00H
; Function compile flags: /Ogtpy
xdata$x	ENDS
;	COMDAT ??0bad_alloc@std@@QAE@PBD@Z
_TEXT	SEGMENT
_this$ = -16						; size = 4
__$EHRec$ = -12						; size = 12
__Message$ = 8						; size = 4
??0bad_alloc@std@@QAE@PBD@Z PROC			; std::bad_alloc::bad_alloc, COMDAT
; _this$ = ecx

; 371  : 		{	// construct from message string

  00000	6a ff		 push	 -1
  00002	68 00 00 00 00	 push	 __ehhandler$??0bad_alloc@std@@QAE@PBD@Z
  00007	64 a1 00 00 00
	00		 mov	 eax, DWORD PTR fs:0
  0000d	50		 push	 eax
  0000e	51		 push	 ecx
  0000f	56		 push	 esi
  00010	a1 00 00 00 00	 mov	 eax, DWORD PTR ___security_cookie
  00015	33 c4		 xor	 eax, esp
  00017	50		 push	 eax
  00018	8d 44 24 0c	 lea	 eax, DWORD PTR __$EHRec$[esp+24]
  0001c	64 a3 00 00 00
	00		 mov	 DWORD PTR fs:0, eax
  00022	8b f1		 mov	 esi, ecx
  00024	89 74 24 08	 mov	 DWORD PTR _this$[esp+24], esi
  00028	8d 44 24 1c	 lea	 eax, DWORD PTR __Message$[esp+20]
  0002c	50		 push	 eax
  0002d	e8 00 00 00 00	 call	 ??0exception@std@@QAE@ABQBD@Z ; std::exception::exception
  00032	c7 44 24 14 00
	00 00 00	 mov	 DWORD PTR __$EHRec$[esp+32], 0
  0003a	c7 06 00 00 00
	00		 mov	 DWORD PTR [esi], OFFSET ??_7bad_alloc@std@@6B@

; 372  : 		}

  00040	c7 44 24 14 ff
	ff ff ff	 mov	 DWORD PTR __$EHRec$[esp+32], -1
  00048	8b c6		 mov	 eax, esi
  0004a	8b 4c 24 0c	 mov	 ecx, DWORD PTR __$EHRec$[esp+24]
  0004e	64 89 0d 00 00
	00 00		 mov	 DWORD PTR fs:0, ecx
  00055	59		 pop	 ecx
  00056	5e		 pop	 esi
  00057	83 c4 10	 add	 esp, 16			; 00000010H
  0005a	c2 04 00	 ret	 4
_TEXT	ENDS
;	COMDAT text$x
text$x	SEGMENT
__unwindfunclet$??0bad_alloc@std@@QAE@PBD@Z$0:
  00000	8b 4d f0	 mov	 ecx, DWORD PTR _this$[ebp]
  00003	e9 00 00 00 00	 jmp	 ??1exception@std@@UAE@XZ ; std::exception::~exception
__ehhandler$??0bad_alloc@std@@QAE@PBD@Z:
  00008	8b 54 24 08	 mov	 edx, DWORD PTR [esp+8]
  0000c	8d 42 f8	 lea	 eax, DWORD PTR [edx-8]
  0000f	8b 4a f4	 mov	 ecx, DWORD PTR [edx-12]
  00012	33 c8		 xor	 ecx, eax
  00014	e8 00 00 00 00	 call	 @__security_check_cookie@4
  00019	b8 00 00 00 00	 mov	 eax, OFFSET __ehfuncinfo$??0bad_alloc@std@@QAE@PBD@Z
  0001e	e9 00 00 00 00	 jmp	 ___CxxFrameHandler3
text$x	ENDS
??0bad_alloc@std@@QAE@PBD@Z ENDP			; std::bad_alloc::bad_alloc
; Function compile flags: /Ogtpy
; File c:\program files\microsoft visual studio 9.0\vc\include\xutility
;	COMDAT ?_Has_container@_Iterator_base_aux@std@@QBE_NXZ
_TEXT	SEGMENT
?_Has_container@_Iterator_base_aux@std@@QBE_NXZ PROC	; std::_Iterator_base_aux::_Has_container, COMDAT
; _this$ = ecx

; 468  : 		return _Myaux != 0;

  00000	33 c0		 xor	 eax, eax
  00002	39 01		 cmp	 DWORD PTR [ecx], eax
  00004	0f 95 c0	 setne	 al

; 469  : 		}

  00007	c3		 ret	 0
?_Has_container@_Iterator_base_aux@std@@QBE_NXZ ENDP	; std::_Iterator_base_aux::_Has_container
; Function compile flags: /Ogtpy
_TEXT	ENDS
;	COMDAT ?_Same_container@_Iterator_base_aux@std@@QBE_NABV12@@Z
_TEXT	SEGMENT
?_Same_container@_Iterator_base_aux@std@@QBE_NABV12@@Z PROC ; std::_Iterator_base_aux::_Same_container, COMDAT
; _this$ = eax
; __Other$ = edx

; 463  : 		return _Myaux == _Other._Myaux;

  00000	8b 08		 mov	 ecx, DWORD PTR [eax]
  00002	33 c0		 xor	 eax, eax
  00004	3b 0a		 cmp	 ecx, DWORD PTR [edx]
  00006	0f 94 c0	 sete	 al

; 464  : 		}

  00009	c3		 ret	 0
?_Same_container@_Iterator_base_aux@std@@QBE_NABV12@@Z ENDP ; std::_Iterator_base_aux::_Same_container
; Function compile flags: /Ogtpy
_TEXT	ENDS
;	COMDAT ?_Set_container@_Iterator_base_aux@std@@QAEXQBV_Container_base_aux@2@@Z
_TEXT	SEGMENT
?_Set_container@_Iterator_base_aux@std@@QAEXQBV_Container_base_aux@2@@Z PROC ; std::_Iterator_base_aux::_Set_container, COMDAT
; _this$ = edx
; __Pcont$ = eax

; 453  : 		_Myaux = _Pcont->_Myownedaux;

  00000	8b 08		 mov	 ecx, DWORD PTR [eax]
  00002	89 0a		 mov	 DWORD PTR [edx], ecx

; 454  : 		}

  00004	c3		 ret	 0
?_Set_container@_Iterator_base_aux@std@@QAEXQBV_Container_base_aux@2@@Z ENDP ; std::_Iterator_base_aux::_Set_container
; Function compile flags: /Ogtpy
_TEXT	ENDS
;	COMDAT ??0_Iterator_base_aux@std@@QAE@XZ
_TEXT	SEGMENT
??0_Iterator_base_aux@std@@QAE@XZ PROC			; std::_Iterator_base_aux::_Iterator_base_aux, COMDAT
; _this$ = eax

; 448  : 	_Iterator_base_aux()

  00000	c7 00 00 00 00
	00		 mov	 DWORD PTR [eax], 0
  00006	c3		 ret	 0
??0_Iterator_base_aux@std@@QAE@XZ ENDP			; std::_Iterator_base_aux::_Iterator_base_aux
; Function compile flags: /Ogtpy
_TEXT	ENDS
;	COMDAT ?_Getcont@_Aux_cont@std@@QBEPBV_Container_base_aux@2@XZ
_TEXT	SEGMENT
?_Getcont@_Aux_cont@std@@QBEPBV_Container_base_aux@2@XZ PROC ; std::_Aux_cont::_Getcont, COMDAT
; _this$ = eax

; 369  : 		return _Mycontainer;

  00000	8b 00		 mov	 eax, DWORD PTR [eax]

; 370  : 		}

  00002	c3		 ret	 0
?_Getcont@_Aux_cont@std@@QBEPBV_Container_base_aux@2@XZ ENDP ; std::_Aux_cont::_Getcont
; Function compile flags: /Ogtpy
; File c:\program files\microsoft visual studio 9.0\vc\include\iosfwd
_TEXT	ENDS
;	COMDAT ?_Move_s@?$char_traits@D@std@@SAPADPADIPBDI@Z
_TEXT	SEGMENT
__First1$ = 8						; size = 4
__Size_in_bytes$ = 12					; size = 4
__First2$ = 16						; size = 4
__Count$ = 20						; size = 4
?_Move_s@?$char_traits@D@std@@SAPADPADIPBDI@Z PROC	; std::char_traits<char>::_Move_s, COMDAT

; 487  : //		_DEBUG_POINTER(_First1);
; 488  : //		_DEBUG_POINTER(_First2);
; 489  : 		_CRT_SECURE_MEMMOVE(_First1, _Size_in_bytes, _First2, _Count);

  00000	8b 44 24 10	 mov	 eax, DWORD PTR __Count$[esp-4]
  00004	8b 4c 24 0c	 mov	 ecx, DWORD PTR __First2$[esp-4]
  00008	8b 54 24 08	 mov	 edx, DWORD PTR __Size_in_bytes$[esp-4]
  0000c	56		 push	 esi
  0000d	8b 74 24 08	 mov	 esi, DWORD PTR __First1$[esp]
  00011	50		 push	 eax
  00012	51		 push	 ecx
  00013	52		 push	 edx
  00014	56		 push	 esi
  00015	e8 00 00 00 00	 call	 _memmove_s
  0001a	83 c4 10	 add	 esp, 16			; 00000010H

; 490  : 		return _First1;

  0001d	8b c6		 mov	 eax, esi
  0001f	5e		 pop	 esi

; 491  : 		}

  00020	c3		 ret	 0
?_Move_s@?$char_traits@D@std@@SAPADPADIPBDI@Z ENDP	; std::char_traits<char>::_Move_s
; Function compile flags: /Ogtpy
_TEXT	ENDS
;	COMDAT ?_Copy_s@?$char_traits@D@std@@SAPADPADIPBDI@Z
_TEXT	SEGMENT
__First1$ = 8						; size = 4
__Size_in_bytes$ = 12					; size = 4
__First2$ = 16						; size = 4
__Count$ = 20						; size = 4
?_Copy_s@?$char_traits@D@std@@SAPADPADIPBDI@Z PROC	; std::char_traits<char>::_Copy_s, COMDAT

; 463  : //		_DEBUG_POINTER(_First1);
; 464  : //		_DEBUG_POINTER(_First2);
; 465  : 		_CRT_SECURE_MEMCPY(_First1, _Size_in_bytes, _First2, _Count);

  00000	8b 44 24 10	 mov	 eax, DWORD PTR __Count$[esp-4]
  00004	8b 4c 24 0c	 mov	 ecx, DWORD PTR __First2$[esp-4]
  00008	8b 54 24 08	 mov	 edx, DWORD PTR __Size_in_bytes$[esp-4]
  0000c	56		 push	 esi
  0000d	8b 74 24 08	 mov	 esi, DWORD PTR __First1$[esp]
  00011	50		 push	 eax
  00012	51		 push	 ecx
  00013	52		 push	 edx
  00014	56		 push	 esi
  00015	e8 00 00 00 00	 call	 _memcpy_s
  0001a	83 c4 10	 add	 esp, 16			; 00000010H

; 466  : 		return _First1;

  0001d	8b c6		 mov	 eax, esi
  0001f	5e		 pop	 esi

; 467  : 		}

  00020	c3		 ret	 0
?_Copy_s@?$char_traits@D@std@@SAPADPADIPBDI@Z ENDP	; std::char_traits<char>::_Copy_s
; Function compile flags: /Ogtpy
_TEXT	ENDS
;	COMDAT ?length@?$char_traits@D@std@@SAIPBD@Z
_TEXT	SEGMENT
__First$ = 8						; size = 4
?length@?$char_traits@D@std@@SAIPBD@Z PROC		; std::char_traits<char>::length, COMDAT

; 448  : //		_DEBUG_POINTER(_First);
; 449  : 		return (::strlen(_First));

  00000	8b 44 24 04	 mov	 eax, DWORD PTR __First$[esp-4]
  00004	8d 50 01	 lea	 edx, DWORD PTR [eax+1]
$LL3@length:
  00007	8a 08		 mov	 cl, BYTE PTR [eax]
  00009	40		 inc	 eax
  0000a	84 c9		 test	 cl, cl
  0000c	75 f9		 jne	 SHORT $LL3@length
  0000e	2b c2		 sub	 eax, edx

; 450  : 		}

  00010	c3		 ret	 0
?length@?$char_traits@D@std@@SAIPBD@Z ENDP		; std::char_traits<char>::length
; Function compile flags: /Ogtpy
_TEXT	ENDS
;	COMDAT ?assign@?$char_traits@D@std@@SAXAADABD@Z
_TEXT	SEGMENT
__Left$ = 8						; size = 4
__Right$ = 12						; size = 4
?assign@?$char_traits@D@std@@SAXAADABD@Z PROC		; std::char_traits<char>::assign, COMDAT

; 425  : 		_Left = _Right;

  00000	8b 44 24 08	 mov	 eax, DWORD PTR __Right$[esp-4]
  00004	8a 08		 mov	 cl, BYTE PTR [eax]
  00006	8b 54 24 04	 mov	 edx, DWORD PTR __Left$[esp-4]
  0000a	88 0a		 mov	 BYTE PTR [edx], cl

; 426  : 		}

  0000c	c3		 ret	 0
?assign@?$char_traits@D@std@@SAXAADABD@Z ENDP		; std::char_traits<char>::assign
; Function compile flags: /Ogtpy
;	COMDAT ??$move_s@U?$char_traits@D@std@@@_Traits_helper@std@@YAPADPADIPBDIU_Secure_char_traits_tag@1@@Z
_TEXT	SEGMENT
__First1$ = 8						; size = 4
__Size$ = 12						; size = 4
__First2$ = 16						; size = 4
__Count$ = 20						; size = 4
___formal$ = 24						; size = 1
??$move_s@U?$char_traits@D@std@@@_Traits_helper@std@@YAPADPADIPBDIU_Secure_char_traits_tag@1@@Z PROC ; std::_Traits_helper::move_s<std::char_traits<char> >, COMDAT

; 624  : 		return _Traits::_Move_s(_First1, _Size, _First2, _Count);

  00000	8b 44 24 10	 mov	 eax, DWORD PTR __Count$[esp-4]
  00004	8b 4c 24 0c	 mov	 ecx, DWORD PTR __First2$[esp-4]
  00008	8b 54 24 08	 mov	 edx, DWORD PTR __Size$[esp-4]
  0000c	56		 push	 esi
  0000d	8b 74 24 08	 mov	 esi, DWORD PTR __First1$[esp]
  00011	50		 push	 eax
  00012	51		 push	 ecx
  00013	52		 push	 edx
  00014	56		 push	 esi
  00015	e8 00 00 00 00	 call	 _memmove_s
  0001a	83 c4 10	 add	 esp, 16			; 00000010H
  0001d	8b c6		 mov	 eax, esi
  0001f	5e		 pop	 esi

; 625  : 	}

  00020	c3		 ret	 0
??$move_s@U?$char_traits@D@std@@@_Traits_helper@std@@YAPADPADIPBDIU_Secure_char_traits_tag@1@@Z ENDP ; std::_Traits_helper::move_s<std::char_traits<char> >
; Function compile flags: /Ogtpy
_TEXT	ENDS
;	COMDAT ??$copy_s@U?$char_traits@D@std@@@_Traits_helper@std@@YAPADPADIPBDIU_Secure_char_traits_tag@1@@Z
_TEXT	SEGMENT
__First1$ = 8						; size = 4
__Size$ = 12						; size = 4
__First2$ = 16						; size = 4
__Count$ = 20						; size = 4
___formal$ = 24						; size = 1
??$copy_s@U?$char_traits@D@std@@@_Traits_helper@std@@YAPADPADIPBDIU_Secure_char_traits_tag@1@@Z PROC ; std::_Traits_helper::copy_s<std::char_traits<char> >, COMDAT

; 597  : 		return _Traits::_Copy_s(_First1, _Size, _First2, _Count);

  00000	8b 44 24 10	 mov	 eax, DWORD PTR __Count$[esp-4]
  00004	8b 4c 24 0c	 mov	 ecx, DWORD PTR __First2$[esp-4]
  00008	8b 54 24 08	 mov	 edx, DWORD PTR __Size$[esp-4]
  0000c	56		 push	 esi
  0000d	8b 74 24 08	 mov	 esi, DWORD PTR __First1$[esp]
  00011	50		 push	 eax
  00012	51		 push	 ecx
  00013	52		 push	 edx
  00014	56		 push	 esi
  00015	e8 00 00 00 00	 call	 _memcpy_s
  0001a	83 c4 10	 add	 esp, 16			; 00000010H
  0001d	8b c6		 mov	 eax, esi
  0001f	5e		 pop	 esi

; 598  : 	}

  00020	c3		 ret	 0
??$copy_s@U?$char_traits@D@std@@@_Traits_helper@std@@YAPADPADIPBDIU_Secure_char_traits_tag@1@@Z ENDP ; std::_Traits_helper::copy_s<std::char_traits<char> >
; Function compile flags: /Ogtpy
; File c:\program files\microsoft visual studio 9.0\vc\include\xmemory
_TEXT	ENDS
;	COMDAT ??$_Allocate@D@std@@YAPADIPAD@Z
_TEXT	SEGMENT
$T180479 = -12						; size = 12
__Count$ = 8						; size = 4
___formal$ = 12						; size = 4
??$_Allocate@D@std@@YAPADIPAD@Z PROC			; std::_Allocate<char>, COMDAT

; 37   : 	if (_Count <= 0)

  00000	8b 4c 24 04	 mov	 ecx, DWORD PTR __Count$[esp-4]
  00004	83 ec 0c	 sub	 esp, 12			; 0000000cH
  00007	85 c9		 test	 ecx, ecx
  00009	77 0f		 ja	 SHORT $LN3@Allocate@11

; 38   : 		_Count = 0;

  0000b	33 c9		 xor	 ecx, ecx
$LN1@Allocate@11:

; 41   : 
; 42   : 		// allocate storage for _Count elements of type _Ty
; 43   : 	return ((_Ty _FARQ *)::operator new(_Count * sizeof (_Ty)));

  0000d	51		 push	 ecx
  0000e	e8 00 00 00 00	 call	 ??2@YAPAXI@Z		; operator new
  00013	83 c4 04	 add	 esp, 4

; 44   : 	}

  00016	83 c4 0c	 add	 esp, 12			; 0000000cH
  00019	c3		 ret	 0
$LN3@Allocate@11:

; 39   : 	else if (((_SIZT)(-1) / _Count) < sizeof (_Ty))

  0001a	83 c8 ff	 or	 eax, -1
  0001d	33 d2		 xor	 edx, edx
  0001f	f7 f1		 div	 ecx
  00021	83 f8 01	 cmp	 eax, 1
  00024	73 e7		 jae	 SHORT $LN1@Allocate@11

; 40   : 		_THROW_NCEE(std::bad_alloc, NULL);

  00026	6a 00		 push	 0
  00028	8d 4c 24 04	 lea	 ecx, DWORD PTR $T180479[esp+16]
  0002c	e8 00 00 00 00	 call	 ??0bad_alloc@std@@QAE@PBD@Z ; std::bad_alloc::bad_alloc
  00031	68 00 00 00 00	 push	 OFFSET __TI2?AVbad_alloc@std@@
  00036	8d 44 24 04	 lea	 eax, DWORD PTR $T180479[esp+16]
  0003a	50		 push	 eax
  0003b	e8 00 00 00 00	 call	 __CxxThrowException@8
$LN7@Allocate@11:
$LN6@Allocate@11:
  00040	cc		 int	 3
??$_Allocate@D@std@@YAPADIPAD@Z ENDP			; std::_Allocate<char>
; Function compile flags: /Ogtpy
_TEXT	ENDS
;	COMDAT ??$_Allocate@V?$basic_string@DU?$char_traits@D@std@@V?$allocator@D@2@@std@@@std@@YAPAV?$basic_string@DU?$char_traits@D@std@@V?$allocator@D@2@@0@IPAV10@@Z
_TEXT	SEGMENT
$T180485 = -12						; size = 12
??$_Allocate@V?$basic_string@DU?$char_traits@D@std@@V?$allocator@D@2@@std@@@std@@YAPAV?$basic_string@DU?$char_traits@D@std@@V?$allocator@D@2@@0@IPAV10@@Z PROC ; std::_Allocate<std::basic_string<char,std::char_traits<char>,std::allocator<char> > >, COMDAT
; __Count$ = ecx

; 37   : 	if (_Count <= 0)
; 38   : 		_Count = 0;
; 39   : 	else if (((_SIZT)(-1) / _Count) < sizeof (_Ty))

  00000	83 c8 ff	 or	 eax, -1
  00003	33 d2		 xor	 edx, edx
  00005	f7 f1		 div	 ecx
  00007	83 ec 0c	 sub	 esp, 12			; 0000000cH
  0000a	83 f8 1c	 cmp	 eax, 28			; 0000001cH
  0000d	73 1a		 jae	 SHORT $LN1@Allocate@12

; 40   : 		_THROW_NCEE(std::bad_alloc, NULL);

  0000f	6a 00		 push	 0
  00011	8d 4c 24 04	 lea	 ecx, DWORD PTR $T180485[esp+16]
  00015	e8 00 00 00 00	 call	 ??0bad_alloc@std@@QAE@PBD@Z ; std::bad_alloc::bad_alloc
  0001a	68 00 00 00 00	 push	 OFFSET __TI2?AVbad_alloc@std@@
  0001f	8d 44 24 04	 lea	 eax, DWORD PTR $T180485[esp+16]
  00023	50		 push	 eax
  00024	e8 00 00 00 00	 call	 __CxxThrowException@8
$LN11@Allocate@12:
$LN1@Allocate@12:

; 41   : 
; 42   : 		// allocate storage for _Count elements of type _Ty
; 43   : 	return ((_Ty _FARQ *)::operator new(_Count * sizeof (_Ty)));

  00029	8d 14 cd 00 00
	00 00		 lea	 edx, DWORD PTR [ecx*8]
  00030	2b d1		 sub	 edx, ecx
  00032	03 d2		 add	 edx, edx
  00034	03 d2		 add	 edx, edx
  00036	52		 push	 edx
  00037	e8 00 00 00 00	 call	 ??2@YAPAXI@Z		; operator new
  0003c	83 c4 04	 add	 esp, 4

; 44   : 	}

  0003f	83 c4 0c	 add	 esp, 12			; 0000000cH
  00042	c3		 ret	 0
$LN10@Allocate@12:
??$_Allocate@V?$basic_string@DU?$char_traits@D@std@@V?$allocator@D@2@@std@@@std@@YAPAV?$basic_string@DU?$char_traits@D@std@@V?$allocator@D@2@@0@IPAV10@@Z ENDP ; std::_Allocate<std::basic_string<char,std::char_traits<char>,std::allocator<char> > >
; Function compile flags: /Ogtpy
; File c:\program files\microsoft visual studio 9.0\vc\include\iosfwd
_TEXT	ENDS
;	COMDAT ??$move_s@U?$char_traits@D@std@@@_Traits_helper@std@@YAPADPADIPBDI@Z
_TEXT	SEGMENT
__First1$ = 8						; size = 4
__Size$ = 12						; size = 4
__First2$ = 16						; size = 4
__Count$ = 20						; size = 4
??$move_s@U?$char_traits@D@std@@@_Traits_helper@std@@YAPADPADIPBDI@Z PROC ; std::_Traits_helper::move_s<std::char_traits<char> >, COMDAT

; 616  : 		return move_s<_Traits>(_First1, _Size, _First2, _Count, _Char_traits_cat<_Traits>());

  00000	8b 44 24 10	 mov	 eax, DWORD PTR __Count$[esp-4]
  00004	8b 4c 24 0c	 mov	 ecx, DWORD PTR __First2$[esp-4]
  00008	8b 54 24 08	 mov	 edx, DWORD PTR __Size$[esp-4]
  0000c	56		 push	 esi
  0000d	8b 74 24 08	 mov	 esi, DWORD PTR __First1$[esp]
  00011	50		 push	 eax
  00012	51		 push	 ecx
  00013	52		 push	 edx
  00014	56		 push	 esi
  00015	e8 00 00 00 00	 call	 _memmove_s
  0001a	83 c4 10	 add	 esp, 16			; 00000010H
  0001d	8b c6		 mov	 eax, esi
  0001f	5e		 pop	 esi

; 617  : 	}

  00020	c3		 ret	 0
??$move_s@U?$char_traits@D@std@@@_Traits_helper@std@@YAPADPADIPBDI@Z ENDP ; std::_Traits_helper::move_s<std::char_traits<char> >
; Function compile flags: /Ogtpy
_TEXT	ENDS
;	COMDAT ??$copy_s@U?$char_traits@D@std@@@_Traits_helper@std@@YAPADPADIPBDI@Z
_TEXT	SEGMENT
__First1$ = 8						; size = 4
__Size$ = 12						; size = 4
__First2$ = 16						; size = 4
__Count$ = 20						; size = 4
??$copy_s@U?$char_traits@D@std@@@_Traits_helper@std@@YAPADPADIPBDI@Z PROC ; std::_Traits_helper::copy_s<std::char_traits<char> >, COMDAT

; 589  : 		return copy_s<_Traits>(_First1, _Size, _First2, _Count, _Char_traits_cat<_Traits>());

  00000	8b 44 24 10	 mov	 eax, DWORD PTR __Count$[esp-4]
  00004	8b 4c 24 0c	 mov	 ecx, DWORD PTR __First2$[esp-4]
  00008	8b 54 24 08	 mov	 edx, DWORD PTR __Size$[esp-4]
  0000c	56		 push	 esi
  0000d	8b 74 24 08	 mov	 esi, DWORD PTR __First1$[esp]
  00011	50		 push	 eax
  00012	51		 push	 ecx
  00013	52		 push	 edx
  00014	56		 push	 esi
  00015	e8 00 00 00 00	 call	 _memcpy_s
  0001a	83 c4 10	 add	 esp, 16			; 00000010H
  0001d	8b c6		 mov	 eax, esi
  0001f	5e		 pop	 esi

; 590  : 	}

  00020	c3		 ret	 0
??$copy_s@U?$char_traits@D@std@@@_Traits_helper@std@@YAPADPADIPBDI@Z ENDP ; std::_Traits_helper::copy_s<std::char_traits<char> >
; Function compile flags: /Ogtpy
; File c:\program files\microsoft visual studio 9.0\vc\include\xmemory
_TEXT	ENDS
;	COMDAT ?allocate@?$allocator@D@std@@QAEPADI@Z
_TEXT	SEGMENT
$T180530 = -12						; size = 12
__Count$ = 8						; size = 4
?allocate@?$allocator@D@std@@QAEPADI@Z PROC		; std::allocator<char>::allocate, COMDAT
; _this$ = ecx

; 145  : 		return (_Allocate(_Count, (pointer)0));

  00000	8b 4c 24 04	 mov	 ecx, DWORD PTR __Count$[esp-4]
  00004	83 ec 0c	 sub	 esp, 12			; 0000000cH
  00007	85 c9		 test	 ecx, ecx
  00009	77 11		 ja	 SHORT $LN5@allocate@10
  0000b	33 c9		 xor	 ecx, ecx
$LN3@allocate@10:
  0000d	51		 push	 ecx
  0000e	e8 00 00 00 00	 call	 ??2@YAPAXI@Z		; operator new
  00013	83 c4 04	 add	 esp, 4

; 146  : 		}

  00016	83 c4 0c	 add	 esp, 12			; 0000000cH
  00019	c2 04 00	 ret	 4

; 145  : 		return (_Allocate(_Count, (pointer)0));

$LN5@allocate@10:
  0001c	83 c8 ff	 or	 eax, -1
  0001f	33 d2		 xor	 edx, edx
  00021	f7 f1		 div	 ecx
  00023	83 f8 01	 cmp	 eax, 1
  00026	73 e5		 jae	 SHORT $LN3@allocate@10
  00028	6a 00		 push	 0
  0002a	8d 4c 24 04	 lea	 ecx, DWORD PTR $T180530[esp+16]
  0002e	e8 00 00 00 00	 call	 ??0bad_alloc@std@@QAE@PBD@Z ; std::bad_alloc::bad_alloc
  00033	68 00 00 00 00	 push	 OFFSET __TI2?AVbad_alloc@std@@
  00038	8d 44 24 04	 lea	 eax, DWORD PTR $T180530[esp+16]
  0003c	50		 push	 eax
  0003d	e8 00 00 00 00	 call	 __CxxThrowException@8
$LN10@allocate@10:
$LN9@allocate@10:
  00042	cc		 int	 3
?allocate@?$allocator@D@std@@QAEPADI@Z ENDP		; std::allocator<char>::allocate
; Function compile flags: /Ogtpy
_TEXT	ENDS
;	COMDAT ??0?$_Iterator_with_base@Urandom_access_iterator_tag@std@@V?$basic_string@DU?$char_traits@D@std@@V?$allocator@D@2@@2@HPBV32@ABV32@V_Iterator_base_aux@2@@std@@QAE@XZ
_TEXT	SEGMENT
??0?$_Iterator_with_base@Urandom_access_iterator_tag@std@@V?$basic_string@DU?$char_traits@D@std@@V?$allocator@D@2@@2@HPBV32@ABV32@V_Iterator_base_aux@2@@std@@QAE@XZ PROC ; std::_Iterator_with_base<std::random_access_iterator_tag,std::basic_string<char,std::char_traits<char>,std::allocator<char> >,int,std::basic_string<char,std::char_traits<char>,std::allocator<char> > const *,std::basic_string<char,std::char_traits<char>,std::allocator<char> > const &,std::_Iterator_base_aux>::_Iterator_with_base<std::random_access_iterator_tag,std::basic_string<char,std::char_traits<char>,std::allocator<char> >,int,std::basic_string<char,std::char_traits<char>,std::allocator<char> > const *,std::basic_string<char,std::char_traits<char>,std::allocator<char> > const &,std::_Iterator_base_aux>, COMDAT
; _this$ = eax
  00000	c7 00 00 00 00
	00		 mov	 DWORD PTR [eax], 0
  00006	c3		 ret	 0
??0?$_Iterator_with_base@Urandom_access_iterator_tag@std@@V?$basic_string@DU?$char_traits@D@std@@V?$allocator@D@2@@2@HPBV32@ABV32@V_Iterator_base_aux@2@@std@@QAE@XZ ENDP ; std::_Iterator_with_base<std::random_access_iterator_tag,std::basic_string<char,std::char_traits<char>,std::allocator<char> >,int,std::basic_string<char,std::char_traits<char>,std::allocator<char> > const *,std::basic_string<char,std::char_traits<char>,std::allocator<char> > const &,std::_Iterator_base_aux>::_Iterator_with_base<std::random_access_iterator_tag,std::basic_string<char,std::char_traits<char>,std::allocator<char> >,int,std::basic_string<char,std::char_traits<char>,std::allocator<char> > const *,std::basic_string<char,std::char_traits<char>,std::allocator<char> > const &,std::_Iterator_base_aux>
; Function compile flags: /Ogtpy
_TEXT	ENDS
;	COMDAT ??0?$_Ranit@V?$basic_string@DU?$char_traits@D@std@@V?$allocator@D@2@@std@@HPBV12@ABV12@@std@@QAE@XZ
_TEXT	SEGMENT
??0?$_Ranit@V?$basic_string@DU?$char_traits@D@std@@V?$allocator@D@2@@std@@HPBV12@ABV12@@std@@QAE@XZ PROC ; std::_Ranit<std::basic_string<char,std::char_traits<char>,std::allocator<char> >,int,std::basic_string<char,std::char_traits<char>,std::allocator<char> > const *,std::basic_string<char,std::char_traits<char>,std::allocator<char> > const &>::_Ranit<std::basic_string<char,std::char_traits<char>,std::allocator<char> >,int,std::basic_string<char,std::char_traits<char>,std::allocator<char> > const *,std::basic_string<char,std::char_traits<char>,std::allocator<char> > const &>, COMDAT
; _this$ = eax
  00000	c7 00 00 00 00
	00		 mov	 DWORD PTR [eax], 0
  00006	c3		 ret	 0
??0?$_Ranit@V?$basic_string@DU?$char_traits@D@std@@V?$allocator@D@2@@std@@HPBV12@ABV12@@std@@QAE@XZ ENDP ; std::_Ranit<std::basic_string<char,std::char_traits<char>,std::allocator<char> >,int,std::basic_string<char,std::char_traits<char>,std::allocator<char> > const *,std::basic_string<char,std::char_traits<char>,std::allocator<char> > const &>::_Ranit<std::basic_string<char,std::char_traits<char>,std::allocator<char> >,int,std::basic_string<char,std::char_traits<char>,std::allocator<char> > const *,std::basic_string<char,std::char_traits<char>,std::allocator<char> > const &>
; Function compile flags: /Ogtpy
; File c:\program files\microsoft visual studio 9.0\vc\include\vector
_TEXT	ENDS
;	COMDAT ??8?$_Vector_const_iterator@V?$basic_string@DU?$char_traits@D@std@@V?$allocator@D@2@@std@@V?$allocator@V?$basic_string@DU?$char_traits@D@std@@V?$allocator@D@2@@std@@@2@@std@@QBE_NABV01@@Z
_TEXT	SEGMENT
??8?$_Vector_const_iterator@V?$basic_string@DU?$char_traits@D@std@@V?$allocator@D@2@@std@@V?$allocator@V?$basic_string@DU?$char_traits@D@std@@V?$allocator@D@2@@std@@@2@@std@@QBE_NABV01@@Z PROC ; std::_Vector_const_iterator<std::basic_string<char,std::char_traits<char>,std::allocator<char> >,std::allocator<std::basic_string<char,std::char_traits<char>,std::allocator<char> > > >::operator==, COMDAT
; _this$ = edi
; __Right$ = esi

; 204  : 
; 205  :  #if _HAS_ITERATOR_DEBUGGING
; 206  : 		_Compat(_Right);
; 207  :  #else
; 208  : 		_SCL_SECURE_VALIDATE(this->_Has_container() && this->_Same_container(_Right));

  00000	8b 07		 mov	 eax, DWORD PTR [edi]
  00002	85 c0		 test	 eax, eax
  00004	74 04		 je	 SHORT $LN4@operator@28
  00006	3b 06		 cmp	 eax, DWORD PTR [esi]
  00008	74 05		 je	 SHORT $LN3@operator@28
$LN4@operator@28:
  0000a	e8 00 00 00 00	 call	 __invalid_parameter_noinfo
$LN3@operator@28:

; 209  :  #endif /* _HAS_ITERATOR_DEBUGGING */
; 210  : 
; 211  : 		return (_Myptr == _Right._Myptr);

  0000f	8b 47 04	 mov	 eax, DWORD PTR [edi+4]
  00012	33 c9		 xor	 ecx, ecx
  00014	3b 46 04	 cmp	 eax, DWORD PTR [esi+4]
  00017	0f 94 c1	 sete	 cl
  0001a	8a c1		 mov	 al, cl

; 212  : 		}

  0001c	c3		 ret	 0
??8?$_Vector_const_iterator@V?$basic_string@DU?$char_traits@D@std@@V?$allocator@D@2@@std@@V?$allocator@V?$basic_string@DU?$char_traits@D@std@@V?$allocator@D@2@@std@@@2@@std@@QBE_NABV01@@Z ENDP ; std::_Vector_const_iterator<std::basic_string<char,std::char_traits<char>,std::allocator<char> >,std::allocator<std::basic_string<char,std::char_traits<char>,std::allocator<char> > > >::operator==
; Function compile flags: /Ogtpy
_TEXT	ENDS
;	COMDAT ??0?$_Vector_const_iterator@V?$basic_string@DU?$char_traits@D@std@@V?$allocator@D@2@@std@@V?$allocator@V?$basic_string@DU?$char_traits@D@std@@V?$allocator@D@2@@std@@@2@@std@@QAE@PAV?$basic_string@DU?$char_traits@D@std@@V?$allocator@D@2@@1@PBV_Container_base_aux@1@@Z
_TEXT	SEGMENT
??0?$_Vector_const_iterator@V?$basic_string@DU?$char_traits@D@std@@V?$allocator@D@2@@std@@V?$allocator@V?$basic_string@DU?$char_traits@D@std@@V?$allocator@D@2@@std@@@2@@std@@QAE@PAV?$basic_string@DU?$char_traits@D@std@@V?$allocator@D@2@@1@PBV_Container_base_aux@1@@Z PROC ; std::_Vector_const_iterator<std::basic_string<char,std::char_traits<char>,std::allocator<char> >,std::allocator<std::basic_string<char,std::char_traits<char>,std::allocator<char> > > >::_Vector_const_iterator<std::basic_string<char,std::char_traits<char>,std::allocator<char> >,std::allocator<std::basic_string<char,std::char_traits<char>,std::allocator<char> > > >, COMDAT
; _this$ = edi
; __Ptr$ = ebx
; __Pvector$ = esi

; 76   : 	_Vector_const_iterator(_Tptr _Ptr, const _Container_base *_Pvector)

  00000	c7 07 00 00 00
	00		 mov	 DWORD PTR [edi], 0

; 77   : 		{	// construct with pointer _Ptr
; 78   : 		_SCL_SECURE_VALIDATE(_Pvector != NULL && ((_Myvec *)_Pvector)->_Myfirst <= _Ptr && _Ptr <= ((_Myvec *)_Pvector)->_Mylast);

  00006	85 f6		 test	 esi, esi
  00008	74 0a		 je	 SHORT $LN4@Vector_con@9
  0000a	39 5e 0c	 cmp	 DWORD PTR [esi+12], ebx
  0000d	77 05		 ja	 SHORT $LN4@Vector_con@9
  0000f	3b 5e 10	 cmp	 ebx, DWORD PTR [esi+16]
  00012	76 05		 jbe	 SHORT $LN3@Vector_con@9
$LN4@Vector_con@9:
  00014	e8 00 00 00 00	 call	 __invalid_parameter_noinfo
$LN3@Vector_con@9:

; 79   : 		this->_Set_container(_Pvector);

  00019	8b 06		 mov	 eax, DWORD PTR [esi]
  0001b	89 07		 mov	 DWORD PTR [edi], eax

; 80   : 		_Myptr = _Ptr;

  0001d	89 5f 04	 mov	 DWORD PTR [edi+4], ebx

; 81   : 		}

  00020	8b c7		 mov	 eax, edi
  00022	c3		 ret	 0
??0?$_Vector_const_iterator@V?$basic_string@DU?$char_traits@D@std@@V?$allocator@D@2@@std@@V?$allocator@V?$basic_string@DU?$char_traits@D@std@@V?$allocator@D@2@@std@@@2@@std@@QAE@PAV?$basic_string@DU?$char_traits@D@std@@V?$allocator@D@2@@1@PBV_Container_base_aux@1@@Z ENDP ; std::_Vector_const_iterator<std::basic_string<char,std::char_traits<char>,std::allocator<char> >,std::allocator<std::basic_string<char,std::char_traits<char>,std::allocator<char> > > >::_Vector_const_iterator<std::basic_string<char,std::char_traits<char>,std::allocator<char> >,std::allocator<std::basic_string<char,std::char_traits<char>,std::allocator<char> > > >
; Function compile flags: /Ogtpy
_TEXT	ENDS
;	COMDAT ??9?$_Vector_const_iterator@V?$basic_string@DU?$char_traits@D@std@@V?$allocator@D@2@@std@@V?$allocator@V?$basic_string@DU?$char_traits@D@std@@V?$allocator@D@2@@std@@@2@@std@@QBE_NABV01@@Z
_TEXT	SEGMENT
??9?$_Vector_const_iterator@V?$basic_string@DU?$char_traits@D@std@@V?$allocator@D@2@@std@@V?$allocator@V?$basic_string@DU?$char_traits@D@std@@V?$allocator@D@2@@std@@@2@@std@@QBE_NABV01@@Z PROC ; std::_Vector_const_iterator<std::basic_string<char,std::char_traits<char>,std::allocator<char> >,std::allocator<std::basic_string<char,std::char_traits<char>,std::allocator<char> > > >::operator!=, COMDAT
; _this$ = edi
; __Right$ = esi

; 216  : 		return (!(*this == _Right));

  00000	8b 07		 mov	 eax, DWORD PTR [edi]
  00002	85 c0		 test	 eax, eax
  00004	74 04		 je	 SHORT $LN6@operator@29
  00006	3b 06		 cmp	 eax, DWORD PTR [esi]
  00008	74 05		 je	 SHORT $LN5@operator@29
$LN6@operator@29:
  0000a	e8 00 00 00 00	 call	 __invalid_parameter_noinfo
$LN5@operator@29:
  0000f	8b 47 04	 mov	 eax, DWORD PTR [edi+4]
  00012	33 c9		 xor	 ecx, ecx
  00014	3b 46 04	 cmp	 eax, DWORD PTR [esi+4]
  00017	0f 95 c1	 setne	 cl
  0001a	8a c1		 mov	 al, cl

; 217  : 		}

  0001c	c3		 ret	 0
??9?$_Vector_const_iterator@V?$basic_string@DU?$char_traits@D@std@@V?$allocator@D@2@@std@@V?$allocator@V?$basic_string@DU?$char_traits@D@std@@V?$allocator@D@2@@std@@@2@@std@@QBE_NABV01@@Z ENDP ; std::_Vector_const_iterator<std::basic_string<char,std::char_traits<char>,std::allocator<char> >,std::allocator<std::basic_string<char,std::char_traits<char>,std::allocator<char> > > >::operator!=
; Function compile flags: /Ogtpy
_TEXT	ENDS
;	COMDAT ??G?$_Vector_const_iterator@V?$basic_string@DU?$char_traits@D@std@@V?$allocator@D@2@@std@@V?$allocator@V?$basic_string@DU?$char_traits@D@std@@V?$allocator@D@2@@std@@@2@@std@@QBEHABV01@@Z
_TEXT	SEGMENT
??G?$_Vector_const_iterator@V?$basic_string@DU?$char_traits@D@std@@V?$allocator@D@2@@std@@V?$allocator@V?$basic_string@DU?$char_traits@D@std@@V?$allocator@D@2@@std@@@2@@std@@QBEHABV01@@Z PROC ; std::_Vector_const_iterator<std::basic_string<char,std::char_traits<char>,std::allocator<char> >,std::allocator<std::basic_string<char,std::char_traits<char>,std::allocator<char> > > >::operator-, COMDAT
; _this$ = edi
; __Right$ = esi

; 187  : 
; 188  :  #if _HAS_ITERATOR_DEBUGGING
; 189  : 		_Compat(_Right);
; 190  :  #else
; 191  : 		_SCL_SECURE_VALIDATE(this->_Has_container() && this->_Same_container(_Right));

  00000	8b 07		 mov	 eax, DWORD PTR [edi]
  00002	85 c0		 test	 eax, eax
  00004	74 04		 je	 SHORT $LN4@operator@30
  00006	3b 06		 cmp	 eax, DWORD PTR [esi]
  00008	74 05		 je	 SHORT $LN3@operator@30
$LN4@operator@30:
  0000a	e8 00 00 00 00	 call	 __invalid_parameter_noinfo
$LN3@operator@30:

; 192  :  #endif /* _HAS_ITERATOR_DEBUGGING */
; 193  : 
; 194  : 		return (_Myptr - _Right._Myptr);

  0000f	8b 4f 04	 mov	 ecx, DWORD PTR [edi+4]
  00012	2b 4e 04	 sub	 ecx, DWORD PTR [esi+4]
  00015	b8 93 24 49 92	 mov	 eax, -1840700269	; 92492493H
  0001a	f7 e9		 imul	 ecx
  0001c	03 d1		 add	 edx, ecx
  0001e	c1 fa 04	 sar	 edx, 4
  00021	8b c2		 mov	 eax, edx
  00023	c1 e8 1f	 shr	 eax, 31			; 0000001fH
  00026	03 c2		 add	 eax, edx

; 195  : 		}

  00028	c3		 ret	 0
??G?$_Vector_const_iterator@V?$basic_string@DU?$char_traits@D@std@@V?$allocator@D@2@@std@@V?$allocator@V?$basic_string@DU?$char_traits@D@std@@V?$allocator@D@2@@std@@@2@@std@@QBEHABV01@@Z ENDP ; std::_Vector_const_iterator<std::basic_string<char,std::char_traits<char>,std::allocator<char> >,std::allocator<std::basic_string<char,std::char_traits<char>,std::allocator<char> > > >::operator-
; Function compile flags: /Ogtpy
_TEXT	ENDS
;	COMDAT ??0?$_Vector_iterator@V?$basic_string@DU?$char_traits@D@std@@V?$allocator@D@2@@std@@V?$allocator@V?$basic_string@DU?$char_traits@D@std@@V?$allocator@D@2@@std@@@2@@std@@QAE@PAV?$basic_string@DU?$char_traits@D@std@@V?$allocator@D@2@@1@PBV_Container_base_aux@1@@Z
_TEXT	SEGMENT
??0?$_Vector_iterator@V?$basic_string@DU?$char_traits@D@std@@V?$allocator@D@2@@std@@V?$allocator@V?$basic_string@DU?$char_traits@D@std@@V?$allocator@D@2@@std@@@2@@std@@QAE@PAV?$basic_string@DU?$char_traits@D@std@@V?$allocator@D@2@@1@PBV_Container_base_aux@1@@Z PROC ; std::_Vector_iterator<std::basic_string<char,std::char_traits<char>,std::allocator<char> >,std::allocator<std::basic_string<char,std::char_traits<char>,std::allocator<char> > > >::_Vector_iterator<std::basic_string<char,std::char_traits<char>,std::allocator<char> >,std::allocator<std::basic_string<char,std::char_traits<char>,std::allocator<char> > > >, COMDAT
; _this$ = edi
; __Ptr$ = ebx
; __Pvector$ = esi

; 327  : 		{	// construct with pointer _Ptr

  00000	c7 07 00 00 00
	00		 mov	 DWORD PTR [edi], 0
  00006	85 f6		 test	 esi, esi
  00008	74 0a		 je	 SHORT $LN6@Vector_ite@9
  0000a	39 5e 0c	 cmp	 DWORD PTR [esi+12], ebx
  0000d	77 05		 ja	 SHORT $LN6@Vector_ite@9
  0000f	3b 5e 10	 cmp	 ebx, DWORD PTR [esi+16]
  00012	76 05		 jbe	 SHORT $LN5@Vector_ite@9
$LN6@Vector_ite@9:
  00014	e8 00 00 00 00	 call	 __invalid_parameter_noinfo
$LN5@Vector_ite@9:
  00019	8b 06		 mov	 eax, DWORD PTR [esi]
  0001b	89 07		 mov	 DWORD PTR [edi], eax
  0001d	89 5f 04	 mov	 DWORD PTR [edi+4], ebx

; 328  : 		}

  00020	8b c7		 mov	 eax, edi
  00022	c3		 ret	 0
??0?$_Vector_iterator@V?$basic_string@DU?$char_traits@D@std@@V?$allocator@D@2@@std@@V?$allocator@V?$basic_string@DU?$char_traits@D@std@@V?$allocator@D@2@@std@@@2@@std@@QAE@PAV?$basic_string@DU?$char_traits@D@std@@V?$allocator@D@2@@1@PBV_Container_base_aux@1@@Z ENDP ; std::_Vector_iterator<std::basic_string<char,std::char_traits<char>,std::allocator<char> >,std::allocator<std::basic_string<char,std::char_traits<char>,std::allocator<char> > > >::_Vector_iterator<std::basic_string<char,std::char_traits<char>,std::allocator<char> >,std::allocator<std::basic_string<char,std::char_traits<char>,std::allocator<char> > > >
; Function compile flags: /Ogtpy
; File c:\program files\microsoft visual studio 9.0\vc\include\xmemory
_TEXT	ENDS
;	COMDAT ?allocate@?$allocator@V?$basic_string@DU?$char_traits@D@std@@V?$allocator@D@2@@std@@@std@@QAEPAV?$basic_string@DU?$char_traits@D@std@@V?$allocator@D@2@@2@I@Z
_TEXT	SEGMENT
$T180660 = -12						; size = 12
?allocate@?$allocator@V?$basic_string@DU?$char_traits@D@std@@V?$allocator@D@2@@std@@@std@@QAEPAV?$basic_string@DU?$char_traits@D@std@@V?$allocator@D@2@@2@I@Z PROC ; std::allocator<std::basic_string<char,std::char_traits<char>,std::allocator<char> > >::allocate, COMDAT
; __Count$ = ecx

; 144  : 		{	// allocate array of _Count elements

  00000	83 ec 0c	 sub	 esp, 12			; 0000000cH

; 145  : 		return (_Allocate(_Count, (pointer)0));

  00003	85 c9		 test	 ecx, ecx
  00005	77 1c		 ja	 SHORT $LN5@allocate@11
  00007	33 c9		 xor	 ecx, ecx
$LN3@allocate@11:
  00009	8d 14 cd 00 00
	00 00		 lea	 edx, DWORD PTR [ecx*8]
  00010	2b d1		 sub	 edx, ecx
  00012	03 d2		 add	 edx, edx
  00014	03 d2		 add	 edx, edx
  00016	52		 push	 edx
  00017	e8 00 00 00 00	 call	 ??2@YAPAXI@Z		; operator new
  0001c	83 c4 04	 add	 esp, 4

; 146  : 		}

  0001f	83 c4 0c	 add	 esp, 12			; 0000000cH
  00022	c3		 ret	 0

; 145  : 		return (_Allocate(_Count, (pointer)0));

$LN5@allocate@11:
  00023	83 c8 ff	 or	 eax, -1
  00026	33 d2		 xor	 edx, edx
  00028	f7 f1		 div	 ecx
  0002a	83 f8 1c	 cmp	 eax, 28			; 0000001cH
  0002d	73 da		 jae	 SHORT $LN3@allocate@11
  0002f	6a 00		 push	 0
  00031	8d 4c 24 04	 lea	 ecx, DWORD PTR $T180660[esp+16]
  00035	e8 00 00 00 00	 call	 ??0bad_alloc@std@@QAE@PBD@Z ; std::bad_alloc::bad_alloc
  0003a	68 00 00 00 00	 push	 OFFSET __TI2?AVbad_alloc@std@@
  0003f	8d 44 24 04	 lea	 eax, DWORD PTR $T180660[esp+16]
  00043	50		 push	 eax
  00044	e8 00 00 00 00	 call	 __CxxThrowException@8
$LN10@allocate@11:
$LN9@allocate@11:
  00049	cc		 int	 3
?allocate@?$allocator@V?$basic_string@DU?$char_traits@D@std@@V?$allocator@D@2@@std@@@std@@QAEPAV?$basic_string@DU?$char_traits@D@std@@V?$allocator@D@2@@2@I@Z ENDP ; std::allocator<std::basic_string<char,std::char_traits<char>,std::allocator<char> > >::allocate
; Function compile flags: /Ogtpy
; File c:\program files\microsoft visual studio 9.0\vc\include\vector
_TEXT	ENDS
;	COMDAT ?_Make_iter@?$vector@V?$basic_string@DU?$char_traits@D@std@@V?$allocator@D@2@@std@@V?$allocator@V?$basic_string@DU?$char_traits@D@std@@V?$allocator@D@2@@std@@@2@@std@@QBE?AV?$_Vector_iterator@V?$basic_string@DU?$char_traits@D@std@@V?$allocator@D@2@@std@@V?$allocator@V?$basic_string@DU?$char_traits@D@std@@V?$allocator@D@2@@std@@@2@@2@V?$_Vector_const_iterator@V?$basic_string@DU?$char_traits@D@std@@V?$allocator@D@2@@std@@V?$allocator@V?$basic_string@DU?$char_traits@D@std@@V?$allocator@D@2@@std@@@2@@2@@Z
_TEXT	SEGMENT
__Where$ = 8						; size = 8
?_Make_iter@?$vector@V?$basic_string@DU?$char_traits@D@std@@V?$allocator@D@2@@std@@V?$allocator@V?$basic_string@DU?$char_traits@D@std@@V?$allocator@D@2@@std@@@2@@std@@QBE?AV?$_Vector_iterator@V?$basic_string@DU?$char_traits@D@std@@V?$allocator@D@2@@std@@V?$allocator@V?$basic_string@DU?$char_traits@D@std@@V?$allocator@D@2@@std@@@2@@2@V?$_Vector_const_iterator@V?$basic_string@DU?$char_traits@D@std@@V?$allocator@D@2@@std@@V?$allocator@V?$basic_string@DU?$char_traits@D@std@@V?$allocator@D@2@@std@@@2@@2@@Z PROC ; std::vector<std::basic_string<char,std::char_traits<char>,std::allocator<char> >,std::allocator<std::basic_string<char,std::char_traits<char>,std::allocator<char> > > >::_Make_iter, COMDAT
; _this$ = edi
; ___$ReturnUdt$ = esi

; 661  : 		return (iterator(_Where._Myptr, this));

  00000	c7 06 00 00 00
	00		 mov	 DWORD PTR [esi], 0
  00006	85 ff		 test	 edi, edi
  00008	74 0e		 je	 SHORT $LN8@Make_iter@9
  0000a	8b 44 24 08	 mov	 eax, DWORD PTR __Where$[esp]
  0000e	39 47 0c	 cmp	 DWORD PTR [edi+12], eax
  00011	77 05		 ja	 SHORT $LN8@Make_iter@9
  00013	3b 47 10	 cmp	 eax, DWORD PTR [edi+16]
  00016	76 09		 jbe	 SHORT $LN7@Make_iter@9
$LN8@Make_iter@9:
  00018	e8 00 00 00 00	 call	 __invalid_parameter_noinfo
  0001d	8b 44 24 08	 mov	 eax, DWORD PTR __Where$[esp]
$LN7@Make_iter@9:
  00021	8b 0f		 mov	 ecx, DWORD PTR [edi]
  00023	89 46 04	 mov	 DWORD PTR [esi+4], eax
  00026	89 0e		 mov	 DWORD PTR [esi], ecx
  00028	8b c6		 mov	 eax, esi

; 662  : 		}

  0002a	c2 08 00	 ret	 8
?_Make_iter@?$vector@V?$basic_string@DU?$char_traits@D@std@@V?$allocator@D@2@@std@@V?$allocator@V?$basic_string@DU?$char_traits@D@std@@V?$allocator@D@2@@std@@@2@@std@@QBE?AV?$_Vector_iterator@V?$basic_string@DU?$char_traits@D@std@@V?$allocator@D@2@@std@@V?$allocator@V?$basic_string@DU?$char_traits@D@std@@V?$allocator@D@2@@std@@@2@@2@V?$_Vector_const_iterator@V?$basic_string@DU?$char_traits@D@std@@V?$allocator@D@2@@std@@V?$allocator@V?$basic_string@DU?$char_traits@D@std@@V?$allocator@D@2@@std@@@2@@2@@Z ENDP ; std::vector<std::basic_string<char,std::char_traits<char>,std::allocator<char> >,std::allocator<std::basic_string<char,std::char_traits<char>,std::allocator<char> > > >::_Make_iter
; Function compile flags: /Ogtpy
; File c:\program files\microsoft visual studio 9.0\vc\include\xstring
_TEXT	ENDS
;	COMDAT ?_Eos@?$basic_string@DU?$char_traits@D@std@@V?$allocator@D@2@@std@@IAEXI@Z
_TEXT	SEGMENT
__Newsize$ = 8						; size = 4
?_Eos@?$basic_string@DU?$char_traits@D@std@@V?$allocator@D@2@@std@@IAEXI@Z PROC ; std::basic_string<char,std::char_traits<char>,std::allocator<char> >::_Eos, COMDAT
; _this$ = ecx

; 2114 : 		_Traits::assign(_Myptr()[_Mysize = _Newsize], _Elem());

  00000	83 79 18 10	 cmp	 DWORD PTR [ecx+24], 16	; 00000010H
  00004	8b 44 24 04	 mov	 eax, DWORD PTR __Newsize$[esp-4]
  00008	89 41 14	 mov	 DWORD PTR [ecx+20], eax
  0000b	72 0a		 jb	 SHORT $LN5@Eos
  0000d	8b 49 04	 mov	 ecx, DWORD PTR [ecx+4]
  00010	c6 04 01 00	 mov	 BYTE PTR [ecx+eax], 0

; 2115 : 		}

  00014	c2 04 00	 ret	 4

; 2114 : 		_Traits::assign(_Myptr()[_Mysize = _Newsize], _Elem());

$LN5@Eos:
  00017	c6 44 01 04 00	 mov	 BYTE PTR [ecx+eax+4], 0

; 2115 : 		}

  0001c	c2 04 00	 ret	 4
?_Eos@?$basic_string@DU?$char_traits@D@std@@V?$allocator@D@2@@std@@IAEXI@Z ENDP ; std::basic_string<char,std::char_traits<char>,std::allocator<char> >::_Eos
; Function compile flags: /Ogtpy
_TEXT	ENDS
;	COMDAT ?erase@?$basic_string@DU?$char_traits@D@std@@V?$allocator@D@2@@std@@QAEAAV12@II@Z
_TEXT	SEGMENT
tv130 = 8						; size = 4
__Off$ = 8						; size = 4
__Count$ = 12						; size = 4
?erase@?$basic_string@DU?$char_traits@D@std@@V?$allocator@D@2@@std@@QAEAAV12@II@Z PROC ; std::basic_string<char,std::char_traits<char>,std::allocator<char> >::erase, COMDAT
; _this$ = ecx

; 1262 : 		{	// erase elements [_Off, _Off + _Count)

  00000	53		 push	 ebx

; 1263 : 		if (_Mysize < _Off)

  00001	8b 5c 24 08	 mov	 ebx, DWORD PTR __Off$[esp]
  00005	56		 push	 esi
  00006	8b f1		 mov	 esi, ecx
  00008	57		 push	 edi
  00009	39 5e 14	 cmp	 DWORD PTR [esi+20], ebx
  0000c	73 05		 jae	 SHORT $LN3@erase@9

; 1264 : 			_String_base::_Xran();	// _Off off end

  0000e	e8 00 00 00 00	 call	 ?_Xran@_String_base@std@@SAXXZ ; std::_String_base::_Xran
$LN3@erase@9:

; 1265 : 		if (_Mysize - _Off < _Count)

  00013	8b 46 14	 mov	 eax, DWORD PTR [esi+20]
  00016	8b 7c 24 14	 mov	 edi, DWORD PTR __Count$[esp+8]
  0001a	2b c3		 sub	 eax, ebx
  0001c	3b c7		 cmp	 eax, edi
  0001e	73 02		 jae	 SHORT $LN2@erase@9

; 1266 : 			_Count = _Mysize - _Off;	// trim _Count

  00020	8b f8		 mov	 edi, eax
$LN2@erase@9:

; 1267 : 		if (0 < _Count)

  00022	85 ff		 test	 edi, edi
  00024	76 55		 jbe	 SHORT $LN30@erase@9

; 1268 : 			{	// move elements down
; 1269 : 			_Traits_helper::move_s<_Traits>(_Myptr() + _Off, _Myres - _Off, _Myptr() + _Off + _Count,
; 1270 : 				_Mysize - _Off - _Count);

  00026	8b 4e 18	 mov	 ecx, DWORD PTR [esi+24]
  00029	55		 push	 ebp
  0002a	8d 6e 04	 lea	 ebp, DWORD PTR [esi+4]
  0002d	83 f9 10	 cmp	 ecx, 16			; 00000010H
  00030	72 09		 jb	 SHORT $LN8@erase@9
  00032	8b 55 00	 mov	 edx, DWORD PTR [ebp]
  00035	89 54 24 14	 mov	 DWORD PTR tv130[esp+12], edx
  00039	eb 04		 jmp	 SHORT $LN9@erase@9
$LN8@erase@9:
  0003b	89 6c 24 14	 mov	 DWORD PTR tv130[esp+12], ebp
$LN9@erase@9:
  0003f	83 f9 10	 cmp	 ecx, 16			; 00000010H
  00042	72 05		 jb	 SHORT $LN12@erase@9
  00044	8b 55 00	 mov	 edx, DWORD PTR [ebp]
  00047	eb 02		 jmp	 SHORT $LN13@erase@9
$LN12@erase@9:
  00049	8b d5		 mov	 edx, ebp
$LN13@erase@9:
  0004b	2b c7		 sub	 eax, edi
  0004d	50		 push	 eax
  0004e	8b 44 24 18	 mov	 eax, DWORD PTR tv130[esp+16]
  00052	03 c3		 add	 eax, ebx
  00054	03 c7		 add	 eax, edi
  00056	50		 push	 eax
  00057	2b cb		 sub	 ecx, ebx
  00059	51		 push	 ecx
  0005a	03 d3		 add	 edx, ebx
  0005c	52		 push	 edx
  0005d	e8 00 00 00 00	 call	 _memmove_s

; 1271 : 			size_type _Newsize = _Mysize - _Count;

  00062	8b 46 14	 mov	 eax, DWORD PTR [esi+20]
  00065	2b c7		 sub	 eax, edi
  00067	83 c4 10	 add	 esp, 16			; 00000010H

; 1272 : 			_Eos(_Newsize);

  0006a	83 7e 18 10	 cmp	 DWORD PTR [esi+24], 16	; 00000010H
  0006e	89 46 14	 mov	 DWORD PTR [esi+20], eax
  00071	72 03		 jb	 SHORT $LN26@erase@9
  00073	8b 6d 00	 mov	 ebp, DWORD PTR [ebp]
$LN26@erase@9:
  00076	c6 04 28 00	 mov	 BYTE PTR [eax+ebp], 0
  0007a	5d		 pop	 ebp
$LN30@erase@9:
  0007b	5f		 pop	 edi

; 1273 : 			}
; 1274 : 		return (*this);

  0007c	8b c6		 mov	 eax, esi
  0007e	5e		 pop	 esi
  0007f	5b		 pop	 ebx

; 1275 : 		}

  00080	c2 08 00	 ret	 8
?erase@?$basic_string@DU?$char_traits@D@std@@V?$allocator@D@2@@std@@QAEAAV12@II@Z ENDP ; std::basic_string<char,std::char_traits<char>,std::allocator<char> >::erase
; Function compile flags: /Ogtpy
; File c:\program files\microsoft visual studio 9.0\vc\include\vector
_TEXT	ENDS
;	COMDAT ?end@?$vector@V?$basic_string@DU?$char_traits@D@std@@V?$allocator@D@2@@std@@V?$allocator@V?$basic_string@DU?$char_traits@D@std@@V?$allocator@D@2@@std@@@2@@std@@QAE?AV?$_Vector_iterator@V?$basic_string@DU?$char_traits@D@std@@V?$allocator@D@2@@std@@V?$allocator@V?$basic_string@DU?$char_traits@D@std@@V?$allocator@D@2@@std@@@2@@2@XZ
_TEXT	SEGMENT
?end@?$vector@V?$basic_string@DU?$char_traits@D@std@@V?$allocator@D@2@@std@@V?$allocator@V?$basic_string@DU?$char_traits@D@std@@V?$allocator@D@2@@std@@@2@@std@@QAE?AV?$_Vector_iterator@V?$basic_string@DU?$char_traits@D@std@@V?$allocator@D@2@@std@@V?$allocator@V?$basic_string@DU?$char_traits@D@std@@V?$allocator@D@2@@std@@@2@@2@XZ PROC ; std::vector<std::basic_string<char,std::char_traits<char>,std::allocator<char> >,std::allocator<std::basic_string<char,std::char_traits<char>,std::allocator<char> > > >::end, COMDAT
; _this$ = edi
; ___$ReturnUdt$ = esi

; 650  : 		{	// return iterator for end of mutable sequence

  00000	53		 push	 ebx

; 651  : 		return (iterator(_Mylast, this));

  00001	8b 5f 10	 mov	 ebx, DWORD PTR [edi+16]
  00004	c7 06 00 00 00
	00		 mov	 DWORD PTR [esi], 0
  0000a	39 5f 0c	 cmp	 DWORD PTR [edi+12], ebx
  0000d	76 05		 jbe	 SHORT $LN7@end@10
  0000f	e8 00 00 00 00	 call	 __invalid_parameter_noinfo
$LN7@end@10:
  00014	8b 07		 mov	 eax, DWORD PTR [edi]
  00016	89 06		 mov	 DWORD PTR [esi], eax
  00018	89 5e 04	 mov	 DWORD PTR [esi+4], ebx
  0001b	8b c6		 mov	 eax, esi
  0001d	5b		 pop	 ebx

; 652  : 		}

  0001e	c3		 ret	 0
?end@?$vector@V?$basic_string@DU?$char_traits@D@std@@V?$allocator@D@2@@std@@V?$allocator@V?$basic_string@DU?$char_traits@D@std@@V?$allocator@D@2@@std@@@2@@std@@QAE?AV?$_Vector_iterator@V?$basic_string@DU?$char_traits@D@std@@V?$allocator@D@2@@std@@V?$allocator@V?$basic_string@DU?$char_traits@D@std@@V?$allocator@D@2@@std@@@2@@2@XZ ENDP ; std::vector<std::basic_string<char,std::char_traits<char>,std::allocator<char> >,std::allocator<std::basic_string<char,std::char_traits<char>,std::allocator<char> > > >::end
; Function compile flags: /Ogtpy
_TEXT	ENDS
;	COMDAT ?begin@?$vector@V?$basic_string@DU?$char_traits@D@std@@V?$allocator@D@2@@std@@V?$allocator@V?$basic_string@DU?$char_traits@D@std@@V?$allocator@D@2@@std@@@2@@std@@QAE?AV?$_Vector_iterator@V?$basic_string@DU?$char_traits@D@std@@V?$allocator@D@2@@std@@V?$allocator@V?$basic_string@DU?$char_traits@D@std@@V?$allocator@D@2@@std@@@2@@2@XZ
_TEXT	SEGMENT
?begin@?$vector@V?$basic_string@DU?$char_traits@D@std@@V?$allocator@D@2@@std@@V?$allocator@V?$basic_string@DU?$char_traits@D@std@@V?$allocator@D@2@@std@@@2@@std@@QAE?AV?$_Vector_iterator@V?$basic_string@DU?$char_traits@D@std@@V?$allocator@D@2@@std@@V?$allocator@V?$basic_string@DU?$char_traits@D@std@@V?$allocator@D@2@@std@@@2@@2@XZ PROC ; std::vector<std::basic_string<char,std::char_traits<char>,std::allocator<char> >,std::allocator<std::basic_string<char,std::char_traits<char>,std::allocator<char> > > >::begin, COMDAT
; _this$ = edi
; ___$ReturnUdt$ = esi

; 640  : 		{	// return iterator for beginning of mutable sequence

  00000	53		 push	 ebx

; 641  : 		return (iterator(_Myfirst, this));

  00001	8b 5f 0c	 mov	 ebx, DWORD PTR [edi+12]
  00004	c7 06 00 00 00
	00		 mov	 DWORD PTR [esi], 0
  0000a	3b 5f 10	 cmp	 ebx, DWORD PTR [edi+16]
  0000d	76 05		 jbe	 SHORT $LN7@begin@10
  0000f	e8 00 00 00 00	 call	 __invalid_parameter_noinfo
$LN7@begin@10:
  00014	8b 07		 mov	 eax, DWORD PTR [edi]
  00016	89 06		 mov	 DWORD PTR [esi], eax
  00018	89 5e 04	 mov	 DWORD PTR [esi+4], ebx
  0001b	8b c6		 mov	 eax, esi
  0001d	5b		 pop	 ebx

; 642  : 		}

  0001e	c3		 ret	 0
?begin@?$vector@V?$basic_string@DU?$char_traits@D@std@@V?$allocator@D@2@@std@@V?$allocator@V?$basic_string@DU?$char_traits@D@std@@V?$allocator@D@2@@std@@@2@@std@@QAE?AV?$_Vector_iterator@V?$basic_string@DU?$char_traits@D@std@@V?$allocator@D@2@@std@@V?$allocator@V?$basic_string@DU?$char_traits@D@std@@V?$allocator@D@2@@std@@@2@@2@XZ ENDP ; std::vector<std::basic_string<char,std::char_traits<char>,std::allocator<char> >,std::allocator<std::basic_string<char,std::char_traits<char>,std::allocator<char> > > >::begin
; Function compile flags: /Ogtpy
; File c:\program files\microsoft visual studio 9.0\vc\include\xstring
_TEXT	ENDS
;	COMDAT ?_Tidy@?$basic_string@DU?$char_traits@D@std@@V?$allocator@D@2@@std@@IAEX_NI@Z
_TEXT	SEGMENT
__Built$ = 8						; size = 1
__Newsize$ = 12						; size = 4
?_Tidy@?$basic_string@DU?$char_traits@D@std@@V?$allocator@D@2@@std@@IAEX_NI@Z PROC ; std::basic_string<char,std::char_traits<char>,std::allocator<char> >::_Tidy, COMDAT
; _this$ = ecx

; 2149 : 		if (!_Built)

  00000	80 7c 24 04 00	 cmp	 BYTE PTR __Built$[esp-4], 0
  00005	56		 push	 esi
  00006	57		 push	 edi
  00007	8b 7c 24 10	 mov	 edi, DWORD PTR __Newsize$[esp+4]
  0000b	8b f1		 mov	 esi, ecx
  0000d	74 27		 je	 SHORT $LN15@Tidy@9

; 2150 : 			;
; 2151 : 		else if (_BUF_SIZE <= _Myres)

  0000f	83 7e 18 10	 cmp	 DWORD PTR [esi+24], 16	; 00000010H
  00013	72 21		 jb	 SHORT $LN15@Tidy@9

; 2152 : 			{	// copy any leftovers to small buffer and deallocate
; 2153 : 			_Elem *_Ptr = _Bx._Ptr;

  00015	8d 46 04	 lea	 eax, DWORD PTR [esi+4]
  00018	53		 push	 ebx
  00019	8b 18		 mov	 ebx, DWORD PTR [eax]

; 2154 : 			if (0 < _Newsize)

  0001b	85 ff		 test	 edi, edi
  0001d	76 0d		 jbe	 SHORT $LN13@Tidy@9

; 2155 : 				_Traits_helper::copy_s<_Traits>(_Bx._Buf, _BUF_SIZE, _Ptr, _Newsize);

  0001f	57		 push	 edi
  00020	53		 push	 ebx
  00021	6a 10		 push	 16			; 00000010H
  00023	50		 push	 eax
  00024	e8 00 00 00 00	 call	 _memcpy_s
  00029	83 c4 10	 add	 esp, 16			; 00000010H
$LN13@Tidy@9:

; 2156 : 			_Mybase::_Alval.deallocate(_Ptr, _Myres + 1);

  0002c	53		 push	 ebx
  0002d	e8 00 00 00 00	 call	 ??3@YAXPAX@Z		; operator delete
  00032	83 c4 04	 add	 esp, 4
  00035	5b		 pop	 ebx
$LN15@Tidy@9:

; 2157 : 			}
; 2158 : 		_Myres = _BUF_SIZE - 1;
; 2159 : 		_Eos(_Newsize);

  00036	89 7e 14	 mov	 DWORD PTR [esi+20], edi
  00039	c7 46 18 0f 00
	00 00		 mov	 DWORD PTR [esi+24], 15	; 0000000fH
  00040	c6 44 3e 04 00	 mov	 BYTE PTR [esi+edi+4], 0
  00045	5f		 pop	 edi
  00046	5e		 pop	 esi

; 2160 : 		}

  00047	c2 08 00	 ret	 8
?_Tidy@?$basic_string@DU?$char_traits@D@std@@V?$allocator@D@2@@std@@IAEX_NI@Z ENDP ; std::basic_string<char,std::char_traits<char>,std::allocator<char> >::_Tidy
; Function compile flags: /Ogtpy
_TEXT	ENDS
;	COMDAT ??1?$basic_string@DU?$char_traits@D@std@@V?$allocator@D@2@@std@@QAE@XZ
_TEXT	SEGMENT
??1?$basic_string@DU?$char_traits@D@std@@V?$allocator@D@2@@std@@QAE@XZ PROC ; std::basic_string<char,std::char_traits<char>,std::allocator<char> >::~basic_string<char,std::char_traits<char>,std::allocator<char> >, COMDAT
; _this$ = ecx

; 905  : 		{	// destroy the string

  00000	56		 push	 esi
  00001	8b f1		 mov	 esi, ecx

; 906  : 		_Tidy(true);

  00003	83 7e 18 10	 cmp	 DWORD PTR [esi+24], 16	; 00000010H
  00007	72 0c		 jb	 SHORT $LN17@basic_stri
  00009	8b 46 04	 mov	 eax, DWORD PTR [esi+4]
  0000c	50		 push	 eax
  0000d	e8 00 00 00 00	 call	 ??3@YAXPAX@Z		; operator delete
  00012	83 c4 04	 add	 esp, 4
$LN17@basic_stri:
  00015	33 c0		 xor	 eax, eax
  00017	c7 46 18 0f 00
	00 00		 mov	 DWORD PTR [esi+24], 15	; 0000000fH
  0001e	89 46 14	 mov	 DWORD PTR [esi+20], eax
  00021	88 46 04	 mov	 BYTE PTR [esi+4], al
  00024	5e		 pop	 esi

; 907  : 		}

  00025	c3		 ret	 0
??1?$basic_string@DU?$char_traits@D@std@@V?$allocator@D@2@@std@@QAE@XZ ENDP ; std::basic_string<char,std::char_traits<char>,std::allocator<char> >::~basic_string<char,std::char_traits<char>,std::allocator<char> >
; Function compile flags: /Ogtpy
_TEXT	ENDS
;	COMDAT ??0?$basic_string@DU?$char_traits@D@std@@V?$allocator@D@2@@std@@QAE@XZ
_TEXT	SEGMENT
??0?$basic_string@DU?$char_traits@D@std@@V?$allocator@D@2@@std@@QAE@XZ PROC ; std::basic_string<char,std::char_traits<char>,std::allocator<char> >::basic_string<char,std::char_traits<char>,std::allocator<char> >, COMDAT
; _this$ = eax

; 566  : 		_Tidy();

  00000	33 c9		 xor	 ecx, ecx
  00002	c7 40 18 0f 00
	00 00		 mov	 DWORD PTR [eax+24], 15	; 0000000fH
  00009	89 48 14	 mov	 DWORD PTR [eax+20], ecx
  0000c	88 48 04	 mov	 BYTE PTR [eax+4], cl

; 567  : 		}

  0000f	c3		 ret	 0
??0?$basic_string@DU?$char_traits@D@std@@V?$allocator@D@2@@std@@QAE@XZ ENDP ; std::basic_string<char,std::char_traits<char>,std::allocator<char> >::basic_string<char,std::char_traits<char>,std::allocator<char> >
_TEXT	ENDS
;	COMDAT xdata$x
; File c:\program files\microsoft visual studio 9.0\vc\include\iosfwd
xdata$x	SEGMENT
__unwindtable$??1logic_error@std@@UAE@XZ DD 0ffffffffH
	DD	FLAT:__unwindfunclet$??1logic_error@std@@UAE@XZ$0
	DD	00H
	DD	FLAT:__unwindfunclet$??1logic_error@std@@UAE@XZ$1
__ehfuncinfo$??1logic_error@std@@UAE@XZ DD 019930522H
	DD	02H
	DD	FLAT:__unwindtable$??1logic_error@std@@UAE@XZ
	DD	2 DUP(00H)
	DD	2 DUP(00H)
	DD	00H
	DD	00H
; Function compile flags: /Ogtpy
; File c:\program files\microsoft visual studio 9.0\vc\include\stdexcept
xdata$x	ENDS
;	COMDAT ??1logic_error@std@@UAE@XZ
_TEXT	SEGMENT
_this$ = -16						; size = 4
__$EHRec$ = -12						; size = 12
??1logic_error@std@@UAE@XZ PROC				; std::logic_error::~logic_error, COMDAT
; _this$ = ecx

; 30   : 		{	// destroy the object

  00000	6a ff		 push	 -1
  00002	68 00 00 00 00	 push	 __ehhandler$??1logic_error@std@@UAE@XZ
  00007	64 a1 00 00 00
	00		 mov	 eax, DWORD PTR fs:0
  0000d	50		 push	 eax
  0000e	51		 push	 ecx
  0000f	56		 push	 esi
  00010	a1 00 00 00 00	 mov	 eax, DWORD PTR ___security_cookie
  00015	33 c4		 xor	 eax, esp
  00017	50		 push	 eax
  00018	8d 44 24 0c	 lea	 eax, DWORD PTR __$EHRec$[esp+24]
  0001c	64 a3 00 00 00
	00		 mov	 DWORD PTR fs:0, eax
  00022	8b f1		 mov	 esi, ecx
  00024	89 74 24 08	 mov	 DWORD PTR _this$[esp+24], esi
  00028	c7 06 00 00 00
	00		 mov	 DWORD PTR [esi], OFFSET ??_7logic_error@std@@6B@

; 31   : 		}

  0002e	c7 44 24 14 00
	00 00 00	 mov	 DWORD PTR __$EHRec$[esp+32], 0
  00036	83 7e 24 10	 cmp	 DWORD PTR [esi+36], 16	; 00000010H
  0003a	72 0c		 jb	 SHORT $LN21@logic_erro
  0003c	8b 46 10	 mov	 eax, DWORD PTR [esi+16]
  0003f	50		 push	 eax
  00040	e8 00 00 00 00	 call	 ??3@YAXPAX@Z		; operator delete
  00045	83 c4 04	 add	 esp, 4
$LN21@logic_erro:
  00048	c7 46 24 0f 00
	00 00		 mov	 DWORD PTR [esi+36], 15	; 0000000fH
  0004f	c7 46 20 00 00
	00 00		 mov	 DWORD PTR [esi+32], 0
  00056	c6 46 10 00	 mov	 BYTE PTR [esi+16], 0
  0005a	c7 44 24 14 ff
	ff ff ff	 mov	 DWORD PTR __$EHRec$[esp+32], -1
  00062	8b ce		 mov	 ecx, esi
  00064	e8 00 00 00 00	 call	 ??1exception@std@@UAE@XZ ; std::exception::~exception
  00069	8b 4c 24 0c	 mov	 ecx, DWORD PTR __$EHRec$[esp+24]
  0006d	64 89 0d 00 00
	00 00		 mov	 DWORD PTR fs:0, ecx
  00074	59		 pop	 ecx
  00075	5e		 pop	 esi
  00076	83 c4 10	 add	 esp, 16			; 00000010H
  00079	c3		 ret	 0
_TEXT	ENDS
;	COMDAT text$x
text$x	SEGMENT
__unwindfunclet$??1logic_error@std@@UAE@XZ$0:
  00000	8b 4d f0	 mov	 ecx, DWORD PTR _this$[ebp]
  00003	e9 00 00 00 00	 jmp	 ??1exception@std@@UAE@XZ ; std::exception::~exception
__unwindfunclet$??1logic_error@std@@UAE@XZ$1:
  00008	8b 4d f0	 mov	 ecx, DWORD PTR _this$[ebp]
  0000b	83 c1 0c	 add	 ecx, 12			; 0000000cH
  0000e	e9 00 00 00 00	 jmp	 ??1?$basic_string@DU?$char_traits@D@std@@V?$allocator@D@2@@std@@QAE@XZ ; std::basic_string<char,std::char_traits<char>,std::allocator<char> >::~basic_string<char,std::char_traits<char>,std::allocator<char> >
__ehhandler$??1logic_error@std@@UAE@XZ:
  00013	8b 54 24 08	 mov	 edx, DWORD PTR [esp+8]
  00017	8d 42 f8	 lea	 eax, DWORD PTR [edx-8]
  0001a	8b 4a f4	 mov	 ecx, DWORD PTR [edx-12]
  0001d	33 c8		 xor	 ecx, eax
  0001f	e8 00 00 00 00	 call	 @__security_check_cookie@4
  00024	b8 00 00 00 00	 mov	 eax, OFFSET __ehfuncinfo$??1logic_error@std@@UAE@XZ
  00029	e9 00 00 00 00	 jmp	 ___CxxFrameHandler3
text$x	ENDS
??1logic_error@std@@UAE@XZ ENDP				; std::logic_error::~logic_error
;	COMDAT xdata$x
xdata$x	SEGMENT
__unwindtable$??_Gbad_alloc@std@@UAEPAXI@Z DD 0ffffffffH
	DD	FLAT:__unwindfunclet$??_Gbad_alloc@std@@UAEPAXI@Z$0
__ehfuncinfo$??_Gbad_alloc@std@@UAEPAXI@Z DD 019930522H
	DD	01H
	DD	FLAT:__unwindtable$??_Gbad_alloc@std@@UAEPAXI@Z
	DD	2 DUP(00H)
	DD	2 DUP(00H)
	DD	00H
	DD	00H
; Function compile flags: /Ogtpy
xdata$x	ENDS
;	COMDAT ??_Gbad_alloc@std@@UAEPAXI@Z
_TEXT	SEGMENT
_this$ = -16						; size = 4
__$EHRec$ = -12						; size = 12
___flags$ = 8						; size = 4
??_Gbad_alloc@std@@UAEPAXI@Z PROC			; std::bad_alloc::`scalar deleting destructor', COMDAT
; _this$ = ecx
  00000	6a ff		 push	 -1
  00002	68 00 00 00 00	 push	 __ehhandler$??_Gbad_alloc@std@@UAEPAXI@Z
  00007	64 a1 00 00 00
	00		 mov	 eax, DWORD PTR fs:0
  0000d	50		 push	 eax
  0000e	51		 push	 ecx
  0000f	56		 push	 esi
  00010	a1 00 00 00 00	 mov	 eax, DWORD PTR ___security_cookie
  00015	33 c4		 xor	 eax, esp
  00017	50		 push	 eax
  00018	8d 44 24 0c	 lea	 eax, DWORD PTR __$EHRec$[esp+24]
  0001c	64 a3 00 00 00
	00		 mov	 DWORD PTR fs:0, eax
  00022	8b f1		 mov	 esi, ecx
  00024	89 74 24 08	 mov	 DWORD PTR _this$[esp+24], esi
  00028	c7 06 00 00 00
	00		 mov	 DWORD PTR [esi], OFFSET ??_7bad_alloc@std@@6B@
  0002e	c7 44 24 14 ff
	ff ff ff	 mov	 DWORD PTR __$EHRec$[esp+32], -1
  00036	e8 00 00 00 00	 call	 ??1exception@std@@UAE@XZ ; std::exception::~exception
  0003b	f6 44 24 1c 01	 test	 BYTE PTR ___flags$[esp+20], 1
  00040	74 09		 je	 SHORT $LN7@scalar@2
  00042	56		 push	 esi
  00043	e8 00 00 00 00	 call	 ??3@YAXPAX@Z		; operator delete
  00048	83 c4 04	 add	 esp, 4
$LN7@scalar@2:
  0004b	8b c6		 mov	 eax, esi
  0004d	8b 4c 24 0c	 mov	 ecx, DWORD PTR __$EHRec$[esp+24]
  00051	64 89 0d 00 00
	00 00		 mov	 DWORD PTR fs:0, ecx
  00058	59		 pop	 ecx
  00059	5e		 pop	 esi
  0005a	83 c4 10	 add	 esp, 16			; 00000010H
  0005d	c2 04 00	 ret	 4
_TEXT	ENDS
;	COMDAT text$x
text$x	SEGMENT
__unwindfunclet$??_Gbad_alloc@std@@UAEPAXI@Z$0:
  00000	8b 4d f0	 mov	 ecx, DWORD PTR _this$[ebp]
  00003	e9 00 00 00 00	 jmp	 ??1exception@std@@UAE@XZ ; std::exception::~exception
__ehhandler$??_Gbad_alloc@std@@UAEPAXI@Z:
  00008	8b 54 24 08	 mov	 edx, DWORD PTR [esp+8]
  0000c	8d 42 f8	 lea	 eax, DWORD PTR [edx-8]
  0000f	8b 4a f4	 mov	 ecx, DWORD PTR [edx-12]
  00012	33 c8		 xor	 ecx, eax
  00014	e8 00 00 00 00	 call	 @__security_check_cookie@4
  00019	b8 00 00 00 00	 mov	 eax, OFFSET __ehfuncinfo$??_Gbad_alloc@std@@UAEPAXI@Z
  0001e	e9 00 00 00 00	 jmp	 ___CxxFrameHandler3
text$x	ENDS
??_Gbad_alloc@std@@UAEPAXI@Z ENDP			; std::bad_alloc::`scalar deleting destructor'
; Function compile flags: /Ogtpy
; File c:\program files\microsoft visual studio 9.0\vc\include\xutility
;	COMDAT ?_Getmycont@_Iterator_base_aux@std@@QBEPBV_Container_base_aux@2@XZ
_TEXT	SEGMENT
?_Getmycont@_Iterator_base_aux@std@@QBEPBV_Container_base_aux@2@XZ PROC ; std::_Iterator_base_aux::_Getmycont, COMDAT
; _this$ = eax

; 458  : 		return _Myaux ? _Myaux->_Getcont() : 0;

  00000	8b 00		 mov	 eax, DWORD PTR [eax]
  00002	85 c0		 test	 eax, eax
  00004	74 03		 je	 SHORT $LN3@Getmycont
  00006	8b 00		 mov	 eax, DWORD PTR [eax]

; 459  : 		}

  00008	c3		 ret	 0
$LN3@Getmycont:

; 458  : 		return _Myaux ? _Myaux->_Getcont() : 0;

  00009	33 c0		 xor	 eax, eax

; 459  : 		}

  0000b	c3		 ret	 0
?_Getmycont@_Iterator_base_aux@std@@QBEPBV_Container_base_aux@2@XZ ENDP ; std::_Iterator_base_aux::_Getmycont
; Function compile flags: /Ogtpy
;	COMDAT ??_G?$basic_string@DU?$char_traits@D@std@@V?$allocator@D@2@@std@@QAEPAXI@Z
_TEXT	SEGMENT
??_G?$basic_string@DU?$char_traits@D@std@@V?$allocator@D@2@@std@@QAEPAXI@Z PROC ; std::basic_string<char,std::char_traits<char>,std::allocator<char> >::`scalar deleting destructor', COMDAT
; _this$ = esi
  00000	83 7e 18 10	 cmp	 DWORD PTR [esi+24], 16	; 00000010H
  00004	72 0c		 jb	 SHORT $LN20@scalar@3
  00006	8b 46 04	 mov	 eax, DWORD PTR [esi+4]
  00009	50		 push	 eax
  0000a	e8 00 00 00 00	 call	 ??3@YAXPAX@Z		; operator delete
  0000f	83 c4 04	 add	 esp, 4
$LN20@scalar@3:
  00012	33 c0		 xor	 eax, eax
  00014	89 46 14	 mov	 DWORD PTR [esi+20], eax
  00017	c7 46 18 0f 00
	00 00		 mov	 DWORD PTR [esi+24], 15	; 0000000fH
  0001e	88 46 04	 mov	 BYTE PTR [esi+4], al
  00021	8b c6		 mov	 eax, esi
  00023	c3		 ret	 0
??_G?$basic_string@DU?$char_traits@D@std@@V?$allocator@D@2@@std@@QAEPAXI@Z ENDP ; std::basic_string<char,std::char_traits<char>,std::allocator<char> >::`scalar deleting destructor'
; Function compile flags: /Ogtpy
; File c:\program files\microsoft visual studio 9.0\vc\include\xmemory
_TEXT	ENDS
;	COMDAT ??$_Destroy@V?$basic_string@DU?$char_traits@D@std@@V?$allocator@D@2@@std@@@std@@YAXPAV?$basic_string@DU?$char_traits@D@std@@V?$allocator@D@2@@0@@Z
_TEXT	SEGMENT
??$_Destroy@V?$basic_string@DU?$char_traits@D@std@@V?$allocator@D@2@@std@@@std@@YAXPAV?$basic_string@DU?$char_traits@D@std@@V?$allocator@D@2@@0@@Z PROC ; std::_Destroy<std::basic_string<char,std::char_traits<char>,std::allocator<char> > >, COMDAT
; __Ptr$ = esi

; 59   : 	_DESTRUCTOR(_Ty, _Ptr);

  00000	83 7e 18 10	 cmp	 DWORD PTR [esi+24], 16	; 00000010H
  00004	72 0c		 jb	 SHORT $LN22@Destroy@8
  00006	8b 46 04	 mov	 eax, DWORD PTR [esi+4]
  00009	50		 push	 eax
  0000a	e8 00 00 00 00	 call	 ??3@YAXPAX@Z		; operator delete
  0000f	83 c4 04	 add	 esp, 4
$LN22@Destroy@8:
  00012	33 c0		 xor	 eax, eax
  00014	c7 46 18 0f 00
	00 00		 mov	 DWORD PTR [esi+24], 15	; 0000000fH
  0001b	89 46 14	 mov	 DWORD PTR [esi+20], eax
  0001e	88 46 04	 mov	 BYTE PTR [esi+4], al

; 60   : 	}

  00021	c3		 ret	 0
??$_Destroy@V?$basic_string@DU?$char_traits@D@std@@V?$allocator@D@2@@std@@@std@@YAXPAV?$basic_string@DU?$char_traits@D@std@@V?$allocator@D@2@@0@@Z ENDP ; std::_Destroy<std::basic_string<char,std::char_traits<char>,std::allocator<char> > >
; Function compile flags: /Ogtpy
_TEXT	ENDS
;	COMDAT ?destroy@?$allocator@V?$basic_string@DU?$char_traits@D@std@@V?$allocator@D@2@@std@@@std@@QAEXPAV?$basic_string@DU?$char_traits@D@std@@V?$allocator@D@2@@2@@Z
_TEXT	SEGMENT
?destroy@?$allocator@V?$basic_string@DU?$char_traits@D@std@@V?$allocator@D@2@@std@@@std@@QAEXPAV?$basic_string@DU?$char_traits@D@std@@V?$allocator@D@2@@2@@Z PROC ; std::allocator<std::basic_string<char,std::char_traits<char>,std::allocator<char> > >::destroy, COMDAT
; __Ptr$ = esi

; 160  : 		_Destroy(_Ptr);

  00000	83 7e 18 10	 cmp	 DWORD PTR [esi+24], 16	; 00000010H
  00004	72 0c		 jb	 SHORT $LN24@destroy
  00006	8b 46 04	 mov	 eax, DWORD PTR [esi+4]
  00009	50		 push	 eax
  0000a	e8 00 00 00 00	 call	 ??3@YAXPAX@Z		; operator delete
  0000f	83 c4 04	 add	 esp, 4
$LN24@destroy:
  00012	33 c0		 xor	 eax, eax
  00014	c7 46 18 0f 00
	00 00		 mov	 DWORD PTR [esi+24], 15	; 0000000fH
  0001b	89 46 14	 mov	 DWORD PTR [esi+20], eax
  0001e	88 46 04	 mov	 BYTE PTR [esi+4], al

; 161  : 		}

  00021	c3		 ret	 0
?destroy@?$allocator@V?$basic_string@DU?$char_traits@D@std@@V?$allocator@D@2@@std@@@std@@QAEXPAV?$basic_string@DU?$char_traits@D@std@@V?$allocator@D@2@@2@@Z ENDP ; std::allocator<std::basic_string<char,std::char_traits<char>,std::allocator<char> > >::destroy
; Function compile flags: /Ogtpy
_TEXT	ENDS
;	COMDAT ??$_Destroy_range@V?$allocator@V?$basic_string@DU?$char_traits@D@std@@V?$allocator@D@2@@std@@@std@@@std@@YAXPAV?$basic_string@DU?$char_traits@D@std@@V?$allocator@D@2@@0@0AAV?$allocator@V?$basic_string@DU?$char_traits@D@std@@V?$allocator@D@2@@std@@@0@U_Nonscalar_ptr_iterator_tag@0@@Z
_TEXT	SEGMENT
___formal$ = 8						; size = 1
??$_Destroy_range@V?$allocator@V?$basic_string@DU?$char_traits@D@std@@V?$allocator@D@2@@std@@@std@@@std@@YAXPAV?$basic_string@DU?$char_traits@D@std@@V?$allocator@D@2@@0@0AAV?$allocator@V?$basic_string@DU?$char_traits@D@std@@V?$allocator@D@2@@std@@@0@U_Nonscalar_ptr_iterator_tag@0@@Z PROC ; std::_Destroy_range<std::allocator<std::basic_string<char,std::char_traits<char>,std::allocator<char> > > >, COMDAT
; __First$ = eax
; __Last$ = edi

; 232  : 	{	// destroy [_First, _Last), arbitrary type

  00000	56		 push	 esi
  00001	8b f0		 mov	 esi, eax

; 233  : 	for (; _First != _Last; ++_First)

  00003	3b f7		 cmp	 esi, edi
  00005	74 30		 je	 SHORT $LN1@Destroy_ra
  00007	53		 push	 ebx
  00008	33 db		 xor	 ebx, ebx
  0000a	8d 9b 00 00 00
	00		 npad	 6
$LL3@Destroy_ra:

; 234  : 		_Al.destroy(_First);

  00010	83 7e 18 10	 cmp	 DWORD PTR [esi+24], 16	; 00000010H
  00014	72 0c		 jb	 SHORT $LN29@Destroy_ra
  00016	8b 46 04	 mov	 eax, DWORD PTR [esi+4]
  00019	50		 push	 eax
  0001a	e8 00 00 00 00	 call	 ??3@YAXPAX@Z		; operator delete
  0001f	83 c4 04	 add	 esp, 4
$LN29@Destroy_ra:
  00022	c7 46 18 0f 00
	00 00		 mov	 DWORD PTR [esi+24], 15	; 0000000fH
  00029	89 5e 14	 mov	 DWORD PTR [esi+20], ebx
  0002c	88 5e 04	 mov	 BYTE PTR [esi+4], bl
  0002f	83 c6 1c	 add	 esi, 28			; 0000001cH
  00032	3b f7		 cmp	 esi, edi
  00034	75 da		 jne	 SHORT $LL3@Destroy_ra
  00036	5b		 pop	 ebx
$LN1@Destroy_ra:
  00037	5e		 pop	 esi

; 235  : 	}

  00038	c3		 ret	 0
??$_Destroy_range@V?$allocator@V?$basic_string@DU?$char_traits@D@std@@V?$allocator@D@2@@std@@@std@@@std@@YAXPAV?$basic_string@DU?$char_traits@D@std@@V?$allocator@D@2@@0@0AAV?$allocator@V?$basic_string@DU?$char_traits@D@std@@V?$allocator@D@2@@std@@@0@U_Nonscalar_ptr_iterator_tag@0@@Z ENDP ; std::_Destroy_range<std::allocator<std::basic_string<char,std::char_traits<char>,std::allocator<char> > > >
; Function compile flags: /Ogtpy
_TEXT	ENDS
;	COMDAT ??$_Destroy_range@V?$allocator@V?$basic_string@DU?$char_traits@D@std@@V?$allocator@D@2@@std@@@std@@@std@@YAXPAV?$basic_string@DU?$char_traits@D@std@@V?$allocator@D@2@@0@0AAV?$allocator@V?$basic_string@DU?$char_traits@D@std@@V?$allocator@D@2@@std@@@0@@Z
_TEXT	SEGMENT
__Cat$186879 = -4					; size = 1
__First$ = 8						; size = 4
??$_Destroy_range@V?$allocator@V?$basic_string@DU?$char_traits@D@std@@V?$allocator@D@2@@std@@@std@@@std@@YAXPAV?$basic_string@DU?$char_traits@D@std@@V?$allocator@D@2@@0@0AAV?$allocator@V?$basic_string@DU?$char_traits@D@std@@V?$allocator@D@2@@std@@@0@@Z PROC ; std::_Destroy_range<std::allocator<std::basic_string<char,std::char_traits<char>,std::allocator<char> > > >, COMDAT
; __Last$ = edi

; 224  : 	{	// destroy [_First, _Last)

  00000	51		 push	 ecx

; 225  : 	_Destroy_range(_First, _Last, _Al, _Ptr_cat(_First, _Last));

  00001	8b 04 24	 mov	 eax, DWORD PTR __Cat$186879[esp+4]
  00004	50		 push	 eax
  00005	8b 44 24 0c	 mov	 eax, DWORD PTR __First$[esp+4]
  00009	e8 00 00 00 00	 call	 ??$_Destroy_range@V?$allocator@V?$basic_string@DU?$char_traits@D@std@@V?$allocator@D@2@@std@@@std@@@std@@YAXPAV?$basic_string@DU?$char_traits@D@std@@V?$allocator@D@2@@0@0AAV?$allocator@V?$basic_string@DU?$char_traits@D@std@@V?$allocator@D@2@@std@@@0@U_Nonscalar_ptr_iterator_tag@0@@Z ; std::_Destroy_range<std::allocator<std::basic_string<char,std::char_traits<char>,std::allocator<char> > > >

; 226  : 	}

  0000e	83 c4 08	 add	 esp, 8
  00011	c3		 ret	 0
??$_Destroy_range@V?$allocator@V?$basic_string@DU?$char_traits@D@std@@V?$allocator@D@2@@std@@@std@@@std@@YAXPAV?$basic_string@DU?$char_traits@D@std@@V?$allocator@D@2@@0@0AAV?$allocator@V?$basic_string@DU?$char_traits@D@std@@V?$allocator@D@2@@std@@@0@@Z ENDP ; std::_Destroy_range<std::allocator<std::basic_string<char,std::char_traits<char>,std::allocator<char> > > >
; Function compile flags: /Ogtpy
; File c:\program files\microsoft visual studio 9.0\vc\include\vector
_TEXT	ENDS
;	COMDAT ??Y?$_Vector_const_iterator@V?$basic_string@DU?$char_traits@D@std@@V?$allocator@D@2@@std@@V?$allocator@V?$basic_string@DU?$char_traits@D@std@@V?$allocator@D@2@@std@@@2@@std@@QAEAAV01@H@Z
_TEXT	SEGMENT
??Y?$_Vector_const_iterator@V?$basic_string@DU?$char_traits@D@std@@V?$allocator@D@2@@std@@V?$allocator@V?$basic_string@DU?$char_traits@D@std@@V?$allocator@D@2@@std@@@2@@std@@QAEAAV01@H@Z PROC ; std::_Vector_const_iterator<std::basic_string<char,std::char_traits<char>,std::allocator<char> >,std::allocator<std::basic_string<char,std::char_traits<char>,std::allocator<char> > > >::operator+=, COMDAT
; _this$ = edi
; __Off$ = ebx

; 160  : 		_SCL_SECURE_VALIDATE(this->_Has_container());

  00000	8b 07		 mov	 eax, DWORD PTR [edi]
  00002	85 c0		 test	 eax, eax
  00004	75 0b		 jne	 SHORT $LN26@operator@64
  00006	e8 00 00 00 00	 call	 __invalid_parameter_noinfo

; 161  : 		_SCL_SECURE_VALIDATE_RANGE(

  0000b	8b 07		 mov	 eax, DWORD PTR [edi]
  0000d	85 c0		 test	 eax, eax
  0000f	74 04		 je	 SHORT $LN16@operator@64
$LN26@operator@64:
  00011	8b 10		 mov	 edx, DWORD PTR [eax]
  00013	eb 02		 jmp	 SHORT $LN17@operator@64
$LN16@operator@64:
  00015	33 d2		 xor	 edx, edx
$LN17@operator@64:
  00017	8b 4f 04	 mov	 ecx, DWORD PTR [edi+4]
  0001a	56		 push	 esi
  0001b	8d 34 dd 00 00
	00 00		 lea	 esi, DWORD PTR [ebx*8]
  00022	2b f3		 sub	 esi, ebx
  00024	03 f6		 add	 esi, esi
  00026	03 f6		 add	 esi, esi
  00028	03 ce		 add	 ecx, esi
  0002a	3b 4a 10	 cmp	 ecx, DWORD PTR [edx+16]
  0002d	77 0f		 ja	 SHORT $LN4@operator@64
  0002f	85 c0		 test	 eax, eax
  00031	74 04		 je	 SHORT $LN22@operator@64
  00033	8b 00		 mov	 eax, DWORD PTR [eax]
  00035	eb 02		 jmp	 SHORT $LN23@operator@64
$LN22@operator@64:
  00037	33 c0		 xor	 eax, eax
$LN23@operator@64:
  00039	3b 48 0c	 cmp	 ecx, DWORD PTR [eax+12]
  0003c	73 05		 jae	 SHORT $LN27@operator@64
$LN4@operator@64:

; 162  : 			_Myptr + _Off <= ((_Myvec *)(this->_Getmycont()))->_Mylast &&
; 163  : 			_Myptr + _Off >= ((_Myvec *)(this->_Getmycont()))->_Myfirst);

  0003e	e8 00 00 00 00	 call	 __invalid_parameter_noinfo
$LN27@operator@64:

; 164  : 		_Myptr += _Off;

  00043	01 77 04	 add	 DWORD PTR [edi+4], esi

; 165  : 		return (*this);

  00046	8b c7		 mov	 eax, edi
  00048	5e		 pop	 esi

; 166  : 		}

  00049	c3		 ret	 0
??Y?$_Vector_const_iterator@V?$basic_string@DU?$char_traits@D@std@@V?$allocator@D@2@@std@@V?$allocator@V?$basic_string@DU?$char_traits@D@std@@V?$allocator@D@2@@std@@@2@@std@@QAEAAV01@H@Z ENDP ; std::_Vector_const_iterator<std::basic_string<char,std::char_traits<char>,std::allocator<char> >,std::allocator<std::basic_string<char,std::char_traits<char>,std::allocator<char> > > >::operator+=
; Function compile flags: /Ogtpy
_TEXT	ENDS
;	COMDAT ??Y?$_Vector_iterator@V?$basic_string@DU?$char_traits@D@std@@V?$allocator@D@2@@std@@V?$allocator@V?$basic_string@DU?$char_traits@D@std@@V?$allocator@D@2@@std@@@2@@std@@QAEAAV01@H@Z
_TEXT	SEGMENT
??Y?$_Vector_iterator@V?$basic_string@DU?$char_traits@D@std@@V?$allocator@D@2@@std@@V?$allocator@V?$basic_string@DU?$char_traits@D@std@@V?$allocator@D@2@@std@@@2@@std@@QAEAAV01@H@Z PROC ; std::_Vector_iterator<std::basic_string<char,std::char_traits<char>,std::allocator<char> >,std::allocator<std::basic_string<char,std::char_traits<char>,std::allocator<char> > > >::operator+=, COMDAT
; _this$ = edi
; __Off$ = ebx

; 375  : 		(*(_Mybase *)this) += _Off;

  00000	8b 07		 mov	 eax, DWORD PTR [edi]
  00002	85 c0		 test	 eax, eax
  00004	75 0b		 jne	 SHORT $LN28@operator@65
  00006	e8 00 00 00 00	 call	 __invalid_parameter_noinfo
  0000b	8b 07		 mov	 eax, DWORD PTR [edi]
  0000d	85 c0		 test	 eax, eax
  0000f	74 04		 je	 SHORT $LN18@operator@65
$LN28@operator@65:
  00011	8b 10		 mov	 edx, DWORD PTR [eax]
  00013	eb 02		 jmp	 SHORT $LN19@operator@65
$LN18@operator@65:
  00015	33 d2		 xor	 edx, edx
$LN19@operator@65:
  00017	8b 4f 04	 mov	 ecx, DWORD PTR [edi+4]
  0001a	56		 push	 esi
  0001b	8d 34 dd 00 00
	00 00		 lea	 esi, DWORD PTR [ebx*8]
  00022	2b f3		 sub	 esi, ebx
  00024	03 f6		 add	 esi, esi
  00026	03 f6		 add	 esi, esi
  00028	03 ce		 add	 ecx, esi
  0002a	3b 4a 10	 cmp	 ecx, DWORD PTR [edx+16]
  0002d	77 0f		 ja	 SHORT $LN6@operator@65
  0002f	85 c0		 test	 eax, eax
  00031	74 04		 je	 SHORT $LN24@operator@65
  00033	8b 00		 mov	 eax, DWORD PTR [eax]
  00035	eb 02		 jmp	 SHORT $LN25@operator@65
$LN24@operator@65:
  00037	33 c0		 xor	 eax, eax
$LN25@operator@65:
  00039	3b 48 0c	 cmp	 ecx, DWORD PTR [eax+12]
  0003c	73 05		 jae	 SHORT $LN29@operator@65
$LN6@operator@65:
  0003e	e8 00 00 00 00	 call	 __invalid_parameter_noinfo
$LN29@operator@65:
  00043	01 77 04	 add	 DWORD PTR [edi+4], esi

; 376  : 		return (*this);

  00046	8b c7		 mov	 eax, edi
  00048	5e		 pop	 esi

; 377  : 		}

  00049	c3		 ret	 0
??Y?$_Vector_iterator@V?$basic_string@DU?$char_traits@D@std@@V?$allocator@D@2@@std@@V?$allocator@V?$basic_string@DU?$char_traits@D@std@@V?$allocator@D@2@@std@@@2@@std@@QAEAAV01@H@Z ENDP ; std::_Vector_iterator<std::basic_string<char,std::char_traits<char>,std::allocator<char> >,std::allocator<std::basic_string<char,std::char_traits<char>,std::allocator<char> > > >::operator+=
_TEXT	ENDS
;	COMDAT xdata$x
; File c:\program files\microsoft visual studio 9.0\vc\include\iosfwd
xdata$x	SEGMENT
__unwindtable$?_Copy@?$basic_string@DU?$char_traits@D@std@@V?$allocator@D@2@@std@@IAEXII@Z DD 0ffffffffH
	DD	00H
	DD	0ffffffffH
	DD	00H
	DD	01H
	DD	00H
	DD	01H
	DD	00H
__catchsym$?_Copy@?$basic_string@DU?$char_traits@D@std@@V?$allocator@D@2@@std@@IAEXII@Z$4 DD 00H
	DD	00H
	DD	00H
	DD	FLAT:__catch$?_Copy@?$basic_string@DU?$char_traits@D@std@@V?$allocator@D@2@@std@@IAEXII@Z$1
__catchsym$?_Copy@?$basic_string@DU?$char_traits@D@std@@V?$allocator@D@2@@std@@IAEXII@Z$5 DD 00H
	DD	00H
	DD	00H
	DD	FLAT:__catch$?_Copy@?$basic_string@DU?$char_traits@D@std@@V?$allocator@D@2@@std@@IAEXII@Z$0
__tryblocktable$?_Copy@?$basic_string@DU?$char_traits@D@std@@V?$allocator@D@2@@std@@IAEXII@Z DD 02H
	DD	02H
	DD	03H
	DD	01H
	DD	FLAT:__catchsym$?_Copy@?$basic_string@DU?$char_traits@D@std@@V?$allocator@D@2@@std@@IAEXII@Z$4
	DD	00H
	DD	00H
	DD	03H
	DD	01H
	DD	FLAT:__catchsym$?_Copy@?$basic_string@DU?$char_traits@D@std@@V?$allocator@D@2@@std@@IAEXII@Z$5
__ehfuncinfo$?_Copy@?$basic_string@DU?$char_traits@D@std@@V?$allocator@D@2@@std@@IAEXII@Z DD 019930522H
	DD	04H
	DD	FLAT:__unwindtable$?_Copy@?$basic_string@DU?$char_traits@D@std@@V?$allocator@D@2@@std@@IAEXII@Z
	DD	02H
	DD	FLAT:__tryblocktable$?_Copy@?$basic_string@DU?$char_traits@D@std@@V?$allocator@D@2@@std@@IAEXII@Z
	DD	2 DUP(00H)
	DD	00H
	DD	00H
; Function compile flags: /Ogtpy
; File c:\program files\microsoft visual studio 9.0\vc\include\xstring
xdata$x	ENDS
;	COMDAT ?_Copy@?$basic_string@DU?$char_traits@D@std@@V?$allocator@D@2@@std@@IAEXII@Z
_TEXT	SEGMENT
__Ptr$ = -24						; size = 4
_this$ = -20						; size = 4
__$EHRec$ = -16						; size = 16
__Newres$ = 8						; size = 4
__Newsize$ = 8						; size = 4
__Oldlen$ = 12						; size = 4
?_Copy@?$basic_string@DU?$char_traits@D@std@@V?$allocator@D@2@@std@@IAEXII@Z PROC ; std::basic_string<char,std::char_traits<char>,std::allocator<char> >::_Copy, COMDAT
; _this$ = ecx

; 2083 : 		{	// copy _Oldlen elements to newly allocated buffer

  00000	55		 push	 ebp
  00001	8b ec		 mov	 ebp, esp
  00003	6a ff		 push	 -1
  00005	68 00 00 00 00	 push	 __ehhandler$?_Copy@?$basic_string@DU?$char_traits@D@std@@V?$allocator@D@2@@std@@IAEXII@Z
  0000a	64 a1 00 00 00
	00		 mov	 eax, DWORD PTR fs:0
  00010	50		 push	 eax
  00011	83 ec 0c	 sub	 esp, 12			; 0000000cH
  00014	53		 push	 ebx
  00015	56		 push	 esi
  00016	57		 push	 edi
  00017	a1 00 00 00 00	 mov	 eax, DWORD PTR ___security_cookie
  0001c	33 c5		 xor	 eax, ebp
  0001e	50		 push	 eax
  0001f	8d 45 f4	 lea	 eax, DWORD PTR __$EHRec$[ebp+4]
  00022	64 a3 00 00 00
	00		 mov	 DWORD PTR fs:0, eax
  00028	89 65 f0	 mov	 DWORD PTR __$EHRec$[ebp], esp
  0002b	8b f9		 mov	 edi, ecx
  0002d	89 7d ec	 mov	 DWORD PTR _this$[ebp], edi

; 2084 : 		size_type _Newres = _Newsize | _ALLOC_MASK;

  00030	8b 45 08	 mov	 eax, DWORD PTR __Newsize$[ebp]
  00033	8b f0		 mov	 esi, eax
  00035	83 ce 0f	 or	 esi, 15			; 0000000fH

; 2085 : 		if (max_size() < _Newres)

  00038	83 fe fe	 cmp	 esi, -2			; fffffffeH
  0003b	76 04		 jbe	 SHORT $LN6@Copy

; 2086 : 			_Newres = _Newsize;	// undo roundup if too big

  0003d	8b f0		 mov	 esi, eax

; 2087 : 		else if (_Newres / 3 < _Myres / 2

  0003f	eb 22		 jmp	 SHORT $LN4@Copy
$LN6@Copy:

; 2088 : 			&& _Myres <= max_size() - _Myres / 2)

  00041	8b 5f 18	 mov	 ebx, DWORD PTR [edi+24]
  00044	8b cb		 mov	 ecx, ebx
  00046	d1 e9		 shr	 ecx, 1
  00048	b8 ab aa aa aa	 mov	 eax, -1431655765	; aaaaaaabH
  0004d	f7 e6		 mul	 esi
  0004f	d1 ea		 shr	 edx, 1
  00051	3b d1		 cmp	 edx, ecx
  00053	73 0e		 jae	 SHORT $LN4@Copy
  00055	b8 fe ff ff ff	 mov	 eax, -2			; fffffffeH
  0005a	2b c1		 sub	 eax, ecx
  0005c	3b d8		 cmp	 ebx, eax
  0005e	77 03		 ja	 SHORT $LN4@Copy

; 2089 : 			_Newres = _Myres + _Myres / 2;	// grow exponentially if possible

  00060	8d 34 19	 lea	 esi, DWORD PTR [ecx+ebx]
$LN4@Copy:

; 2090 : 		_Elem *_Ptr = 0;
; 2091 : 
; 2092 : 		_TRY_BEGIN

  00063	c7 45 fc 00 00
	00 00		 mov	 DWORD PTR __$EHRec$[ebp+12], 0

; 2093 : 			_Ptr = _Mybase::_Alval.allocate(_Newres + 1);

  0006a	8d 4e 01	 lea	 ecx, DWORD PTR [esi+1]
  0006d	51		 push	 ecx
  0006e	8b cf		 mov	 ecx, edi
  00070	e8 00 00 00 00	 call	 ?allocate@?$allocator@D@std@@QAEPADI@Z ; std::allocator<char>::allocate
  00075	8b d8		 mov	 ebx, eax
  00077	89 5d e8	 mov	 DWORD PTR __Ptr$[ebp], ebx
  0007a	c7 45 fc ff ff
	ff ff		 mov	 DWORD PTR __$EHRec$[ebp+12], -1
  00081	eb 30		 jmp	 SHORT $LN16@Copy
__catch$?_Copy@?$basic_string@DU?$char_traits@D@std@@V?$allocator@D@2@@std@@IAEXII@Z$0:

; 2094 : 		_CATCH_ALL

  00083	89 65 f0	 mov	 DWORD PTR __$EHRec$[ebp], esp

; 2095 : 			_Newres = _Newsize;	// allocation failed, undo roundup and retry

  00086	8b 45 08	 mov	 eax, DWORD PTR __Newsize$[ebp]
  00089	89 45 08	 mov	 DWORD PTR __Newres$[ebp], eax

; 2096 : 			_TRY_BEGIN

  0008c	c6 45 fc 02	 mov	 BYTE PTR __$EHRec$[ebp+12], 2

; 2097 : 				_Ptr = _Mybase::_Alval.allocate(_Newres + 1);

  00090	40		 inc	 eax
  00091	50		 push	 eax
  00092	8b 4d ec	 mov	 ecx, DWORD PTR _this$[ebp]
  00095	e8 00 00 00 00	 call	 ?allocate@?$allocator@D@std@@QAEPADI@Z ; std::allocator<char>::allocate
  0009a	89 45 e8	 mov	 DWORD PTR __Ptr$[ebp], eax

; 2101 : 			_CATCH_END
; 2102 : 		_CATCH_END

  0009d	c7 45 fc 01 00
	00 00		 mov	 DWORD PTR __$EHRec$[ebp+12], 1
  000a4	b8 00 00 00 00	 mov	 eax, $LN102@Copy
  000a9	c3		 ret	 0
$LN102@Copy:
  000aa	8b 7d ec	 mov	 edi, DWORD PTR _this$[ebp]
  000ad	8b 75 08	 mov	 esi, DWORD PTR __Newres$[ebp]
  000b0	8b 5d e8	 mov	 ebx, DWORD PTR __Ptr$[ebp]
$LN16@Copy:

; 2103 : 
; 2104 : 		if (0 < _Oldlen)

  000b3	8b 4d 0c	 mov	 ecx, DWORD PTR __Oldlen$[ebp]
  000b6	85 c9		 test	 ecx, ecx
  000b8	76 20		 jbe	 SHORT $LN67@Copy

; 2105 : 			_Traits_helper::copy_s<_Traits>(_Ptr, _Newres + 1, _Myptr(), _Oldlen);	// copy existing elements

  000ba	83 7f 18 10	 cmp	 DWORD PTR [edi+24], 16	; 00000010H
  000be	72 05		 jb	 SHORT $LN59@Copy
  000c0	8b 47 04	 mov	 eax, DWORD PTR [edi+4]
  000c3	eb 03		 jmp	 SHORT $LN60@Copy
$LN59@Copy:
  000c5	8d 47 04	 lea	 eax, DWORD PTR [edi+4]
$LN60@Copy:
  000c8	51		 push	 ecx
  000c9	50		 push	 eax
  000ca	8d 56 01	 lea	 edx, DWORD PTR [esi+1]
  000cd	52		 push	 edx
  000ce	53		 push	 ebx
  000cf	e8 00 00 00 00	 call	 _memcpy_s
  000d4	83 c4 10	 add	 esp, 16			; 00000010H
  000d7	8b 4d 0c	 mov	 ecx, DWORD PTR __Oldlen$[ebp]
$LN67@Copy:

; 2106 : 		_Tidy(true);

  000da	83 7f 18 10	 cmp	 DWORD PTR [edi+24], 16	; 00000010H
  000de	72 0f		 jb	 SHORT $LN83@Copy
  000e0	8b 47 04	 mov	 eax, DWORD PTR [edi+4]
  000e3	50		 push	 eax
  000e4	e8 00 00 00 00	 call	 ??3@YAXPAX@Z		; operator delete
  000e9	83 c4 04	 add	 esp, 4
  000ec	8b 4d 0c	 mov	 ecx, DWORD PTR __Oldlen$[ebp]
$LN83@Copy:
  000ef	8d 47 04	 lea	 eax, DWORD PTR [edi+4]
  000f2	c6 00 00	 mov	 BYTE PTR [eax], 0

; 2107 : 		_Bx._Ptr = _Ptr;

  000f5	89 18		 mov	 DWORD PTR [eax], ebx

; 2108 : 		_Myres = _Newres;

  000f7	89 77 18	 mov	 DWORD PTR [edi+24], esi

; 2109 : 		_Eos(_Oldlen);

  000fa	89 4f 14	 mov	 DWORD PTR [edi+20], ecx
  000fd	83 fe 10	 cmp	 esi, 16			; 00000010H
  00100	72 02		 jb	 SHORT $LN97@Copy
  00102	8b c3		 mov	 eax, ebx
$LN97@Copy:
  00104	c6 04 08 00	 mov	 BYTE PTR [eax+ecx], 0

; 2110 : 		}

  00108	8b 4d f4	 mov	 ecx, DWORD PTR __$EHRec$[ebp+4]
  0010b	64 89 0d 00 00
	00 00		 mov	 DWORD PTR fs:0, ecx
  00112	59		 pop	 ecx
  00113	5f		 pop	 edi
  00114	5e		 pop	 esi
  00115	5b		 pop	 ebx
  00116	8b e5		 mov	 esp, ebp
  00118	5d		 pop	 ebp
  00119	c2 08 00	 ret	 8
__catch$?_Copy@?$basic_string@DU?$char_traits@D@std@@V?$allocator@D@2@@std@@IAEXII@Z$1:

; 2098 : 			_CATCH_ALL
; 2099 : 			_Tidy(true);	// failed again, discard storage and reraise

  0011c	8b 75 ec	 mov	 esi, DWORD PTR _this$[ebp]
  0011f	83 7e 18 10	 cmp	 DWORD PTR [esi+24], 16	; 00000010H
  00123	72 0c		 jb	 SHORT $LN47@Copy
  00125	8b 4e 04	 mov	 ecx, DWORD PTR [esi+4]
  00128	51		 push	 ecx
  00129	e8 00 00 00 00	 call	 ??3@YAXPAX@Z		; operator delete
  0012e	83 c4 04	 add	 esp, 4
$LN47@Copy:
  00131	c7 46 18 0f 00
	00 00		 mov	 DWORD PTR [esi+24], 15	; 0000000fH
  00138	c7 46 14 00 00
	00 00		 mov	 DWORD PTR [esi+20], 0
  0013f	c6 46 04 00	 mov	 BYTE PTR [esi+4], 0

; 2100 : 			_RERAISE;

  00143	6a 00		 push	 0
  00145	6a 00		 push	 0
  00147	e8 00 00 00 00	 call	 __CxxThrowException@8
$LN106@Copy:
$LN105@Copy:
  0014c	cc		 int	 3
_TEXT	ENDS
;	COMDAT text$x
text$x	SEGMENT
__ehhandler$?_Copy@?$basic_string@DU?$char_traits@D@std@@V?$allocator@D@2@@std@@IAEXII@Z:
  00000	8b 54 24 08	 mov	 edx, DWORD PTR [esp+8]
  00004	8d 42 0c	 lea	 eax, DWORD PTR [edx+12]
  00007	8b 4a e4	 mov	 ecx, DWORD PTR [edx-28]
  0000a	33 c8		 xor	 ecx, eax
  0000c	e8 00 00 00 00	 call	 @__security_check_cookie@4
  00011	b8 00 00 00 00	 mov	 eax, OFFSET __ehfuncinfo$?_Copy@?$basic_string@DU?$char_traits@D@std@@V?$allocator@D@2@@std@@IAEXII@Z
  00016	e9 00 00 00 00	 jmp	 ___CxxFrameHandler3
text$x	ENDS
?_Copy@?$basic_string@DU?$char_traits@D@std@@V?$allocator@D@2@@std@@IAEXII@Z ENDP ; std::basic_string<char,std::char_traits<char>,std::allocator<char> >::_Copy
; Function compile flags: /Ogtpy
; File c:\program files\microsoft visual studio 9.0\vc\include\vector
;	COMDAT ??H?$_Vector_iterator@V?$basic_string@DU?$char_traits@D@std@@V?$allocator@D@2@@std@@V?$allocator@V?$basic_string@DU?$char_traits@D@std@@V?$allocator@D@2@@std@@@2@@std@@QBE?AV01@H@Z
_TEXT	SEGMENT
___$ReturnUdt$ = 8					; size = 4
??H?$_Vector_iterator@V?$basic_string@DU?$char_traits@D@std@@V?$allocator@D@2@@std@@V?$allocator@V?$basic_string@DU?$char_traits@D@std@@V?$allocator@D@2@@std@@@2@@std@@QBE?AV01@H@Z PROC ; std::_Vector_iterator<std::basic_string<char,std::char_traits<char>,std::allocator<char> >,std::allocator<std::basic_string<char,std::char_traits<char>,std::allocator<char> > > >::operator+, COMDAT
; _this$ = eax
; __Off$ = ebx

; 380  : 		{	// return this + integer

  00000	55		 push	 ebp
  00001	8b 6c 24 08	 mov	 ebp, DWORD PTR ___$ReturnUdt$[esp]
  00005	56		 push	 esi

; 381  : 		_Myt _Tmp = *this;

  00006	8b 30		 mov	 esi, DWORD PTR [eax]
  00008	57		 push	 edi
  00009	8b 78 04	 mov	 edi, DWORD PTR [eax+4]

; 382  : 		return (_Tmp += _Off);

  0000c	85 f6		 test	 esi, esi
  0000e	75 20		 jne	 SHORT $LN30@operator@66
  00010	e8 00 00 00 00	 call	 __invalid_parameter_noinfo
  00015	33 c0		 xor	 eax, eax
$LN21@operator@66:
  00017	8d 0c dd 00 00
	00 00		 lea	 ecx, DWORD PTR [ebx*8]
  0001e	2b cb		 sub	 ecx, ebx
  00020	8d 3c 8f	 lea	 edi, DWORD PTR [edi+ecx*4]
  00023	3b 78 10	 cmp	 edi, DWORD PTR [eax+16]
  00026	77 13		 ja	 SHORT $LN8@operator@66
  00028	85 f6		 test	 esi, esi
  0002a	74 08		 je	 SHORT $LN26@operator@66
  0002c	8b 06		 mov	 eax, DWORD PTR [esi]
  0002e	eb 06		 jmp	 SHORT $LN27@operator@66
$LN30@operator@66:
  00030	8b 06		 mov	 eax, DWORD PTR [esi]
  00032	eb e3		 jmp	 SHORT $LN21@operator@66
$LN26@operator@66:
  00034	33 c0		 xor	 eax, eax
$LN27@operator@66:
  00036	3b 78 0c	 cmp	 edi, DWORD PTR [eax+12]
  00039	73 05		 jae	 SHORT $LN7@operator@66
$LN8@operator@66:
  0003b	e8 00 00 00 00	 call	 __invalid_parameter_noinfo
$LN7@operator@66:
  00040	89 7d 04	 mov	 DWORD PTR [ebp+4], edi

; 383  : 		}

  00043	5f		 pop	 edi
  00044	89 75 00	 mov	 DWORD PTR [ebp], esi
  00047	5e		 pop	 esi
  00048	8b c5		 mov	 eax, ebp
  0004a	5d		 pop	 ebp
  0004b	c2 04 00	 ret	 4
??H?$_Vector_iterator@V?$basic_string@DU?$char_traits@D@std@@V?$allocator@D@2@@std@@V?$allocator@V?$basic_string@DU?$char_traits@D@std@@V?$allocator@D@2@@std@@@2@@std@@QBE?AV01@H@Z ENDP ; std::_Vector_iterator<std::basic_string<char,std::char_traits<char>,std::allocator<char> >,std::allocator<std::basic_string<char,std::char_traits<char>,std::allocator<char> > > >::operator+
; Function compile flags: /Ogtpy
; File c:\program files\microsoft visual studio 9.0\vc\include\xstring
_TEXT	ENDS
;	COMDAT ?_Grow@?$basic_string@DU?$char_traits@D@std@@V?$allocator@D@2@@std@@IAE_NI_N@Z
_TEXT	SEGMENT
__Newsize$ = 8						; size = 4
__Trim$ = 12						; size = 1
?_Grow@?$basic_string@DU?$char_traits@D@std@@V?$allocator@D@2@@std@@IAE_NI_N@Z PROC ; std::basic_string<char,std::char_traits<char>,std::allocator<char> >::_Grow, COMDAT
; _this$ = ecx

; 2119 : 		{	// ensure buffer is big enough, trim to size if _Trim is true

  00000	53		 push	 ebx

; 2120 : 			if (max_size() < _Newsize)

  00001	8b 5c 24 08	 mov	 ebx, DWORD PTR __Newsize$[esp]
  00005	56		 push	 esi
  00006	8b f1		 mov	 esi, ecx
  00008	83 fb fe	 cmp	 ebx, -2			; fffffffeH
  0000b	76 05		 jbe	 SHORT $LN6@Grow

; 2121 : 			_String_base::_Xlen();	// result too long

  0000d	e8 00 00 00 00	 call	 ?_Xlen@_String_base@std@@SAXXZ ; std::_String_base::_Xlen
$LN6@Grow:

; 2122 : 		if (_Myres < _Newsize)

  00012	8b 46 18	 mov	 eax, DWORD PTR [esi+24]
  00015	3b c3		 cmp	 eax, ebx
  00017	73 19		 jae	 SHORT $LN5@Grow

; 2123 : 			_Copy(_Newsize, _Mysize);	// reallocate to grow

  00019	8b 46 14	 mov	 eax, DWORD PTR [esi+20]
  0001c	50		 push	 eax
  0001d	53		 push	 ebx
  0001e	8b ce		 mov	 ecx, esi
  00020	e8 00 00 00 00	 call	 ?_Copy@?$basic_string@DU?$char_traits@D@std@@V?$allocator@D@2@@std@@IAEXII@Z ; std::basic_string<char,std::char_traits<char>,std::allocator<char> >::_Copy

; 2129 : 		return (0 < _Newsize);	// return true only if more work to do

  00025	33 c9		 xor	 ecx, ecx
  00027	3b cb		 cmp	 ecx, ebx
  00029	1b c0		 sbb	 eax, eax
  0002b	5e		 pop	 esi
  0002c	f7 d8		 neg	 eax
  0002e	5b		 pop	 ebx

; 2130 : 		}

  0002f	c2 08 00	 ret	 8
$LN5@Grow:

; 2124 : 		else if (_Trim && _Newsize < _BUF_SIZE)

  00032	80 7c 24 10 00	 cmp	 BYTE PTR __Trim$[esp+4], 0
  00037	74 52		 je	 SHORT $LN3@Grow
  00039	83 fb 10	 cmp	 ebx, 16			; 00000010H
  0003c	73 4d		 jae	 SHORT $LN3@Grow
  0003e	57		 push	 edi

; 2125 : 			_Tidy(true,	// copy and deallocate if trimming to small string
; 2126 : 				_Newsize < _Mysize ? _Newsize : _Mysize);

  0003f	8b 7e 14	 mov	 edi, DWORD PTR [esi+20]
  00042	3b df		 cmp	 ebx, edi
  00044	73 02		 jae	 SHORT $LN9@Grow
  00046	8b fb		 mov	 edi, ebx
$LN9@Grow:
  00048	83 f8 10	 cmp	 eax, 16			; 00000010H
  0004b	72 21		 jb	 SHORT $LN33@Grow
  0004d	8d 46 04	 lea	 eax, DWORD PTR [esi+4]
  00050	55		 push	 ebp
  00051	8b 28		 mov	 ebp, DWORD PTR [eax]
  00053	85 ff		 test	 edi, edi
  00055	76 0d		 jbe	 SHORT $LN31@Grow
  00057	57		 push	 edi
  00058	55		 push	 ebp
  00059	6a 10		 push	 16			; 00000010H
  0005b	50		 push	 eax
  0005c	e8 00 00 00 00	 call	 _memcpy_s
  00061	83 c4 10	 add	 esp, 16			; 00000010H
$LN31@Grow:
  00064	55		 push	 ebp
  00065	e8 00 00 00 00	 call	 ??3@YAXPAX@Z		; operator delete
  0006a	83 c4 04	 add	 esp, 4
  0006d	5d		 pop	 ebp
$LN33@Grow:
  0006e	89 7e 14	 mov	 DWORD PTR [esi+20], edi
  00071	c7 46 18 0f 00
	00 00		 mov	 DWORD PTR [esi+24], 15	; 0000000fH

; 2129 : 		return (0 < _Newsize);	// return true only if more work to do

  00078	33 c9		 xor	 ecx, ecx
  0007a	c6 44 3e 04 00	 mov	 BYTE PTR [esi+edi+4], 0
  0007f	3b cb		 cmp	 ecx, ebx
  00081	5f		 pop	 edi
  00082	1b c0		 sbb	 eax, eax
  00084	5e		 pop	 esi
  00085	f7 d8		 neg	 eax
  00087	5b		 pop	 ebx

; 2130 : 		}

  00088	c2 08 00	 ret	 8
$LN3@Grow:

; 2127 : 		else if (_Newsize == 0)

  0008b	85 db		 test	 ebx, ebx
  0008d	75 20		 jne	 SHORT $LN49@Grow

; 2128 : 			_Eos(0);	// new size is zero, just null terminate

  0008f	89 5e 14	 mov	 DWORD PTR [esi+20], ebx
  00092	83 f8 10	 cmp	 eax, 16			; 00000010H
  00095	72 12		 jb	 SHORT $LN47@Grow
  00097	8b 76 04	 mov	 esi, DWORD PTR [esi+4]

; 2129 : 		return (0 < _Newsize);	// return true only if more work to do

  0009a	33 c9		 xor	 ecx, ecx
  0009c	3b cb		 cmp	 ecx, ebx
  0009e	88 1e		 mov	 BYTE PTR [esi], bl
  000a0	1b c0		 sbb	 eax, eax
  000a2	5e		 pop	 esi
  000a3	f7 d8		 neg	 eax
  000a5	5b		 pop	 ebx

; 2130 : 		}

  000a6	c2 08 00	 ret	 8

; 2128 : 			_Eos(0);	// new size is zero, just null terminate

$LN47@Grow:
  000a9	83 c6 04	 add	 esi, 4
  000ac	c6 06 00	 mov	 BYTE PTR [esi], 0
$LN49@Grow:

; 2129 : 		return (0 < _Newsize);	// return true only if more work to do

  000af	33 c9		 xor	 ecx, ecx
  000b1	3b cb		 cmp	 ecx, ebx
  000b3	1b c0		 sbb	 eax, eax
  000b5	5e		 pop	 esi
  000b6	f7 d8		 neg	 eax
  000b8	5b		 pop	 ebx

; 2130 : 		}

  000b9	c2 08 00	 ret	 8
?_Grow@?$basic_string@DU?$char_traits@D@std@@V?$allocator@D@2@@std@@IAE_NI_N@Z ENDP ; std::basic_string<char,std::char_traits<char>,std::allocator<char> >::_Grow
; Function compile flags: /Ogtpy
_TEXT	ENDS
;	COMDAT ?append@?$basic_string@DU?$char_traits@D@std@@V?$allocator@D@2@@std@@QAEAAV12@ABV12@II@Z
_TEXT	SEGMENT
__Right$ = 8						; size = 4
__Roff$ = 12						; size = 4
?append@?$basic_string@DU?$char_traits@D@std@@V?$allocator@D@2@@std@@QAEAAV12@ABV12@II@Z PROC ; std::basic_string<char,std::char_traits<char>,std::allocator<char> >::append, COMDAT
; _this$ = esi
; __Count$ = eax

; 951  : 		{	// append _Right [_Roff, _Roff + _Count)

  00000	53		 push	 ebx
  00001	55		 push	 ebp
  00002	8b 6c 24 0c	 mov	 ebp, DWORD PTR __Right$[esp+4]
  00006	57		 push	 edi

; 952  : 		if (_Right.size() < _Roff)

  00007	8b 7c 24 14	 mov	 edi, DWORD PTR __Roff$[esp+8]
  0000b	8b d8		 mov	 ebx, eax
  0000d	39 7d 14	 cmp	 DWORD PTR [ebp+20], edi
  00010	73 05		 jae	 SHORT $LN5@append

; 953  : 			_String_base::_Xran();	// _Roff off end

  00012	e8 00 00 00 00	 call	 ?_Xran@_String_base@std@@SAXXZ ; std::_String_base::_Xran
$LN5@append:

; 954  : 		size_type _Num = _Right.size() - _Roff;

  00017	8b 45 14	 mov	 eax, DWORD PTR [ebp+20]
  0001a	2b c7		 sub	 eax, edi

; 955  : 		if (_Num < _Count)

  0001c	3b c3		 cmp	 eax, ebx
  0001e	73 02		 jae	 SHORT $LN4@append

; 956  : 			_Count = _Num;	// trim _Count to size

  00020	8b d8		 mov	 ebx, eax
$LN4@append:

; 957  : 		if (npos - _Mysize <= _Count || _Mysize + _Count < _Mysize)

  00022	8b 46 14	 mov	 eax, DWORD PTR [esi+20]
  00025	83 c9 ff	 or	 ecx, -1
  00028	2b c8		 sub	 ecx, eax
  0002a	3b cb		 cmp	 ecx, ebx
  0002c	76 07		 jbe	 SHORT $LN2@append
  0002e	8d 14 18	 lea	 edx, DWORD PTR [eax+ebx]
  00031	3b d0		 cmp	 edx, eax
  00033	73 05		 jae	 SHORT $LN3@append
$LN2@append:

; 958  : 			_String_base::_Xlen();	// result too long

  00035	e8 00 00 00 00	 call	 ?_Xlen@_String_base@std@@SAXXZ ; std::_String_base::_Xlen
$LN3@append:

; 959  : 
; 960  : 		if (0 < _Count && _Grow(_Num = _Mysize + _Count))

  0003a	85 db		 test	 ebx, ebx
  0003c	0f 86 a4 00 00
	00		 jbe	 $LN87@append
  00042	8b 7e 14	 mov	 edi, DWORD PTR [esi+20]
  00045	03 fb		 add	 edi, ebx
  00047	83 ff fe	 cmp	 edi, -2			; fffffffeH
  0004a	76 05		 jbe	 SHORT $LN17@append
  0004c	e8 00 00 00 00	 call	 ?_Xlen@_String_base@std@@SAXXZ ; std::_String_base::_Xlen
$LN17@append:
  00051	8b 46 18	 mov	 eax, DWORD PTR [esi+24]
  00054	3b c7		 cmp	 eax, edi
  00056	73 1b		 jae	 SHORT $LN16@append
  00058	8b 46 14	 mov	 eax, DWORD PTR [esi+20]
  0005b	50		 push	 eax
  0005c	57		 push	 edi
  0005d	8b ce		 mov	 ecx, esi
  0005f	e8 00 00 00 00	 call	 ?_Copy@?$basic_string@DU?$char_traits@D@std@@V?$allocator@D@2@@std@@IAEXII@Z ; std::basic_string<char,std::char_traits<char>,std::allocator<char> >::_Copy
  00064	85 ff		 test	 edi, edi
$LN88@append:
  00066	76 7e		 jbe	 SHORT $LN87@append

; 961  : 			{	// make room and append new stuff
; 962  : 			_Traits_helper::copy_s<_Traits>(_Myptr() + _Mysize, _Myres - _Mysize,
; 963  : 				_Right._Myptr() + _Roff, _Count);

  00068	83 7d 18 10	 cmp	 DWORD PTR [ebp+24], 16	; 00000010H
  0006c	72 2d		 jb	 SHORT $LN64@append
  0006e	8b 6d 04	 mov	 ebp, DWORD PTR [ebp+4]
  00071	eb 2b		 jmp	 SHORT $LN65@append

; 959  : 
; 960  : 		if (0 < _Count && _Grow(_Num = _Mysize + _Count))

$LN16@append:
  00073	85 ff		 test	 edi, edi
  00075	75 ef		 jne	 SHORT $LN88@append
  00077	89 7e 14	 mov	 DWORD PTR [esi+20], edi
  0007a	83 f8 10	 cmp	 eax, 16			; 00000010H
  0007d	72 0e		 jb	 SHORT $LN58@append
  0007f	8b 46 04	 mov	 eax, DWORD PTR [esi+4]
  00082	5f		 pop	 edi
  00083	5d		 pop	 ebp
  00084	c6 00 00	 mov	 BYTE PTR [eax], 0

; 965  : 			}
; 966  : 		return (*this);

  00087	8b c6		 mov	 eax, esi
  00089	5b		 pop	 ebx

; 967  : 		}

  0008a	c2 08 00	 ret	 8

; 959  : 
; 960  : 		if (0 < _Count && _Grow(_Num = _Mysize + _Count))

$LN58@append:
  0008d	5f		 pop	 edi
  0008e	8d 46 04	 lea	 eax, DWORD PTR [esi+4]
  00091	5d		 pop	 ebp
  00092	c6 00 00	 mov	 BYTE PTR [eax], 0

; 965  : 			}
; 966  : 		return (*this);

  00095	8b c6		 mov	 eax, esi
  00097	5b		 pop	 ebx

; 967  : 		}

  00098	c2 08 00	 ret	 8

; 961  : 			{	// make room and append new stuff
; 962  : 			_Traits_helper::copy_s<_Traits>(_Myptr() + _Mysize, _Myres - _Mysize,
; 963  : 				_Right._Myptr() + _Roff, _Count);

$LN64@append:
  0009b	83 c5 04	 add	 ebp, 4
$LN65@append:
  0009e	8b 46 18	 mov	 eax, DWORD PTR [esi+24]
  000a1	83 f8 10	 cmp	 eax, 16			; 00000010H
  000a4	72 05		 jb	 SHORT $LN68@append
  000a6	8b 56 04	 mov	 edx, DWORD PTR [esi+4]
  000a9	eb 03		 jmp	 SHORT $LN69@append
$LN68@append:
  000ab	8d 56 04	 lea	 edx, DWORD PTR [esi+4]
$LN69@append:
  000ae	8b 4e 14	 mov	 ecx, DWORD PTR [esi+20]
  000b1	53		 push	 ebx
  000b2	8b 5c 24 18	 mov	 ebx, DWORD PTR __Roff$[esp+12]
  000b6	03 eb		 add	 ebp, ebx
  000b8	2b c1		 sub	 eax, ecx
  000ba	55		 push	 ebp
  000bb	50		 push	 eax
  000bc	03 ca		 add	 ecx, edx
  000be	51		 push	 ecx
  000bf	e8 00 00 00 00	 call	 _memcpy_s
  000c4	83 c4 10	 add	 esp, 16			; 00000010H

; 964  : 			_Eos(_Num);

  000c7	83 7e 18 10	 cmp	 DWORD PTR [esi+24], 16	; 00000010H
  000cb	89 7e 14	 mov	 DWORD PTR [esi+20], edi
  000ce	72 0f		 jb	 SHORT $LN82@append
  000d0	8b 46 04	 mov	 eax, DWORD PTR [esi+4]
  000d3	c6 04 38 00	 mov	 BYTE PTR [eax+edi], 0
  000d7	5f		 pop	 edi
  000d8	5d		 pop	 ebp

; 965  : 			}
; 966  : 		return (*this);

  000d9	8b c6		 mov	 eax, esi
  000db	5b		 pop	 ebx

; 967  : 		}

  000dc	c2 08 00	 ret	 8

; 964  : 			_Eos(_Num);

$LN82@append:
  000df	8d 46 04	 lea	 eax, DWORD PTR [esi+4]
  000e2	c6 04 38 00	 mov	 BYTE PTR [eax+edi], 0
$LN87@append:
  000e6	5f		 pop	 edi
  000e7	5d		 pop	 ebp

; 965  : 			}
; 966  : 		return (*this);

  000e8	8b c6		 mov	 eax, esi
  000ea	5b		 pop	 ebx

; 967  : 		}

  000eb	c2 08 00	 ret	 8
?append@?$basic_string@DU?$char_traits@D@std@@V?$allocator@D@2@@std@@QAEAAV12@ABV12@II@Z ENDP ; std::basic_string<char,std::char_traits<char>,std::allocator<char> >::append
; Function compile flags: /Ogtpy
; File c:\program files\microsoft visual studio 9.0\vc\include\vector
_TEXT	ENDS
;	COMDAT ?_Destroy@?$vector@V?$basic_string@DU?$char_traits@D@std@@V?$allocator@D@2@@std@@V?$allocator@V?$basic_string@DU?$char_traits@D@std@@V?$allocator@D@2@@std@@@2@@std@@IAEXPAV?$basic_string@DU?$char_traits@D@std@@V?$allocator@D@2@@2@0@Z
_TEXT	SEGMENT
__Cat$187739 = 8					; size = 1
__First$ = 8						; size = 4
?_Destroy@?$vector@V?$basic_string@DU?$char_traits@D@std@@V?$allocator@D@2@@std@@V?$allocator@V?$basic_string@DU?$char_traits@D@std@@V?$allocator@D@2@@std@@@2@@std@@IAEXPAV?$basic_string@DU?$char_traits@D@std@@V?$allocator@D@2@@2@0@Z PROC ; std::vector<std::basic_string<char,std::char_traits<char>,std::allocator<char> >,std::allocator<std::basic_string<char,std::char_traits<char>,std::allocator<char> > > >::_Destroy, COMDAT
; __Last$ = edi

; 1119 : 		_Destroy_range(_First, _Last, this->_Alval);

  00000	8b 44 24 04	 mov	 eax, DWORD PTR __Cat$187739[esp-4]
  00004	50		 push	 eax
  00005	8b 44 24 08	 mov	 eax, DWORD PTR __First$[esp]
  00009	e8 00 00 00 00	 call	 ??$_Destroy_range@V?$allocator@V?$basic_string@DU?$char_traits@D@std@@V?$allocator@D@2@@std@@@std@@@std@@YAXPAV?$basic_string@DU?$char_traits@D@std@@V?$allocator@D@2@@0@0AAV?$allocator@V?$basic_string@DU?$char_traits@D@std@@V?$allocator@D@2@@std@@@0@U_Nonscalar_ptr_iterator_tag@0@@Z ; std::_Destroy_range<std::allocator<std::basic_string<char,std::char_traits<char>,std::allocator<char> > > >
  0000e	59		 pop	 ecx

; 1120 : 		}

  0000f	c2 04 00	 ret	 4
?_Destroy@?$vector@V?$basic_string@DU?$char_traits@D@std@@V?$allocator@D@2@@std@@V?$allocator@V?$basic_string@DU?$char_traits@D@std@@V?$allocator@D@2@@std@@@2@@std@@IAEXPAV?$basic_string@DU?$char_traits@D@std@@V?$allocator@D@2@@2@0@Z ENDP ; std::vector<std::basic_string<char,std::char_traits<char>,std::allocator<char> >,std::allocator<std::basic_string<char,std::char_traits<char>,std::allocator<char> > > >::_Destroy
; Function compile flags: /Ogtpy
; File c:\program files\microsoft visual studio 9.0\vc\include\xstring
_TEXT	ENDS
;	COMDAT ?assign@?$basic_string@DU?$char_traits@D@std@@V?$allocator@D@2@@std@@QAEAAV12@ABV12@II@Z
_TEXT	SEGMENT
__Right$ = 8						; size = 4
__Roff$ = 12						; size = 4
__Count$ = 16						; size = 4
?assign@?$basic_string@DU?$char_traits@D@std@@V?$allocator@D@2@@std@@QAEAAV12@ABV12@II@Z PROC ; std::basic_string<char,std::char_traits<char>,std::allocator<char> >::assign, COMDAT
; _this$ = ecx

; 1046 : 		{	// assign _Right [_Roff, _Roff + _Count)

  00000	53		 push	 ebx

; 1047 : 		if (_Right.size() < _Roff)

  00001	8b 5c 24 08	 mov	 ebx, DWORD PTR __Right$[esp]
  00005	55		 push	 ebp
  00006	8b 6c 24 10	 mov	 ebp, DWORD PTR __Roff$[esp+4]
  0000a	56		 push	 esi
  0000b	57		 push	 edi
  0000c	8b f1		 mov	 esi, ecx
  0000e	39 6b 14	 cmp	 DWORD PTR [ebx+20], ebp
  00011	73 05		 jae	 SHORT $LN5@assign

; 1048 : 			_String_base::_Xran();	// _Roff off end

  00013	e8 00 00 00 00	 call	 ?_Xran@_String_base@std@@SAXXZ ; std::_String_base::_Xran
$LN5@assign:

; 1049 : 		size_type _Num = _Right.size() - _Roff;

  00018	8b 7b 14	 mov	 edi, DWORD PTR [ebx+20]

; 1050 : 		if (_Count < _Num)

  0001b	8b 44 24 1c	 mov	 eax, DWORD PTR __Count$[esp+12]
  0001f	2b fd		 sub	 edi, ebp
  00021	3b c7		 cmp	 eax, edi
  00023	73 02		 jae	 SHORT $LN4@assign

; 1051 : 			_Num = _Count;	// trim _Num to size

  00025	8b f8		 mov	 edi, eax
$LN4@assign:

; 1052 : 
; 1053 : 		if (this == &_Right)

  00027	3b f3		 cmp	 esi, ebx
  00029	75 1f		 jne	 SHORT $LN3@assign

; 1054 : 			erase((size_type)(_Roff + _Num)), erase(0, _Roff);	// substring

  0002b	6a ff		 push	 -1
  0002d	03 fd		 add	 edi, ebp
  0002f	57		 push	 edi
  00030	8b ce		 mov	 ecx, esi
  00032	e8 00 00 00 00	 call	 ?erase@?$basic_string@DU?$char_traits@D@std@@V?$allocator@D@2@@std@@QAEAAV12@II@Z ; std::basic_string<char,std::char_traits<char>,std::allocator<char> >::erase
  00037	55		 push	 ebp
  00038	6a 00		 push	 0
  0003a	8b ce		 mov	 ecx, esi
  0003c	e8 00 00 00 00	 call	 ?erase@?$basic_string@DU?$char_traits@D@std@@V?$allocator@D@2@@std@@QAEAAV12@II@Z ; std::basic_string<char,std::char_traits<char>,std::allocator<char> >::erase
  00041	5f		 pop	 edi

; 1059 : 			}
; 1060 : 		return (*this);

  00042	8b c6		 mov	 eax, esi
  00044	5e		 pop	 esi
  00045	5d		 pop	 ebp
  00046	5b		 pop	 ebx

; 1061 : 		}

  00047	c2 0c 00	 ret	 12			; 0000000cH
$LN3@assign:

; 1055 : 		else if (_Grow(_Num))

  0004a	83 ff fe	 cmp	 edi, -2			; fffffffeH
  0004d	76 05		 jbe	 SHORT $LN17@assign
  0004f	e8 00 00 00 00	 call	 ?_Xlen@_String_base@std@@SAXXZ ; std::_String_base::_Xlen
$LN17@assign:
  00054	8b 46 18	 mov	 eax, DWORD PTR [esi+24]
  00057	3b c7		 cmp	 eax, edi
  00059	73 1b		 jae	 SHORT $LN16@assign
  0005b	8b 46 14	 mov	 eax, DWORD PTR [esi+20]
  0005e	50		 push	 eax
  0005f	57		 push	 edi
  00060	8b ce		 mov	 ecx, esi
  00062	e8 00 00 00 00	 call	 ?_Copy@?$basic_string@DU?$char_traits@D@std@@V?$allocator@D@2@@std@@IAEXII@Z ; std::basic_string<char,std::char_traits<char>,std::allocator<char> >::_Copy
  00067	85 ff		 test	 edi, edi
$LN87@assign:
  00069	76 66		 jbe	 SHORT $LN86@assign

; 1056 : 			{	// make room and assign new stuff
; 1057 : 			_Traits_helper::copy_s<_Traits>(_Myptr(), _Myres, _Right._Myptr() + _Roff, _Num);

  0006b	83 7b 18 10	 cmp	 DWORD PTR [ebx+24], 16	; 00000010H
  0006f	72 2f		 jb	 SHORT $LN64@assign
  00071	8b 53 04	 mov	 edx, DWORD PTR [ebx+4]
  00074	eb 2d		 jmp	 SHORT $LN65@assign

; 1055 : 		else if (_Grow(_Num))

$LN16@assign:
  00076	85 ff		 test	 edi, edi
  00078	75 ef		 jne	 SHORT $LN87@assign
  0007a	89 7e 14	 mov	 DWORD PTR [esi+20], edi
  0007d	83 f8 10	 cmp	 eax, 16			; 00000010H
  00080	72 0f		 jb	 SHORT $LN58@assign
  00082	8b 46 04	 mov	 eax, DWORD PTR [esi+4]
  00085	5f		 pop	 edi
  00086	c6 00 00	 mov	 BYTE PTR [eax], 0

; 1059 : 			}
; 1060 : 		return (*this);

  00089	8b c6		 mov	 eax, esi
  0008b	5e		 pop	 esi
  0008c	5d		 pop	 ebp
  0008d	5b		 pop	 ebx

; 1061 : 		}

  0008e	c2 0c 00	 ret	 12			; 0000000cH

; 1055 : 		else if (_Grow(_Num))

$LN58@assign:
  00091	8d 46 04	 lea	 eax, DWORD PTR [esi+4]
  00094	5f		 pop	 edi
  00095	c6 00 00	 mov	 BYTE PTR [eax], 0

; 1059 : 			}
; 1060 : 		return (*this);

  00098	8b c6		 mov	 eax, esi
  0009a	5e		 pop	 esi
  0009b	5d		 pop	 ebp
  0009c	5b		 pop	 ebx

; 1061 : 		}

  0009d	c2 0c 00	 ret	 12			; 0000000cH

; 1056 : 			{	// make room and assign new stuff
; 1057 : 			_Traits_helper::copy_s<_Traits>(_Myptr(), _Myres, _Right._Myptr() + _Roff, _Num);

$LN64@assign:
  000a0	8d 53 04	 lea	 edx, DWORD PTR [ebx+4]
$LN65@assign:
  000a3	8b 4e 18	 mov	 ecx, DWORD PTR [esi+24]
  000a6	8d 5e 04	 lea	 ebx, DWORD PTR [esi+4]
  000a9	83 f9 10	 cmp	 ecx, 16			; 00000010H
  000ac	72 04		 jb	 SHORT $LN68@assign
  000ae	8b 03		 mov	 eax, DWORD PTR [ebx]
  000b0	eb 02		 jmp	 SHORT $LN69@assign
$LN68@assign:
  000b2	8b c3		 mov	 eax, ebx
$LN69@assign:
  000b4	57		 push	 edi
  000b5	03 d5		 add	 edx, ebp
  000b7	52		 push	 edx
  000b8	51		 push	 ecx
  000b9	50		 push	 eax
  000ba	e8 00 00 00 00	 call	 _memcpy_s
  000bf	83 c4 10	 add	 esp, 16			; 00000010H

; 1058 : 			_Eos(_Num);

  000c2	83 7e 18 10	 cmp	 DWORD PTR [esi+24], 16	; 00000010H
  000c6	89 7e 14	 mov	 DWORD PTR [esi+20], edi
  000c9	72 02		 jb	 SHORT $LN82@assign
  000cb	8b 1b		 mov	 ebx, DWORD PTR [ebx]
$LN82@assign:
  000cd	c6 04 3b 00	 mov	 BYTE PTR [ebx+edi], 0
$LN86@assign:
  000d1	5f		 pop	 edi

; 1059 : 			}
; 1060 : 		return (*this);

  000d2	8b c6		 mov	 eax, esi
  000d4	5e		 pop	 esi
  000d5	5d		 pop	 ebp
  000d6	5b		 pop	 ebx

; 1061 : 		}

  000d7	c2 0c 00	 ret	 12			; 0000000cH
?assign@?$basic_string@DU?$char_traits@D@std@@V?$allocator@D@2@@std@@QAEAAV12@ABV12@II@Z ENDP ; std::basic_string<char,std::char_traits<char>,std::allocator<char> >::assign
; Function compile flags: /Ogtpy
_TEXT	ENDS
;	COMDAT ?append@?$basic_string@DU?$char_traits@D@std@@V?$allocator@D@2@@std@@QAEAAV12@PBDI@Z
_TEXT	SEGMENT
__Ptr$ = 8						; size = 4
__Count$ = 12						; size = 4
?append@?$basic_string@DU?$char_traits@D@std@@V?$allocator@D@2@@std@@QAEAAV12@PBDI@Z PROC ; std::basic_string<char,std::char_traits<char>,std::allocator<char> >::append, COMDAT
; _this$ = eax

; 970  : 		{	// append [_Ptr, _Ptr + _Count)

  00000	8b 4c 24 04	 mov	 ecx, DWORD PTR __Ptr$[esp-4]
  00004	53		 push	 ebx
  00005	55		 push	 ebp
  00006	8b 6c 24 10	 mov	 ebp, DWORD PTR __Count$[esp+4]
  0000a	56		 push	 esi
  0000b	57		 push	 edi
  0000c	8b f0		 mov	 esi, eax

; 971  : 
; 972  :  #if _HAS_ITERATOR_DEBUGGING
; 973  : 		if (_Count != 0)
; 974  : 			_DEBUG_POINTER(_Ptr);
; 975  :  #endif /* _HAS_ITERATOR_DEBUGGING */
; 976  : 
; 977  : 		if (_Inside(_Ptr))

  0000e	85 c9		 test	 ecx, ecx
  00010	74 42		 je	 SHORT $LN95@append@2
  00012	8b 7e 18	 mov	 edi, DWORD PTR [esi+24]
  00015	8d 46 04	 lea	 eax, DWORD PTR [esi+4]
  00018	83 ff 10	 cmp	 edi, 16			; 00000010H
  0001b	72 04		 jb	 SHORT $LN14@append@2
  0001d	8b 10		 mov	 edx, DWORD PTR [eax]
  0001f	eb 02		 jmp	 SHORT $LN15@append@2
$LN14@append@2:
  00021	8b d0		 mov	 edx, eax
$LN15@append@2:
  00023	3b ca		 cmp	 ecx, edx
  00025	72 2d		 jb	 SHORT $LN95@append@2
  00027	83 ff 10	 cmp	 edi, 16			; 00000010H
  0002a	72 04		 jb	 SHORT $LN18@append@2
  0002c	8b 10		 mov	 edx, DWORD PTR [eax]
  0002e	eb 02		 jmp	 SHORT $LN19@append@2
$LN18@append@2:
  00030	8b d0		 mov	 edx, eax
$LN19@append@2:
  00032	8b 5e 14	 mov	 ebx, DWORD PTR [esi+20]
  00035	03 da		 add	 ebx, edx
  00037	3b d9		 cmp	 ebx, ecx
  00039	76 19		 jbe	 SHORT $LN95@append@2

; 978  : 			return (append(*this, _Ptr - _Myptr(), _Count));	// substring

  0003b	83 ff 10	 cmp	 edi, 16			; 00000010H
  0003e	72 02		 jb	 SHORT $LN22@append@2
  00040	8b 00		 mov	 eax, DWORD PTR [eax]
$LN22@append@2:
  00042	2b c8		 sub	 ecx, eax
  00044	51		 push	 ecx
  00045	56		 push	 esi
  00046	8b c5		 mov	 eax, ebp
  00048	e8 00 00 00 00	 call	 ?append@?$basic_string@DU?$char_traits@D@std@@V?$allocator@D@2@@std@@QAEAAV12@ABV12@II@Z ; std::basic_string<char,std::char_traits<char>,std::allocator<char> >::append
  0004d	5f		 pop	 edi
  0004e	5e		 pop	 esi
  0004f	5d		 pop	 ebp
  00050	5b		 pop	 ebx

; 989  : 		}

  00051	c2 08 00	 ret	 8
$LN95@append@2:

; 979  : 		if (npos - _Mysize <= _Count || _Mysize + _Count < _Mysize)

  00054	8b 46 14	 mov	 eax, DWORD PTR [esi+20]
  00057	83 c9 ff	 or	 ecx, -1
  0005a	2b c8		 sub	 ecx, eax
  0005c	3b cd		 cmp	 ecx, ebp
  0005e	76 07		 jbe	 SHORT $LN2@append@2
  00060	8d 14 28	 lea	 edx, DWORD PTR [eax+ebp]
  00063	3b d0		 cmp	 edx, eax
  00065	73 05		 jae	 SHORT $LN3@append@2
$LN2@append@2:

; 980  : 			_String_base::_Xlen();	// result too long

  00067	e8 00 00 00 00	 call	 ?_Xlen@_String_base@std@@SAXXZ ; std::_String_base::_Xlen
$LN3@append@2:

; 981  : 
; 982  : 		size_type _Num;
; 983  : 		if (0 < _Count && _Grow(_Num = _Mysize + _Count))

  0006c	85 ed		 test	 ebp, ebp
  0006e	0f 86 87 00 00
	00		 jbe	 $LN92@append@2
  00074	8b 7e 14	 mov	 edi, DWORD PTR [esi+20]
  00077	03 fd		 add	 edi, ebp
  00079	83 ff fe	 cmp	 edi, -2			; fffffffeH
  0007c	76 05		 jbe	 SHORT $LN29@append@2
  0007e	e8 00 00 00 00	 call	 ?_Xlen@_String_base@std@@SAXXZ ; std::_String_base::_Xlen
$LN29@append@2:
  00083	8b 46 18	 mov	 eax, DWORD PTR [esi+24]
  00086	3b c7		 cmp	 eax, edi
  00088	73 1f		 jae	 SHORT $LN28@append@2
  0008a	8b 46 14	 mov	 eax, DWORD PTR [esi+20]
  0008d	50		 push	 eax
  0008e	57		 push	 edi
  0008f	8b ce		 mov	 ecx, esi
  00091	e8 00 00 00 00	 call	 ?_Copy@?$basic_string@DU?$char_traits@D@std@@V?$allocator@D@2@@std@@IAEXII@Z ; std::basic_string<char,std::char_traits<char>,std::allocator<char> >::_Copy
  00096	85 ff		 test	 edi, edi
$LN96@append@2:
  00098	76 61		 jbe	 SHORT $LN92@append@2

; 984  : 			{	// make room and append new stuff
; 985  : 			_Traits_helper::copy_s<_Traits>(_Myptr() + _Mysize, _Myres - _Mysize, _Ptr, _Count);

  0009a	8b 46 18	 mov	 eax, DWORD PTR [esi+24]
  0009d	8d 5e 04	 lea	 ebx, DWORD PTR [esi+4]
  000a0	83 f8 10	 cmp	 eax, 16			; 00000010H
  000a3	72 2e		 jb	 SHORT $LN76@append@2
  000a5	8b 13		 mov	 edx, DWORD PTR [ebx]
  000a7	eb 2c		 jmp	 SHORT $LN77@append@2

; 981  : 
; 982  : 		size_type _Num;
; 983  : 		if (0 < _Count && _Grow(_Num = _Mysize + _Count))

$LN28@append@2:
  000a9	85 ff		 test	 edi, edi
  000ab	75 eb		 jne	 SHORT $LN96@append@2
  000ad	89 7e 14	 mov	 DWORD PTR [esi+20], edi
  000b0	83 f8 10	 cmp	 eax, 16			; 00000010H
  000b3	72 0f		 jb	 SHORT $LN70@append@2
  000b5	8b 46 04	 mov	 eax, DWORD PTR [esi+4]
  000b8	5f		 pop	 edi
  000b9	c6 00 00	 mov	 BYTE PTR [eax], 0

; 987  : 			}
; 988  : 		return (*this);

  000bc	8b c6		 mov	 eax, esi
  000be	5e		 pop	 esi
  000bf	5d		 pop	 ebp
  000c0	5b		 pop	 ebx

; 989  : 		}

  000c1	c2 08 00	 ret	 8

; 981  : 
; 982  : 		size_type _Num;
; 983  : 		if (0 < _Count && _Grow(_Num = _Mysize + _Count))

$LN70@append@2:
  000c4	8d 46 04	 lea	 eax, DWORD PTR [esi+4]
  000c7	5f		 pop	 edi
  000c8	c6 00 00	 mov	 BYTE PTR [eax], 0

; 987  : 			}
; 988  : 		return (*this);

  000cb	8b c6		 mov	 eax, esi
  000cd	5e		 pop	 esi
  000ce	5d		 pop	 ebp
  000cf	5b		 pop	 ebx

; 989  : 		}

  000d0	c2 08 00	 ret	 8

; 984  : 			{	// make room and append new stuff
; 985  : 			_Traits_helper::copy_s<_Traits>(_Myptr() + _Mysize, _Myres - _Mysize, _Ptr, _Count);

$LN76@append@2:
  000d3	8b d3		 mov	 edx, ebx
$LN77@append@2:
  000d5	8b 4e 14	 mov	 ecx, DWORD PTR [esi+20]
  000d8	55		 push	 ebp
  000d9	8b 6c 24 18	 mov	 ebp, DWORD PTR __Ptr$[esp+16]
  000dd	2b c1		 sub	 eax, ecx
  000df	55		 push	 ebp
  000e0	50		 push	 eax
  000e1	03 ca		 add	 ecx, edx
  000e3	51		 push	 ecx
  000e4	e8 00 00 00 00	 call	 _memcpy_s
  000e9	83 c4 10	 add	 esp, 16			; 00000010H

; 986  : 			_Eos(_Num);

  000ec	83 7e 18 10	 cmp	 DWORD PTR [esi+24], 16	; 00000010H
  000f0	89 7e 14	 mov	 DWORD PTR [esi+20], edi
  000f3	72 02		 jb	 SHORT $LN90@append@2
  000f5	8b 1b		 mov	 ebx, DWORD PTR [ebx]
$LN90@append@2:
  000f7	c6 04 3b 00	 mov	 BYTE PTR [ebx+edi], 0
$LN92@append@2:
  000fb	5f		 pop	 edi

; 987  : 			}
; 988  : 		return (*this);

  000fc	8b c6		 mov	 eax, esi
  000fe	5e		 pop	 esi
  000ff	5d		 pop	 ebp
  00100	5b		 pop	 ebx

; 989  : 		}

  00101	c2 08 00	 ret	 8
?append@?$basic_string@DU?$char_traits@D@std@@V?$allocator@D@2@@std@@QAEAAV12@PBDI@Z ENDP ; std::basic_string<char,std::char_traits<char>,std::allocator<char> >::append
; Function compile flags: /Ogtpy
_TEXT	ENDS
;	COMDAT ?append@?$basic_string@DU?$char_traits@D@std@@V?$allocator@D@2@@std@@QAEAAV12@PBD@Z
_TEXT	SEGMENT
_this$ = 8						; size = 4
?append@?$basic_string@DU?$char_traits@D@std@@V?$allocator@D@2@@std@@QAEAAV12@PBD@Z PROC ; std::basic_string<char,std::char_traits<char>,std::allocator<char> >::append, COMDAT
; __Ptr$ = edx

; 993  : 		_DEBUG_POINTER(_Ptr);
; 994  : 		return (append(_Ptr, _Traits::length(_Ptr)));

  00000	8b c2		 mov	 eax, edx
  00002	56		 push	 esi
  00003	8d 70 01	 lea	 esi, DWORD PTR [eax+1]
$LL5@append@3:
  00006	8a 08		 mov	 cl, BYTE PTR [eax]
  00008	40		 inc	 eax
  00009	84 c9		 test	 cl, cl
  0000b	75 f9		 jne	 SHORT $LL5@append@3
  0000d	2b c6		 sub	 eax, esi
  0000f	50		 push	 eax
  00010	8b 44 24 0c	 mov	 eax, DWORD PTR _this$[esp+4]
  00014	52		 push	 edx
  00015	e8 00 00 00 00	 call	 ?append@?$basic_string@DU?$char_traits@D@std@@V?$allocator@D@2@@std@@QAEAAV12@PBDI@Z ; std::basic_string<char,std::char_traits<char>,std::allocator<char> >::append
  0001a	5e		 pop	 esi

; 995  : 		}

  0001b	c2 04 00	 ret	 4
?append@?$basic_string@DU?$char_traits@D@std@@V?$allocator@D@2@@std@@QAEAAV12@PBD@Z ENDP ; std::basic_string<char,std::char_traits<char>,std::allocator<char> >::append
; Function compile flags: /Ogtpy
_TEXT	ENDS
;	COMDAT ??0?$basic_string@DU?$char_traits@D@std@@V?$allocator@D@2@@std@@QAE@ABV01@@Z
_TEXT	SEGMENT
__Right$ = 8						; size = 4
??0?$basic_string@DU?$char_traits@D@std@@V?$allocator@D@2@@std@@QAE@ABV01@@Z PROC ; std::basic_string<char,std::char_traits<char>,std::allocator<char> >::basic_string<char,std::char_traits<char>,std::allocator<char> >, COMDAT
; _this$ = ecx

; 721  : 		{	// construct by copying _Right

  00000	56		 push	 esi

; 722  : 		_Tidy();

  00001	33 c0		 xor	 eax, eax
  00003	8b f1		 mov	 esi, ecx

; 723  : 		assign(_Right, 0, npos);

  00005	6a ff		 push	 -1
  00007	89 46 14	 mov	 DWORD PTR [esi+20], eax
  0000a	c7 46 18 0f 00
	00 00		 mov	 DWORD PTR [esi+24], 15	; 0000000fH
  00011	50		 push	 eax
  00012	88 46 04	 mov	 BYTE PTR [esi+4], al
  00015	8b 44 24 10	 mov	 eax, DWORD PTR __Right$[esp+8]
  00019	50		 push	 eax
  0001a	e8 00 00 00 00	 call	 ?assign@?$basic_string@DU?$char_traits@D@std@@V?$allocator@D@2@@std@@QAEAAV12@ABV12@II@Z ; std::basic_string<char,std::char_traits<char>,std::allocator<char> >::assign

; 724  : 		}

  0001f	8b c6		 mov	 eax, esi
  00021	5e		 pop	 esi
  00022	c2 04 00	 ret	 4
??0?$basic_string@DU?$char_traits@D@std@@V?$allocator@D@2@@std@@QAE@ABV01@@Z ENDP ; std::basic_string<char,std::char_traits<char>,std::allocator<char> >::basic_string<char,std::char_traits<char>,std::allocator<char> >
_TEXT	ENDS
;	COMDAT xdata$x
xdata$x	SEGMENT
__unwindtable$??0logic_error@std@@QAE@ABV01@@Z DD 0ffffffffH
	DD	FLAT:__unwindfunclet$??0logic_error@std@@QAE@ABV01@@Z$0
	DD	00H
	DD	FLAT:__unwindfunclet$??0logic_error@std@@QAE@ABV01@@Z$1
__ehfuncinfo$??0logic_error@std@@QAE@ABV01@@Z DD 019930522H
	DD	02H
	DD	FLAT:__unwindtable$??0logic_error@std@@QAE@ABV01@@Z
	DD	2 DUP(00H)
	DD	2 DUP(00H)
	DD	00H
	DD	00H
; Function compile flags: /Ogtpy
xdata$x	ENDS
;	COMDAT ??0logic_error@std@@QAE@ABV01@@Z
_TEXT	SEGMENT
_this$ = -16						; size = 4
__$EHRec$ = -12						; size = 12
___that$ = 8						; size = 4
??0logic_error@std@@QAE@ABV01@@Z PROC			; std::logic_error::logic_error, COMDAT
; _this$ = ecx
  00000	6a ff		 push	 -1
  00002	68 00 00 00 00	 push	 __ehhandler$??0logic_error@std@@QAE@ABV01@@Z
  00007	64 a1 00 00 00
	00		 mov	 eax, DWORD PTR fs:0
  0000d	50		 push	 eax
  0000e	51		 push	 ecx
  0000f	56		 push	 esi
  00010	57		 push	 edi
  00011	a1 00 00 00 00	 mov	 eax, DWORD PTR ___security_cookie
  00016	33 c4		 xor	 eax, esp
  00018	50		 push	 eax
  00019	8d 44 24 10	 lea	 eax, DWORD PTR __$EHRec$[esp+28]
  0001d	64 a3 00 00 00
	00		 mov	 DWORD PTR fs:0, eax
  00023	8b f1		 mov	 esi, ecx
  00025	89 74 24 0c	 mov	 DWORD PTR _this$[esp+28], esi
  00029	8b 7c 24 20	 mov	 edi, DWORD PTR ___that$[esp+24]
  0002d	57		 push	 edi
  0002e	e8 00 00 00 00	 call	 ??0exception@std@@QAE@ABV01@@Z ; std::exception::exception
  00033	33 d2		 xor	 edx, edx
  00035	89 54 24 18	 mov	 DWORD PTR __$EHRec$[esp+36], edx
  00039	6a ff		 push	 -1
  0003b	8d 4e 0c	 lea	 ecx, DWORD PTR [esi+12]
  0003e	c7 06 00 00 00
	00		 mov	 DWORD PTR [esi], OFFSET ??_7logic_error@std@@6B@
  00044	8d 47 0c	 lea	 eax, DWORD PTR [edi+12]
  00047	52		 push	 edx
  00048	c7 41 18 0f 00
	00 00		 mov	 DWORD PTR [ecx+24], 15	; 0000000fH
  0004f	89 51 14	 mov	 DWORD PTR [ecx+20], edx
  00052	50		 push	 eax
  00053	88 51 04	 mov	 BYTE PTR [ecx+4], dl
  00056	e8 00 00 00 00	 call	 ?assign@?$basic_string@DU?$char_traits@D@std@@V?$allocator@D@2@@std@@QAEAAV12@ABV12@II@Z ; std::basic_string<char,std::char_traits<char>,std::allocator<char> >::assign
  0005b	c7 44 24 18 ff
	ff ff ff	 mov	 DWORD PTR __$EHRec$[esp+36], -1
  00063	8b c6		 mov	 eax, esi
  00065	8b 4c 24 10	 mov	 ecx, DWORD PTR __$EHRec$[esp+28]
  00069	64 89 0d 00 00
	00 00		 mov	 DWORD PTR fs:0, ecx
  00070	59		 pop	 ecx
  00071	5f		 pop	 edi
  00072	5e		 pop	 esi
  00073	83 c4 10	 add	 esp, 16			; 00000010H
  00076	c2 04 00	 ret	 4
_TEXT	ENDS
;	COMDAT text$x
text$x	SEGMENT
__unwindfunclet$??0logic_error@std@@QAE@ABV01@@Z$0:
  00000	8b 4d f0	 mov	 ecx, DWORD PTR _this$[ebp]
  00003	e9 00 00 00 00	 jmp	 ??1exception@std@@UAE@XZ ; std::exception::~exception
__unwindfunclet$??0logic_error@std@@QAE@ABV01@@Z$1:
  00008	8b 4d f0	 mov	 ecx, DWORD PTR _this$[ebp]
  0000b	83 c1 0c	 add	 ecx, 12			; 0000000cH
  0000e	e9 00 00 00 00	 jmp	 ??1?$basic_string@DU?$char_traits@D@std@@V?$allocator@D@2@@std@@QAE@XZ ; std::basic_string<char,std::char_traits<char>,std::allocator<char> >::~basic_string<char,std::char_traits<char>,std::allocator<char> >
__ehhandler$??0logic_error@std@@QAE@ABV01@@Z:
  00013	8b 54 24 08	 mov	 edx, DWORD PTR [esp+8]
  00017	8d 42 f4	 lea	 eax, DWORD PTR [edx-12]
  0001a	8b 4a f0	 mov	 ecx, DWORD PTR [edx-16]
  0001d	33 c8		 xor	 ecx, eax
  0001f	e8 00 00 00 00	 call	 @__security_check_cookie@4
  00024	b8 00 00 00 00	 mov	 eax, OFFSET __ehfuncinfo$??0logic_error@std@@QAE@ABV01@@Z
  00029	e9 00 00 00 00	 jmp	 ___CxxFrameHandler3
text$x	ENDS
??0logic_error@std@@QAE@ABV01@@Z ENDP			; std::logic_error::logic_error
;	COMDAT xdata$x
; File c:\program files\microsoft visual studio 9.0\vc\include\stdexcept
xdata$x	SEGMENT
__unwindtable$??1length_error@std@@UAE@XZ DD 0ffffffffH
	DD	FLAT:__unwindfunclet$??1length_error@std@@UAE@XZ$0
__ehfuncinfo$??1length_error@std@@UAE@XZ DD 019930522H
	DD	01H
	DD	FLAT:__unwindtable$??1length_error@std@@UAE@XZ
	DD	2 DUP(00H)
	DD	2 DUP(00H)
	DD	00H
	DD	00H
; Function compile flags: /Ogtpy
xdata$x	ENDS
;	COMDAT ??1length_error@std@@UAE@XZ
_TEXT	SEGMENT
_this$ = -16						; size = 4
__$EHRec$ = -12						; size = 12
??1length_error@std@@UAE@XZ PROC			; std::length_error::~length_error, COMDAT
; _this$ = ecx

; 109  : 		{	// destroy the object

  00000	6a ff		 push	 -1
  00002	68 00 00 00 00	 push	 __ehhandler$??1length_error@std@@UAE@XZ
  00007	64 a1 00 00 00
	00		 mov	 eax, DWORD PTR fs:0
  0000d	50		 push	 eax
  0000e	51		 push	 ecx
  0000f	a1 00 00 00 00	 mov	 eax, DWORD PTR ___security_cookie
  00014	33 c4		 xor	 eax, esp
  00016	50		 push	 eax
  00017	8d 44 24 08	 lea	 eax, DWORD PTR __$EHRec$[esp+20]
  0001b	64 a3 00 00 00
	00		 mov	 DWORD PTR fs:0, eax
  00021	89 4c 24 04	 mov	 DWORD PTR _this$[esp+20], ecx
  00025	c7 01 00 00 00
	00		 mov	 DWORD PTR [ecx], OFFSET ??_7length_error@std@@6B@

; 110  : 		}

  0002b	c7 44 24 10 ff
	ff ff ff	 mov	 DWORD PTR __$EHRec$[esp+28], -1
  00033	e8 00 00 00 00	 call	 ??1logic_error@std@@UAE@XZ ; std::logic_error::~logic_error
  00038	8b 4c 24 08	 mov	 ecx, DWORD PTR __$EHRec$[esp+20]
  0003c	64 89 0d 00 00
	00 00		 mov	 DWORD PTR fs:0, ecx
  00043	59		 pop	 ecx
  00044	83 c4 10	 add	 esp, 16			; 00000010H
  00047	c3		 ret	 0
_TEXT	ENDS
;	COMDAT text$x
text$x	SEGMENT
__unwindfunclet$??1length_error@std@@UAE@XZ$0:
  00000	8b 4d f0	 mov	 ecx, DWORD PTR _this$[ebp]
  00003	e9 00 00 00 00	 jmp	 ??1logic_error@std@@UAE@XZ ; std::logic_error::~logic_error
__ehhandler$??1length_error@std@@UAE@XZ:
  00008	8b 54 24 08	 mov	 edx, DWORD PTR [esp+8]
  0000c	8d 42 fc	 lea	 eax, DWORD PTR [edx-4]
  0000f	8b 4a f8	 mov	 ecx, DWORD PTR [edx-8]
  00012	33 c8		 xor	 ecx, eax
  00014	e8 00 00 00 00	 call	 @__security_check_cookie@4
  00019	b8 00 00 00 00	 mov	 eax, OFFSET __ehfuncinfo$??1length_error@std@@UAE@XZ
  0001e	e9 00 00 00 00	 jmp	 ___CxxFrameHandler3
text$x	ENDS
??1length_error@std@@UAE@XZ ENDP			; std::length_error::~length_error
; Function compile flags: /Ogtpy
;	COMDAT ??_Glogic_error@std@@UAEPAXI@Z
_TEXT	SEGMENT
___flags$ = 8						; size = 4
??_Glogic_error@std@@UAEPAXI@Z PROC			; std::logic_error::`scalar deleting destructor', COMDAT
; _this$ = ecx
  00000	56		 push	 esi
  00001	8b f1		 mov	 esi, ecx
  00003	e8 00 00 00 00	 call	 ??1logic_error@std@@UAE@XZ ; std::logic_error::~logic_error
  00008	f6 44 24 08 01	 test	 BYTE PTR ___flags$[esp], 1
  0000d	74 09		 je	 SHORT $LN4@scalar@4
  0000f	56		 push	 esi
  00010	e8 00 00 00 00	 call	 ??3@YAXPAX@Z		; operator delete
  00015	83 c4 04	 add	 esp, 4
$LN4@scalar@4:
  00018	8b c6		 mov	 eax, esi
  0001a	5e		 pop	 esi
  0001b	c2 04 00	 ret	 4
??_Glogic_error@std@@UAEPAXI@Z ENDP			; std::logic_error::`scalar deleting destructor'
_TEXT	ENDS
;	COMDAT xdata$x
; File c:\program files\microsoft visual studio 9.0\vc\include\iosfwd
xdata$x	SEGMENT
__unwindtable$??0logic_error@std@@QAE@ABV?$basic_string@DU?$char_traits@D@std@@V?$allocator@D@2@@1@@Z DD 0ffffffffH
	DD	FLAT:__unwindfunclet$??0logic_error@std@@QAE@ABV?$basic_string@DU?$char_traits@D@std@@V?$allocator@D@2@@1@@Z$0
	DD	00H
	DD	FLAT:__unwindfunclet$??0logic_error@std@@QAE@ABV?$basic_string@DU?$char_traits@D@std@@V?$allocator@D@2@@1@@Z$1
__ehfuncinfo$??0logic_error@std@@QAE@ABV?$basic_string@DU?$char_traits@D@std@@V?$allocator@D@2@@1@@Z DD 019930522H
	DD	02H
	DD	FLAT:__unwindtable$??0logic_error@std@@QAE@ABV?$basic_string@DU?$char_traits@D@std@@V?$allocator@D@2@@1@@Z
	DD	2 DUP(00H)
	DD	2 DUP(00H)
	DD	00H
	DD	00H
; Function compile flags: /Ogtpy
; File c:\program files\microsoft visual studio 9.0\vc\include\stdexcept
xdata$x	ENDS
;	COMDAT ??0logic_error@std@@QAE@ABV?$basic_string@DU?$char_traits@D@std@@V?$allocator@D@2@@1@@Z
_TEXT	SEGMENT
_this$ = -16						; size = 4
__$EHRec$ = -12						; size = 12
__Message$ = 8						; size = 4
??0logic_error@std@@QAE@ABV?$basic_string@DU?$char_traits@D@std@@V?$allocator@D@2@@1@@Z PROC ; std::logic_error::logic_error, COMDAT
; _this$ = ecx

; 26   : 		{	// construct from message string

  00000	6a ff		 push	 -1
  00002	68 00 00 00 00	 push	 __ehhandler$??0logic_error@std@@QAE@ABV?$basic_string@DU?$char_traits@D@std@@V?$allocator@D@2@@1@@Z
  00007	64 a1 00 00 00
	00		 mov	 eax, DWORD PTR fs:0
  0000d	50		 push	 eax
  0000e	51		 push	 ecx
  0000f	56		 push	 esi
  00010	a1 00 00 00 00	 mov	 eax, DWORD PTR ___security_cookie
  00015	33 c4		 xor	 eax, esp
  00017	50		 push	 eax
  00018	8d 44 24 0c	 lea	 eax, DWORD PTR __$EHRec$[esp+24]
  0001c	64 a3 00 00 00
	00		 mov	 DWORD PTR fs:0, eax
  00022	8b f1		 mov	 esi, ecx
  00024	89 74 24 08	 mov	 DWORD PTR _this$[esp+24], esi
  00028	e8 00 00 00 00	 call	 ??0exception@std@@QAE@XZ ; std::exception::exception
  0002d	33 c0		 xor	 eax, eax
  0002f	89 44 24 14	 mov	 DWORD PTR __$EHRec$[esp+32], eax
  00033	8d 4e 0c	 lea	 ecx, DWORD PTR [esi+12]
  00036	c7 06 00 00 00
	00		 mov	 DWORD PTR [esi], OFFSET ??_7logic_error@std@@6B@
  0003c	6a ff		 push	 -1
  0003e	89 41 14	 mov	 DWORD PTR [ecx+20], eax
  00041	c7 41 18 0f 00
	00 00		 mov	 DWORD PTR [ecx+24], 15	; 0000000fH
  00048	50		 push	 eax
  00049	88 41 04	 mov	 BYTE PTR [ecx+4], al
  0004c	8b 44 24 24	 mov	 eax, DWORD PTR __Message$[esp+28]
  00050	50		 push	 eax
  00051	e8 00 00 00 00	 call	 ?assign@?$basic_string@DU?$char_traits@D@std@@V?$allocator@D@2@@std@@QAEAAV12@ABV12@II@Z ; std::basic_string<char,std::char_traits<char>,std::allocator<char> >::assign

; 27   : 		}

  00056	c7 44 24 14 ff
	ff ff ff	 mov	 DWORD PTR __$EHRec$[esp+32], -1
  0005e	8b c6		 mov	 eax, esi
  00060	8b 4c 24 0c	 mov	 ecx, DWORD PTR __$EHRec$[esp+24]
  00064	64 89 0d 00 00
	00 00		 mov	 DWORD PTR fs:0, ecx
  0006b	59		 pop	 ecx
  0006c	5e		 pop	 esi
  0006d	83 c4 10	 add	 esp, 16			; 00000010H
  00070	c2 04 00	 ret	 4
_TEXT	ENDS
;	COMDAT text$x
text$x	SEGMENT
__unwindfunclet$??0logic_error@std@@QAE@ABV?$basic_string@DU?$char_traits@D@std@@V?$allocator@D@2@@1@@Z$0:
  00000	8b 4d f0	 mov	 ecx, DWORD PTR _this$[ebp]
  00003	e9 00 00 00 00	 jmp	 ??1exception@std@@UAE@XZ ; std::exception::~exception
__unwindfunclet$??0logic_error@std@@QAE@ABV?$basic_string@DU?$char_traits@D@std@@V?$allocator@D@2@@1@@Z$1:
  00008	8b 4d f0	 mov	 ecx, DWORD PTR _this$[ebp]
  0000b	83 c1 0c	 add	 ecx, 12			; 0000000cH
  0000e	e9 00 00 00 00	 jmp	 ??1?$basic_string@DU?$char_traits@D@std@@V?$allocator@D@2@@std@@QAE@XZ ; std::basic_string<char,std::char_traits<char>,std::allocator<char> >::~basic_string<char,std::char_traits<char>,std::allocator<char> >
__ehhandler$??0logic_error@std@@QAE@ABV?$basic_string@DU?$char_traits@D@std@@V?$allocator@D@2@@1@@Z:
  00013	8b 54 24 08	 mov	 edx, DWORD PTR [esp+8]
  00017	8d 42 f8	 lea	 eax, DWORD PTR [edx-8]
  0001a	8b 4a f4	 mov	 ecx, DWORD PTR [edx-12]
  0001d	33 c8		 xor	 ecx, eax
  0001f	e8 00 00 00 00	 call	 @__security_check_cookie@4
  00024	b8 00 00 00 00	 mov	 eax, OFFSET __ehfuncinfo$??0logic_error@std@@QAE@ABV?$basic_string@DU?$char_traits@D@std@@V?$allocator@D@2@@1@@Z
  00029	e9 00 00 00 00	 jmp	 ___CxxFrameHandler3
text$x	ENDS
??0logic_error@std@@QAE@ABV?$basic_string@DU?$char_traits@D@std@@V?$allocator@D@2@@1@@Z ENDP ; std::logic_error::logic_error
;	COMDAT xdata$x
; File c:\program files\microsoft visual studio 9.0\vc\include\iosfwd
xdata$x	SEGMENT
__unwindtable$??$_Construct@V?$basic_string@DU?$char_traits@D@std@@V?$allocator@D@2@@std@@V12@@std@@YAXPAV?$basic_string@DU?$char_traits@D@std@@V?$allocator@D@2@@0@ABV10@@Z DD 0ffffffffH
	DD	FLAT:__unwindfunclet$??$_Construct@V?$basic_string@DU?$char_traits@D@std@@V?$allocator@D@2@@std@@V12@@std@@YAXPAV?$basic_string@DU?$char_traits@D@std@@V?$allocator@D@2@@0@ABV10@@Z$0
__ehfuncinfo$??$_Construct@V?$basic_string@DU?$char_traits@D@std@@V?$allocator@D@2@@std@@V12@@std@@YAXPAV?$basic_string@DU?$char_traits@D@std@@V?$allocator@D@2@@0@ABV10@@Z DD 019930522H
	DD	01H
	DD	FLAT:__unwindtable$??$_Construct@V?$basic_string@DU?$char_traits@D@std@@V?$allocator@D@2@@std@@V12@@std@@YAXPAV?$basic_string@DU?$char_traits@D@std@@V?$allocator@D@2@@0@ABV10@@Z
	DD	2 DUP(00H)
	DD	2 DUP(00H)
	DD	00H
	DD	00H
; Function compile flags: /Ogtpy
; File c:\program files\microsoft visual studio 9.0\vc\include\xmemory
xdata$x	ENDS
;	COMDAT ??$_Construct@V?$basic_string@DU?$char_traits@D@std@@V?$allocator@D@2@@std@@V12@@std@@YAXPAV?$basic_string@DU?$char_traits@D@std@@V?$allocator@D@2@@0@ABV10@@Z
_TEXT	SEGMENT
__$EHRec$ = -12						; size = 12
__Val$ = 8						; size = 4
??$_Construct@V?$basic_string@DU?$char_traits@D@std@@V?$allocator@D@2@@std@@V12@@std@@YAXPAV?$basic_string@DU?$char_traits@D@std@@V?$allocator@D@2@@0@ABV10@@Z PROC ; std::_Construct<std::basic_string<char,std::char_traits<char>,std::allocator<char> >,std::basic_string<char,std::char_traits<char>,std::allocator<char> > >, COMDAT
; __Ptr$ = ecx

; 50   : 	{	// construct object at _Ptr with value _Val

  00000	6a ff		 push	 -1
  00002	68 00 00 00 00	 push	 __ehhandler$??$_Construct@V?$basic_string@DU?$char_traits@D@std@@V?$allocator@D@2@@std@@V12@@std@@YAXPAV?$basic_string@DU?$char_traits@D@std@@V?$allocator@D@2@@0@ABV10@@Z
  00007	64 a1 00 00 00
	00		 mov	 eax, DWORD PTR fs:0
  0000d	50		 push	 eax
  0000e	a1 00 00 00 00	 mov	 eax, DWORD PTR ___security_cookie
  00013	33 c4		 xor	 eax, esp
  00015	50		 push	 eax
  00016	8d 44 24 04	 lea	 eax, DWORD PTR __$EHRec$[esp+16]
  0001a	64 a3 00 00 00
	00		 mov	 DWORD PTR fs:0, eax

; 51   : 	void _FARQ *_Vptr = _Ptr;
; 52   : 	::new (_Vptr) _T1(_Val);

  00020	33 c0		 xor	 eax, eax
  00022	89 44 24 0c	 mov	 DWORD PTR __$EHRec$[esp+24], eax
  00026	3b c8		 cmp	 ecx, eax
  00028	74 1a		 je	 SHORT $LN34@Construct
  0002a	6a ff		 push	 -1
  0002c	89 41 14	 mov	 DWORD PTR [ecx+20], eax
  0002f	c7 41 18 0f 00
	00 00		 mov	 DWORD PTR [ecx+24], 15	; 0000000fH
  00036	50		 push	 eax
  00037	88 41 04	 mov	 BYTE PTR [ecx+4], al
  0003a	8b 44 24 1c	 mov	 eax, DWORD PTR __Val$[esp+20]
  0003e	50		 push	 eax
  0003f	e8 00 00 00 00	 call	 ?assign@?$basic_string@DU?$char_traits@D@std@@V?$allocator@D@2@@std@@QAEAAV12@ABV12@II@Z ; std::basic_string<char,std::char_traits<char>,std::allocator<char> >::assign
$LN34@Construct:
  00044	c7 44 24 0c ff
	ff ff ff	 mov	 DWORD PTR __$EHRec$[esp+24], -1

; 53   : 	}

  0004c	8b 4c 24 04	 mov	 ecx, DWORD PTR __$EHRec$[esp+16]
  00050	64 89 0d 00 00
	00 00		 mov	 DWORD PTR fs:0, ecx
  00057	59		 pop	 ecx
  00058	83 c4 0c	 add	 esp, 12			; 0000000cH
  0005b	c3		 ret	 0
_TEXT	ENDS
;	COMDAT text$x
text$x	SEGMENT
__unwindfunclet$??$_Construct@V?$basic_string@DU?$char_traits@D@std@@V?$allocator@D@2@@std@@V12@@std@@YAXPAV?$basic_string@DU?$char_traits@D@std@@V?$allocator@D@2@@0@ABV10@@Z$0:
  00000	e9 00 00 00 00	 jmp	 ??3@YAXPAX0@Z		; operator delete
__ehhandler$??$_Construct@V?$basic_string@DU?$char_traits@D@std@@V?$allocator@D@2@@std@@V12@@std@@YAXPAV?$basic_string@DU?$char_traits@D@std@@V?$allocator@D@2@@0@ABV10@@Z:
  00005	8b 54 24 08	 mov	 edx, DWORD PTR [esp+8]
  00009	8d 02		 lea	 eax, DWORD PTR [edx]
  0000b	8b 4a fc	 mov	 ecx, DWORD PTR [edx-4]
  0000e	33 c8		 xor	 ecx, eax
  00010	e8 00 00 00 00	 call	 @__security_check_cookie@4
  00015	b8 00 00 00 00	 mov	 eax, OFFSET __ehfuncinfo$??$_Construct@V?$basic_string@DU?$char_traits@D@std@@V?$allocator@D@2@@std@@V12@@std@@YAXPAV?$basic_string@DU?$char_traits@D@std@@V?$allocator@D@2@@0@ABV10@@Z
  0001a	e9 00 00 00 00	 jmp	 ___CxxFrameHandler3
text$x	ENDS
??$_Construct@V?$basic_string@DU?$char_traits@D@std@@V?$allocator@D@2@@std@@V12@@std@@YAXPAV?$basic_string@DU?$char_traits@D@std@@V?$allocator@D@2@@0@ABV10@@Z ENDP ; std::_Construct<std::basic_string<char,std::char_traits<char>,std::allocator<char> >,std::basic_string<char,std::char_traits<char>,std::allocator<char> > >
; Function compile flags: /Ogtpy
; File c:\program files\microsoft visual studio 9.0\vc\include\xstring
;	COMDAT ?assign@?$basic_string@DU?$char_traits@D@std@@V?$allocator@D@2@@std@@QAEAAV12@ABV12@@Z
_TEXT	SEGMENT
?assign@?$basic_string@DU?$char_traits@D@std@@V?$allocator@D@2@@std@@QAEAAV12@ABV12@@Z PROC ; std::basic_string<char,std::char_traits<char>,std::allocator<char> >::assign, COMDAT
; _this$ = ecx
; __Right$ = eax

; 1041 : 		return (assign(_Right, 0, npos));

  00000	6a ff		 push	 -1
  00002	6a 00		 push	 0
  00004	50		 push	 eax
  00005	e8 00 00 00 00	 call	 ?assign@?$basic_string@DU?$char_traits@D@std@@V?$allocator@D@2@@std@@QAEAAV12@ABV12@II@Z ; std::basic_string<char,std::char_traits<char>,std::allocator<char> >::assign

; 1042 : 		}

  0000a	c3		 ret	 0
?assign@?$basic_string@DU?$char_traits@D@std@@V?$allocator@D@2@@std@@QAEAAV12@ABV12@@Z ENDP ; std::basic_string<char,std::char_traits<char>,std::allocator<char> >::assign
; Function compile flags: /Ogtpy
; File c:\program files\microsoft visual studio 9.0\vc\include\xmemory
_TEXT	ENDS
;	COMDAT ?construct@?$allocator@V?$basic_string@DU?$char_traits@D@std@@V?$allocator@D@2@@std@@@std@@QAEXPAV?$basic_string@DU?$char_traits@D@std@@V?$allocator@D@2@@2@ABV32@@Z
_TEXT	SEGMENT
?construct@?$allocator@V?$basic_string@DU?$char_traits@D@std@@V?$allocator@D@2@@std@@@std@@QAEXPAV?$basic_string@DU?$char_traits@D@std@@V?$allocator@D@2@@2@ABV32@@Z PROC ; std::allocator<std::basic_string<char,std::char_traits<char>,std::allocator<char> > >::construct, COMDAT
; __Ptr$ = ecx
; __Val$ = eax

; 155  : 		_Construct(_Ptr, _Val);

  00000	50		 push	 eax
  00001	e8 00 00 00 00	 call	 ??$_Construct@V?$basic_string@DU?$char_traits@D@std@@V?$allocator@D@2@@std@@V12@@std@@YAXPAV?$basic_string@DU?$char_traits@D@std@@V?$allocator@D@2@@0@ABV10@@Z ; std::_Construct<std::basic_string<char,std::char_traits<char>,std::allocator<char> >,std::basic_string<char,std::char_traits<char>,std::allocator<char> > >
  00006	59		 pop	 ecx

; 156  : 		}

  00007	c3		 ret	 0
?construct@?$allocator@V?$basic_string@DU?$char_traits@D@std@@V?$allocator@D@2@@std@@@std@@QAEXPAV?$basic_string@DU?$char_traits@D@std@@V?$allocator@D@2@@2@ABV32@@Z ENDP ; std::allocator<std::basic_string<char,std::char_traits<char>,std::allocator<char> > >::construct
; Function compile flags: /Ogtpy
; File c:\program files\microsoft visual studio 9.0\vc\include\xstring
_TEXT	ENDS
;	COMDAT ??4?$basic_string@DU?$char_traits@D@std@@V?$allocator@D@2@@std@@QAEAAV01@ABV01@@Z
_TEXT	SEGMENT
??4?$basic_string@DU?$char_traits@D@std@@V?$allocator@D@2@@std@@QAEAAV01@ABV01@@Z PROC ; std::basic_string<char,std::char_traits<char>,std::allocator<char> >::operator=, COMDAT
; _this$ = ecx
; __Right$ = eax

; 916  : 		return (assign(_Right));

  00000	6a ff		 push	 -1
  00002	6a 00		 push	 0
  00004	50		 push	 eax
  00005	e8 00 00 00 00	 call	 ?assign@?$basic_string@DU?$char_traits@D@std@@V?$allocator@D@2@@std@@QAEAAV12@ABV12@II@Z ; std::basic_string<char,std::char_traits<char>,std::allocator<char> >::assign

; 917  : 		}

  0000a	c3		 ret	 0
??4?$basic_string@DU?$char_traits@D@std@@V?$allocator@D@2@@std@@QAEAAV01@ABV01@@Z ENDP ; std::basic_string<char,std::char_traits<char>,std::allocator<char> >::operator=
; Function compile flags: /Ogtpy
; File c:\program files\microsoft visual studio 9.0\vc\include\xutility
_TEXT	ENDS
;	COMDAT ??$_Fill@PAV?$basic_string@DU?$char_traits@D@std@@V?$allocator@D@2@@std@@V12@@std@@YAXPAV?$basic_string@DU?$char_traits@D@std@@V?$allocator@D@2@@0@0ABV10@@Z
_TEXT	SEGMENT
??$_Fill@PAV?$basic_string@DU?$char_traits@D@std@@V?$allocator@D@2@@std@@V12@@std@@YAXPAV?$basic_string@DU?$char_traits@D@std@@V?$allocator@D@2@@0@0ABV10@@Z PROC ; std::_Fill<std::basic_string<char,std::char_traits<char>,std::allocator<char> > *,std::basic_string<char,std::char_traits<char>,std::allocator<char> > >, COMDAT
; __First$ = eax
; __Last$ = edi
; __Val$ = ebx

; 3156 : 	{	// copy _Val through [_First, _Last)

  00000	56		 push	 esi
  00001	8b f0		 mov	 esi, eax

; 3157 : 	_DEBUG_RANGE(_First, _Last);
; 3158 : 	for (; _First != _Last; ++_First)

  00003	3b f7		 cmp	 esi, edi
  00005	74 13		 je	 SHORT $LN1@Fill@9
$LL3@Fill@9:

; 3159 : 		*_First = _Val;

  00007	6a ff		 push	 -1
  00009	6a 00		 push	 0
  0000b	53		 push	 ebx
  0000c	8b ce		 mov	 ecx, esi
  0000e	e8 00 00 00 00	 call	 ?assign@?$basic_string@DU?$char_traits@D@std@@V?$allocator@D@2@@std@@QAEAAV12@ABV12@II@Z ; std::basic_string<char,std::char_traits<char>,std::allocator<char> >::assign
  00013	83 c6 1c	 add	 esi, 28			; 0000001cH
  00016	3b f7		 cmp	 esi, edi
  00018	75 ed		 jne	 SHORT $LL3@Fill@9
$LN1@Fill@9:
  0001a	5e		 pop	 esi

; 3160 : 	}

  0001b	c3		 ret	 0
??$_Fill@PAV?$basic_string@DU?$char_traits@D@std@@V?$allocator@D@2@@std@@V12@@std@@YAXPAV?$basic_string@DU?$char_traits@D@std@@V?$allocator@D@2@@0@0ABV10@@Z ENDP ; std::_Fill<std::basic_string<char,std::char_traits<char>,std::allocator<char> > *,std::basic_string<char,std::char_traits<char>,std::allocator<char> > >
_TEXT	ENDS
;	COMDAT xdata$x
; File c:\program files\microsoft visual studio 9.0\vc\include\iosfwd
xdata$x	SEGMENT
__unwindtable$??$_Uninit_fill_n@PAV?$basic_string@DU?$char_traits@D@std@@V?$allocator@D@2@@std@@IV12@V?$allocator@V?$basic_string@DU?$char_traits@D@std@@V?$allocator@D@2@@std@@@2@@std@@YAXPAV?$basic_string@DU?$char_traits@D@std@@V?$allocator@D@2@@0@IABV10@AAV?$allocator@V?$basic_string@DU?$char_traits@D@std@@V?$allocator@D@2@@std@@@0@U_Nonscalar_ptr_iterator_tag@0@U_Range_checked_iterator_tag@0@@Z DD 0ffffffffH
	DD	00H
	DD	00H
	DD	FLAT:__unwindfunclet$??$_Uninit_fill_n@PAV?$basic_string@DU?$char_traits@D@std@@V?$allocator@D@2@@std@@IV12@V?$allocator@V?$basic_string@DU?$char_traits@D@std@@V?$allocator@D@2@@std@@@2@@std@@YAXPAV?$basic_string@DU?$char_traits@D@std@@V?$allocator@D@2@@0@IABV10@AAV?$allocator@V?$basic_string@DU?$char_traits@D@std@@V?$allocator@D@2@@std@@@0@U_Nonscalar_ptr_iterator_tag@0@U_Range_checked_iterator_tag@0@@Z$2
	DD	0ffffffffH
	DD	00H
__catchsym$??$_Uninit_fill_n@PAV?$basic_string@DU?$char_traits@D@std@@V?$allocator@D@2@@std@@IV12@V?$allocator@V?$basic_string@DU?$char_traits@D@std@@V?$allocator@D@2@@std@@@2@@std@@YAXPAV?$basic_string@DU?$char_traits@D@std@@V?$allocator@D@2@@0@IABV10@AAV?$allocator@V?$basic_string@DU?$char_traits@D@std@@V?$allocator@D@2@@std@@@0@U_Nonscalar_ptr_iterator_tag@0@U_Range_checked_iterator_tag@0@@Z$3 DD 00H
	DD	00H
	DD	00H
	DD	FLAT:__catch$??$_Uninit_fill_n@PAV?$basic_string@DU?$char_traits@D@std@@V?$allocator@D@2@@std@@IV12@V?$allocator@V?$basic_string@DU?$char_traits@D@std@@V?$allocator@D@2@@std@@@2@@std@@YAXPAV?$basic_string@DU?$char_traits@D@std@@V?$allocator@D@2@@0@IABV10@AAV?$allocator@V?$basic_string@DU?$char_traits@D@std@@V?$allocator@D@2@@std@@@0@U_Nonscalar_ptr_iterator_tag@0@U_Range_checked_iterator_tag@0@@Z$0
__tryblocktable$??$_Uninit_fill_n@PAV?$basic_string@DU?$char_traits@D@std@@V?$allocator@D@2@@std@@IV12@V?$allocator@V?$basic_string@DU?$char_traits@D@std@@V?$allocator@D@2@@std@@@2@@std@@YAXPAV?$basic_string@DU?$char_traits@D@std@@V?$allocator@D@2@@0@IABV10@AAV?$allocator@V?$basic_string@DU?$char_traits@D@std@@V?$allocator@D@2@@std@@@0@U_Nonscalar_ptr_iterator_tag@0@U_Range_checked_iterator_tag@0@@Z DD 00H
	DD	01H
	DD	02H
	DD	01H
	DD	FLAT:__catchsym$??$_Uninit_fill_n@PAV?$basic_string@DU?$char_traits@D@std@@V?$allocator@D@2@@std@@IV12@V?$allocator@V?$basic_string@DU?$char_traits@D@std@@V?$allocator@D@2@@std@@@2@@std@@YAXPAV?$basic_string@DU?$char_traits@D@std@@V?$allocator@D@2@@0@IABV10@AAV?$allocator@V?$basic_string@DU?$char_traits@D@std@@V?$allocator@D@2@@std@@@0@U_Nonscalar_ptr_iterator_tag@0@U_Range_checked_iterator_tag@0@@Z$3
__ehfuncinfo$??$_Uninit_fill_n@PAV?$basic_string@DU?$char_traits@D@std@@V?$allocator@D@2@@std@@IV12@V?$allocator@V?$basic_string@DU?$char_traits@D@std@@V?$allocator@D@2@@std@@@2@@std@@YAXPAV?$basic_string@DU?$char_traits@D@std@@V?$allocator@D@2@@0@IABV10@AAV?$allocator@V?$basic_string@DU?$char_traits@D@std@@V?$allocator@D@2@@std@@@0@U_Nonscalar_ptr_iterator_tag@0@U_Range_checked_iterator_tag@0@@Z DD 019930522H
	DD	03H
	DD	FLAT:__unwindtable$??$_Uninit_fill_n@PAV?$basic_string@DU?$char_traits@D@std@@V?$allocator@D@2@@std@@IV12@V?$allocator@V?$basic_string@DU?$char_traits@D@std@@V?$allocator@D@2@@std@@@2@@std@@YAXPAV?$basic_string@DU?$char_traits@D@std@@V?$allocator@D@2@@0@IABV10@AAV?$allocator@V?$basic_string@DU?$char_traits@D@std@@V?$allocator@D@2@@std@@@0@U_Nonscalar_ptr_iterator_tag@0@U_Range_checked_iterator_tag@0@@Z
	DD	01H
	DD	FLAT:__tryblocktable$??$_Uninit_fill_n@PAV?$basic_string@DU?$char_traits@D@std@@V?$allocator@D@2@@std@@IV12@V?$allocator@V?$basic_string@DU?$char_traits@D@std@@V?$allocator@D@2@@std@@@2@@std@@YAXPAV?$basic_string@DU?$char_traits@D@std@@V?$allocator@D@2@@0@IABV10@AAV?$allocator@V?$basic_string@DU?$char_traits@D@std@@V?$allocator@D@2@@std@@@0@U_Nonscalar_ptr_iterator_tag@0@U_Range_checked_iterator_tag@0@@Z
	DD	2 DUP(00H)
	DD	00H
	DD	00H
; Function compile flags: /Ogtpy
; File c:\program files\microsoft visual studio 9.0\vc\include\memory
xdata$x	ENDS
;	COMDAT ??$_Uninit_fill_n@PAV?$basic_string@DU?$char_traits@D@std@@V?$allocator@D@2@@std@@IV12@V?$allocator@V?$basic_string@DU?$char_traits@D@std@@V?$allocator@D@2@@std@@@2@@std@@YAXPAV?$basic_string@DU?$char_traits@D@std@@V?$allocator@D@2@@0@IABV10@AAV?$allocator@V?$basic_string@DU?$char_traits@D@std@@V?$allocator@D@2@@std@@@0@U_Nonscalar_ptr_iterator_tag@0@U_Range_checked_iterator_tag@0@@Z
_TEXT	SEGMENT
__Next$ = -20						; size = 4
__$EHRec$ = -16						; size = 16
__First$ = 8						; size = 4
__Count$ = 12						; size = 4
__Val$ = 16						; size = 4
___formal$ = 20						; size = 1
___formal$ = 24						; size = 1
??$_Uninit_fill_n@PAV?$basic_string@DU?$char_traits@D@std@@V?$allocator@D@2@@std@@IV12@V?$allocator@V?$basic_string@DU?$char_traits@D@std@@V?$allocator@D@2@@std@@@2@@std@@YAXPAV?$basic_string@DU?$char_traits@D@std@@V?$allocator@D@2@@0@IABV10@AAV?$allocator@V?$basic_string@DU?$char_traits@D@std@@V?$allocator@D@2@@std@@@0@U_Nonscalar_ptr_iterator_tag@0@U_Range_checked_iterator_tag@0@@Z PROC ; std::_Uninit_fill_n<std::basic_string<char,std::char_traits<char>,std::allocator<char> > *,unsigned int,std::basic_string<char,std::char_traits<char>,std::allocator<char> >,std::allocator<std::basic_string<char,std::char_traits<char>,std::allocator<char> > > >, COMDAT

; 393  : 	{	// copy _Count *_Val to raw _First, using _Al, arbitrary type

  00000	55		 push	 ebp
  00001	8b ec		 mov	 ebp, esp
  00003	6a ff		 push	 -1
  00005	68 00 00 00 00	 push	 __ehhandler$??$_Uninit_fill_n@PAV?$basic_string@DU?$char_traits@D@std@@V?$allocator@D@2@@std@@IV12@V?$allocator@V?$basic_string@DU?$char_traits@D@std@@V?$allocator@D@2@@std@@@2@@std@@YAXPAV?$basic_string@DU?$char_traits@D@std@@V?$allocator@D@2@@0@IABV10@AAV?$allocator@V?$basic_string@DU?$char_traits@D@std@@V?$allocator@D@2@@std@@@0@U_Nonscalar_ptr_iterator_tag@0@U_Range_checked_iterator_tag@0@@Z
  0000a	64 a1 00 00 00
	00		 mov	 eax, DWORD PTR fs:0
  00010	50		 push	 eax
  00011	83 ec 08	 sub	 esp, 8
  00014	53		 push	 ebx
  00015	56		 push	 esi
  00016	57		 push	 edi
  00017	a1 00 00 00 00	 mov	 eax, DWORD PTR ___security_cookie
  0001c	33 c5		 xor	 eax, ebp
  0001e	50		 push	 eax
  0001f	8d 45 f4	 lea	 eax, DWORD PTR __$EHRec$[ebp+4]
  00022	64 a3 00 00 00
	00		 mov	 DWORD PTR fs:0, eax
  00028	89 65 f0	 mov	 DWORD PTR __$EHRec$[ebp], esp
  0002b	8b 7d 0c	 mov	 edi, DWORD PTR __Count$[ebp]
  0002e	8b 75 08	 mov	 esi, DWORD PTR __First$[ebp]

; 394  : 
; 395  :  #if _HAS_ITERATOR_DEBUGGING
; 396  : //	if (_Count < 0)
; 397  : //		_DEBUG_ERROR("negative count in uninitialized fill");
; 398  :  #endif /* _HAS_ITERATOR_DEBUGGING */
; 399  : 
; 400  : 	_FwdIt _Next = _First;

  00031	89 75 ec	 mov	 DWORD PTR __Next$[ebp], esi

; 401  : 
; 402  : 	_TRY_BEGIN

  00034	33 db		 xor	 ebx, ebx
  00036	89 5d fc	 mov	 DWORD PTR __$EHRec$[ebp+12], ebx
  00039	8d a4 24 00 00
	00 00		 npad	 7
$LL6@Uninit_fil@10:

; 403  : 	for (; 0 < _Count; --_Count, ++_First)

  00040	3b fb		 cmp	 edi, ebx
  00042	76 3f		 jbe	 SHORT $LN4@Uninit_fil@10

; 404  : 		_Al.construct(_First, _Val);

  00044	c6 45 fc 01	 mov	 BYTE PTR __$EHRec$[ebp+12], 1
  00048	3b f3		 cmp	 esi, ebx
  0004a	74 28		 je	 SHORT $LN18@Uninit_fil@10
  0004c	c7 46 18 0f 00
	00 00		 mov	 DWORD PTR [esi+24], 15	; 0000000fH
  00053	89 5e 14	 mov	 DWORD PTR [esi+20], ebx
  00056	83 7e 18 10	 cmp	 DWORD PTR [esi+24], 16	; 00000010H
  0005a	72 05		 jb	 SHORT $LN45@Uninit_fil@10
  0005c	8b 46 04	 mov	 eax, DWORD PTR [esi+4]
  0005f	eb 03		 jmp	 SHORT $LN46@Uninit_fil@10
$LN45@Uninit_fil@10:
  00061	8d 46 04	 lea	 eax, DWORD PTR [esi+4]
$LN46@Uninit_fil@10:
  00064	88 18		 mov	 BYTE PTR [eax], bl
  00066	6a ff		 push	 -1
  00068	53		 push	 ebx
  00069	8b 45 10	 mov	 eax, DWORD PTR __Val$[ebp]
  0006c	50		 push	 eax
  0006d	8b ce		 mov	 ecx, esi
  0006f	e8 00 00 00 00	 call	 ?assign@?$basic_string@DU?$char_traits@D@std@@V?$allocator@D@2@@std@@QAEAAV12@ABV12@II@Z ; std::basic_string<char,std::char_traits<char>,std::allocator<char> >::assign
$LN18@Uninit_fil@10:
  00074	88 5d fc	 mov	 BYTE PTR __$EHRec$[ebp+12], bl

; 403  : 	for (; 0 < _Count; --_Count, ++_First)

  00077	4f		 dec	 edi
  00078	89 7d 0c	 mov	 DWORD PTR __Count$[ebp], edi
  0007b	83 c6 1c	 add	 esi, 28			; 0000001cH
  0007e	89 75 08	 mov	 DWORD PTR __First$[ebp], esi
  00081	eb bd		 jmp	 SHORT $LL6@Uninit_fil@10
$LN4@Uninit_fil@10:
  00083	c7 45 fc ff ff
	ff ff		 mov	 DWORD PTR __$EHRec$[ebp+12], -1

; 409  : 	_CATCH_END
; 410  : 	}

  0008a	8b 4d f4	 mov	 ecx, DWORD PTR __$EHRec$[ebp+4]
  0008d	64 89 0d 00 00
	00 00		 mov	 DWORD PTR fs:0, ecx
  00094	59		 pop	 ecx
  00095	5f		 pop	 edi
  00096	5e		 pop	 esi
  00097	5b		 pop	 ebx
  00098	8b e5		 mov	 esp, ebp
  0009a	5d		 pop	 ebp
  0009b	c3		 ret	 0
__catch$??$_Uninit_fill_n@PAV?$basic_string@DU?$char_traits@D@std@@V?$allocator@D@2@@std@@IV12@V?$allocator@V?$basic_string@DU?$char_traits@D@std@@V?$allocator@D@2@@std@@@2@@std@@YAXPAV?$basic_string@DU?$char_traits@D@std@@V?$allocator@D@2@@0@IABV10@AAV?$allocator@V?$basic_string@DU?$char_traits@D@std@@V?$allocator@D@2@@std@@@0@U_Nonscalar_ptr_iterator_tag@0@U_Range_checked_iterator_tag@0@@Z$0:

; 405  : 	_CATCH_ALL
; 406  : 	for (; _Next != _First; ++_Next)

  0009c	8b 75 ec	 mov	 esi, DWORD PTR __Next$[ebp]
  0009f	8b 7d 08	 mov	 edi, DWORD PTR __First$[ebp]
  000a2	3b f7		 cmp	 esi, edi
  000a4	74 0c		 je	 SHORT $LN1@Uninit_fil@10
$LL3@Uninit_fil@10:

; 407  : 		_Al.destroy(_Next);

  000a6	e8 00 00 00 00	 call	 ?destroy@?$allocator@V?$basic_string@DU?$char_traits@D@std@@V?$allocator@D@2@@std@@@std@@QAEXPAV?$basic_string@DU?$char_traits@D@std@@V?$allocator@D@2@@2@@Z ; std::allocator<std::basic_string<char,std::char_traits<char>,std::allocator<char> > >::destroy

; 405  : 	_CATCH_ALL
; 406  : 	for (; _Next != _First; ++_Next)

  000ab	83 c6 1c	 add	 esi, 28			; 0000001cH
  000ae	3b f7		 cmp	 esi, edi
  000b0	75 f4		 jne	 SHORT $LL3@Uninit_fil@10
$LN1@Uninit_fil@10:

; 408  : 	_RERAISE;

  000b2	33 db		 xor	 ebx, ebx
  000b4	53		 push	 ebx
  000b5	53		 push	 ebx
  000b6	e8 00 00 00 00	 call	 __CxxThrowException@8
$LN55@Uninit_fil@10:
$LN54@Uninit_fil@10:
  000bb	cc		 int	 3
_TEXT	ENDS
;	COMDAT text$x
text$x	SEGMENT
__unwindfunclet$??$_Uninit_fill_n@PAV?$basic_string@DU?$char_traits@D@std@@V?$allocator@D@2@@std@@IV12@V?$allocator@V?$basic_string@DU?$char_traits@D@std@@V?$allocator@D@2@@std@@@2@@std@@YAXPAV?$basic_string@DU?$char_traits@D@std@@V?$allocator@D@2@@0@IABV10@AAV?$allocator@V?$basic_string@DU?$char_traits@D@std@@V?$allocator@D@2@@std@@@0@U_Nonscalar_ptr_iterator_tag@0@U_Range_checked_iterator_tag@0@@Z$2:
  00000	e9 00 00 00 00	 jmp	 ??3@YAXPAX0@Z		; operator delete
__ehhandler$??$_Uninit_fill_n@PAV?$basic_string@DU?$char_traits@D@std@@V?$allocator@D@2@@std@@IV12@V?$allocator@V?$basic_string@DU?$char_traits@D@std@@V?$allocator@D@2@@std@@@2@@std@@YAXPAV?$basic_string@DU?$char_traits@D@std@@V?$allocator@D@2@@0@IABV10@AAV?$allocator@V?$basic_string@DU?$char_traits@D@std@@V?$allocator@D@2@@std@@@0@U_Nonscalar_ptr_iterator_tag@0@U_Range_checked_iterator_tag@0@@Z:
  00005	8b 54 24 08	 mov	 edx, DWORD PTR [esp+8]
  00009	8d 42 0c	 lea	 eax, DWORD PTR [edx+12]
  0000c	8b 4a e8	 mov	 ecx, DWORD PTR [edx-24]
  0000f	33 c8		 xor	 ecx, eax
  00011	e8 00 00 00 00	 call	 @__security_check_cookie@4
  00016	b8 00 00 00 00	 mov	 eax, OFFSET __ehfuncinfo$??$_Uninit_fill_n@PAV?$basic_string@DU?$char_traits@D@std@@V?$allocator@D@2@@std@@IV12@V?$allocator@V?$basic_string@DU?$char_traits@D@std@@V?$allocator@D@2@@std@@@2@@std@@YAXPAV?$basic_string@DU?$char_traits@D@std@@V?$allocator@D@2@@0@IABV10@AAV?$allocator@V?$basic_string@DU?$char_traits@D@std@@V?$allocator@D@2@@std@@@0@U_Nonscalar_ptr_iterator_tag@0@U_Range_checked_iterator_tag@0@@Z
  0001b	e9 00 00 00 00	 jmp	 ___CxxFrameHandler3
text$x	ENDS
??$_Uninit_fill_n@PAV?$basic_string@DU?$char_traits@D@std@@V?$allocator@D@2@@std@@IV12@V?$allocator@V?$basic_string@DU?$char_traits@D@std@@V?$allocator@D@2@@std@@@2@@std@@YAXPAV?$basic_string@DU?$char_traits@D@std@@V?$allocator@D@2@@0@IABV10@AAV?$allocator@V?$basic_string@DU?$char_traits@D@std@@V?$allocator@D@2@@std@@@0@U_Nonscalar_ptr_iterator_tag@0@U_Range_checked_iterator_tag@0@@Z ENDP ; std::_Uninit_fill_n<std::basic_string<char,std::char_traits<char>,std::allocator<char> > *,unsigned int,std::basic_string<char,std::char_traits<char>,std::allocator<char> >,std::allocator<std::basic_string<char,std::char_traits<char>,std::allocator<char> > > >
; Function compile flags: /Ogtpy
; File c:\program files\microsoft visual studio 9.0\vc\include\xutility
;	COMDAT ??$fill@PAV?$basic_string@DU?$char_traits@D@std@@V?$allocator@D@2@@std@@V12@@std@@YAXPAV?$basic_string@DU?$char_traits@D@std@@V?$allocator@D@2@@0@0ABV10@@Z
_TEXT	SEGMENT
??$fill@PAV?$basic_string@DU?$char_traits@D@std@@V?$allocator@D@2@@std@@V12@@std@@YAXPAV?$basic_string@DU?$char_traits@D@std@@V?$allocator@D@2@@0@0ABV10@@Z PROC ; std::fill<std::basic_string<char,std::char_traits<char>,std::allocator<char> > *,std::basic_string<char,std::char_traits<char>,std::allocator<char> > >, COMDAT
; __First$ = eax
; __Last$ = edi
; __Val$ = ebx

; 3186 : 	{	// copy _Val through [_First, _Last)

  00000	56		 push	 esi
  00001	8b f0		 mov	 esi, eax

; 3187 : 	_Fill(_CHECKED_BASE(_First), _CHECKED_BASE(_Last), _Val);

  00003	3b f7		 cmp	 esi, edi
  00005	74 13		 je	 SHORT $LN11@fill@9
$LL13@fill@9:
  00007	6a ff		 push	 -1
  00009	6a 00		 push	 0
  0000b	53		 push	 ebx
  0000c	8b ce		 mov	 ecx, esi
  0000e	e8 00 00 00 00	 call	 ?assign@?$basic_string@DU?$char_traits@D@std@@V?$allocator@D@2@@std@@QAEAAV12@ABV12@II@Z ; std::basic_string<char,std::char_traits<char>,std::allocator<char> >::assign
  00013	83 c6 1c	 add	 esi, 28			; 0000001cH
  00016	3b f7		 cmp	 esi, edi
  00018	75 ed		 jne	 SHORT $LL13@fill@9
$LN11@fill@9:
  0001a	5e		 pop	 esi

; 3188 : 	}

  0001b	c3		 ret	 0
??$fill@PAV?$basic_string@DU?$char_traits@D@std@@V?$allocator@D@2@@std@@V12@@std@@YAXPAV?$basic_string@DU?$char_traits@D@std@@V?$allocator@D@2@@0@0ABV10@@Z ENDP ; std::fill<std::basic_string<char,std::char_traits<char>,std::allocator<char> > *,std::basic_string<char,std::char_traits<char>,std::allocator<char> > >
; Function compile flags: /Ogtpy
; File c:\program files\microsoft visual studio 9.0\vc\include\memory
_TEXT	ENDS
;	COMDAT ??$unchecked_uninitialized_fill_n@PAV?$basic_string@DU?$char_traits@D@std@@V?$allocator@D@2@@std@@IV12@V?$allocator@V?$basic_string@DU?$char_traits@D@std@@V?$allocator@D@2@@std@@@2@@stdext@@YAXPAV?$basic_string@DU?$char_traits@D@std@@V?$allocator@D@2@@std@@IABV12@AAV?$allocator@V?$basic_string@DU?$char_traits@D@std@@V?$allocator@D@2@@std@@@2@@Z
_TEXT	SEGMENT
$T192841 = -4						; size = 1
__Cat$192846 = -4					; size = 1
__First$ = 8						; size = 4
__Count$ = 12						; size = 4
??$unchecked_uninitialized_fill_n@PAV?$basic_string@DU?$char_traits@D@std@@V?$allocator@D@2@@std@@IV12@V?$allocator@V?$basic_string@DU?$char_traits@D@std@@V?$allocator@D@2@@std@@@2@@stdext@@YAXPAV?$basic_string@DU?$char_traits@D@std@@V?$allocator@D@2@@std@@IABV12@AAV?$allocator@V?$basic_string@DU?$char_traits@D@std@@V?$allocator@D@2@@std@@@2@@Z PROC ; stdext::unchecked_uninitialized_fill_n<std::basic_string<char,std::char_traits<char>,std::allocator<char> > *,unsigned int,std::basic_string<char,std::char_traits<char>,std::allocator<char> >,std::allocator<std::basic_string<char,std::char_traits<char>,std::allocator<char> > > >, COMDAT
; __Val$ = edx

; 940  : 	{	// copy _Count *_Val to raw _First, using _Al

  00000	51		 push	 ecx

; 941  : 	_STD _Uninit_fill_n(_First, _Count, _Val, _Al,
; 942  : 		_STD _Ptr_cat(_First, _First), _STD _Range_checked_iterator_tag());

  00001	c6 04 24 00	 mov	 BYTE PTR $T192841[esp+4], 0
  00005	8b 04 24	 mov	 eax, DWORD PTR $T192841[esp+4]
  00008	8b 0c 24	 mov	 ecx, DWORD PTR __Cat$192846[esp+4]
  0000b	50		 push	 eax
  0000c	8b 44 24 10	 mov	 eax, DWORD PTR __Count$[esp+4]
  00010	51		 push	 ecx
  00011	8b 4c 24 10	 mov	 ecx, DWORD PTR __First$[esp+8]
  00015	52		 push	 edx
  00016	50		 push	 eax
  00017	51		 push	 ecx
  00018	e8 00 00 00 00	 call	 ??$_Uninit_fill_n@PAV?$basic_string@DU?$char_traits@D@std@@V?$allocator@D@2@@std@@IV12@V?$allocator@V?$basic_string@DU?$char_traits@D@std@@V?$allocator@D@2@@std@@@2@@std@@YAXPAV?$basic_string@DU?$char_traits@D@std@@V?$allocator@D@2@@0@IABV10@AAV?$allocator@V?$basic_string@DU?$char_traits@D@std@@V?$allocator@D@2@@std@@@0@U_Nonscalar_ptr_iterator_tag@0@U_Range_checked_iterator_tag@0@@Z ; std::_Uninit_fill_n<std::basic_string<char,std::char_traits<char>,std::allocator<char> > *,unsigned int,std::basic_string<char,std::char_traits<char>,std::allocator<char> >,std::allocator<std::basic_string<char,std::char_traits<char>,std::allocator<char> > > >

; 943  : 	}

  0001d	83 c4 18	 add	 esp, 24			; 00000018H
  00020	c3		 ret	 0
??$unchecked_uninitialized_fill_n@PAV?$basic_string@DU?$char_traits@D@std@@V?$allocator@D@2@@std@@IV12@V?$allocator@V?$basic_string@DU?$char_traits@D@std@@V?$allocator@D@2@@std@@@2@@stdext@@YAXPAV?$basic_string@DU?$char_traits@D@std@@V?$allocator@D@2@@std@@IABV12@AAV?$allocator@V?$basic_string@DU?$char_traits@D@std@@V?$allocator@D@2@@std@@@2@@Z ENDP ; stdext::unchecked_uninitialized_fill_n<std::basic_string<char,std::char_traits<char>,std::allocator<char> > *,unsigned int,std::basic_string<char,std::char_traits<char>,std::allocator<char> >,std::allocator<std::basic_string<char,std::char_traits<char>,std::allocator<char> > > >
_TEXT	ENDS
;	COMDAT xdata$x
xdata$x	SEGMENT
__unwindtable$??0length_error@std@@QAE@ABV01@@Z DD 0ffffffffH
	DD	FLAT:__unwindfunclet$??0length_error@std@@QAE@ABV01@@Z$0
__ehfuncinfo$??0length_error@std@@QAE@ABV01@@Z DD 019930522H
	DD	01H
	DD	FLAT:__unwindtable$??0length_error@std@@QAE@ABV01@@Z
	DD	2 DUP(00H)
	DD	2 DUP(00H)
	DD	00H
	DD	00H
; Function compile flags: /Ogtpy
xdata$x	ENDS
;	COMDAT ??0length_error@std@@QAE@ABV01@@Z
_TEXT	SEGMENT
_this$ = -16						; size = 4
__$EHRec$ = -12						; size = 12
___that$ = 8						; size = 4
??0length_error@std@@QAE@ABV01@@Z PROC			; std::length_error::length_error, COMDAT
; _this$ = ecx
  00000	6a ff		 push	 -1
  00002	68 00 00 00 00	 push	 __ehhandler$??0length_error@std@@QAE@ABV01@@Z
  00007	64 a1 00 00 00
	00		 mov	 eax, DWORD PTR fs:0
  0000d	50		 push	 eax
  0000e	51		 push	 ecx
  0000f	56		 push	 esi
  00010	a1 00 00 00 00	 mov	 eax, DWORD PTR ___security_cookie
  00015	33 c4		 xor	 eax, esp
  00017	50		 push	 eax
  00018	8d 44 24 0c	 lea	 eax, DWORD PTR __$EHRec$[esp+24]
  0001c	64 a3 00 00 00
	00		 mov	 DWORD PTR fs:0, eax
  00022	8b f1		 mov	 esi, ecx
  00024	89 74 24 08	 mov	 DWORD PTR _this$[esp+24], esi
  00028	8b 44 24 1c	 mov	 eax, DWORD PTR ___that$[esp+20]
  0002c	50		 push	 eax
  0002d	e8 00 00 00 00	 call	 ??0logic_error@std@@QAE@ABV01@@Z
  00032	c7 44 24 14 00
	00 00 00	 mov	 DWORD PTR __$EHRec$[esp+32], 0
  0003a	c7 06 00 00 00
	00		 mov	 DWORD PTR [esi], OFFSET ??_7length_error@std@@6B@
  00040	c7 44 24 14 ff
	ff ff ff	 mov	 DWORD PTR __$EHRec$[esp+32], -1
  00048	8b c6		 mov	 eax, esi
  0004a	8b 4c 24 0c	 mov	 ecx, DWORD PTR __$EHRec$[esp+24]
  0004e	64 89 0d 00 00
	00 00		 mov	 DWORD PTR fs:0, ecx
  00055	59		 pop	 ecx
  00056	5e		 pop	 esi
  00057	83 c4 10	 add	 esp, 16			; 00000010H
  0005a	c2 04 00	 ret	 4
_TEXT	ENDS
;	COMDAT text$x
text$x	SEGMENT
__unwindfunclet$??0length_error@std@@QAE@ABV01@@Z$0:
  00000	8b 4d f0	 mov	 ecx, DWORD PTR _this$[ebp]
