; Listing generated by Microsoft (R) Optimizing Compiler Version 15.00.30729.01 

	TITLE	e:\Tools\SysStatus\SysStatus.cpp
	.686P
	.XMM
	include listing.inc
	.model	flat

INCLUDELIB OLDNAMES

PUBLIC	??_R4out_of_range@std@@6B@			; std::out_of_range::`RTTI Complete Object Locator'
PUBLIC	??_R3out_of_range@std@@8			; std::out_of_range::`RTTI Class Hierarchy Descriptor'
PUBLIC	??_R2out_of_range@std@@8			; std::out_of_range::`RTTI Base Class Array'
PUBLIC	??_R1A@?0A@EA@out_of_range@std@@8		; std::out_of_range::`RTTI Base Class Descriptor at (0,-1,0,64)'
PUBLIC	??_C@_0BD@HAJJDCII@Win32_VoltageProbe?$AA@	; `string'
PUBLIC	??_C@_0BH@HMHAIEPK@Win32_TemperatureProbe?$AA@	; `string'
PUBLIC	??_C@_0L@MPHEPFAH@SystemName?$AA@		; `string'
PUBLIC	??_C@_0BI@LFKNNEKA@SystemCreationClassName?$AA@	; `string'
PUBLIC	??_C@_0BA@LLOCDJF@MaxBatteryError?$AA@		; `string'
PUBLIC	??_C@_0BD@EBMPMBCC@CapacityMultiplier?$AA@	; `string'
PUBLIC	??_C@_0BA@EMGHNHBI@ManufactureDate?$AA@		; `string'
PUBLIC	??_C@_0BG@GEFEDJOA@Win32_PortableBattery?$AA@	; `string'
PUBLIC	??_C@_08JLKOPNJP@IsLinear?$AA@			; `string'
PUBLIC	??_C@_0M@NIGABCBB@MinReadable?$AA@		; `string'
PUBLIC	??_C@_0M@EIBDACPL@MaxReadable?$AA@		; `string'
PUBLIC	??_C@_0BK@CCJKGBMI@UpperThresholdNonCritical?$AA@ ; `string'
PUBLIC	??_C@_0BE@HGEJIDLL@UpperThresholdFatal?$AA@	; `string'
PUBLIC	??_C@_0BH@FKDKGMLL@UpperThresholdCritical?$AA@	; `string'
PUBLIC	??_C@_0BK@LBKIMOJN@LowerThresholdNonCritical?$AA@ ; `string'
PUBLIC	??_C@_0BE@NPMAGCMK@LowerThresholdFatal?$AA@	; `string'
PUBLIC	??_C@_0BH@NMAIJHFM@LowerThresholdCritical?$AA@	; `string'
PUBLIC	??_C@_09FBKECFPC@NormalMin?$AA@			; `string'
PUBLIC	??_C@_09EDCPMBJN@NormalMax?$AA@			; `string'
PUBLIC	??_C@_0P@OAFFNBPO@NominalReading?$AA@		; `string'
PUBLIC	??_C@_09BKMALBOE@Tolerance?$AA@			; `string'
PUBLIC	??_C@_08NLCOAFEI@Accuracy?$AA@			; `string'
PUBLIC	??_C@_0P@IDBBEDLI@CurrentReading?$AA@		; `string'
PUBLIC	??_C@_0BD@ENAKGAAL@Win32_CurrentProbe?$AA@	; `string'
PUBLIC	??_C@_0N@JBKHOEPE@SystemUpTime?$AA@		; `string'
PUBLIC	??_C@_0BC@HMBPBBJB@SystemCallsPerSec?$AA@	; `string'
PUBLIC	??_C@_0BF@NPGOAGED@ProcessorQueueLength?$AA@	; `string'
PUBLIC	??_C@_0BK@NGGOKLMO@PercentRegistryQuotaInUse?$AA@ ; `string'
PUBLIC	??_C@_0BJ@PHDBHNCO@FloatingEmulationsPerSec?$AA@ ; `string'
PUBLIC	??_C@_0BF@LGMPDKBA@FileWriteBytesPerSec?$AA@	; `string'
PUBLIC	??_C@_0BE@NKKLPLAB@FileReadBytesPerSec?$AA@	; `string'
PUBLIC	??_C@_0BM@PIKKJCOI@FileControlOperationsPerSec?$AA@ ; `string'
PUBLIC	??_C@_0BH@EMNLAEFK@FileControlBytesPerSec?$AA@	; `string'
PUBLIC	??_C@_0BK@DHKAACDP@ExceptionDispatchesPerSec?$AA@ ; `string'
PUBLIC	??_C@_0BG@GIPKJDB@ContextSwitchesPerSec?$AA@	; `string'
PUBLIC	??_C@_0BG@KHFHJKMP@AlignmentFixupsPerSec?$AA@	; `string'
PUBLIC	??_C@_0CA@OICKPIAK@Win32_PerfRawData_PerfOS_System?$AA@ ; `string'
PUBLIC	??_C@_0BG@FPNGHOGK@PercentPrivilegedTime?$AA@	; `string'
PUBLIC	??_C@_0BF@GMGAHOLM@PercentInterruptTime?$AA@	; `string'
PUBLIC	??_C@_0P@LMLLFJEI@PercentDPCTime?$AA@		; `string'
PUBLIC	??_C@_0O@LEJEMNCG@PercentC3Time?$AA@		; `string'
PUBLIC	??_C@_0O@HPMIBOID@PercentC2Time?$AA@		; `string'
PUBLIC	??_C@_0O@PJFMGMCN@PercentC1Time?$AA@		; `string'
PUBLIC	??_C@_0BB@FCICDGPJ@InterruptsPerSec?$AA@	; `string'
PUBLIC	??_C@_0BB@KHEGFAIJ@DPCsQueuedPerSec?$AA@	; `string'
PUBLIC	??_C@_07BHCICOFH@DPCRate?$AA@			; `string'
PUBLIC	??_C@_0BE@EPCEDEOH@C3TransitionsPerSec?$AA@	; `string'
PUBLIC	??_C@_0BE@JIMGLELP@C2TransitionsPerSec?$AA@	; `string'
PUBLIC	??_C@_0BE@DLJADCBG@C1TransitionsPerSec?$AA@	; `string'
PUBLIC	??_C@_0BA@JCLIOML@PercentUserTime?$AA@		; `string'
PUBLIC	??_C@_0BF@EMKPKJGP@PercentProcessorTime?$AA@	; `string'
PUBLIC	??_C@_0CD@BCJODFFP@Win32_PerfRawData_PerfOS_Process@ ; `string'
PUBLIC	??_C@_0BB@JKLALBIF@PercentUsagePeak?$AA@	; `string'
PUBLIC	??_C@_0N@CKGFJCHF@PercentUsage?$AA@		; `string'
PUBLIC	??_C@_0CE@MFJPDLKO@Win32_PerfRawData_PerfOS_PagingF@ ; `string'
PUBLIC	??_C@_08FBPDBPOE@Sections?$AA@			; `string'
PUBLIC	??_C@_0L@GLBCAKLN@Semaphores?$AA@		; `string'
PUBLIC	??_C@_06HEBKAGDH@Events?$AA@			; `string'
PUBLIC	??_C@_07LDPBBEEB@Mutexes?$AA@			; `string'
PUBLIC	??_C@_07CMIGFCHA@Threads?$AA@			; `string'
PUBLIC	??_C@_09BNGODGIH@Processes?$AA@			; `string'
PUBLIC	??_C@_0CB@OFCHCPMB@Win32_PerfRawData_PerfOS_Objects@ ; `string'
PUBLIC	??_C@_0BC@KBPIOBBH@WriteCopiesPerSec?$AA@	; `string'
PUBLIC	??_C@_0BH@KEMPGDKK@TransitionFaultsPerSec?$AA@	; `string'
PUBLIC	??_C@_0BH@KPIDEMMH@SystemDriverTotalBytes?$AA@	; `string'
PUBLIC	??_C@_0BK@MNCINJBF@SystemDriverResidentBytes?$AA@ ; `string'
PUBLIC	??_C@_0BF@JBGABIBK@SystemCodeTotalBytes?$AA@	; `string'
PUBLIC	??_C@_0BI@KPKNFENK@SystemCodeResidentBytes?$AA@	; `string'
PUBLIC	??_C@_0BJ@NPNGHFJN@SystemCacheResidentBytes?$AA@ ; `string'
PUBLIC	??_C@_0BH@OMBHLDMN@PoolPagedResidentBytes?$AA@	; `string'
PUBLIC	??_C@_0P@PJENKINF@PoolPagedBytes?$AA@		; `string'
PUBLIC	??_C@_0BA@LDKKFHCE@PoolPagedAllocs?$AA@		; `string'
PUBLIC	??_C@_0BC@GMPJEGLC@PoolNonpagedBytes?$AA@	; `string'
PUBLIC	??_C@_0BD@GAOJBHDB@PoolNonpagedAllocs?$AA@	; `string'
PUBLIC	??_C@_0CA@DKFDEGAA@PercentCommittedBytesInUse_Base?$AA@ ; `string'
PUBLIC	??_C@_0BL@EHMKCOHH@PercentCommittedBytesInUse?$AA@ ; `string'
PUBLIC	??_C@_0BB@EHHNOBPH@PageWritesPerSec?$AA@	; `string'
PUBLIC	??_C@_0M@PJBDCOH@PagesPerSec?$AA@		; `string'
PUBLIC	??_C@_0BC@PGIEMCPC@PagesOutputPerSec?$AA@	; `string'
PUBLIC	??_C@_0BB@NHNEKMAP@PagesInputPerSec?$AA@	; `string'
PUBLIC	??_C@_0BA@BHCICMAP@PageReadsPerSec?$AA@		; `string'
PUBLIC	??_C@_0BB@HOEEGAIG@PageFaultsPerSec?$AA@	; `string'
PUBLIC	??_C@_0BL@MIKHIOLC@FreeSystemPageTableEntries?$AA@ ; `string'
PUBLIC	??_C@_0BH@BIADJNEE@DemandZeroFaultsPerSec?$AA@	; `string'
PUBLIC	??_C@_0P@FAEGOFEG@CommittedBytes?$AA@		; `string'
PUBLIC	??_C@_0M@HHOMCEFN@CommitLimit?$AA@		; `string'
PUBLIC	??_C@_0BC@ONMHHFEO@CacheFaultsPerSec?$AA@	; `string'
PUBLIC	??_C@_0P@BPAGOPIK@CacheBytesPeak?$AA@		; `string'
PUBLIC	??_C@_0L@ECJIAGHC@CacheBytes?$AA@		; `string'
PUBLIC	??_C@_0BA@FJNBCKHA@AvailableMBytes?$AA@		; `string'
PUBLIC	??_C@_0BA@DKABBPEK@AvailableKBytes?$AA@		; `string'
PUBLIC	??_C@_0P@HPKKNIPF@AvailableBytes?$AA@		; `string'
PUBLIC	??_C@_0CA@MENAEGKE@Win32_PerfRawData_PerfOS_Memory?$AA@ ; `string'
PUBLIC	??_C@_0BD@FOPDLNII@SyncPinReadsPerSec?$AA@	; `string'
PUBLIC	??_C@_0BD@EPCDKGPG@SyncMDLReadsPerSec?$AA@	; `string'
PUBLIC	??_C@_0BE@FFPMMLME@SyncFastReadsPerSec?$AA@	; `string'
PUBLIC	??_C@_0BD@IDCIAAHF@SyncDataMapsPerSec?$AA@	; `string'
PUBLIC	??_C@_0BE@PJJLELAC@SyncCopyReadsPerSec?$AA@	; `string'
PUBLIC	??_C@_0BB@NGKOLIIB@ReadAheadsPerSec?$AA@	; `string'
PUBLIC	??_C@_0P@LNBHDMMD@PinReadsPerSec?$AA@		; `string'
PUBLIC	??_C@_0BI@KGBEKIEP@PinReadHitsPercent_Base?$AA@	; `string'
PUBLIC	??_C@_0BD@INCEIJBE@PinReadHitsPercent?$AA@	; `string'
PUBLIC	??_C@_0P@KMMHCHLN@MDLReadsPerSec?$AA@		; `string'
PUBLIC	??_C@_0BI@NMONEPAO@MDLReadHitsPercent_Base?$AA@	; `string'
PUBLIC	??_C@_0BD@PNDPPHMH@MDLReadHitsPercent?$AA@	; `string'
PUBLIC	??_C@_0BF@GOGJJNKE@LazyWritePagesPerSec?$AA@	; `string'
PUBLIC	??_C@_0BH@JCPDBLIF@LazyWriteFlushesPerSec?$AA@	; `string'
PUBLIC	??_C@_0BA@LEBBLHFN@FastReadsPerSec?$AA@		; `string'
PUBLIC	??_C@_0BN@JGPDPBED@FastReadResourceMissesPerSec?$AA@ ; `string'
PUBLIC	??_C@_0BL@HBAEFMGM@FastReadNotPossiblesPerSec?$AA@ ; `string'
PUBLIC	??_C@_0P@GAMMIBDO@DataMapsPerSec?$AA@		; `string'
PUBLIC	??_C@_0BH@JDIGEHGG@DataMapPinsPerSec_Base?$AA@	; `string'
PUBLIC	??_C@_0BC@OOMEAEEA@DataMapPinsPerSec?$AA@	; `string'
PUBLIC	??_C@_0BI@ILDKBHLK@DataMapHitsPercent_Base?$AA@	; `string'
PUBLIC	??_C@_0BD@KOAAJIJA@DataMapHitsPercent?$AA@	; `string'
PUBLIC	??_C@_0BF@JDDABGEO@DataFlushPagesPerSec?$AA@	; `string'
PUBLIC	??_C@_0BC@MJKDEPG@DataFlushesPerSec?$AA@	; `string'
PUBLIC	??_C@_0BA@BIHGDHJL@CopyReadsPerSec?$AA@		; `string'
PUBLIC	??_C@_0BJ@FGOEJAHL@CopyReadHitsPercent_Base?$AA@ ; `string'
PUBLIC	??_C@_0BE@FFJCEMDJ@CopyReadHitsPercent?$AA@	; `string'
PUBLIC	??_C@_0BE@PNDFACCO@AsyncPinReadsPerSec?$AA@	; `string'
PUBLIC	??_C@_0BE@OMOFBJFA@AsyncMDLReadsPerSec?$AA@	; `string'
PUBLIC	??_C@_0BF@GKOKALKG@AsyncFastReadsPerSec?$AA@	; `string'
PUBLIC	??_C@_0BE@CAOOLPND@AsyncDataMapsPerSec?$AA@	; `string'
PUBLIC	??_C@_0BF@MGINILGA@AsyncCopyReadsPerSec?$AA@	; `string'
PUBLIC	??_C@_0BP@LHEMPHPB@Win32_PerfRawData_PerfOS_Cache?$AA@ ; `string'
PUBLIC	??_C@_0BB@HAMOOOJ@WriteLargePerSec?$AA@		; `string'
PUBLIC	??_C@_0BC@LMECNINB@WriteDeniedPerSec?$AA@	; `string'
PUBLIC	??_C@_0BI@GPDBBABB@WritePacketsSmallPerSec?$AA@	; `string'
PUBLIC	??_C@_0BD@NEABLLFJ@WritePacketsPerSec?$AA@	; `string'
PUBLIC	??_C@_0BM@IJPFNDGO@WriteOperationsRandomPerSec?$AA@ ; `string'
PUBLIC	??_C@_0BH@OANOHFDO@WriteBytesPagingPerSec?$AA@	; `string'
PUBLIC	??_C@_0BK@PNNKNAIA@WriteBytesNonPagingPerSec?$AA@ ; `string'
PUBLIC	??_C@_0BI@HNBBGOIH@WriteBytesNetworkPerSec?$AA@	; `string'
PUBLIC	??_C@_0BG@GCNKDHCE@WriteBytesCachePerSec?$AA@	; `string'
PUBLIC	??_C@_0BD@BALBBJPI@ServerSessionsHung?$AA@	; `string'
PUBLIC	??_C@_0P@EPIIEJNA@ServerSessions?$AA@		; `string'
PUBLIC	??_C@_0BB@LGLKKLGK@ServerReconnects?$AA@	; `string'
PUBLIC	??_C@_0BC@GAMKMMKB@ServerDisconnects?$AA@	; `string'
PUBLIC	??_C@_0BB@FFKFENGC@ReadsLargePerSec?$AA@	; `string'
PUBLIC	??_C@_0BC@MGHKCLNK@ReadsDeniedPerSec?$AA@	; `string'
PUBLIC	??_C@_0BH@JCFIFLJN@ReadPacketsSmallPerSec?$AA@	; `string'
PUBLIC	??_C@_0BC@JALNAJBD@ReadPacketsPerSec?$AA@	; `string'
PUBLIC	??_C@_0BL@CFIGOGID@ReadOperationsRandomPerSec?$AA@ ; `string'
PUBLIC	??_C@_0BG@OLGMIDCE@ReadBytesPagingPerSec?$AA@	; `string'
PUBLIC	??_C@_0BJ@ILOCGCLG@ReadBytesNonPagingPerSec?$AA@ ; `string'
PUBLIC	??_C@_0BH@IAHICFAL@ReadBytesNetworkPerSec?$AA@	; `string'
PUBLIC	??_C@_0BF@LPDAMOL@ReadBytesCachePerSec?$AA@	; `string'
PUBLIC	??_C@_0BE@OGCPPNJJ@NetworkErrorsPerSec?$AA@	; `string'
PUBLIC	??_C@_0BK@PGBFPAJ@FileWriteOperationsPerSec?$AA@ ; `string'
PUBLIC	??_C@_0BJ@BKIGCPAP@FileReadOperationsPerSec?$AA@ ; `string'
PUBLIC	??_C@_0BJ@CAIAAECL@FileDataOperationsPerSec?$AA@ ; `string'
PUBLIC	??_C@_0BA@DJMJIEBG@CurrentCommands?$AA@		; `string'
PUBLIC	??_C@_0BC@EOFEMAHF@ConnectsWindowsNT?$AA@	; `string'
PUBLIC	??_C@_0BF@NEFNEICN@ConnectsLanManager21?$AA@	; `string'
PUBLIC	??_C@_0BF@MNEGHJGM@ConnectsLanManager20?$AA@	; `string'
PUBLIC	??_C@_0N@IJGODAGI@ConnectsCore?$AA@		; `string'
PUBLIC	??_C@_0BJ@EHOOHGK@PacketsTransmittedPerSec?$AA@	; `string'
PUBLIC	??_C@_0BG@PFNBEMLM@PacketsReceivedPerSec?$AA@	; `string'
PUBLIC	??_C@_0O@GPMHHPHG@PacketsPerSec?$AA@		; `string'
PUBLIC	??_C@_0BB@NADCFLBJ@BytesTotalPerSec?$AA@	; `string'
PUBLIC	??_C@_0BH@GKKKHEEC@BytesTransmittedPerSec?$AA@	; `string'
PUBLIC	??_C@_0BE@IEAMAKJB@BytesReceivedPerSec?$AA@	; `string'
PUBLIC	??_C@_0CF@MIMNIAPF@Win32_PerfRawData_PerfNet_Redire@ ; `string'
PUBLIC	??_C@_0BG@KEJCKNPB@PercentFreeSpace_Base?$AA@	; `string'
PUBLIC	??_C@_0BB@FDAACFPN@PercentFreeSpace?$AA@	; `string'
PUBLIC	??_C@_0BC@IJGACNJB@AvgDiskSecPerRead?$AA@	; `string'
PUBLIC	??_C@_0O@EJBHEMAA@FreeMegabytes?$AA@		; `string'
PUBLIC	??_C@_0CH@LGANEOML@Win32_PerfRawData_PerfDisk_Logic@ ; `string'
PUBLIC	??_C@_0BD@MIOHPCCM@Timestamp_Sys100NS?$AA@	; `string'
PUBLIC	??_C@_0BD@ECCCBBP@Timestamp_PerfTime?$AA@	; `string'
PUBLIC	??_C@_0BB@JNCIMECH@Timestamp_Object?$AA@	; `string'
PUBLIC	??_C@_0O@JFLPIICD@SplitIOPerSec?$AA@		; `string'
PUBLIC	??_C@_0BF@PLICIEBG@PercentIdleTime_Base?$AA@	; `string'
PUBLIC	??_C@_0BA@LOOKHAGM@PercentIdleTime?$AA@		; `string'
PUBLIC	??_C@_0BK@OCJABKEM@PercentDiskWriteTime_Base?$AA@ ; `string'
PUBLIC	??_C@_0BF@DOKCNDOL@PercentDiskWriteTime?$AA@	; `string'
PUBLIC	??_C@_0BF@CHKOMNLI@PercentDiskTime_Base?$AA@	; `string'
PUBLIC	??_C@_0BA@HPDMAPLN@PercentDiskTime?$AA@		; `string'
PUBLIC	??_C@_0BJ@JDFDIKDL@PercentDiskReadTime_Base?$AA@ ; `string'
PUBLIC	??_C@_0BE@KMHMAHCP@PercentDiskReadTime?$AA@	; `string'
PUBLIC	??_C@_0BD@MECIOMGA@Frequency_Sys100NS?$AA@	; `string'
PUBLIC	??_C@_0BD@IONDPFD@Frequency_PerfTime?$AA@	; `string'
PUBLIC	??_C@_0BB@EEOEKLCO@Frequency_Object?$AA@	; `string'
PUBLIC	??_C@_0BB@FFLCGPKG@DiskWritesPerSec?$AA@	; `string'
PUBLIC	??_C@_0BF@BLPLIECA@DiskWriteBytesPerSec?$AA@	; `string'
PUBLIC	??_C@_0BE@INHPJNPE@DiskTransfersPerSec?$AA@	; `string'
PUBLIC	??_C@_0BA@GPEPCNFG@DiskReadsPerSec?$AA@		; `string'
PUBLIC	??_C@_0BE@IJJNINGL@DiskReadBytesPerSec?$AA@	; `string'
PUBLIC	??_C@_0BA@BBEHMIEJ@DiskBytesPerSec?$AA@		; `string'
PUBLIC	??_C@_0BH@CFGDHLM@CurrentDiskQueueLength?$AA@	; `string'
PUBLIC	??_C@_0BI@LJILLEEA@AvgDiskWriteQueueLength?$AA@	; `string'
PUBLIC	??_C@_0BI@ICCNFHHL@AvgDiskSecPerWrite_Base?$AA@	; `string'
PUBLIC	??_C@_0BD@MEJEANKD@AvgDiskSecPerWrite?$AA@	; `string'
PUBLIC	??_C@_0BL@BNDKFKFB@AvgDiskSecPerTransfer_Base?$AA@ ; `string'
PUBLIC	??_C@_0BG@JDCFEBPA@AvgDiskSecPerTransfer?$AA@	; `string'
PUBLIC	??_C@_0BH@OOEPJOH@AvgDiskSecPerRead_Base?$AA@	; `string'
PUBLIC	??_C@_0BD@LLDDCMMH@AvgDiskSecPerRead?$DL?$AA@	; `string'
PUBLIC	??_C@_0BH@NCJLEAHB@AvgDiskReadQueueLength?$AA@	; `string'
PUBLIC	??_C@_0BD@CKOOLAI@AvgDiskQueueLength?$AA@	; `string'
PUBLIC	??_C@_0BK@CFFBJGE@AvgDiskBytesPerWrite_Base?$AA@ ; `string'
PUBLIC	??_C@_0BF@POONAKDE@AvgDiskBytesPerWrite?$AA@	; `string'
PUBLIC	??_C@_0BN@DKGECFBJ@AvgDiskBytesPerTransfer_Base?$AA@ ; `string'
PUBLIC	??_C@_0BI@NOBLAOA@AvgDiskBytesPerTransfer?$AA@	; `string'
PUBLIC	??_C@_0BJ@BDMNCNHC@AvgDiskBytesPerRead_Base?$AA@ ; `string'
PUBLIC	??_C@_0BE@EFDGHEPA@AvgDiskBytesPerRead?$AA@	; `string'
PUBLIC	??_C@_0CI@FFMDGJKG@Win32_PerfRawData_PerfDisk_Physi@ ; `string'
PUBLIC	??_C@_0BN@DMMADKEM@SupportsFileBasedCompression?$AA@ ; `string'
PUBLIC	??_C@_0BD@BJDMHPHA@SupportsDiskQuotas?$AA@	; `string'
PUBLIC	??_C@_0BB@JJBCJECG@QuotasRebuilding?$AA@	; `string'
PUBLIC	??_C@_0BB@MPFPEDFA@QuotasIncomplete?$AA@	; `string'
PUBLIC	??_C@_0O@HEHOMNCC@QuotasEnabled?$AA@		; `string'
PUBLIC	??_C@_0BG@ELFKDNP@MaximumFileNameLength?$AA@	; `string'
PUBLIC	??_C@_0BA@JDIBBDEO@IndexingEnabled?$AA@		; `string'
PUBLIC	??_C@_0M@FMPADJNN@DirtyBitSet?$AA@		; `string'
PUBLIC	??_C@_09HICOCIIF@Automount?$AA@			; `string'
PUBLIC	??_C@_0L@FPFLHALM@FileSystem?$AA@		; `string'
PUBLIC	??_C@_09NKILGKMH@DriveType?$AA@			; `string'
PUBLIC	??_C@_0M@EHMJIHII@DriveLetter?$AA@		; `string'
PUBLIC	??_C@_05IEIONIFO@Label?$AA@			; `string'
PUBLIC	??_C@_0N@NNCPDPIH@Win32_Volume?$AA@		; `string'
PUBLIC	??_C@_0N@EPHJOCBJ@ResourceType?$AA@		; `string'
PUBLIC	??_C@_0N@ONCOBKP@ProviderName?$AA@		; `string'
PUBLIC	??_C@_0L@LNKKEMJM@Persistent?$AA@		; `string'
PUBLIC	??_C@_0L@FLEBOKCI@RemoteName?$AA@		; `string'
PUBLIC	??_C@_09CLGGKACF@LocalName?$AA@			; `string'
PUBLIC	??_C@_0L@CCMICFHJ@RemotePath?$AA@		; `string'
PUBLIC	??_C@_0P@LNPCDAPC@ConnectionType?$AA@		; `string'
PUBLIC	??_C@_0BA@FLFAPDFG@ConnectionState?$AA@		; `string'
PUBLIC	??_C@_0BI@NLCFKEJK@Win32_NetworkConnection?$AA@	; `string'
PUBLIC	??_C@_0BI@NOBDNJPM@MofSelfInstallDirectory?$AA@	; `string'
PUBLIC	??_C@_0BA@NHHFPHIJ@MaxWaitOnEvents?$AA@		; `string'
PUBLIC	??_C@_0BH@PBKELOKA@MaxWaitOnClientObjects?$AA@	; `string'
PUBLIC	??_C@_0P@CEPALFMK@MaxLogFileSize?$AA@		; `string'
PUBLIC	??_C@_0BF@PHEPMKDN@LowThresholdOnEvents?$AA@	; `string'
PUBLIC	??_C@_0BM@NGNJMOHJ@LowThresholdOnClientObjects?$AA@ ; `string'
PUBLIC	??_C@_0N@FMFGOJPB@LoggingLevel?$AA@		; `string'
PUBLIC	??_C@_0BB@FALFKNPE@LoggingDirectory?$AA@	; `string'
PUBLIC	??_C@_0BN@GKEEMEKI@LastStartupHeapPreallocation?$AA@ ; `string'
PUBLIC	??_C@_0BG@MDEOBFAH@InstallationDirectory?$AA@	; `string'
PUBLIC	??_C@_0BG@LKICGCBK@HighThresholdOnEvents?$AA@	; `string'
PUBLIC	??_C@_0BN@FBHHPGGC@HighThresholdOnClientObjects?$AA@ ; `string'
PUBLIC	??_C@_0BP@DHLDKHJI@EnableStartupHeapPreallocation?$AA@ ; `string'
PUBLIC	??_C@_0N@OBNHEDLP@EnableEvents?$AA@		; `string'
PUBLIC	??_C@_0BL@FLALGEND@EnableAnonWin9xConnections?$AA@ ; `string'
PUBLIC	??_C@_0BA@GMIIIOHB@DatabaseMaxSize?$AA@		; `string'
PUBLIC	??_C@_0BC@PJAEIMII@DatabaseDirectory?$AA@	; `string'
PUBLIC	??_C@_0N@DMPKCKPJ@BuildVersion?$AA@		; `string'
PUBLIC	??_C@_0P@HCKKJOFA@BackupLastTime?$AA@		; `string'
PUBLIC	??_C@_0P@HCBDPJED@BackupInterval?$AA@		; `string'
PUBLIC	??_C@_0P@LBFHKJDL@AutoStartWin9X?$AA@		; `string'
PUBLIC	??_C@_0BA@FCAEOBFB@AutorecoverMofs?$AA@		; `string'
PUBLIC	??_C@_0BB@HHJGCMCA@ASPScriptEnabled?$AA@	; `string'
PUBLIC	??_C@_0BK@HACJICBD@ASPScriptDefaultNamespace?$AA@ ; `string'
PUBLIC	??_C@_0BB@BBHCGAKO@Win32_WMISetting?$AA@	; `string'
PUBLIC	??_C@_0BF@GDCPFLAD@RemainingGracePeriod?$AA@	; `string'
PUBLIC	??_C@_0BK@MHMKFBPN@RemainingEvaluationPeriod?$AA@ ; `string'
PUBLIC	??_C@_0BB@FFPKNIIL@IsNotificationOn?$AA@	; `string'
PUBLIC	??_C@_0BD@HINAAJAB@ActivationRequired?$AA@	; `string'
PUBLIC	??_C@_0BP@BGMJPOID@Win32_WindowsProductActivation?$AA@ ; `string'
PUBLIC	??_C@_0N@PEAHLPLG@AllowMaximum?$AA@		; `string'
PUBLIC	??_C@_0P@IBLGFEE@MaximumAllowed?$AA@		; `string'
PUBLIC	??_C@_04HMIIHGGM@Path?$AA@			; `string'
PUBLIC	??_C@_0M@MCIKNCEL@Win32_Share?$AA@		; `string'
PUBLIC	??_C@_0L@FFDIDHBB@ServerName?$AA@		; `string'
PUBLIC	??_C@_0M@BCMAAPLG@ProxyServer?$AA@		; `string'
PUBLIC	??_C@_0BA@LEMEMCNN@ProxyPortNumber?$AA@		; `string'
PUBLIC	??_C@_0M@GFHBIAHO@Win32_Proxy?$AA@		; `string'
PUBLIC	??_C@_0L@LICOLOBE@DMASupport?$AA@		; `string'
PUBLIC	??_C@_0BD@CPCJFLPJ@Win32_ParallelPort?$AA@	; `string'
PUBLIC	??_C@_0M@EONNPILK@InitialSize?$AA@		; `string'
PUBLIC	??_C@_09LCEICGML@FreeSpace?$AA@			; `string'
PUBLIC	??_C@_0P@GFMPEM@Win32_PageFile?$AA@		; `string'
PUBLIC	??_C@_0BH@EOFEPLNL@TotalVisibleMemorySize?$AA@	; `string'
PUBLIC	??_C@_0BH@IBKKELEK@TotalVirtualMemorySize?$AA@	; `string'
PUBLIC	??_C@_0BD@PBNAJGBH@TotalSwapSpaceSize?$AA@	; `string'
PUBLIC	??_C@_09IIJPJFOC@SuiteMask?$AA@			; `string'
PUBLIC	??_C@_0BI@BKJHEEOL@SizeStoredInPagingFiles?$AA@	; `string'
PUBLIC	??_C@_07NAEHBBNL@Primary?$AA@			; `string'
PUBLIC	??_C@_0BC@LMIHOAGL@PlusVersionNumber?$AA@	; `string'
PUBLIC	??_C@_0O@NNCCMBIG@PlusProductID?$AA@		; `string'
PUBLIC	??_C@_0L@KNGIFFNB@PAEEnabled?$AA@		; `string'
PUBLIC	??_C@_0BF@KAMHDIPP@OtherTypeDescription?$AA@	; `string'
PUBLIC	??_C@_0BD@GLJCNHGP@OperatingSystemSKU?$AA@	; `string'
PUBLIC	??_C@_0O@PBBGLGFJ@NumberOfUsers?$AA@		; `string'
PUBLIC	??_C@_0BC@FILGLGHH@NumberOfProcesses?$AA@	; `string'
PUBLIC	??_C@_0BG@MGHJNMGE@NumberOfLicensedUsers?$AA@	; `string'
PUBLIC	??_C@_0N@FEFLNODO@MUILanguages?$AA@		; `string'
PUBLIC	??_C@_0BF@OEEDDGBK@MaxProcessMemorySize?$AA@	; `string'
PUBLIC	??_C@_0BF@BJJFAIPL@MaxNumberOfProcesses?$AA@	; `string'
PUBLIC	??_C@_06BMNFLCFO@Locale?$AA@			; `string'
PUBLIC	??_C@_0O@GFNPHCJN@LocalDateTime?$AA@		; `string'
PUBLIC	??_C@_0P@DKHNBJBB@LastBootUpTime?$AA@		; `string'
PUBLIC	??_C@_0BB@GLODIIPC@LargeSystemCache?$AA@	; `string'
PUBLIC	??_C@_0BC@HEKPKJCK@FreeVirtualMemory?$AA@	; `string'
PUBLIC	??_C@_0BH@GDCHGEBO@FreeSpaceInPagingFiles?$AA@	; `string'
PUBLIC	??_C@_0BD@KJPLACJD@FreePhysicalMemory?$AA@	; `string'
PUBLIC	??_C@_0BL@LKLGBOHP@ForegroundApplicationBoost?$AA@ ; `string'
PUBLIC	??_C@_0BA@LIJDDPMD@EncryptionLevel?$AA@		; `string'
PUBLIC	??_C@_0M@DGCHPHG@Distributed?$AA@		; `string'
PUBLIC	??_C@_05GCIPIGEI@Debug?$AA@			; `string'
PUBLIC	??_C@_0CG@FOLHLACL@DataExecutionPrevention_SupportP@ ; `string'
PUBLIC	??_C@_0CA@KCIFHCEN@DataExecutionPrevention_Drivers?$AA@ ; `string'
PUBLIC	??_C@_0CK@PHHDEHCB@DataExecutionPrevention_32BitApp@ ; `string'
PUBLIC	??_C@_0CC@LDMHMPMB@DataExecutionPrevention_Availabl@ ; `string'
PUBLIC	??_C@_0L@IOMOHLID@OSLanguage?$AA@		; `string'
PUBLIC	??_C@_0BB@IEJHMEDK@WindowsDirectory?$AA@	; `string'
PUBLIC	??_C@_0BA@FNJMICPB@SystemDirectory?$AA@		; `string'
PUBLIC	??_C@_0M@JBPIDKPO@SystemDrive?$AA@		; `string'
PUBLIC	??_C@_0N@LCIKLBMI@SystemDevice?$AA@		; `string'
PUBLIC	??_C@_0L@BLKKOICB@BootDevice?$AA@		; `string'
PUBLIC	??_C@_0M@GGPOPAAP@ProductType?$AA@		; `string'
PUBLIC	??_C@_0P@DAFCPCAO@RegisteredUser?$AA@		; `string'
PUBLIC	??_C@_0N@MHPBIIPD@Organization?$AA@		; `string'
PUBLIC	??_C@_06MNBFCOOH@OSType?$AA@			; `string'
PUBLIC	??_C@_0P@HNONGDKL@OSProductSuite?$AA@		; `string'
PUBLIC	??_C@_0BI@HEBPKKOL@ServicePackMinorVersion?$AA@	; `string'
PUBLIC	??_C@_0BI@MCMKKPJH@ServicePackMajorVersion?$AA@	; `string'
PUBLIC	??_C@_0L@EGALIDNG@CSDVersion?$AA@		; `string'
PUBLIC	??_C@_09LLAGGHGM@BuildType?$AA@			; `string'
PUBLIC	??_C@_0P@NOCBMKBI@OSArchitecture?$AA@		; `string'
PUBLIC	??_C@_0BG@MCGAGLCL@Win32_OperatingSystem?$AA@	; `string'
PUBLIC	??_C@_0O@ODMHJIAL@VariableSpeed?$AA@		; `string'
PUBLIC	??_C@_0N@HOGGFFKF@DesiredSpeed?$AA@		; `string'
PUBLIC	??_C@_09BEHCCOGC@Win32_Fan?$AA@			; `string'
PUBLIC	??_C@_0M@GAHMDPOP@DisplayType?$AA@		; `string'
PUBLIC	??_C@_09LPCHGGLO@Bandwidth?$AA@			; `string'
PUBLIC	??_C@_0M@FCPFJAEP@MonitorType?$AA@		; `string'
PUBLIC	??_C@_0BE@EAJFLPNK@MonitorManufacturer?$AA@	; `string'
PUBLIC	??_C@_0BG@EKBBLDAL@PixelsPerYLogicalInch?$AA@	; `string'
PUBLIC	??_C@_0BG@JHIHGKIO@PixelsPerXLogicalInch?$AA@	; `string'
PUBLIC	??_C@_0M@GOACCFHI@ScreenWidth?$AA@		; `string'
PUBLIC	??_C@_0N@EJILFHEF@ScreenHeight?$AA@		; `string'
PUBLIC	??_C@_0BF@CJJIHFON@Win32_DesktopMonitor?$AA@	; `string'
PUBLIC	??_C@_0P@HLGPBKPI@WallpaperTiled?$AA@		; `string'
PUBLIC	??_C@_0BD@MNOICNPG@WallpaperStretched?$AA@	; `string'
PUBLIC	??_C@_09FAKNONCF@Wallpaper?$AA@			; `string'
PUBLIC	??_C@_0BD@LIKEHLGN@ScreenSaverTimeout?$AA@	; `string'
PUBLIC	??_C@_0BC@ENMGOCGL@ScreenSaverSecure?$AA@	; `string'
PUBLIC	??_C@_0BG@OPEGFPLM@ScreenSaverExecutable?$AA@	; `string'
PUBLIC	??_C@_0BC@KENIIHPI@ScreenSaverActive?$AA@	; `string'
PUBLIC	??_C@_07NOCIGAPP@Pattern?$AA@			; `string'
PUBLIC	??_C@_0O@HLNDODKM@IconTitleWrap?$AA@		; `string'
PUBLIC	??_C@_0O@COINDPHH@IconTitleSize?$AA@		; `string'
PUBLIC	??_C@_0BC@HAAMKFAI@IconTitleFaceName?$AA@	; `string'
PUBLIC	??_C@_0M@FALLBHKM@IconSpacing?$AA@		; `string'
PUBLIC	??_C@_0BA@MJNOPNAD@GridGranularity?$AA@		; `string'
PUBLIC	??_C@_0BA@CNEMFCKH@DragFullWindows?$AA@		; `string'
PUBLIC	??_C@_0BA@NKDGIFD@CursorBlinkRate?$AA@		; `string'
PUBLIC	??_C@_0L@GMHAONPD@CoolSwitch?$AA@		; `string'
PUBLIC	??_C@_0M@EEKAPENF@BorderWidth?$AA@		; `string'
PUBLIC	??_C@_0O@MLAGCNDM@Win32_Desktop?$AA@		; `string'
PUBLIC	??_C@_0O@FDHFFDED@TempDirectory?$AA@		; `string'
PUBLIC	??_C@_0BB@FHBPINGK@ScratchDirectory?$AA@	; `string'
PUBLIC	??_C@_09PABAEPFH@LastDrive?$AA@			; `string'
PUBLIC	??_C@_0BC@BJLIMIEA@ConfigurationPath?$AA@	; `string'
PUBLIC	??_C@_0O@KLLIKPKC@BootDirectory?$AA@		; `string'
PUBLIC	??_C@_0BI@EMHOOOGN@Win32_BootConfiguration?$AA@	; `string'
PUBLIC	??_C@_0BC@DPAOPBJD@Win32_BaseService?$AA@	; `string'
PUBLIC	??_C@_07PKCEDPHO@LastUse?$AA@			; `string'
PUBLIC	??_C@_0L@PLFFHFAH@Attributes?$AA@		; `string'
PUBLIC	??_C@_08OBOKCFEP@Accesses?$AA@			; `string'
PUBLIC	??_C@_0BG@OEFCBCCA@Win32_SoftwareFeature?$AA@	; `string'
PUBLIC	??_C@_09HKGIPMHJ@Writeable?$AA@			; `string'
PUBLIC	??_C@_06JIODDOFH@System?$AA@			; `string'
PUBLIC	??_C@_08PMHOKLA@Readable?$AA@			; `string'
PUBLIC	??_C@_0N@JFOMFNHF@LastModified?$AA@		; `string'
PUBLIC	??_C@_0N@BLGOKNC@LastAccessed?$AA@		; `string'
PUBLIC	??_C@_0L@PCJCDOJK@InUseCount?$AA@		; `string'
PUBLIC	??_C@_06FHBILLDG@Hidden?$AA@			; `string'
PUBLIC	??_C@_05MBDCODDP@Group?$AA@			; `string'
PUBLIC	??_C@_06PDIOKLEE@FSName?$AA@			; `string'
PUBLIC	??_C@_0BB@CPNPJAMG@EncryptionMethod?$AA@	; `string'
PUBLIC	??_C@_09KLPLELGE@Encrypted?$AA@			; `string'
PUBLIC	??_C@_0N@GPGLEEKJ@CreationDate?$AA@		; `string'
PUBLIC	??_C@_0L@FBPJPEIN@Compressed?$AA@		; `string'
PUBLIC	??_C@_07CNOHFBBG@Archive?$AA@			; `string'
PUBLIC	??_C@_0L@OHPKPJND@AccessMask?$AA@		; `string'
PUBLIC	??_C@_08BHIEONMC@FileSize?$AA@			; `string'
PUBLIC	??_C@_0BA@MBMLPGOB@Win32_CodecFile?$AA@		; `string'
PUBLIC	??_C@_0BJ@MNHPDIFA@SupportsQualityofService?$AA@ ; `string'
PUBLIC	??_C@_0BF@BHPPOJFK@SupportsMulticasting?$AA@	; `string'
PUBLIC	??_C@_0BM@MDHHIPIM@SupportsGuaranteedBandwidth?$AA@ ; `string'
PUBLIC	??_C@_0BI@FGBPBAKA@SupportsGracefulClosing?$AA@	; `string'
PUBLIC	??_C@_0BH@PFGLDBHN@SupportsFragmentation?$DL?$AA@ ; `string'
PUBLIC	??_C@_0BG@MJFBKLBP@SupportsExpeditedData?$AA@	; `string'
PUBLIC	??_C@_0BD@BJHEFNDH@SupportsEncryption?$AA@	; `string'
PUBLIC	??_C@_0BH@KMFDMCNH@SupportsDisconnectData?$AA@	; `string'
PUBLIC	??_C@_0BE@OAOGNDFG@SupportsConnectData?$AA@	; `string'
PUBLIC	??_C@_0BF@ONDNBOBK@SupportsBroadcasting?$AA@	; `string'
PUBLIC	??_C@_0BF@DJOBDJFP@PseudoStreamOriented?$AA@	; `string'
PUBLIC	??_C@_0BD@PCBKNDJA@MinimumAddressSize?$AA@	; `string'
PUBLIC	??_C@_0BA@NLEIFDG@MessageOriented?$AA@		; `string'
PUBLIC	??_C@_0BD@IBPHBINL@MaximumMessageSize?$AA@	; `string'
PUBLIC	??_C@_0BD@FFCOFDOJ@MaximumAddressSize?$AA@	; `string'
PUBLIC	??_C@_0BF@FAHCIDLD@GuaranteesSequencing?$AA@	; `string'
PUBLIC	??_C@_0BD@ECGOALCK@GuaranteesDelivery?$AA@	; `string'
PUBLIC	??_C@_0BG@IODJFDPJ@ConnectionlessService?$AA@	; `string'
PUBLIC	??_C@_0BG@IFKJCFNC@Win32_NetworkProtocol?$AA@	; `string'
PUBLIC	??_C@_0N@LMIHDJBC@Workstations?$AA@		; `string'
PUBLIC	??_C@_0N@LMMEGDEF@UnitsPerWeek?$AA@		; `string'
PUBLIC	??_C@_0L@GHILPLPE@ScriptPath?$AA@		; `string'
PUBLIC	??_C@_07EELFDIBP@Profile?$AA@			; `string'
PUBLIC	??_C@_0L@FILALLBE@Privileges?$AA@		; `string'
PUBLIC	??_C@_0P@CIBDNLPH@PrimaryGroupId?$AA@		; `string'
PUBLIC	??_C@_0BA@HLOHOKEI@PasswordExpires?$AA@		; `string'
PUBLIC	??_C@_0M@HKNCEPDC@PasswordAge?$AA@		; `string'
PUBLIC	??_C@_0L@PBGCNDPG@Parameters?$AA@		; `string'
PUBLIC	??_C@_0P@FMELCCCP@NumberOfLogons?$AA@		; `string'
PUBLIC	??_C@_0P@BDLNENEK@MaximumStorage?$AA@		; `string'
PUBLIC	??_C@_0L@HFGJFNDM@LogonHours?$AA@		; `string'
PUBLIC	??_C@_09JEOPKIAO@LastLogon?$AA@			; `string'
PUBLIC	??_C@_0L@NKJIFPDG@LastLogoff?$AA@		; `string'
PUBLIC	??_C@_05BOOEKJH@Flags?$AA@			; `string'
PUBLIC	??_C@_0M@NALIBBDH@CountryCode?$AA@		; `string'
PUBLIC	??_C@_07JABLCLAF@Comment?$AA@			; `string'
PUBLIC	??_C@_08DOHJINHB@CodePage?$AA@			; `string'
PUBLIC	??_C@_08BHOPBADB@Caption?$DL?$AA@		; `string'
PUBLIC	??_C@_0BB@OBONNEPA@BadPasswordCount?$AA@	; `string'
PUBLIC	??_C@_0BD@JGGENGAP@AuthorizationFlags?$AA@	; `string'
PUBLIC	??_C@_0P@FLJOKOM@AccountExpires?$AA@		; `string'
PUBLIC	??_C@_0M@KEGPAPIK@UserComment?$AA@		; `string'
PUBLIC	??_C@_08LFHMHDM@UserType?$AA@			; `string'
PUBLIC	??_C@_06HAPGBBDI@UserId?$AA@			; `string'
PUBLIC	??_C@_0M@NDLIHBHJ@LogonServer?$AA@		; `string'
PUBLIC	??_C@_0BD@GBDEODMP@HomeDirectoryDrive?$AA@	; `string'
PUBLIC	??_C@_0O@PKMMPAKN@HomeDirectory?$AA@		; `string'
PUBLIC	??_C@_08FPDCFGEH@FullName?$AA@			; `string'
PUBLIC	??_C@_0BK@BBOKMFIH@Win32_NetworkLoginProfile?$AA@ ; `string'
PUBLIC	??_C@_0BE@CHHDIDN@WINSSecondaryServer?$AA@	; `string'
PUBLIC	??_C@_0M@CMEBCDLL@WINSScopeID?$AA@		; `string'
PUBLIC	??_C@_0BC@BECMMLFM@WINSPrimaryServer?$AA@	; `string'
PUBLIC	??_C@_0BD@POPKKJKC@WINSHostLookupFile?$AA@	; `string'
PUBLIC	??_C@_0BI@MIGGLKDO@WINSEnableLMHostsLookup?$AA@	; `string'
PUBLIC	??_C@_0O@CIEPJIDD@TcpWindowSize?$AA@		; `string'
PUBLIC	??_C@_0BL@JOFENPLC@TcpUseRFC1122UrgentPointer?$AA@ ; `string'
PUBLIC	??_C@_0BC@CEGEJAFC@TcpNumConnections?$AA@	; `string'
PUBLIC	??_C@_0BK@ICGANMDC@TcpMaxDataRetransmissions?$AA@ ; `string'
PUBLIC	??_C@_0BN@NBAJINBE@TcpMaxConnectRetransmissions?$AA@ ; `string'
PUBLIC	??_C@_0BE@MJKNHDFN@TcpipNetbiosOptions?$AA@	; `string'
PUBLIC	??_C@_0BF@KBFAFCNG@PMTUDiscoveryEnabled?$AA@	; `string'
PUBLIC	??_C@_0BF@DPKIODPI@PMTUBHDetectEnabled?$DL?$AA@	; `string'
PUBLIC	??_C@_0BC@CHJCENM@NumForwardPackets?$AA@	; `string'
PUBLIC	??_C@_03BLLMIPHO@MTU?$AA@			; `string'
PUBLIC	??_C@_0O@HNPIKCNH@KeepAliveTime?$AA@		; `string'
PUBLIC	??_C@_0BC@HLLJNCGL@KeepAliveInterval?$AA@	; `string'
PUBLIC	??_C@_0BE@KIGHGIHN@IPXVirtualNetNumber?$AA@	; `string'
PUBLIC	??_C@_0BB@HFHJDNKD@IPXNetworkNumber?$AA@	; `string'
PUBLIC	??_C@_0N@FHNNAGIP@IPXMediaType?$AA@		; `string'
PUBLIC	??_C@_0N@EAKCLKKB@IPXFrameType?$AA@		; `string'
PUBLIC	??_C@_0L@ONDAOAGP@IPXEnabled?$AA@		; `string'
PUBLIC	??_C@_0L@JNAHKDDE@IPXAddress?$AA@		; `string'
PUBLIC	??_C@_0BD@EFBIPBIB@IPUseZeroBroadcast?$AA@	; `string'
PUBLIC	??_C@_0BE@IDDAOKAD@IPSecPermitUDPPorts?$AA@	; `string'
PUBLIC	??_C@_0BE@JOIOPHFJ@IPSecPermitTCPPorts?$AA@	; `string'
PUBLIC	??_C@_0BH@HHIPIHMF@IPSecPermitIPProtocols?$AA@	; `string'
PUBLIC	??_C@_0BG@IJANIIKC@IPPortSecurityEnabled?$AA@	; `string'
PUBLIC	??_C@_0BI@LBDHONDJ@IPFilterSecurityEnabled?$AA@	; `string'
PUBLIC	??_C@_09KIFLBGKF@IPEnabled?$AA@			; `string'
PUBLIC	??_C@_0BD@KDBLHBOO@IPConnectionMetric?$AA@	; `string'
PUBLIC	??_C@_09LFCMALKM@IGMPLevel?$AA@			; `string'
PUBLIC	??_C@_0BC@JPOLFPNM@GatewayCostMetric?$AA@	; `string'
PUBLIC	??_C@_0BL@EIIPDLGE@FullDNSRegistrationEnabled?$AA@ ; `string'
PUBLIC	??_C@_0BE@GGFBGHJP@ForwardBufferMemory?$AA@	; `string'
PUBLIC	??_C@_0BN@OACMHJBD@DomainDNSRegistrationEnabled?$AA@ ; `string'
PUBLIC	??_C@_0BF@CIMMNJEP@DNSServerSearchOrder?$AA@	; `string'
PUBLIC	??_C@_0BM@LEBEBEIJ@DNSEnabledForWINSResolution?$AA@ ; `string'
PUBLIC	??_C@_0BL@NEHFNDKH@DNSDomainSuffixSearchOrder?$AA@ ; `string'
PUBLIC	??_C@_0BC@MIONLOAH@DHCPLeaseObtained?$AA@	; `string'
PUBLIC	??_C@_0BB@BOGKHOEE@DHCPLeaseExpires?$AA@	; `string'
PUBLIC	??_C@_0M@HIMIFMFA@DHCPEnabled?$AA@		; `string'
PUBLIC	??_C@_0L@EIDNNLHD@DefaultTTL?$AA@		; `string'
PUBLIC	??_C@_0L@JFBEJJHM@DefaultTOS?$AA@		; `string'
PUBLIC	??_C@_0BE@GOBIIDKA@DeadGWDetectEnabled?$AA@	; `string'
PUBLIC	??_C@_0N@OAKOAPMO@DatabasePath?$AA@		; `string'
PUBLIC	??_C@_0BA@DHDIOMKI@ArpUseEtherSNAP?$AA@		; `string'
PUBLIC	??_C@_0BF@NNMMFFI@ArpAlwaysSourceRoute?$AA@	; `string'
PUBLIC	??_C@_08EKHHNDLH@IPSubnet?$AA@			; `string'
PUBLIC	??_C@_09FBHLGFBK@DNSDomain?$AA@			; `string'
PUBLIC	??_C@_0BB@HACNIBBH@DefaultIPGateway?$AA@	; `string'
PUBLIC	??_C@_0L@BJOKJMLN@DHCPServer?$AA@		; `string'
PUBLIC	??_C@_09NIGMFFPO@IPAddress?$AA@			; `string'
PUBLIC	??_C@_0CC@CIAMNGGL@Win32_NetworkAdapterConfiguratio@ ; `string'
PUBLIC	??_C@_0L@COBEMNCH@NetEnabled?$AA@		; `string'
PUBLIC	??_C@_0P@LMPBIBLI@InterfaceIndex?$AA@		; `string'
PUBLIC	??_C@_09HBJECKPO@Installed?$AA@			; `string'
PUBLIC	??_C@_09MMNBJFFE@AutoSense?$AA@			; `string'
PUBLIC	??_C@_0O@JDINGPBK@AdapterTypeID?$AA@		; `string'
PUBLIC	??_C@_0M@CBMGKKGD@AdapterType?$AA@		; `string'
PUBLIC	??_C@_0BB@CPOCLJND@PermanentAddress?$AA@	; `string'
PUBLIC	??_C@_0BB@HCIBJPII@NetworkAddresses?$AA@	; `string'
PUBLIC	??_C@_04MEIDEPGF@GUID?$AA@			; `string'
PUBLIC	??_C@_08MFFAALKH@MaxSpeed?$AA@			; `string'
PUBLIC	??_C@_0BE@OHJLPIPO@NetConnectionStatus?$AA@	; `string'
PUBLIC	??_C@_0BA@FMEGGBNH@NetConnectionID?$AA@		; `string'
PUBLIC	??_C@_0M@IOFGKGDC@ServiceName?$AA@		; `string'
PUBLIC	??_C@_0BA@PKOOKBHK@PhysicalAdapter?$AA@		; `string'
PUBLIC	??_C@_0L@MLCHOGMM@MACAddress?$AA@		; `string'
PUBLIC	??_C@_0BF@IPHNLIOA@Win32_NetworkAdapter?$AA@	; `string'
PUBLIC	??_C@_0BH@LMHCBHLE@VppMixedVoltageSupport?$AA@	; `string'
PUBLIC	??_C@_0BH@BMAHGALK@VccMixedVoltageSupport?$AA@	; `string'
PUBLIC	??_C@_0O@OPICFFNJ@ThermalRating?$AA@		; `string'
PUBLIC	??_C@_0BA@HLMBNLEL@SupportsHotPlug?$AA@		; `string'
PUBLIC	??_C@_0P@MHGKENBB@SpecialPurpose?$AA@		; `string'
PUBLIC	??_C@_06LOOAMPBO@Shared?$AA@			; `string'
PUBLIC	??_C@_0BD@MJCDBDLK@PurposeDescription?$AA@	; `string'
PUBLIC	??_C@_09KGLBDKHB@PMESignal?$AA@			; `string'
PUBLIC	??_C@_0O@ICFBEHEI@LengthAllowed?$AA@		; `string'
PUBLIC	??_C@_0O@JIADPBNP@HeightAllowed?$AA@		; `string'
PUBLIC	??_C@_0N@OHNMFPEL@CurrentUsage?$AA@		; `string'
PUBLIC	??_C@_0BA@JKMEMADA@SlotDesignation?$AA@		; `string'
PUBLIC	??_C@_0BB@IINEGLLN@Win32_SystemSlot?$AA@	; `string'
PUBLIC	??_C@_0N@BGAIBJKD@VisibleAlarm?$AA@		; `string'
PUBLIC	??_C@_0BB@EPPDMJMG@TypeDescriptions?$AA@	; `string'
PUBLIC	??_C@_0P@GDBINLPP@SMBIOSAssetTag?$AA@		; `string'
PUBLIC	??_C@_0BC@MJACHPAA@ServicePhilosophy?$AA@	; `string'
PUBLIC	??_C@_0BE@CDEDGENH@ServiceDescriptions?$AA@	; `string'
PUBLIC	??_C@_0P@LBCDFKMM@SecurityStatus?$AA@		; `string'
PUBLIC	??_C@_0P@IFAJDLJO@SecurityBreach?$AA@		; `string'
PUBLIC	??_C@_0BD@BOLIJOBH@NumberOfPowerCords?$AA@	; `string'
PUBLIC	??_C@_0M@FLPBGKMO@LockPresent?$AA@		; `string'
PUBLIC	??_C@_0P@FPMIANAI@HeatGeneration?$AA@		; `string'
PUBLIC	??_C@_0BK@DMAHAAAM@CurrentRequiredOrProduced?$AA@ ; `string'
PUBLIC	??_C@_0BI@OIOFCGCN@CableManagementStrategy?$AA@	; `string'
PUBLIC	??_C@_0BC@OICCILBJ@BreachDescription?$AA@	; `string'
PUBLIC	??_C@_0N@FBKDMIBE@AudibleAlarm?$AA@		; `string'
PUBLIC	??_C@_0N@MLFAOMIG@ChassisTypes?$AA@		; `string'
PUBLIC	??_C@_0BG@COLMHJCF@Win32_SystemEnclosure?$AA@	; `string'
PUBLIC	??_C@_05KFFLJNBG@TagId?$AA@			; `string'
PUBLIC	??_C@_05JNKNAC@State?$AA@			; `string'
PUBLIC	??_C@_09CIMAKHDE@StartName?$AA@			; `string'
PUBLIC	??_C@_0M@CFFFGGEC@ServiceType?$AA@		; `string'
PUBLIC	??_C@_0BI@JAIDFKNN@ServiceSpecificExitCode?$AA@	; `string'
PUBLIC	??_C@_08FHJJFIAP@ExitCode?$AA@			; `string'
PUBLIC	??_C@_0N@GPBKMKLE@ErrorControl?$AA@		; `string'
PUBLIC	??_C@_0BA@DKLNMHH@DesktopInteract?$AA@		; `string'
PUBLIC	??_C@_0L@MPAKMMDG@AcceptStop?$AA@		; `string'
PUBLIC	??_C@_0M@MEIJGDEJ@AcceptPause?$AA@		; `string'
PUBLIC	??_C@_08LHLJMCNC@PathName?$AA@			; `string'
PUBLIC	??_C@_0M@MLHPPPJP@DisplayName?$AA@		; `string'
PUBLIC	??_C@_0BD@GGPCAOMO@Win32_SystemDriver?$AA@	; `string'
PUBLIC	??_C@_07JDPBNNMM@SIDType?$AA@			; `string'
PUBLIC	??_C@_0N@FPKOIMIG@LocalAccount?$AA@		; `string'
PUBLIC	??_C@_03OMFNLMOB@SID?$AA@			; `string'
PUBLIC	??_C@_0BE@DHOOODEL@Win32_SystemAccount?$AA@	; `string'
PUBLIC	??_C@_0N@JHIKPPPP@ProposedSize?$AA@		; `string'
PUBLIC	??_C@_0M@JHEHBNHB@MaximumSize?$AA@		; `string'
PUBLIC	??_C@_0M@MLALLFJB@CurrentSize?$AA@		; `string'
PUBLIC	??_C@_0P@OGGGECNI@Win32_Registry?$AA@		; `string'
PUBLIC	??_C@_0BE@DKANKDCG@Win32_Refrigeration?$AA@	; `string'
PUBLIC	??_C@_0BE@FBEKBLIJ@ServicePackInEffect?$AA@	; `string'
PUBLIC	??_C@_0M@PIGNGIJB@FixComments?$AA@		; `string'
PUBLIC	??_C@_0M@NBDMPIKF@InstalledOn?$AA@		; `string'
PUBLIC	??_C@_0M@NMGHOPGA@InstalledBy?$AA@		; `string'
PUBLIC	??_C@_08GFKGEEBB@HotFixID?$AA@			; `string'
PUBLIC	??_C@_0BK@FHHANEEI@Win32_QuickFixEngineering?$AA@ ; `string'
PUBLIC	??_C@_09JCLOCIPO@WordCount?$AA@			; `string'
PUBLIC	??_C@_0O@FDAGMPND@URLUpdateInfo?$AA@		; `string'
PUBLIC	??_C@_0N@CIJCJNDA@URLInfoAbout?$AA@		; `string'
PUBLIC	??_C@_0L@LNLOEOEC@Transforms?$AA@		; `string'
PUBLIC	??_C@_0L@BDBMLIBF@RegCompany?$AA@		; `string'
PUBLIC	??_C@_08KOFIEIPM@RegOwner?$AA@			; `string'
PUBLIC	??_C@_0M@PLFIHHBG@PackageName?$AA@		; `string'
PUBLIC	??_C@_0M@OMMGPPBL@PackageCode?$AA@		; `string'
PUBLIC	??_C@_0N@LIDMIFHK@PackageCache?$AA@		; `string'
PUBLIC	??_C@_0N@ONDNCIN@LocalPackage?$AA@		; `string'
PUBLIC	??_C@_08BENDAOKD@Language?$AA@			; `string'
PUBLIC	??_C@_0O@GCCHCBIO@InstallSource?$AA@		; `string'
PUBLIC	??_C@_0O@PPCFOOHH@HelpTelephone?$AA@		; `string'
PUBLIC	??_C@_08LMOOJGEG@HelpLink?$AA@			; `string'
PUBLIC	??_C@_0N@FNHIHJOE@InstallState?$AA@		; `string'
PUBLIC	??_C@_0BA@DLLPKNMD@InstallLocation?$AA@		; `string'
PUBLIC	??_C@_0P@CAOEPKFE@AssignmentType?$AA@		; `string'
PUBLIC	??_C@_09IHHILKBJ@ProductID?$AA@			; `string'
PUBLIC	??_C@_0O@LCAALOJJ@Win32_Product?$AA@		; `string'
PUBLIC	??_C@_09ODBEMGCH@SKUNumber?$AA@			; `string'
PUBLIC	??_C@_0BC@IBEJLMDM@IdentifyingNumber?$AA@	; `string'
PUBLIC	??_C@_04NOKDILIH@UUID?$AA@			; `string'
PUBLIC	??_C@_06LGGLFMPE@Vendor?$AA@			; `string'
PUBLIC	??_C@_0BM@IEKJLBKB@Win32_ComputerSystemProduct?$AA@ ; `string'
PUBLIC	??_C@_09CLAAHCGK@Workgroup?$AA@			; `string'
PUBLIC	??_C@_0L@FAPFOCCC@WakeUpType?$AA@		; `string'
PUBLIC	??_C@_0BE@LPDNMOEG@TotalPhysicalMemory?$AA@	; `string'
PUBLIC	??_C@_0N@HHACICKK@ThermalState?$AA@		; `string'
PUBLIC	??_C@_0BF@IKJAHOGK@SystemStartupSetting?$AA@	; `string'
PUBLIC	??_C@_0BF@HNHDCNN@SystemStartupOptions?$AA@	; `string'
PUBLIC	??_C@_0BD@MJBJDOPG@SystemStartupDelay?$AA@	; `string'
PUBLIC	??_C@_0BK@GHHBNFKI@SupportContactDescription?$AA@ ; `string'
PUBLIC	??_C@_05CPOHHMHJ@Roles?$AA@			; `string'
PUBLIC	??_C@_0L@ODMHPMJN@ResetLimit?$AA@		; `string'
PUBLIC	??_C@_0L@NDDNCBN@ResetCount?$AA@		; `string'
PUBLIC	??_C@_0BA@JGMMLHGF@ResetCapability?$AA@		; `string'
PUBLIC	??_C@_0BB@CIHLIHGG@PrimaryOwnerName?$AA@	; `string'
PUBLIC	??_C@_0BE@GNDJOKHP@PrimaryOwnerContact?$AA@	; `string'
PUBLIC	??_C@_0BB@PGEJAGBJ@PowerSupplyState?$AA@	; `string'
PUBLIC	??_C@_0L@PFLEPOFF@PowerState?$AA@		; `string'
PUBLIC	??_C@_0BG@MGBDJIM@PowerOnPasswordStatus?$AA@	; `string'
PUBLIC	??_C@_0N@EOPDJAGI@PCSystemType?$AA@		; `string'
PUBLIC	??_C@_0BA@BAAGJACJ@PauseAfterReset?$AA@		; `string'
PUBLIC	??_C@_0N@BDBDHMKI@PartOfDomain?$AA@		; `string'
PUBLIC	??_C@_0P@DEDOEGFN@OEMStringArray?$AA@		; `string'
PUBLIC	??_C@_0O@KFCLFAME@OEMLogoBitmap?$AA@		; `string'
PUBLIC	??_C@_0BJ@OJMPPEPI@NetworkServerModeEnabled?$AA@ ; `string'
PUBLIC	??_C@_0L@INCFKHMA@NameFormat?$AA@		; `string'
PUBLIC	??_C@_0N@FDMFJCLB@LastLoadInfo?$AA@		; `string'
PUBLIC	??_C@_0BH@NPMFKEOG@KeyboardPasswordStatus?$AA@	; `string'
PUBLIC	??_C@_0BA@FHFMLOBH@InitialLoadInfo?$AA@		; `string'
PUBLIC	??_C@_0BC@MOGIEFCC@InfraredSupported?$AA@	; `string'
PUBLIC	??_C@_0BG@OFHEPCGG@FrontPanelResetStatus?$AA@	; `string'
PUBLIC	??_C@_0BK@DMLHGPE@EnableDaylightSavingsTime?$AA@ ; `string'
PUBLIC	??_C@_0L@DHGJAMBB@DomainRole?$AA@		; `string'
PUBLIC	??_C@_06HFDFFJHI@Domain?$AA@			; `string'
PUBLIC	??_C@_0M@HMDMJNAL@DNSHostName?$AA@		; `string'
PUBLIC	??_C@_0BB@PNOOHJBN@DaylightInEffect?$AA@	; `string'
PUBLIC	??_C@_0BA@KEBGPOLH@CurrentTimeZone?$AA@		; `string'
PUBLIC	??_C@_0BD@NPOFELCJ@ChassisBootupState?$AA@	; `string'
PUBLIC	??_C@_0M@FAIFADKE@BootupState?$AA@		; `string'
PUBLIC	??_C@_0BB@KCAGDBFG@BootROMSupported?$AA@	; `string'
PUBLIC	??_C@_0BF@NHNHHNLM@BootOptionOnWatchDog?$AA@	; `string'
PUBLIC	??_C@_0BC@LOIFGJNH@BootOptionOnLimit?$AA@	; `string'
PUBLIC	??_C@_0BJ@HFJMLPDD@AutomaticResetCapability?$AA@ ; `string'
PUBLIC	??_C@_0BJ@CCCKPNOE@AutomaticResetBootOption?$AA@ ; `string'
PUBLIC	??_C@_0BJ@GMKDMOMC@AutomaticManagedPagefile?$AA@ ; `string'
PUBLIC	??_C@_0BE@BPKIAGEB@AdminPasswordStatus?$AA@	; `string'
PUBLIC	??_C@_08KAFEAHEM@UserName?$AA@			; `string'
PUBLIC	??_C@_0BD@KEFEPCEP@NumberOfProcessors?$AA@	; `string'
PUBLIC	??_C@_0L@GEHHDFHH@SystemType?$AA@		; `string'
PUBLIC	??_C@_0BF@GMDCFJKK@Win32_ComputerSystem?$AA@	; `string'
PUBLIC	??_C@_0BL@GIIBFPAF@Win32_SystemMemoryResource?$AA@ ; `string'
PUBLIC	??_C@_0BD@CLOLHCII@Win32_SMBIOSMemory?$AA@	; `string'
PUBLIC	??_C@_03GMFFJGJI@Use?$AA@			; `string'
PUBLIC	??_C@_0BG@BDKPEMKD@MemoryErrorCorrection?$AA@	; `string'
PUBLIC	??_C@_0M@LPAFCHAO@MaxCapacity?$AA@		; `string'
PUBLIC	??_C@_0O@EOCLGIEK@MemoryDevices?$AA@		; `string'
PUBLIC	??_C@_0BK@FKMONDCJ@Win32_PhysicalMemoryArray?$AA@ ; `string'
PUBLIC	??_C@_0L@NHBAOOAD@TypeDetail?$AA@		; `string'
PUBLIC	??_C@_0L@EONKMHCB@TotalWidth?$AA@		; `string'
PUBLIC	??_C@_05HOIAGEJD@Speed?$AA@			; `string'
PUBLIC	??_C@_0O@MJAFBIEI@PositionInRow?$AA@		; `string'
PUBLIC	??_C@_0BD@OOBFBMPB@InterleavePosition?$AA@	; `string'
PUBLIC	??_C@_0BE@GAJMAAIE@InterleaveDataDepth?$AA@	; `string'
PUBLIC	??_C@_0L@JPOMKNPI@FormFactor?$AA@		; `string'
PUBLIC	??_C@_0O@DKGGAIKL@DeviceLocator?$AA@		; `string'
PUBLIC	??_C@_09ELEBPJGH@BankLabel?$AA@			; `string'
PUBLIC	??_C@_0BF@CGHJBIMG@Win32_PhysicalMemory?$AA@	; `string'
PUBLIC	??_C@_0BD@MHIIAMPP@Win32_MemoryDevice?$AA@	; `string'
PUBLIC	??_C@_0BB@CCADGENH@ErrorGranularity?$AA@	; `string'
PUBLIC	??_C@_0BC@NBCNDILJ@Win32_MemoryArray?$AA@	; `string'
PUBLIC	??_C@_0L@NKIIONIP@MemoryType?$AA@		; `string'
PUBLIC	??_C@_0BK@CHMJMDKA@Win32_DeviceMemoryAddress?$AA@ ; `string'
PUBLIC	??_C@_0M@GMGLDKG@WritePolicy?$AA@		; `string'
PUBLIC	??_C@_0BD@EHELDMNK@SystemLevelAddress?$AA@	; `string'
PUBLIC	??_C@_0O@LOONNFKJ@SupportedSRAM?$AA@		; `string'
PUBLIC	??_C@_0BA@JKJCLFJA@StartingAddress?$AA@		; `string'
PUBLIC	??_C@_0BC@CACAEAGO@ReplacementPolicy?$AA@	; `string'
PUBLIC	??_C@_0L@OICKBPFP@ReadPolicy?$AA@		; `string'
PUBLIC	??_C@_0BG@GMMANAIM@OtherErrorDescription?$AA@	; `string'
PUBLIC	??_C@_08KDOEBHGA@Location?$AA@			; `string'
PUBLIC	??_C@_08BFDFHGHF@LineSize?$AA@			; `string'
PUBLIC	??_C@_0O@BJDNNDOA@InstalledSize?$AA@		; `string'
PUBLIC	??_C@_0L@NIIIAJJG@FlushTimer?$AA@		; `string'
PUBLIC	??_C@_0BC@FEODMBII@ErrorTransferSize?$AA@	; `string'
PUBLIC	??_C@_09LMOKKAAG@ErrorTime?$AA@			; `string'
PUBLIC	??_C@_0BA@DBMDPLBE@ErrorResolution?$AA@		; `string'
PUBLIC	??_C@_09EPPHMMOH@ErrorInfo?$AA@			; `string'
PUBLIC	??_C@_0P@LPKOAMHJ@ErrorDataOrder?$AA@		; `string'
PUBLIC	??_C@_09GOCFECJA@ErrorData?$AA@			; `string'
PUBLIC	??_C@_0BB@OEAEPHLK@ErrorCorrectType?$AA@	; `string'
PUBLIC	??_C@_0N@BEELHEFJ@ErrorAddress?$AA@		; `string'
PUBLIC	??_C@_0M@PJGEGKNG@ErrorAccess?$AA@		; `string'
PUBLIC	??_C@_0O@DMEOEBEF@EndingAddress?$AA@		; `string'
PUBLIC	??_C@_0M@JJECGOOK@CurrentSRAM?$AA@		; `string'
PUBLIC	??_C@_0BB@HJBOPHEK@CorrectableError?$AA@	; `string'
PUBLIC	??_C@_0N@FNMLGPI@MaxCacheSize?$AA@		; `string'
PUBLIC	??_C@_09LDLPEFB@CacheType?$AA@			; `string'
PUBLIC	??_C@_0L@GKCEABFB@CacheSpeed?$AA@		; `string'
PUBLIC	??_C@_0O@BJAAJMNJ@Associativity?$AA@		; `string'
PUBLIC	??_C@_0BE@FGEPBFNL@AdditionalErrorData?$AA@	; `string'
PUBLIC	??_C@_0BC@BKKBKJDE@Win32_CacheMemory?$AA@	; `string'
PUBLIC	??_C@_0P@OCFCAPCK@ReportSetMarks?$AA@		; `string'
PUBLIC	??_C@_07DDDGKLAD@Padding?$AA@			; `string'
PUBLIC	??_C@_0BC@NKLHGLCM@MaxPartitionCount?$AA@	; `string'
PUBLIC	??_C@_0M@GCKGDCME@FeaturesLow?$AA@		; `string'
PUBLIC	??_C@_0N@PNICBLFI@FeaturesHigh?$AA@		; `string'
PUBLIC	??_C@_0BD@IDPNAMKG@EOTWarningZoneSize?$AA@	; `string'
PUBLIC	??_C@_03NLPJKHLD@ECC?$AA@			; `string'
PUBLIC	??_C@_0M@COKFBABJ@Compression?$AA@		; `string'
PUBLIC	??_C@_02HOGEDOAB@Id?$AA@			; `string'
PUBLIC	??_C@_0BA@GLDDIFFN@Win32_TapeDrive?$AA@		; `string'
PUBLIC	??_C@_0N@NINPCONM@CleanerMedia?$AA@		; `string'
PUBLIC	??_C@_0P@CNPPDDMA@WriteProtectOn?$AA@		; `string'
PUBLIC	??_C@_08PINBMPEF@Capacity?$AA@			; `string'
PUBLIC	??_C@_0BC@FNAKMFAB@CreationClassName?$AA@	; `string'
PUBLIC	??_C@_0BB@GANKFIKA@MediaDescription?$AA@	; `string'
PUBLIC	??_C@_0BE@JBJLNBAC@Win32_PhysicalMedia?$AA@	; `string'
PUBLIC	??_C@_0P@HEMAHOJD@StartingOffset?$AA@		; `string'
PUBLIC	??_C@_0BB@CLPKNLNO@RewritePartition?$AA@	; `string'
PUBLIC	??_C@_07ODOLMOGH@Purpose?$AA@			; `string'
PUBLIC	??_C@_0O@NMDEFEE@HiddenSectors?$AA@		; `string'
PUBLIC	??_C@_0P@PGINBNEO@NumberOfBlocks?$AA@		; `string'
PUBLIC	??_C@_09JFLKFGKE@BlockSize?$AA@			; `string'
PUBLIC	??_C@_06IOEANFCI@Access?$AA@			; `string'
PUBLIC	??_C@_0BB@GMPNKCND@PrimaryPartition?$AA@	; `string'
PUBLIC	??_C@_0O@GKABHDFN@BootPartition?$AA@		; `string'
PUBLIC	??_C@_08GBCOMNMP@Bootable?$AA@			; `string'
PUBLIC	??_C@_04KOACHJEN@Type?$AA@			; `string'
PUBLIC	??_C@_0BE@GBMGFCLI@Win32_DiskPartition?$AA@	; `string'
PUBLIC	??_C@_0BC@KOKBEBBE@TracksPerCylinder?$AA@	; `string'
PUBLIC	??_C@_0M@BHKEFGGG@TotalTracks?$AA@		; `string'
PUBLIC	??_C@_0N@BJMAPGKO@TotalSectors?$AA@		; `string'
PUBLIC	??_C@_0L@PLGEACLG@TotalHeads?$AA@		; `string'
PUBLIC	??_C@_0P@NEMACPGO@TotalCylinders?$AA@		; `string'
PUBLIC	??_C@_0BA@CCMKCJPC@SectorsPerTrack?$AA@		; `string'
PUBLIC	??_C@_0O@IHENGMAG@InterfaceType?$AA@		; `string'
PUBLIC	??_C@_0BB@HMBACBBL@FirmwareRevision?$AA@	; `string'
PUBLIC	??_C@_0P@MMMIFHLL@BytesPerSector?$AA@		; `string'
PUBLIC	??_C@_09GDNFOKKF@Signature?$AA@			; `string'
PUBLIC	??_C@_0L@BLANPANH@Partitions?$AA@		; `string'
PUBLIC	??_C@_0BA@CJPFNKBD@Win32_DiskDrive?$AA@		; `string'
PUBLIC	??_C@_0BF@HGGDLIIF@SpecificationVersion?$AA@	; `string'
PUBLIC	??_C@_0BN@FJFLBOEO@ReservedSystemPaletteEntries?$AA@ ; `string'
PUBLIC	??_C@_0L@NCAJOFAD@Monochrome?$AA@		; `string'
PUBLIC	??_C@_0P@BADPIIJO@MinRefreshRate?$AA@		; `string'
PUBLIC	??_C@_0P@DHIEOPKP@MaxRefreshRate?$AA@		; `string'
PUBLIC	??_C@_0BD@KFJBBNPN@MaxMemorySupported?$AA@	; `string'
PUBLIC	??_C@_0BI@NCJGCGIA@InstalledDisplayDrivers?$AA@	; `string'
PUBLIC	??_C@_09OGGCGCBA@ICMMethod?$AA@			; `string'
PUBLIC	??_C@_09MBIABGHL@ICMIntent?$AA@			; `string'
PUBLIC	??_C@_0L@GAFFCADK@DriverDate?$AA@		; `string'
PUBLIC	??_C@_0L@HJOBJMDE@DitherType?$AA@		; `string'
PUBLIC	??_C@_0BD@HBMCPLLH@DeviceSpecificPens?$AA@	; `string'
PUBLIC	??_C@_0O@KKIKAADI@DriverVersion?$AA@		; `string'
PUBLIC	??_C@_0M@HMKFJKEG@InfFilename?$AA@		; `string'
PUBLIC	??_C@_0L@CKHNOAKJ@AdapterRAM?$AA@		; `string'
PUBLIC	??_C@_0P@MPKKGADB@AdapterDACType?$AA@		; `string'
PUBLIC	??_C@_0BF@LPCADEJI@AdapterCompatibility?$AA@	; `string'
PUBLIC	??_C@_0BI@DFJMJFBI@AcceleratorCapabilities?$AA@	; `string'
PUBLIC	??_C@_0BF@FKKNOPFN@SystemPaletteEntries?$AA@	; `string'
PUBLIC	??_C@_0BD@DECAKEGH@NumberOfVideoPages?$AA@	; `string'
PUBLIC	??_C@_0BF@JCFFEIIM@NumberOfColorPlanes?$DL?$AA@	; `string'
PUBLIC	??_C@_0BC@PEHKLIOA@ColorTableEntries?$AA@	; `string'
PUBLIC	??_C@_0P@OMEGAAG@VideoProcessor?$AA@		; `string'
PUBLIC	??_C@_0BF@MAGAOPPB@VideoModeDescription?$AA@	; `string'
PUBLIC	??_C@_09LIEAKBEG@VideoMode?$AA@			; `string'
PUBLIC	??_C@_0BA@COFLHODM@VideoMemoryType?$AA@		; `string'
PUBLIC	??_C@_0BC@GFHBBCIN@VideoArchitecture?$AA@	; `string'
PUBLIC	??_C@_0BE@BKBIMFEG@CurrentNumberOfRows?$AA@	; `string'
PUBLIC	??_C@_0BH@IKBJPLJ@CurrentNumberOfColumns?$AA@	; `string'
PUBLIC	??_C@_0BA@CDIHNLEF@CurrentScanMode?$AA@		; `string'
PUBLIC	??_C@_0BD@JKLPINND@CurrentRefreshRate?$AA@	; `string'
PUBLIC	??_C@_0BG@NCBMILGB@CurrentNumberOfColors?$AA@	; `string'
PUBLIC	??_C@_0BK@LFIAOAGD@CurrentVerticalResolution?$AA@ ; `string'
PUBLIC	??_C@_0BM@OFHJCNEB@CurrentHorizontalResolution?$AA@ ; `string'
PUBLIC	??_C@_0BE@FEOPMOOE@CurrentBitsPerPixel?$AA@	; `string'
PUBLIC	??_C@_0BG@IOBPPLKC@Win32_VideoController?$AA@	; `string'
PUBLIC	??_C@_0BE@KNIHCNGM@Win32_USBController?$AA@	; `string'
PUBLIC	??_C@_0O@GHJKPLAG@DMABufferSize?$AA@		; `string'
PUBLIC	??_C@_0O@GILLNKKD@MPU401Address?$AA@		; `string'
PUBLIC	??_C@_0M@MNPNDAHP@ProductName?$AA@		; `string'
PUBLIC	??_C@_0BC@INJPMPPD@Win32_SoundDevice?$AA@	; `string'
PUBLIC	??_C@_0BG@LCMFOHKE@XOnXOffOutFlowControl?$AA@	; `string'
PUBLIC	??_C@_0BF@FMELJHC@XOnXOffInFlowControl?$AA@	; `string'
PUBLIC	??_C@_0BB@OHGPOKOF@XOnXMitThreshold?$AA@	; `string'
PUBLIC	??_C@_0N@LMKFMCPA@XOnCharacter?$AA@		; `string'
PUBLIC	??_C@_0BC@PIOKAKHD@XOffXMitThreshold?$AA@	; `string'
PUBLIC	??_C@_0O@IABHIILA@XOffCharacter?$AA@		; `string'
PUBLIC	??_C@_09CMMJGBDB@SettingID?$AA@			; `string'
PUBLIC	??_C@_0BD@HDDKDMKB@RTSFlowControlType?$AA@	; `string'
PUBLIC	??_C@_0BD@KACACAPH@ParityCheckEnabled?$AA@	; `string'
PUBLIC	??_C@_0P@ELDMBJ@EventCharacter?$AA@		; `string'
PUBLIC	??_C@_0BI@MDNCEDD@ErrorReplacementEnabled?$AA@	; `string'
PUBLIC	??_C@_0BG@HECEEKCN@ErrorReplaceCharacter?$AA@	; `string'
PUBLIC	??_C@_0N@HDNBGKMG@EOFCharacter?$AA@		; `string'
PUBLIC	??_C@_0BD@HKACMHPL@DTRFlowControlType?$AA@	; `string'
PUBLIC	??_C@_0P@FDLAEJMA@DSRSensitivity?$AA@		; `string'
PUBLIC	??_C@_0BC@HDHNIDHE@DSROutflowControl?$AA@	; `string'
PUBLIC	??_C@_0BB@LNMOOKGE@DiscardNULLBytes?$AA@	; `string'
PUBLIC	??_C@_0BC@BMKJGEMK@CTSOutflowControl?$AA@	; `string'
PUBLIC	??_C@_0BD@MCBMPIAJ@ContinueXMitOnXOff?$AA@	; `string'
PUBLIC	??_C@_0BC@OGEDEEBA@BinaryModeEnabled?$AA@	; `string'
PUBLIC	??_C@_0BG@DFLLPBBO@AbortReadWriteOnError?$AA@	; `string'
PUBLIC	??_C@_06OICOCAHF@IsBusy?$AA@			; `string'
PUBLIC	??_C@_08DPBIGBFM@StopBits?$AA@			; `string'
PUBLIC	??_C@_06OKNHBMNM@Parity?$AA@			; `string'
PUBLIC	??_C@_0M@PAFDOFKP@BitsPerByte?$AA@		; `string'
PUBLIC	??_C@_08FCNNIBJG@BaudRate?$AA@			; `string'
PUBLIC	??_C@_0BO@BPJAPEGK@Win32_SerialPortConfiguration?$AA@ ; `string'
PUBLIC	??_C@_0BD@GDEAPHBI@SupportsXOnXOffSet?$AA@	; `string'
PUBLIC	??_C@_0BA@OPAGJFHI@SupportsXOnXOff?$AA@		; `string'
PUBLIC	??_C@_0BK@GGENNCGN@SupportsSpecialCharacters?$AA@ ; `string'
PUBLIC	??_C@_0P@NGNOBJLG@SupportsRTSCTS?$AA@		; `string'
PUBLIC	??_C@_0N@GBIJPBEE@SupportsRLSD?$AA@		; `string'
PUBLIC	??_C@_0BE@JCPAAGPO@SupportsParityCheck?$AA@	; `string'
PUBLIC	??_C@_0BE@JOEIKOLI@SupportsIntTimeouts?$AA@	; `string'
PUBLIC	??_C@_0BI@LJLLOLPH@SupportsElapsedTimeouts?$AA@	; `string'
PUBLIC	??_C@_0P@GODDIGIP@SupportsDTRDSR?$AA@		; `string'
PUBLIC	??_C@_0BC@EEEMKCBH@Supports16BitMode?$AA@	; `string'
PUBLIC	??_C@_0BB@EPIEMKMF@SettableStopBits?$AA@	; `string'
PUBLIC	??_C@_0N@OBGEBGNG@SettableRLSD?$AA@		; `string'
PUBLIC	??_C@_0BE@NMPLPPIE@SettableParityCheck?$AA@	; `string'
PUBLIC	??_C@_0P@MOHECAJ@SettableParity?$AA@		; `string'
PUBLIC	??_C@_0BE@FMKJPGFK@SettableFlowControl?$AA@	; `string'
PUBLIC	??_C@_0BB@BOCNMDDI@SettableDataBits?$AA@	; `string'
PUBLIC	??_C@_0BB@CCEBCKAP@SettableBaudRate?$AA@	; `string'
PUBLIC	??_C@_0BB@NCMHEECO@OSAutoDiscovered?$AA@	; `string'
PUBLIC	??_C@_0BI@EAKFLPF@MaximumOutputBufferSize?$AA@	; `string'
PUBLIC	??_C@_0BH@PKAPBGLB@MaximumInputBufferSize?$AA@	; `string'
PUBLIC	??_C@_06JCOMDNII@Binary?$AA@			; `string'
PUBLIC	??_C@_0N@KFNBCBNP@ProviderType?$AA@		; `string'
PUBLIC	??_C@_0M@BFAJGJNN@MaxBaudRate?$AA@		; `string'
PUBLIC	??_C@_0BB@DLHLCIMJ@Win32_SerialPort?$AA@	; `string'
PUBLIC	??_C@_0BF@OGNJDJGP@ProtectionManagement?$AA@	; `string'
PUBLIC	??_C@_0BA@IDEAMGMB@MaxTransferRate?$AA@		; `string'
PUBLIC	??_C@_0N@OLJPFNHL@MaxDataWidth?$AA@		; `string'
PUBLIC	??_C@_05FNNGFGLF@Index?$AA@			; `string'
PUBLIC	??_C@_09DJCHLIFB@DeviceMap?$AA@			; `string'
PUBLIC	??_C@_0BD@LPBNFPJD@ControllerTimeouts?$AA@	; `string'
PUBLIC	??_C@_0BA@BJODOJJC@HardwareVersion?$AA@		; `string'
PUBLIC	??_C@_0L@DJBCKAGE@DriverName?$AA@		; `string'
PUBLIC	??_C@_0BF@OGHHAMBD@Win32_SCSIController?$AA@	; `string'
PUBLIC	??_C@_0M@DEJHGOJI@VoltageCaps?$AA@		; `string'
PUBLIC	??_C@_0O@KHACBBMN@UpgradeMethod?$AA@		; `string'
PUBLIC	??_C@_08HJBCPKNB@UniqueId?$AA@			; `string'
PUBLIC	??_C@_08HPJGCEAH@Stepping?$AA@			; `string'
PUBLIC	??_C@_0BC@GCIFEBIL@SocketDesignation?$AA@	; `string'
PUBLIC	??_C@_04EBAMNOLK@Role?$AA@			; `string'
PUBLIC	??_C@_08DNLDHPFP@Revision?$AA@			; `string'
PUBLIC	??_C@_0O@DAODMABE@ProcessorType?$AA@		; `string'
PUBLIC	??_C@_0M@DHKOOBFD@ProcessorId?$AA@		; `string'
PUBLIC	??_C@_0BH@LLAHKBOJ@OtherFamilyDescription?$AA@	; `string'
PUBLIC	??_C@_0P@HLLBIGKP@LoadPercentage?$AA@		; `string'
PUBLIC	??_C@_05KOHFLOFG@Level?$AA@			; `string'
PUBLIC	??_C@_08JALCBBMK@ExtClock?$AA@			; `string'
PUBLIC	??_C@_09KNGBBIL@DataWidth?$AA@			; `string'
PUBLIC	??_C@_0P@IHAGOHLC@CurrentVoltage?$AA@		; `string'
PUBLIC	??_C@_0BC@JFANJPME@CurrentClockSpeed?$AA@	; `string'
PUBLIC	??_C@_09OJECCCEO@CpuStatus?$AA@			; `string'
PUBLIC	??_C@_0N@IPOPOCBB@AddressWidth?$AA@		; `string'
PUBLIC	??_C@_0N@EKFHDKJL@L3CacheSpeed?$AA@		; `string'
PUBLIC	??_C@_0M@PICLIDHN@L3CacheSize?$AA@		; `string'
PUBLIC	??_C@_0N@NBPCHGPE@L2CacheSpeed?$AA@		; `string'
PUBLIC	??_C@_0M@DJKFFMLN@L2CacheSize?$AA@		; `string'
PUBLIC	??_C@_06BOFMEHLD@Family?$AA@			; `string'
PUBLIC	??_C@_0BK@OBFFNDNO@NumberOfLogicalProcessors?$AA@ ; `string'
PUBLIC	??_C@_0O@MJOHKFKO@MaxClockSpeed?$AA@		; `string'
PUBLIC	??_C@_0O@FFCOPHIP@NumberOfCores?$AA@		; `string'
PUBLIC	??_C@_0N@MDJPNJNL@Architecture?$AA@		; `string'
PUBLIC	??_C@_0BA@OJJOBJJP@Win32_Processor?$AA@		; `string'
PUBLIC	??_C@_09IAGOJBFI@StartMode?$AA@			; `string'
PUBLIC	??_C@_07LCDJNPHI@Started?$AA@			; `string'
PUBLIC	??_C@_06ENMIEFDD@OEMUrl?$AA@			; `string'
PUBLIC	??_C@_0P@NBBGILI@DependentFiles?$AA@		; `string'
PUBLIC	??_C@_08GLFJHHAH@HelpFile?$AA@			; `string'
PUBLIC	??_C@_07JFPHJDHA@InfName?$AA@			; `string'
PUBLIC	??_C@_0BC@MLDLGMGB@SupportedPlatform?$AA@	; `string'
PUBLIC	??_C@_0M@PJPGFADP@MonitorName?$AA@		; `string'
PUBLIC	??_C@_08JFJMIJHO@DataFile?$AA@			; `string'
PUBLIC	??_C@_0L@LKBOBDBI@ConfigFile?$AA@		; `string'
PUBLIC	??_C@_08CKKAOMLK@FilePath?$AA@			; `string'
PUBLIC	??_C@_0L@EAJLGPDF@DriverPath?$AA@		; `string'
PUBLIC	??_C@_0BA@PFCCEOEE@DefaultDataType?$AA@		; `string'
PUBLIC	??_C@_0BE@HLKMDILE@Win32_PrinterDriver?$AA@	; `string'
PUBLIC	??_C@_05NNNCCOHC@Alias?$AA@			; `string'
PUBLIC	??_C@_0BD@JJNGNMBL@Win32_PortResource?$AA@	; `string'
PUBLIC	??_C@_0BA@KNNOFNF@ConnectorPinout?$AA@		; `string'
PUBLIC	??_C@_0O@CPCPFFAH@ConnectorType?$AA@		; `string'
PUBLIC	??_C@_08BOPEOHEK@PortType?$AA@			; `string'
PUBLIC	??_C@_0BM@JBGCGAG@InternalReferenceDesignator?$AA@ ; `string'
PUBLIC	??_C@_0BM@OAEDMMAI@ExternalReferenceDesignator?$AA@ ; `string'
PUBLIC	??_C@_0BE@BFHBBNBL@Win32_PortConnector?$AA@	; `string'
PUBLIC	??_C@_05MKJLCFN@Synch?$AA@			; `string'
PUBLIC	??_C@_0L@NEGJIGMA@SampleRate?$AA@		; `string'
PUBLIC	??_C@_0L@KGPBCGJE@Resolution?$AA@		; `string'
PUBLIC	??_C@_0BD@MJAHKLJJ@QuadSpeedThreshold?$AA@	; `string'
PUBLIC	??_C@_0L@KHOEHLLF@InfSection?$AA@		; `string'
PUBLIC	??_C@_0M@LNGELFEC@InfFileName?$AA@		; `string'
PUBLIC	??_C@_0BF@FLDPHBAC@DoubleSpeedThreshold?$AA@	; `string'
PUBLIC	??_C@_0L@DEGCDBKP@Handedness?$AA@		; `string'
PUBLIC	??_C@_0N@OGCCLEJJ@HardwareType?$AA@		; `string'
PUBLIC	??_C@_0BA@PLLFIHNG@DeviceInterface?$AA@		; `string'
PUBLIC	??_C@_0BA@EHILAMBM@NumberOfButtons?$AA@		; `string'
PUBLIC	??_C@_0N@HMDMLBLH@PointingType?$AA@		; `string'
PUBLIC	??_C@_0BF@MJMHBKMK@Win32_PointingDevice?$AA@	; `string'
PUBLIC	??_C@_0L@MCPBCGGP@HardwareID?$AA@		; `string'
PUBLIC	??_C@_0N@EEHHOFBP@CompatibleID?$AA@		; `string'
PUBLIC	??_C@_09GPHNMGJN@ClassGuid?$AA@			; `string'
PUBLIC	??_C@_07LMLHFMEG@Service?$AA@			; `string'
PUBLIC	??_C@_0BA@EHCOOLPP@Win32_PnPEntity?$AA@		; `string'
PUBLIC	??_C@_0BH@CNGPGCKD@Win32_PCMCIAController?$AA@	; `string'
PUBLIC	??_C@_07DOAOMMKG@Enabled?$AA@			; `string'
PUBLIC	??_C@_0L@PMICFDLL@DeviceType?$AA@		; `string'
PUBLIC	??_C@_0BE@ILPPNPBM@Win32_OnBoardDevice?$AA@	; `string'
PUBLIC	??_C@_0BB@MKKJDBAN@SecondaryBusType?$AA@	; `string'
PUBLIC	??_C@_0P@EJGNFGBG@RevisionNumber?$AA@		; `string'
PUBLIC	??_C@_0P@GCEIIPJN@PrimaryBusType?$AA@		; `string'
PUBLIC	??_C@_0BI@DKDNDIIN@Win32_MotherboardDevice?$AA@	; `string'
PUBLIC	??_C@_08FJIAHGMM@Password?$AA@			; `string'
PUBLIC	??_C@_08EOCJLAAL@IsLocked?$AA@			; `string'
PUBLIC	??_C@_0BF@DODFNOHG@NumberOfFunctionKeys?$AA@	; `string'
PUBLIC	??_C@_06KMHOJANB@Layout?$AA@			; `string'
PUBLIC	??_C@_0P@IGJIBAJA@Win32_Keyboard?$AA@		; `string'
PUBLIC	??_C@_06BOOCMPNK@Vector?$AA@			; `string'
PUBLIC	??_C@_0M@NKHMGHID@TriggerType?$AA@		; `string'
PUBLIC	??_C@_0N@NCNNCPPP@TriggerLevel?$AA@		; `string'
PUBLIC	??_C@_09PKFILKGD@Shareable?$AA@			; `string'
PUBLIC	??_C@_0BC@MGLAEOHD@Win32_IRQResource?$AA@	; `string'
PUBLIC	??_C@_0BF@EEIPINHM@Win32_InfraredDevice?$AA@	; `string'
PUBLIC	??_C@_0BE@FMCMMJCA@Win32_IDEController?$AA@	; `string'
PUBLIC	??_C@_0O@PBOKHICP@ActiveCooling?$AA@		; `string'
PUBLIC	??_C@_0P@MCPBPNON@Win32_HeatPipe?$AA@		; `string'
PUBLIC	??_C@_0BC@MGJAFBFH@Win32_FloppyDrive?$AA@	; `string'
PUBLIC	??_C@_0BH@GBOCBJMM@Win32_FloppyController?$AA@	; `string'
PUBLIC	??_C@_07JENHGIOM@V86_API?$AA@			; `string'
PUBLIC	??_C@_0BG@LEBBIDOP@TargetOperatingSystem?$AA@	; `string'
PUBLIC	??_C@_0BB@CCKMONLJ@ServiceTableSize?$AA@	; `string'
PUBLIC	??_C@_06CGGMGNDK@PM_API?$AA@			; `string'
PUBLIC	??_C@_0BA@JOJBKDJN@LanguageEdition?$AA@		; `string'
PUBLIC	??_C@_0BG@IOIHNNJK@DeviceDescriptorBlock?$AA@	; `string'
PUBLIC	??_C@_07DFGIDBBA@Control?$AA@			; `string'
PUBLIC	??_C@_0BA@DGOGJGDP@Win32_DriverVXD?$AA@		; `string'
PUBLIC	??_C@_08HKOOHOAE@WordMode?$AA@			; `string'
PUBLIC	??_C@_0M@MOIPDDOB@TypeCTiming?$AA@		; `string'
PUBLIC	??_C@_0P@HFMGHLOP@TransferWidths?$AA@		; `string'
PUBLIC	??_C@_0BA@HBAKOKJE@MaxTransferSize?$AA@		; `string'
PUBLIC	??_C@_0O@BPLPAGKN@ChannelTiming?$AA@		; `string'
PUBLIC	??_C@_08IOOBKHAJ@ByteMode?$AA@			; `string'
PUBLIC	??_C@_09LDKFCLB@BurstMode?$AA@			; `string'
PUBLIC	??_C@_0M@HJPEAMBM@AddressSize?$AA@		; `string'
PUBLIC	??_C@_0L@PGAIMACF@DMAChannel?$AA@		; `string'
PUBLIC	??_C@_04HOKNCALA@Port?$AA@			; `string'
PUBLIC	??_C@_0BB@ILOPCCAP@Win32_DMAChannel?$AA@	; `string'
PUBLIC	??_C@_0N@GFEIEMMN@TransferRate?$AA@		; `string'
PUBLIC	??_C@_04EBKMHHBE@Size?$AA@			; `string'
PUBLIC	??_C@_0N@BGGJIJCI@SCSITargetId?$AA@		; `string'
PUBLIC	??_C@_08IICBNDDA@SCSIPort?$AA@			; `string'
PUBLIC	??_C@_0BA@FGFDLPLK@SCSILogicalUnit?$AA@		; `string'
PUBLIC	??_C@_07IMFLOLAO@SCSIBus?$AA@			; `string'
PUBLIC	??_C@_0O@MEKHAACN@RevisionLevel?$AA@		; `string'
PUBLIC	??_C@_0BH@COPKOGMD@NumberOfMediaSupported?$AA@	; `string'
PUBLIC	??_C@_0O@IIJMNCFJ@NeedsCleaning?$AA@		; `string'
PUBLIC	??_C@_0N@DELMGCCC@MinBlockSize?$AA@		; `string'
PUBLIC	??_C@_0BJ@FCFAAAMD@MfrAssignedRevisionLevel?$AA@ ; `string'
PUBLIC	??_C@_09HPDNNFFF@MediaType?$AA@			; `string'
PUBLIC	??_C@_0M@BKHKLNGH@MediaLoaded?$AA@		; `string'
PUBLIC	??_C@_0N@HBNKJHPM@MaxMediaSize?$AA@		; `string'
PUBLIC	??_C@_0BH@GKGMNPDK@MaximumComponentLength?$AA@	; `string'
PUBLIC	??_C@_0N@HEPDBKFE@MaxBlockSize?$AA@		; `string'
PUBLIC	??_C@_0BC@JDDJOAMF@FileSystemFlagsEx?$AA@	; `string'
PUBLIC	??_C@_0BA@KMBBNBII@FileSystemFlags?$AA@		; `string'
PUBLIC	??_C@_0BB@PNCBAHDK@ErrorMethodology?$AA@	; `string'
PUBLIC	??_C@_0P@HKGKOHLF@DriveIntegrity?$AA@		; `string'
PUBLIC	??_C@_0BB@GHOHONOE@DefaultBlockSize?$AA@	; `string'
PUBLIC	??_C@_0BC@MBGAHHAB@CompressionMethod?$AA@	; `string'
PUBLIC	??_C@_0BH@EPMKAGLN@CapabilityDescriptions?$AA@	; `string'
PUBLIC	??_C@_0N@FNJCOOAL@Capabilities?$AA@		; `string'
PUBLIC	??_C@_0BD@KNELKJMD@VolumeSerialNumber?$AA@	; `string'
PUBLIC	??_C@_0L@PEPMOJNO@VolumeName?$AA@		; `string'
PUBLIC	??_C@_05FHDOJGAA@Drive?$AA@			; `string'
PUBLIC	??_C@_0BB@KBKCBBFJ@Win32_CDROMDrive?$AA@	; `string'
PUBLIC	??_C@_07FFFMBEEK@BusType?$AA@			; `string'
PUBLIC	??_C@_06KNDINCOD@BusNum?$AA@			; `string'
PUBLIC	??_C@_09HPFDNOIF@Win32_Bus?$AA@			; `string'
PUBLIC	??_C@_0BF@GFDCFGAP@SoftwareElementState?$AA@	; `string'
PUBLIC	??_C@_0BC@MBHIKAHO@SoftwareElementID?$AA@	; `string'
PUBLIC	??_C@_0O@BHMENNOL@SMBIOSPresent?$AA@		; `string'
PUBLIC	??_C@_0BD@NBGOPAJG@SMBIOSMinorVersion?$AA@	; `string'
PUBLIC	??_C@_0BD@GHLLPFOK@SMBIOSMajorVersion?$AA@	; `string'
PUBLIC	??_C@_0BC@GDJFCIN@SMBIOSBIOSVersion?$AA@	; `string'
PUBLIC	??_C@_0M@FEKFCCJH@ReleaseDate?$AA@		; `string'
PUBLIC	??_C@_0M@PLCFCEDN@PrimaryBIOS?$AA@		; `string'
PUBLIC	??_C@_0O@LMGDODCH@OtherTargetOS?$AA@		; `string'
PUBLIC	??_C@_0BA@OPCNKLIC@ListOfLanguages?$AA@		; `string'
PUBLIC	??_C@_0BF@JGHHIKJK@InstallableLanguages?$AA@	; `string'
PUBLIC	??_C@_0BD@IAKLNJOL@IdentificationCode?$AA@	; `string'
PUBLIC	??_C@_0BA@LAFEEKJE@CurrentLanguage?$AA@		; `string'
PUBLIC	??_C@_07FOHBHJJA@CodeSet?$AA@			; `string'
PUBLIC	??_C@_0M@PIEABBJI@BuildNumber?$AA@		; `string'
PUBLIC	??_C@_0M@JNJNMLGA@BIOSVersion?$AA@		; `string'
PUBLIC	??_C@_0BE@DHLHFABD@BiosCharacteristics?$AA@	; `string'
PUBLIC	??_C@_0L@JLLHHBAL@Win32_BIOS?$AA@		; `string'
PUBLIC	??_C@_0BE@IIEJDIAD@SmartBatteryVersion?$AA@	; `string'
PUBLIC	??_C@_0BA@KENPOHHF@MaxRechargeTime?$AA@		; `string'
PUBLIC	??_C@_0BD@HADPLBCE@FullChargeCapacity?$AA@	; `string'
PUBLIC	??_C@_0N@DDGBNILM@ExpectedLife?$AA@		; `string'
PUBLIC	??_C@_0BE@NEEKJBPN@ExpectedBatteryLife?$AA@	; `string'
PUBLIC	??_C@_0BB@NPKJIND@EstimatedRunTime?$AA@		; `string'
PUBLIC	??_C@_0BJ@CDCEHMEP@EstimatedChargeRemaining?$AA@ ; `string'
PUBLIC	??_C@_0O@PBABLEFL@DesignVoltage?$AA@		; `string'
PUBLIC	??_C@_0P@IFPGNGPN@DesignCapacity?$AA@		; `string'
PUBLIC	??_C@_09CAHFAGKL@Chemistry?$AA@			; `string'
PUBLIC	??_C@_0BE@HNKJKBND@BatteryRechargeTime?$AA@	; `string'
PUBLIC	??_C@_0BB@HMDCOCCC@TimeToFullCharge?$AA@	; `string'
PUBLIC	??_C@_0O@IKADLBCG@TimeOnBattery?$AA@		; `string'
PUBLIC	??_C@_0O@PKGMNGNM@BatteryStatus?$AA@		; `string'
PUBLIC	??_C@_0O@CLAKILND@Win32_Battery?$AA@		; `string'
PUBLIC	??_C@_0BE@DAJBDDHL@SpecialRequirements?$AA@	; `string'
PUBLIC	??_C@_0L@NLNCHAIH@SlotLayout?$AA@		; `string'
PUBLIC	??_C@_03LMAAELJP@SKU?$AA@			; `string'
PUBLIC	??_C@_0N@FPJJBBNM@SerialNumber?$AA@		; `string'
PUBLIC	??_C@_0BG@KNNEFNEE@RequiresDaughterBoard?$AA@	; `string'
PUBLIC	??_C@_0BI@NLNEBFOD@RequirementsDescription?$AA@	; `string'
PUBLIC	??_C@_0M@KLOLJEDG@Replaceable?$AA@		; `string'
PUBLIC	??_C@_09DADBKOHO@Removable?$AA@			; `string'
PUBLIC	??_C@_09HKGEBMAI@PoweredOn?$AA@			; `string'
PUBLIC	??_C@_0L@MIOPIENN@PartNumber?$AA@		; `string'
PUBLIC	??_C@_0BF@DMENANMJ@OtherIdentifyingInfo?$AA@	; `string'
PUBLIC	??_C@_0N@FCOIALPI@HotSwappable?$AA@		; `string'
PUBLIC	??_C@_0N@CCJNCHMP@HostingBoard?$AA@		; `string'
PUBLIC	??_C@_05IBAMDCFI@Width?$AA@			; `string'
PUBLIC	??_C@_06ODJMJFLN@Weight?$AA@			; `string'
PUBLIC	??_C@_06HCAKHJJK@Height?$AA@			; `string'
PUBLIC	??_C@_05BOMFGPKE@Depth?$AA@			; `string'
PUBLIC	??_C@_0O@GLLHAKAI@ConfigOptions?$AA@		; `string'
PUBLIC	??_C@_07NGFJPNPN@Version?$AA@			; `string'
PUBLIC	??_C@_05NFIJOKEG@Model?$AA@			; `string'
PUBLIC	??_C@_07HMDPOHHF@Product?$AA@			; `string'
PUBLIC	??_C@_03PJHNOEGB@Tag?$AA@			; `string'
PUBLIC	??_C@_0BA@FKIDHCEN@Win32_BaseBoard?$AA@		; `string'
PUBLIC	??_C@_0BA@HADKHLAI@TimeOfLastReset?$AA@		; `string'
PUBLIC	??_C@_0L@PKEHCAEI@StatusInfo?$AA@		; `string'
PUBLIC	??_C@_06PGDKHFME@Status?$AA@			; `string'
PUBLIC	??_C@_0BC@JHPOAJCM@ProtocolSupported?$AA@	; `string'
PUBLIC	??_C@_0BJ@CFOPGMLH@PowerManagementSupported?$AA@ ; `string'
PUBLIC	??_C@_0BM@NFDEHNHA@PowerManagementCapabilities?$AA@ ; `string'
PUBLIC	??_C@_0BE@JDLAPHJE@MaxNumberControlled?$AA@	; `string'
PUBLIC	??_C@_0O@NDKHIJAE@LastErrorCode?$AA@		; `string'
PUBLIC	??_C@_0M@NBIJNNJJ@InstallDate?$AA@		; `string'
PUBLIC	??_C@_0BB@KIDBLMK@ErrorDescription?$AA@		; `string'
PUBLIC	??_C@_0N@FJHLDHMG@ErrorCleared?$AA@		; `string'
PUBLIC	??_C@_0M@OHKMKKDH@Description?$AA@		; `string'
PUBLIC	??_C@_0BI@OBNCDCBF@ConfigManagerUserConfig?$AA@	; `string'
PUBLIC	??_C@_0BH@JDEEEDCN@ConfigManagerErrorCode?$AA@	; `string'
PUBLIC	??_C@_07OJKFJLLK@Caption?$AA@			; `string'
PUBLIC	??_C@_0N@MFGCECDI@Availability?$AA@		; `string'
PUBLIC	??_C@_0N@BBNLMPJO@Manufacturer?$AA@		; `string'
PUBLIC	??_C@_08JLPEJKOE@DeviceID?$AA@			; `string'
PUBLIC	??_C@_0M@HHJKGII@PNPDeviceID?$AA@		; `string'
PUBLIC	??_C@_04FABLJDN@Name?$AA@			; `string'
PUBLIC	??_C@_0BF@GIOJHHEG@Win32_1394Controller?$AA@	; `string'
PUBLIC	??_C@_07NFANNNEC@UNKNOWN?$AA@			; `string'
PUBLIC	??_C@_08HHHILLLH@VIVOtech?$AA@			; `string'
PUBLIC	??_C@_0N@CCDIFCFP@Vendor?5x1427?$AA@		; `string'
PUBLIC	??_C@_0BC@GAEDCENO@Star?5Microsystems?$AA@	; `string'
PUBLIC	??_C@_0BC@GGOFANFE@SAGEM?5Denmark?5A?1S?$AA@	; `string'
PUBLIC	??_C@_0N@EKANAEP@Vendor?5x0BED?$AA@		; `string'
PUBLIC	??_C@_0N@OEOECLEK@TMD?5Security?$AA@		; `string'
PUBLIC	??_C@_0M@LKDAPJIF@Toshiba?5TEC?$AA@		; `string'
PUBLIC	??_C@_0N@LMLGHGF@Vendor?5x07D1?$AA@		; `string'
PUBLIC	??_C@_0N@BHJPEAKB@Vendor?5x07C0?$AA@		; `string'
PUBLIC	??_C@_06NMEADBLN@Sankio?$AA@			; `string'
PUBLIC	??_C@_0N@OGJAAGP@Vendor?5x0707?$AA@		; `string'
PUBLIC	??_C@_0CO@FNFDMCAN@JXT?5Precision?5Electronics?5Techni@ ; `string'
PUBLIC	??_C@_0O@KCHFFECA@EISST?5Limited?$AA@		; `string'
PUBLIC	??_C@_0BJ@FPNGMFON@INTELLIGENT?5ENERGY?0?5LTD?4?$AA@ ; `string'
PUBLIC	??_C@_0DD@JFHBCIAC@Shandong?5Synthesis?5Electronic?5Te@ ; `string'
PUBLIC	??_C@_0BL@MKIOGMIA@VMC?5Consulting?5Corporation?$AA@ ; `string'
PUBLIC	??_C@_0CC@GLDMKJH@DongGuan?5HYX?5Industrial?5Co?4?0?5Ltd@ ; `string'
PUBLIC	??_C@_0BI@NCIPEGB@RWA?5?$CIHong?5Kong?$CJ?5Limited?$AA@ ; `string'
PUBLIC	??_C@_0CD@JGKEGNMJ@PENTAX?5RICOH?5IMAGING?5COMPANY?0?5LT@ ; `string'
PUBLIC	??_C@_0CG@OAMKINAC@Dongguan?5Jinyue?5Electronics?5Co?4?0@ ; `string'
PUBLIC	??_C@_0L@IOINFDHJ@Daimler?5AG?$AA@		; `string'
PUBLIC	??_C@_0CI@EJBKCNKI@Zhe?5Jiang?5Huasheng?5Technology?5Co@ ; `string'
PUBLIC	??_C@_0BN@PKAIGMCM@MEGATRON?5Elektronik?5AG?5?$CG?5Co?4?$AA@ ; `string'
PUBLIC	??_C@_06CJJNEMAE@Phorus?$AA@			; `string'
PUBLIC	??_C@_0CF@LHOCOHOF@DongGuan?5Elinke?5Industrial?5Co?4?0?5@ ; `string'
PUBLIC	??_C@_0P@OEFFHHLL@DRS?9RSTA?0?5Inc?4?$AA@	; `string'
PUBLIC	??_C@_0P@KJGACBOE@Carmanah?5Signs?$AA@		; `string'
PUBLIC	??_C@_0P@GGHEMJJH@ALGOLTEK?0?5INC?4?$AA@	; `string'
PUBLIC	??_C@_0BF@GEOEIPEL@RCA?5DA?5AMAZONIA?5LTDA?$AA@	; `string'
PUBLIC	??_C@_0BL@PDKHOHKG@Immedia?5Semiconductor?5Inc?4?$AA@ ; `string'
PUBLIC	??_C@_06JAGNIOHH@INUVIO?$AA@			; `string'
PUBLIC	??_C@_0BL@GPGPDPPI@Optimus?5Semiconductor?5Inc?4?$AA@ ; `string'
PUBLIC	??_C@_0BC@EPMKAPFK@Infinitegra?0?5Inc?4?$AA@	; `string'
PUBLIC	??_C@_0CE@MEBHAOHC@Ningbo?5Jiatang?5Electronic?5Co?4?0?5L@ ; `string'
PUBLIC	??_C@_0CF@JLNODIAF@Dongguan?5Kowell?5Electronic?5Co?4?0?5@ ; `string'
PUBLIC	??_C@_0BI@MHBLLANG@Weida?5Hi?9Tech?5Co?4?0?5Ltd?4?$AA@ ; `string'
PUBLIC	??_C@_0BG@OBILOFPF@AVer?5Information?5Inc?4?$AA@ ; `string'
PUBLIC	??_C@_0CL@DMEHNIKM@DongGuan?5City?5MingJi?5Electronics@ ; `string'
PUBLIC	??_C@_0CA@CFAALAJE@ALL?5LINK?5CONN?4?5TECHNOLOGY?5CORP?4?$AA@ ; `string'
PUBLIC	??_C@_0CG@NMMKCBIB@DongGuan?5LongTao?5Electronic?5Co?4?0@ ; `string'
PUBLIC	??_C@_0BJ@KIEOKLMB@INTECH?5ELECTRONICS?5CORP?4?$AA@ ; `string'
PUBLIC	??_C@_0BD@PLHJJNHE@Norel?5Systems?5Ltd?4?$AA@	; `string'
PUBLIC	??_C@_0BM@PDILJJBJ@Ubisys?5Technology?5Co?4?0?5Ltd?4?$AA@ ; `string'
PUBLIC	??_C@_0DD@CFLDKGBD@Shenzhen?5Hong?5Junde?5Precision?5Te@ ; `string'
PUBLIC	??_C@_0CN@BNJPCKEF@TOP?5Exactitude?5Industry?5?$CIShenZhe@ ; `string'
PUBLIC	??_C@_0CO@JCAFCPHA@SUZHOU?5XINYA?5ELECTRIC?5COMMUNICAT@ ; `string'
PUBLIC	??_C@_0BO@KGBBCJH@Chain?9In?5Electronic?5Co?4?0?5Ltd?4?$AA@ ; `string'
PUBLIC	??_C@_0BC@HBLEADPM@GTECH?5Corporation?$AA@	; `string'
PUBLIC	??_C@_0M@GHCMHPKC@Seneye?5Ltd?4?$AA@		; `string'
PUBLIC	??_C@_0BO@ONHDIMLP@ZEN?5FACTORY?5GROUP?5?$CIASIA?$CJ?5LTD?4?$AA@ ; `string'
PUBLIC	??_C@_0BB@PGAFDCCK@DDUSB?5Technology?$AA@	; `string'
PUBLIC	??_C@_0BN@HAAHPMIC@KYOCERA?5ELCO?5Korea?5Co?4?0?5Ltd?4?$AA@ ; `string'
PUBLIC	??_C@_0BL@DEJKGIMK@Smith?5Micro?5Software?0?5Inc?4?$AA@ ; `string'
PUBLIC	??_C@_0M@NMCNEDLC@Lytro?0?5Inc?4?$AA@		; `string'
PUBLIC	??_C@_0CE@JOMBCIJH@Shenzhen?5Deren?5Electronic?5Co?4?0?5L@ ; `string'
PUBLIC	??_C@_0CK@CLEDKDEL@Shenzhen?5New?9Conn?5International?5@ ; `string'
PUBLIC	??_C@_0N@EBDJACPJ@3C?5TEK?5CORP?4?$AA@		; `string'
PUBLIC	??_C@_0CE@EAHJMINJ@Shenzhen?5Rapoo?5Technology?5Co?4?0?5L@ ; `string'
PUBLIC	??_C@_0CH@IDDOGDKP@Shenzhen?5Pangngai?5Industrial?5Co?4@ ; `string'
PUBLIC	??_C@_0BO@GKPDCPNP@HyunWoo?5Electronics?5Co?4?0?5Ltd?4?$AA@ ; `string'
PUBLIC	??_C@_0DA@CGBDOBCP@Dongguan?5DaTang?5Industrial?5Inves@ ; `string'
PUBLIC	??_C@_0BJ@MAPFGIK@Summit?5Semiconductor?5LLC?$AA@ ; `string'
PUBLIC	??_C@_0BK@CFHJHDDG@SYNCONN?5INTERCONNECT?5INC?4?$AA@ ; `string'
PUBLIC	??_C@_0CK@KHHEAIMH@TeLink?5Semiconductor?5?$CIShanghai?$CJ?5@ ; `string'
PUBLIC	??_C@_0BL@MHJFMACI@Irvine?5Sensors?5Corporation?$AA@ ; `string'
PUBLIC	??_C@_0BB@MDEMAKAA@SuperD?5Co?4?0?5Ltd?4?$AA@	; `string'
PUBLIC	??_C@_0P@BCJJHJDJ@JARGY?5CO?4?5LTD?4?$AA@	; `string'
PUBLIC	??_C@_0BH@EHAGJFEE@Fullconn?5Industry?5Inc?4?$AA@ ; `string'
PUBLIC	??_C@_0CB@POEOBKIH@Digibras?5Industria?5do?5Brasil?5S?4A@ ; `string'
PUBLIC	??_C@_08PDELGFBH@UbiVelox?$AA@			; `string'
PUBLIC	??_C@_0DI@DKAFDFAC@Perfect?5Fortune?5Electric?5Wire?5?$CG?5@ ; `string'
PUBLIC	??_C@_0CA@OBJDCDKL@UNH?5Interoperability?5Laboratory?$AA@ ; `string'
PUBLIC	??_C@_0BC@FEINIIOM@Anton?1Bauer?0?5Inc?4?$AA@	; `string'
PUBLIC	??_C@_0BL@LPJGBHEM@Velosti?5Technology?5Limited?$AA@ ; `string'
PUBLIC	??_C@_06HHAPBGEJ@BAANTO?$AA@			; `string'
PUBLIC	??_C@_0BO@OPKCBFPL@Speeder?5Electronics?5Co?4?0?5Ltd?4?$AA@ ; `string'
PUBLIC	??_C@_0BC@MIHCGNOI@Minebea?5Co?4?0?5Ltd?4?$AA@	; `string'
PUBLIC	??_C@_0CB@GILKPBEO@Innopower?5Technology?5Corporation@ ; `string'
PUBLIC	??_C@_0CK@PEDMBLOK@Dongguan?5City?5Qirui?5Electronics?5@ ; `string'
PUBLIC	??_C@_0BM@GMFHMCEF@The?5Silanna?5Group?5Pty?4?5Ltd?4?$AA@ ; `string'
PUBLIC	??_C@_0BO@GNFPHMGK@Trantek?5Electronics?5Co?4?0?5Ltd?4?$AA@ ; `string'
PUBLIC	??_C@_0BH@KJMMFBKI@Incasolution?5Co?4?0?5Ltd?4?$AA@ ; `string'
PUBLIC	??_C@_0O@BNIKCMOM@INSIDE?5Secure?$AA@		; `string'
PUBLIC	??_C@_0CN@EJBOGONI@ChuangYi?5Hardware?5Precision?5Moul@ ; `string'
PUBLIC	??_C@_0BE@CNAOMOBO@Express?5Way?5Limited?$AA@	; `string'
PUBLIC	??_C@_0M@MGCPLAOJ@AWare?0?5Inc?4?$AA@		; `string'
PUBLIC	??_C@_0BE@BMBKAED@SpeedConn?5Co?4?0?5Ltd?4?$AA@	; `string'
PUBLIC	??_C@_07CEDODHPO@NXT?5Plc?$AA@			; `string'
PUBLIC	??_C@_0CF@CFJNEAJP@BitifEye?5Digital?5Test?5Solutions?5@ ; `string'
PUBLIC	??_C@_0CD@NDCLAIIH@Phonic?5Ear?0?5Inc?4?5Frontrow?5Divisi@ ; `string'
PUBLIC	??_C@_0BJ@OHNJGPJN@Marunix?5Electron?5Limited?$AA@ ; `string'
PUBLIC	??_C@_0BP@GJOKBILK@KangXiang?5Electronic?5Co?4?0?5Ltd?4?$AA@ ; `string'
PUBLIC	??_C@_0CM@MLMJGOMM@Shenzhen?5Autone?9Tronic?5Technolog@ ; `string'
PUBLIC	??_C@_0BG@JCFEOFFG@Greenconn?5Corporation?$AA@	; `string'
PUBLIC	??_C@_09GCGEMCFF@Tensorcom?$AA@			; `string'
PUBLIC	??_C@_0BK@MFDKEFFA@CKM?5Electronics?5Co?4?0?5Ltd?4?$AA@ ; `string'
PUBLIC	??_C@_0BI@LPLOPAA@Huawei?5Device?5Co?4?0?5Ltd?4?$AA@ ; `string'
PUBLIC	??_C@_0BL@CONNOJEO@Avery?5Design?5Systems?0?5Inc?4?$AA@ ; `string'
PUBLIC	??_C@_0CF@DNEMFNPO@Kunshan?5Jiahua?5Electronics?5Co?4?0?5@ ; `string'
PUBLIC	??_C@_05CCBNKHPD@Avnet?$AA@			; `string'
PUBLIC	??_C@_0O@LJFFELIC@Miltope?5Corp?4?$AA@		; `string'
PUBLIC	??_C@_0O@PFEHLJC@Phase?5One?5A?1S?$AA@		; `string'
PUBLIC	??_C@_0BH@JCNJIDNH@Motorola?5Mobility?5Inc?4?$AA@ ; `string'
PUBLIC	??_C@_0BN@LAOLKJDB@Trigence?5Semiconductor?0?5Inc?4?$AA@ ; `string'
PUBLIC	??_C@_0BK@OFJMDPCF@Valor?5Communication?0?5Inc?4?$AA@ ; `string'
PUBLIC	??_C@_0CD@FPBFIKDM@Grain?5Media?5Technology?5Corporati@ ; `string'
PUBLIC	??_C@_0CO@EAFKPNFN@Shenzhen?5DLK?5Electronics?5Technol@ ; `string'
PUBLIC	??_C@_0CH@JIBHMNOD@Hotron?5Precision?5Electronic?5Ind?4@ ; `string'
PUBLIC	??_C@_0CO@GPGEJOEG@Sun?5Fair?5Electric?5Wire?5?$CG?5Cable?5?$CI@ ; `string'
PUBLIC	??_C@_0BD@PEIOBOIA@Granite?5River?5Labs?$AA@	; `string'
PUBLIC	??_C@_0CH@BNMEADNA@XiaMen?5GaoLuChang?5Electronics?5Co@ ; `string'
PUBLIC	??_C@_0BP@OIDAFMJB@Evernew?5Wire?5?$CG?5Cable?5Co?4?0?5Ltd?4?$AA@ ; `string'
PUBLIC	??_C@_0CG@NEPAELKJ@Wiretek?5International?5Investment@ ; `string'
PUBLIC	??_C@_0CB@CHMCCAAM@3eYamaichi?5Electronics?5Co?4?0?5Ltd?4@ ; `string'
PUBLIC	??_C@_0CG@OHNMOHEM@Wuerth?9Elektronik?5eiSos?5GmbH?5?$CG?5C@ ; `string'
PUBLIC	??_C@_0CM@MMCEPGGG@Jiafuh?5Metal?5?$CG?5Plastic?5?$CIShenZhen@ ; `string'
PUBLIC	??_C@_0BP@FAJGPKNC@Compupack?5Technology?5Co?4?0?5Ltd?4?$AA@ ; `string'
PUBLIC	??_C@_0BP@PBMDMJMJ@Netcom?5Technology?5?$CIHK?$CJ?5Limited?$AA@ ; `string'
PUBLIC	??_C@_0CF@DANJAKAE@SHENZHEN?5JASON?5ELECTRONICS?5CO?4?0?5@ ; `string'
PUBLIC	??_C@_08EPBIMIG@CalDigit?$AA@			; `string'
PUBLIC	??_C@_0BF@BAPBHHHN@TMC?1Allion?5Test?5Labs?$AA@	; `string'
PUBLIC	??_C@_0BM@BKHGEKPK@Transcend?5Information?0?5Inc?4?$AA@ ; `string'
PUBLIC	??_C@_0DH@EJJEPBOI@HUIZHOU?5HUANGJI?5PRECISIONS?5FLEX?5@ ; `string'
PUBLIC	??_C@_0BI@FBCKNBLM@JVC?5KENWOOD?5Corporation?$AA@ ; `string'
PUBLIC	??_C@_0BD@LDDEGFID@Y?5Soft?5Corporation?$AA@	; `string'
PUBLIC	??_C@_0CD@KDAPKLEA@Visteon?5Sistemas?5Automotives?5Ltd@ ; `string'
PUBLIC	??_C@_0CF@JOALJALB@Chin?9Ban?5Electronics?5?$CIHong?5Kong?$CJ@ ; `string'
PUBLIC	??_C@_0CJ@CNOJBLBI@Amphenol?5AssembleTech?5?$CIXiamen?$CJ?5C@ ; `string'
PUBLIC	??_C@_0CF@GAGJPPB@Shenzhen?5Linoya?5Electronic?5Co?4?0?5@ ; `string'
PUBLIC	??_C@_0N@JLDIPNLJ@KT?5Tech?5Inc?4?$AA@		; `string'
PUBLIC	??_C@_0P@GBIKBMAL@VIA?5Labs?0?5Inc?4?$AA@	; `string'
PUBLIC	??_C@_0BJ@PMOEHKIK@SOFTHARD?5Technology?5Ltd?4?$AA@ ; `string'
PUBLIC	??_C@_0DE@EMOPPBDG@Sumitomo?5Electric?5Ind?4?0?5Ltd?4?0?5Op@ ; `string'
PUBLIC	??_C@_0BK@EIBNNPGD@FENGHUA?5KINGSUN?5CO?4?0?5LTD?4?$AA@ ; `string'
PUBLIC	??_C@_0CF@MCDKIGNK@Shenzhen?5CARVE?5Electronics?5Co?4?0?5@ ; `string'
PUBLIC	??_C@_0BP@FNHFFJPK@Microconn?5Electronic?5Co?4?0?5Ltd?4?$AA@ ; `string'
PUBLIC	??_C@_0BA@CFCNDLPN@CE?5LINK?5LIMITED?$AA@	; `string'
PUBLIC	??_C@_0N@JJLIGBFN@Luxshare?9ICT?$AA@		; `string'
PUBLIC	??_C@_0BK@DJALMDKA@CESI?5Technology?5Co?4?0?5Ltd?4?$AA@ ; `string'
PUBLIC	??_C@_0CJ@OEPJLPBL@Unicorn?5Electronics?5Components?5C@ ; `string'
PUBLIC	??_C@_0CI@FBHBCILE@Shenzhen?5Tronixin?5Electronics?5Co@ ; `string'
PUBLIC	??_C@_0BG@PIIFGLBL@DETAS?5TECHNOLOGY?5LTD?4?$AA@ ; `string'
PUBLIC	??_C@_0CF@DHGBCKNB@Freeport?5Resources?5Enterprises?5C@ ; `string'
PUBLIC	??_C@_0BN@KHNMKBEO@DAIICHI?5PARTS?5?$CIHK?$CJ?5CO?4?0?5LTD?4?$AA@ ; `string'
PUBLIC	??_C@_0CI@GOBPPKNF@Belkin?5Electronic?5?$CIChangzhou?$CJ?5Co@ ; `string'
PUBLIC	??_C@_0BD@BJBLIGAM@D?9Link?5Corporation?$AA@	; `string'
PUBLIC	??_C@_0DB@KONADFN@Changzhou?5Wujin?5BEST?5Electronic?5@ ; `string'
PUBLIC	??_C@_0CA@CAPPIABK@NIAN?5YEONG?5ENTERPRISE?5CO?4?0?5LTD?4?$AA@ ; `string'
PUBLIC	??_C@_0BD@GMPBKEIC@NXP?5Semiconductors?$AA@	; `string'
PUBLIC	??_C@_0DA@LDONKOKE@Siemens?5Enterprise?5Communication@ ; `string'
PUBLIC	??_C@_0CB@EHEKJNGP@Owl?5Computing?5Technologies?0?5Inc?4@ ; `string'
PUBLIC	??_C@_0BH@OKNGIEAK@Cresta?5Technology?5Inc?4?$AA@ ; `string'
PUBLIC	??_C@_0BJ@OBPDBGLK@Franklin?5Technology?5Inc?4?$AA@ ; `string'
PUBLIC	??_C@_0CC@LPIGCLDE@Morning?5Star?5Industrial?5Co?4?0?5Ltd@ ; `string'
PUBLIC	??_C@_0CI@NHHBKKBH@Dongguan?5Goldconn?5Electronics?5Co@ ; `string'
PUBLIC	??_C@_0BD@GGCBPHPK@Innostor?5Co?4?0?5Ltd?4?$AA@	; `string'
PUBLIC	??_C@_0CE@MEDMJIF@Chang?5Yang?5Electronics?5Company?5L@ ; `string'
PUBLIC	??_C@_0BP@DOFDLEGP@SASKEN?5COMMUNICATION?5TECH?5LTD?4?$AA@ ; `string'
PUBLIC	??_C@_0BN@COMGKDHO@Analogix?5Semiconductor?0?5Inc?4?$AA@ ; `string'
PUBLIC	??_C@_0CG@LKIHKKAD@Cal?9Comp?5Electronics?5?$CG?5Communica@ ; `string'
PUBLIC	??_C@_0CG@BIKNKPGD@Shenzhen?5Tenwei?5Electronics?5Co?4?0@ ; `string'
PUBLIC	??_C@_0DC@MLCJGJKA@How?5Weih?5Precision?5Technology?5?$CIS@ ; `string'
PUBLIC	??_C@_0BJ@HDEECJAH@Transwitch?5?$CIIsrael?$CJ?5Ltd?4?$AA@ ; `string'
PUBLIC	??_C@_0BJ@IADLJBAM@MOSER?5BAER?5INDIA?5LIMITED?$AA@ ; `string'
PUBLIC	??_C@_0CH@IFPLLPOK@WIN?5WIN?5PRECISION?5INDUSTRIAL?5CO?4@ ; `string'
PUBLIC	??_C@_0BL@BINCEHIC@Concraft?5Holding?5Co?4?0?5Ltd?4?$AA@ ; `string'
PUBLIC	??_C@_0DA@GFKEDMJF@Vtion?5Information?5Technology?5?$CIFu@ ; `string'
PUBLIC	??_C@_0BO@OPAJPFGF@COMLINK?5ELECTRONICS?5CO?4?0?5LTD?4?$AA@ ; `string'
PUBLIC	??_C@_0CF@GIBECCII@WAN?5SHIH?5ELECTRONIC?5?$CIH?4K?4?$CJ?5CO?4?0?5@ ; `string'
PUBLIC	??_C@_0BH@JAAJJDAF@Etron?5Technology?0?5Inc?4?$AA@ ; `string'
PUBLIC	??_C@_0CB@BKOLJNN@HUNG?5TA?5H?4T?4ENTERPRISE?5CO?4?0?5LTD?4@ ; `string'
PUBLIC	??_C@_0CE@BIOHJJL@Continental?5Automotive?5Systems?5I@ ; `string'
PUBLIC	??_C@_0BD@LIIMMKIN@KOBIAN?5CANADA?5INC?4?$AA@	; `string'
PUBLIC	??_C@_0BJ@FEMBFAJG@Point?5Grey?5Research?5Inc?4?$AA@ ; `string'
PUBLIC	??_C@_0BA@FHOGIFBC@Inventure?0?5Inc?4?$AA@	; `string'
PUBLIC	??_C@_0CK@INFLCDIC@Telecommunication?5Metrology?5Cent@ ; `string'
PUBLIC	??_C@_0BH@NMLKIBDM@GDA?5Technologies?0?5Inc?4?$AA@ ; `string'
PUBLIC	??_C@_0BL@NACGMHGM@BUFFALO?5KOKUYO?5SUPPLY?5INC?4?$AA@ ; `string'
PUBLIC	??_C@_0CE@EGHGGAJG@Document?5Capture?5Technologies?0?5I@ ; `string'
PUBLIC	??_C@_0BD@GCMMCDEJ@S?4R?4N?4?5Corporation?$AA@	; `string'
PUBLIC	??_C@_0BK@FNCNBIIF@Parade?5Technologies?0?5Inc?4?$AA@ ; `string'
PUBLIC	??_C@_04EOPNHLPE@PLDA?$AA@			; `string'
PUBLIC	??_C@_0CH@EKHHMHEC@Shenzhen?5My?9Power?5Technology?5Co?4@ ; `string'
PUBLIC	??_C@_0DE@IMGLKMI@Yueqing?5Changling?5Electronic?5Ins@ ; `string'
PUBLIC	??_C@_0BF@JDCHKKGB@The?5Linux?5Foundation?$AA@	; `string'
PUBLIC	??_C@_0BL@NKBOOFNF@Walta?5Electronic?5Co?4?0?5Ltd?4?$AA@ ; `string'
PUBLIC	??_C@_0BN@EBGBPGPI@ASAP?5International?5Co?4?0?5Ltd?4?$AA@ ; `string'
PUBLIC	??_C@_0BL@MMCBELAO@QIXING?5INDUSTRIAL?5?$CIHK?$CJ?5CO?4?$AA@ ; `string'
PUBLIC	??_C@_0BC@HAMMCKPN@Fresco?5Logic?5Inc?4?$AA@	; `string'
PUBLIC	??_C@_0BF@EEHMEIJP@Pegatron?5Corporation?$AA@	; `string'
PUBLIC	??_C@_0CI@PCPBKJFB@SHENZHEN?5LINKCONN?5ELECTRONICS?5CO@ ; `string'
PUBLIC	??_C@_0BC@KIFIHBOP@Qisda?5Corporation?$AA@	; `string'
PUBLIC	??_C@_0BJ@IKAGMPGB@Montage?5Technology?0?5Inc?4?$AA@ ; `string'
PUBLIC	??_C@_0BD@JJOGFDJ@DRAGON?5JOY?5LIMITED?$AA@	; `string'
PUBLIC	??_C@_0CA@GDMPIAIK@Horng?5Tong?5Enterprise?5Co?4?0?5Ltd?4?$AA@ ; `string'
PUBLIC	??_C@_0BH@GIIFDIFG@Johnson?5Controls?0?5Inc?4?$AA@ ; `string'
PUBLIC	??_C@_0CL@OJLMBANN@NINGBO?5HENTEK?5DRAGON?5ELECTRONICS@ ; `string'
PUBLIC	??_C@_0N@LKKAKDAC@Amphenol?5KAE?$AA@		; `string'
PUBLIC	??_C@_0DA@BKKOBFJG@Telecommunications?5Technology?5As@ ; `string'
PUBLIC	??_C@_0BO@JLIFAMG@Texas?5Instruments?5?9?5Stellaris?$AA@ ; `string'
PUBLIC	??_C@_0BB@EIGDHDFJ@OPEX?5CORPORATION?$AA@	; `string'
PUBLIC	??_C@_0BL@CHCFPHFA@Aces?5Electronics?5Co?4?0?5Ltd?4?$AA@ ; `string'
PUBLIC	??_C@_0BJ@GEGPHPDK@ALPINE?5ELECTRONICS?0?5INC?4?$AA@ ; `string'
PUBLIC	??_C@_0BL@NCJEDCIM@ASTRON?5INTERNATIONAL?5CORP?4?$AA@ ; `string'
PUBLIC	??_C@_0CP@DAEKMFBI@Shenzhen?5Luxshare?5Precision?5Indu@ ; `string'
PUBLIC	??_C@_0BG@IEKIELLN@Egis?5Technology?0?5Inc?4?$AA@ ; `string'
PUBLIC	??_C@_0BF@DNKPBOCD@Mindray?5DS?5USA?0?5Inc?4?$AA@ ; `string'
PUBLIC	??_C@_0BM@KDIOKGMF@Kaetat?5Industrial?5Co?4?0?5Ltd?4?$AA@ ; `string'
PUBLIC	??_C@_0DA@PPLCBMMB@Philips?5?$CG?5Lite?9ON?5Digital?5Soluti@ ; `string'
PUBLIC	??_C@_08PDBDCLGF@LS?5Mtron?$AA@			; `string'
PUBLIC	??_C@_0CA@MAOFGAIM@SHENZHEN?5D?$CGS?5INDUSTRIES?5LIMITED?$AA@ ; `string'
PUBLIC	??_C@_0BO@IHAPHGGJ@Lanterra?5Industrial?5Co?4?0?5Ltd?4?$AA@ ; `string'
PUBLIC	??_C@_0CH@KIMIGBPK@Orient?5Semiconductor?5Electronics@ ; `string'
PUBLIC	??_C@_0CD@HFOIMFJ@Sunplus?5Innovation?5Technology?5In@ ; `string'
PUBLIC	??_C@_0CA@FCJOHAEE@Contac?5Cable?5Industrial?5Limited?$AA@ ; `string'
PUBLIC	??_C@_0P@JGHIOJAI@Ford?5Motor?5Co?4?$AA@	; `string'
PUBLIC	??_C@_0BO@IHCMPCEB@Shenzhen?5Yuanchuan?5Electronic?$AA@ ; `string'
PUBLIC	??_C@_0BO@MCHPBGAI@Super?5Talent?5Technology?0?5Inc?4?$AA@ ; `string'
PUBLIC	??_C@_0O@IPLHGMF@Amlogic?0?5Inc?4?$AA@		; `string'
PUBLIC	??_C@_0CI@GNFBMNPP@ShenMing?5Electron?5?$CIDong?5Guan?$CJ?5Co@ ; `string'
PUBLIC	??_C@_0DA@EOOOBNLE@The?5Hong?5Kong?5Standards?5and?5Test@ ; `string'
PUBLIC	??_C@_0BN@ODKKJGBD@Plastron?5Precision?5Co?4?0?5Ltd?4?$AA@ ; `string'
PUBLIC	??_C@_0BD@DPNOIOGL@ViXS?5Systems?0?5Inc?4?$AA@	; `string'
PUBLIC	??_C@_0BK@FLEFAHEK@MStar?5Semiconductor?0?5Inc?4?$AA@ ; `string'
PUBLIC	??_C@_0BI@BAHHJBOM@Octekconn?5Incorporation?$AA@ ; `string'
PUBLIC	??_C@_0CD@KCEJLGKF@SHEN?5ZHEN?5REX?5TECHNOLOGY?5CO?4?0?5LT@ ; `string'
PUBLIC	??_C@_0CI@ENEIOO@High?5Top?5Precision?5Electronic?5Co@ ; `string'
PUBLIC	??_C@_0BF@FJNJCEIJ@Desan?5Wire?5Co?4?0?5Ltd?4?$AA@ ; `string'
PUBLIC	??_C@_0M@BNPJBJHO@Salcomp?5Plc?$AA@		; `string'
PUBLIC	??_C@_0CJ@EENODCNA@Johnson?5Component?5?$CG?5Equipments?5C@ ; `string'
PUBLIC	??_C@_0BA@KBMPMKDN@SGS?5Taiwan?5Ltd?4?$AA@	; `string'
PUBLIC	??_C@_0BH@HJFKHBGL@Simula?5Technology?5Inc?4?$AA@ ; `string'
PUBLIC	??_C@_0BN@GMHKDAOP@Proconn?5Technology?5Co?4?0?5Ltd?4?$AA@ ; `string'
PUBLIC	??_C@_0BF@HMENCDPO@Lumberg?5Connect?5GmbH?$AA@	; `string'
PUBLIC	??_C@_0BG@IOFCBCHK@Bayer?5Health?5Care?5LLC?$AA@ ; `string'
PUBLIC	??_C@_0BF@IBCFPAGK@Global?5Unichip?5Corp?4?$AA@	; `string'
PUBLIC	??_C@_0O@IHDBJOFK@Tandberg?5Data?$AA@		; `string'
PUBLIC	??_C@_0O@NGCCHBJG@Silicon?5Image?$AA@		; `string'
PUBLIC	??_C@_0BJ@KAKHDDLA@TERMINUS?5TECHNOLOGY?5INC?4?$AA@ ; `string'
PUBLIC	??_C@_0BG@DLODCOOG@Biwin?5Technology?5Ltd?4?$AA@ ; `string'
PUBLIC	??_C@_0DB@NGACLDBO@Astec?5Power?0?5a?5division?5of?5Emers@ ; `string'
PUBLIC	??_C@_0BI@PPNCKFLJ@Amphenol?5East?5Asia?5Ltd?4?$AA@ ; `string'
PUBLIC	??_C@_0BE@BIONMJOM@USB?9IF?5non?9workshop?$AA@	; `string'
PUBLIC	??_C@_08GALBDMNI@Best?5Buy?$AA@			; `string'
PUBLIC	??_C@_0CJ@HAKCLNCA@Industrial?5Technology?5Research?5I@ ; `string'
PUBLIC	??_C@_0BA@JIPMJPAM@ZTE?5Corporation?$AA@	; `string'
PUBLIC	??_C@_06FFDCAGEL@Dexxon?$AA@			; `string'
PUBLIC	??_C@_0CF@CFPPMAFK@Richnex?5Microelectronics?5Corpora@ ; `string'
PUBLIC	??_C@_0BC@JJOAHPPC@Fairchild?5Imaging?$AA@	; `string'
PUBLIC	??_C@_0BI@EPIBIIDM@Nuconn?5Technology?5Corp?4?$AA@ ; `string'
PUBLIC	??_C@_0BD@JFCNKMCG@Office?5Depot?0?5Inc?4?$AA@	; `string'
PUBLIC	??_C@_0BB@PPNLBENA@BIOS?5Corporation?$AA@	; `string'
PUBLIC	??_C@_0N@PJANIMFN@Ironkey?5Inc?4?$AA@		; `string'
PUBLIC	??_C@_06CHAGPIBB@Lab126?$AA@			; `string'
PUBLIC	??_C@_0BB@PCAKKDFD@Irisguard?5UK?5Ltd?$AA@	; `string'
PUBLIC	??_C@_0CJ@FJMLIAEB@Ningbo?5Broad?5Telecommunication?5C@ ; `string'
PUBLIC	??_C@_0CF@NLNPHLHC@Shenzhen?5Xianhe?5Technology?5Co?4?0?5@ ; `string'
PUBLIC	??_C@_0BJ@CDJNPBB@Avago?5Technologies?0?5Pte?4?$AA@ ; `string'
PUBLIC	??_C@_0BJ@FNMFPLIK@Nordic?5Semiconductor?5ASA?$AA@ ; `string'
PUBLIC	??_C@_0BN@LFCPLAAL@Alco?5Digital?5Devices?5Limited?$AA@ ; `string'
PUBLIC	??_C@_0O@HPIJIONJ@FineArch?5Inc?4?$AA@		; `string'
PUBLIC	??_C@_0CI@NCCLCDI@Kuang?5Ying?5Computer?5Equipment?5Co@ ; `string'
PUBLIC	??_C@_0CF@DABKNPLD@Fitilink?5Integrated?5Technology?0?5@ ; `string'
PUBLIC	??_C@_0M@INPJKDFM@Google?5Inc?4?$AA@		; `string'
PUBLIC	??_C@_0BN@LHNKNBIM@Trimax?5Electronics?5Co?4?0?5Ltd?4?$AA@ ; `string'
PUBLIC	??_C@_0BC@HBKKPCPF@Linkiss?5Co?4?0?5Ltd?4?$AA@	; `string'
PUBLIC	??_C@_0BI@EGKCPMHF@Summit?5Microelectronics?$AA@ ; `string'
PUBLIC	??_C@_0BO@DPMJHMBK@Gwo?5Jinn?5Industries?5Co?4?0?5Ltd?4?$AA@ ; `string'
PUBLIC	??_C@_0CF@KAKIFJIN@Dongguan?5YuQiu?5Electronics?5Co?4?0?5@ ; `string'
PUBLIC	??_C@_0L@IGMLMAAK@K?4K?4?5Rocky?$AA@		; `string'
PUBLIC	??_C@_06EOFPOMJG@Lenovo?$AA@			; `string'
PUBLIC	??_C@_0BG@PLILAAEO@DisplayLink?5?$CIUK?$CJ?5Ltd?4?$AA@ ; `string'
PUBLIC	??_C@_08FCLKDPPD@ORTHOFIX?$AA@			; `string'
PUBLIC	??_C@_0CA@FKGCAAGK@Hip?5Hing?5Cable?5?$CG?5Plug?5Mfy?4?5Ltd?4?$AA@ ; `string'
PUBLIC	??_C@_0DI@IPLEGMCC@Dongguan?5Yangming?5Precision?5of?5P@ ; `string'
PUBLIC	??_C@_0CE@FMNDGFCO@Advanced?5Connection?5Technology?5I@ ; `string'
PUBLIC	??_C@_0P@PAIKKKPL@Printrex?0?5Inc?4?$AA@	; `string'
PUBLIC	??_C@_0CH@GLPFKNO@ShenZhen?5Litkconn?5Technology?5Co?4@ ; `string'
PUBLIC	??_C@_0BP@PDCKJENN@Spreadtrum?5Communications?5Inc?4?$AA@ ; `string'
PUBLIC	??_C@_0BN@MGLGHCII@System?5Level?5Solutions?0?5Inc?4?$AA@ ; `string'
PUBLIC	??_C@_0CC@KBPLCNPO@Shenzhen?5Alex?5Connector?5Co?4?0?5Ltd@ ; `string'
PUBLIC	??_C@_0BE@LLHADAIP@UD?5electronic?5corp?4?$AA@	; `string'
PUBLIC	??_C@_0BL@PGPGIHGN@LucidPort?5Technology?0?5Inc?4?$AA@ ; `string'
PUBLIC	??_C@_0BI@EFCFBFPB@ASMedia?5Technology?5Inc?4?$AA@ ; `string'
PUBLIC	??_C@_0BF@BACBMICM@MQP?5Electronics?5Ltd?4?$AA@	; `string'
PUBLIC	??_C@_0BC@LFEKPOAD@Roche?5Diagnostics?$AA@	; `string'
PUBLIC	??_C@_0BL@MBCLBNK@CANON?5IMAGING?5SYSTEMS?5INC?4?$AA@ ; `string'
PUBLIC	??_C@_0BH@EKGKEMKL@silex?5technology?0?5Inc?4?$AA@ ; `string'
PUBLIC	??_C@_0CK@GHEMOGNO@Dongguan?5ChingLung?5Wire?5?$CG?5Cable?5@ ; `string'
PUBLIC	??_C@_0CI@LPNLCPKP@Shenzhen?5Zhengerya?5Technology?5Co@ ; `string'
PUBLIC	??_C@_0CD@NDNOFCGN@Maxwise?5Production?5Enterprise?5Lt@ ; `string'
PUBLIC	??_C@_0M@OMFDOLIG@Total?5Phase?$AA@		; `string'
PUBLIC	??_C@_0BH@OFEECAGA@Creatix?5Polymedia?5GmbH?$AA@ ; `string'
PUBLIC	??_C@_0BO@CCKIBDCK@HongLin?5Electronics?5Co?4?0?5Ltd?4?$AA@ ; `string'
PUBLIC	??_C@_0N@GNFMIBKN@Soft?5DB?5Inc?4?$AA@		; `string'
PUBLIC	??_C@_06DGDFLKMM@Samtec?$AA@			; `string'
PUBLIC	??_C@_0BO@FIJNAGLJ@Seong?5Ji?5Industrial?5Co?4?0?5Ltd?4?$AA@ ; `string'
PUBLIC	??_C@_0BD@GIDCGAKL@D?9Box?5Technologies?$AA@	; `string'
PUBLIC	??_C@_0CI@HNEJDFII@Hong?5Kong?5Gearway?5Electronics?5Co@ ; `string'
PUBLIC	??_C@_0CL@HBACFJJO@Shen?5Zhen?5Teamspower?5Electronics@ ; `string'
PUBLIC	??_C@_0BO@KPCEMMAE@Freescale?5Semiconductor?0?5Inc?4?$AA@ ; `string'
PUBLIC	??_C@_0CE@PGJPGLLG@Kunshan?5Guoji?5Electronics?5Co?4?0?5L@ ; `string'
PUBLIC	??_C@_0BN@MGGPMLNL@Palconn?5Technology?5Co?4?0?5Ltd?4?$AA@ ; `string'
PUBLIC	??_C@_0L@HBGIDMAB@Ketron?5SRL?$AA@		; `string'
PUBLIC	??_C@_0BM@PJFBNPPK@ALLTOP?5TECHNOLOGY?5CO?4?0?5LTD?4?$AA@ ; `string'
PUBLIC	??_C@_0BM@MLLCLJKN@Sunf?5Pu?5Technology?5Co?4?0?5Ltd?$AA@ ; `string'
PUBLIC	??_C@_0BF@KCLHJFIN@D?5?$CG?5M?5Holdings?0?5Inc?4?$AA@ ; `string'
PUBLIC	??_C@_0CI@PJGLCGBH@Rapid?5Conn?0?5Connect?5County?5Holdi@ ; `string'
PUBLIC	??_C@_0BG@FDFFBPKH@PNY?5Technologies?5Inc?4?$AA@ ; `string'
PUBLIC	??_C@_0BN@PJAMMHJM@Phihong?5Technology?5Co?4?0?5Ltd?4?$AA@ ; `string'
PUBLIC	??_C@_0CF@KFFNHPKK@HLDS?5?$CIHitachi?9LG?5Data?5Storage?0?5I@ ; `string'
PUBLIC	??_C@_0BJ@NNBEAIKI@JMicron?5Technology?5Corp?4?$AA@ ; `string'
PUBLIC	??_C@_0BP@NFMNNPJJ@VeriSilicon?5Holdings?5Co?4?0?5Ltd?4?$AA@ ; `string'
PUBLIC	??_C@_0BE@MEIKBKHJ@Skymedi?5Corporation?$AA@	; `string'
PUBLIC	??_C@_07HKBKGGAL@Ellisys?$AA@			; `string'
PUBLIC	??_C@_0BN@OBOFFJMJ@MOAI?5ELECTRONICS?5CORPORATION?$AA@ ; `string'
PUBLIC	??_C@_0BC@LNFIEHCE@StarTech?4com?5Ltd?4?$AA@	; `string'
PUBLIC	??_C@_0BF@POKLDLPA@ATP?5Electronics?5Inc?4?$AA@	; `string'
PUBLIC	??_C@_0BA@GIDLPKMM@CTK?5Corporation?$AA@	; `string'
PUBLIC	??_C@_0N@JLOFKNJM@EVATRONIX?5SA?$AA@		; `string'
PUBLIC	??_C@_0BA@EJBEDMD@DSP?5Group?0?5Ltd?4?$AA@	; `string'
PUBLIC	??_C@_0P@OCKHDMGO@Formosa21?5Inc?4?$AA@		; `string'
PUBLIC	??_C@_0BC@OEGADIHN@Altek?5Corporation?$AA@	; `string'
PUBLIC	??_C@_0BI@EBFAHIJA@Wind?5River?5Systems?5Inc?4?$AA@ ; `string'
PUBLIC	??_C@_0CL@DCCPGNCP@Vega?5Technologies?5Industrial?5?$CIAu@ ; `string'
PUBLIC	??_C@_0CC@KOGJPFE@Sensor?5Technologies?5America?0?5Inc@ ; `string'
PUBLIC	??_C@_0BN@KECIKNAF@ABILITY?5ENTERPRISE?5CO?4?0?5LTD?4?$AA@ ; `string'
PUBLIC	??_C@_0BH@BHONNEDH@Novatel?5Wireless?0?5Inc?4?$AA@ ; `string'
PUBLIC	??_C@_0BA@EBAJJPHC@Telechips?0?5Inc?4?$AA@	; `string'
PUBLIC	??_C@_0BJ@PODMPDKE@Phison?5Electronics?5Corp?4?$AA@ ; `string'
PUBLIC	??_C@_0BD@MJPGJJIB@Initio?5Corporation?$AA@	; `string'
PUBLIC	??_C@_0O@EADKLFFK@ALEREON?0?5INC?4?$AA@		; `string'
PUBLIC	??_C@_0BN@BNPLLCII@AzureWave?5Technologies?0?5Inc?4?$AA@ ; `string'
PUBLIC	??_C@_0M@DPEOBOCF@Wisair?5Ltd?4?$AA@		; `string'
PUBLIC	??_C@_0CG@BGIJPEKA@JyeTai?5Precision?5Industrial?5Co?4?0@ ; `string'
PUBLIC	??_C@_0BK@LJKDAPJK@TomTom?5International?5B?4V?4?$AA@ ; `string'
PUBLIC	??_C@_0BM@DKMEKHIM@Pericom?5Semiconductor?5Corp?4?$AA@ ; `string'
PUBLIC	??_C@_0M@IPAHGEJP@Swissbit?5AG?$AA@		; `string'
PUBLIC	??_C@_0BP@ODBMNHOP@Katsuragawa?5Electric?5Co?4?0?5Ltd?4?$AA@ ; `string'
PUBLIC	??_C@_0BO@KIELHJB@Konica?5Minolta?5Holdings?0?5Inc?4?$AA@ ; `string'
PUBLIC	??_C@_0BN@DKNOJINI@Better?5Holdings?5?$CIHK?$CJ?5Limited?$AA@ ; `string'
PUBLIC	??_C@_0BP@JPNNFCKE@LINE?5TECH?5INDUSTRIAL?5CO?4?0?5LTD?4?$AA@ ; `string'
PUBLIC	??_C@_0CP@OPCIAOPO@Zhejiang?5Xinya?5Electronic?5Techno@ ; `string'
PUBLIC	??_C@_0CI@LMINHIGA@Honey?5Bee?5Electronic?5Internation@ ; `string'
PUBLIC	??_C@_0BC@CDINJBKA@RISO?5KAGAKU?5CORP?4?$AA@	; `string'
PUBLIC	??_C@_0BM@FDHCJPEM@MARVELL?5SEMICONDUCTOR?0?5INC?4?$AA@ ; `string'
PUBLIC	??_C@_0BO@EMLGGAIJ@Gean?5Sen?5Electronic?5Co?4?0?5Ltd?4?$AA@ ; `string'
PUBLIC	??_C@_0M@HPCCHOFJ@Bel?5Stewart?$AA@		; `string'
PUBLIC	??_C@_0BI@BANJHMOB@Aristocrat?5Technologies?$AA@ ; `string'
PUBLIC	??_C@_0BH@CNPFBGCM@MICRO?5VISION?5CO?4?0?5LTD?4?$AA@ ; `string'
PUBLIC	??_C@_0BL@FCGNNKPJ@ADATA?5Technology?5Co?4?0?5Ltd?4?$AA@ ; `string'
PUBLIC	??_C@_0BI@KKGDFIOD@NYKO?5Technologies?0?5Inc?4?$AA@ ; `string'
PUBLIC	??_C@_0BP@DHPBBMCB@SKYCABLE?5ENTERPRISE?4?5CO?4?0?5LTD?4?$AA@ ; `string'
PUBLIC	??_C@_0BG@MJAIIBOP@HUDSON?5SOFT?5CO?4?0?5LTD?4?$AA@ ; `string'
PUBLIC	??_C@_0BJ@GJMOHKID@K?4I?4?5Technology?5Co?4?5Ltd?4?$AA@ ; `string'
PUBLIC	??_C@_0BH@HFAICOFB@ATECH?5FLASH?5TECHNOLOGY?$AA@ ; `string'
PUBLIC	??_C@_0BH@LNLMLHPJ@GlobalMedia?5Group?0?5LLC?$AA@ ; `string'
PUBLIC	??_C@_0CG@JCFADKIE@DONG?5GUAN?5JALINK?5ELECTRONICES?5CO@ ; `string'
PUBLIC	??_C@_0BF@FDIEEFFD@Sierra?5Wireless?5Inc?4?$AA@	; `string'
PUBLIC	??_C@_0CB@BGNNABKD@Sheng?5Yih?5Technologies?5Co?4?0?5Ltd?4@ ; `string'
PUBLIC	??_C@_0BL@HCIAKFOP@Salix?5Technology?5Co?4?0?5Ltd?4?$AA@ ; `string'
PUBLIC	??_C@_0BP@NKCLDENL@Alpha?5Imaging?5Technology?5Corp?4?$AA@ ; `string'
PUBLIC	??_C@_0CB@BPPANFMB@Shimane?5SANYO?5Electric?5Co?4?0?5Ltd?4@ ; `string'
PUBLIC	??_C@_0BG@JFAAFJPO@Tenx?5Technology?0?5Inc?4?$AA@ ; `string'
PUBLIC	??_C@_0CO@HLACDLIC@Master?5Hill?5Electric?5Wire?5and?5Ca@ ; `string'
PUBLIC	??_C@_0BK@DEMMBJPB@VSO?5ELECTRONICS?5CO?4?0?5LTD?4?$AA@ ; `string'
PUBLIC	??_C@_09JKLIJNKN@Medion?5AG?$AA@		; `string'
PUBLIC	??_C@_0DF@NDHMOMGK@Golden?5Bright?5?$CISichuan?$CJ?5Electron@ ; `string'
PUBLIC	??_C@_0CA@BFJDJKMK@Actions?5Semiconductor?5Co?4?0?5Ltd?4?$AA@ ; `string'
PUBLIC	??_C@_0L@BEMBIFEP@Kycon?5Inc?4?$AA@		; `string'
PUBLIC	??_C@_0BD@BNHNDFDJ@TM?5Technology?5Inc?4?$AA@	; `string'
PUBLIC	??_C@_0BL@GMIJPDAF@Princeton?5Technology?5Corp?4?$AA@ ; `string'
PUBLIC	??_C@_0O@DKGHEGPO@USI?5Co?4?0?5Ltd?4?$AA@	; `string'
PUBLIC	??_C@_0N@MADBCNBC@Cables?5To?5Go?$AA@		; `string'
PUBLIC	??_C@_0BA@JBGEKCBJ@Lotes?5Co?4?0?5Ltd?4?$AA@	; `string'
PUBLIC	??_C@_0BC@MMEHCLPH@Robert?5Bosch?5GmbH?$AA@	; `string'
PUBLIC	??_C@_0BP@HEECLKMJ@Grand?9tek?5Technology?5Co?4?0?5Ltd?4?$AA@ ; `string'
PUBLIC	??_C@_0BC@JLIOEOBP@PANTECH?5CO?4?0?5LTD?4?$AA@	; `string'
PUBLIC	??_C@_0BH@GGINDOFM@CANON?5ELECTRONICS?5INC?4?$AA@ ; `string'
PUBLIC	??_C@_0DF@EJNCJCJN@Freeway?5Electronic?5Wire?5?$CG?5Cable?5@ ; `string'
PUBLIC	??_C@_0BJ@HPGECAIP@Giesecke?5?$CG?5Devrient?5GmbH?$AA@ ; `string'
PUBLIC	??_C@_0CD@OEFJDFLG@Western?5Digital?5Technologies?0?5In@ ; `string'
PUBLIC	??_C@_0BB@MCAPDOMI@ON?5Semiconductor?$AA@	; `string'
PUBLIC	??_C@_0BL@DIDNCHDM@Targus?5Group?5International?$AA@ ; `string'
PUBLIC	??_C@_0BA@PMFKJABH@SteelSeries?5ApS?$AA@	; `string'
PUBLIC	??_C@_0CP@MHAOCCHA@WENZHOU?5YIHUA?5COMMUNICATED?5CONNE@ ; `string'
PUBLIC	??_C@_0BC@KLMPEDJE@Newly?5Corporation?$AA@	; `string'
PUBLIC	??_C@_0BE@PPCAGGEP@LG?5Electronics?5Inc?4?$AA@	; `string'
PUBLIC	??_C@_0BB@FNNKEBO@Speed?5Tech?5Corp?4?$AA@	; `string'
PUBLIC	??_C@_0CJ@MNOHKIGC@CHI?5SHING?5COMPUTER?5ACCESSORIES?5C@ ; `string'
PUBLIC	??_C@_0CH@JMIKCMLI@Sony?5Ericsson?5Mobile?5Communicati@ ; `string'
PUBLIC	??_C@_0CB@KMPGIMLP@SAN?5SHING?5ELECTRONICS?5CO?4?0?5LTD?4?4@ ; `string'
PUBLIC	??_C@_0BE@DKFGOFCL@Wistron?5Corporation?$AA@	; `string'
PUBLIC	??_C@_0BD@NPCAKEK@CviLux?5Corporation?$AA@	; `string'
PUBLIC	??_C@_0BD@KEDKNNLF@Yazaki?5Corporation?$AA@	; `string'
PUBLIC	??_C@_0BD@HLMPAKPJ@DIONEX?5CORPORATION?$AA@	; `string'
PUBLIC	??_C@_0BD@CAOPHLDB@TEPCO?5UQUEST?0?5LTD?4?$AA@	; `string'
PUBLIC	??_C@_0DE@KCDILGEE@GuangZhou?5Chief?5Tech?5Electronic?5@ ; `string'
PUBLIC	??_C@_0CJ@GLJCMOOM@Kawai?5Musical?5Instruments?5Mfg?4?5C@ ; `string'
PUBLIC	??_C@_0CA@JJBCDJBC@Taiyo?5Cable?5?$CIDongguan?$CJ?5Co?4?5Ltd?4?$AA@ ; `string'
PUBLIC	??_C@_0BO@NDDFJIHH@WING?5KEI?5ELECTRICAL?5CO?4?0?5LTD?4?$AA@ ; `string'
PUBLIC	??_C@_0BL@PCHAGLHO@WORLDWIDE?5CABLE?5OPTO?5CORP?4?$AA@ ; `string'
PUBLIC	??_C@_0CA@JKBEBDIB@YFC?9BonEagle?5Electric?5Co?4?0?5Ltd?4?$AA@ ; `string'
PUBLIC	??_C@_0BF@HHKPOBJN@Good?5Man?5Corporation?$AA@	; `string'
PUBLIC	??_C@_0CE@LHKAEIDJ@CSL?5Wire?5?$CG?5Plug?5?$CIShen?5Zhen?$CJ?5Comp@ ; `string'
PUBLIC	??_C@_0BP@OLFMJOLO@Sunrich?5Technology?5?$CIH?4K?4?$CJ?5Ltd?4?$AA@ ; `string'
PUBLIC	??_C@_0BB@FPOIDBI@Lite?9On?5IT?5Corp?4?$AA@	; `string'
PUBLIC	??_C@_0BO@HGLIFDP@InnoVISION?5Multimedia?5Limited?$AA@ ; `string'
PUBLIC	??_C@_0BC@NLMJJEGP@Axell?5Corporation?$AA@	; `string'
PUBLIC	??_C@_0BJ@EEJFEJAC@Sweetray?5Industrial?5Ltd?4?$AA@ ; `string'
PUBLIC	??_C@_0BJ@FFOINCNP@Y?9S?5ELECTRONIC?5CO?4?0?5LTD?4?$AA@ ; `string'
PUBLIC	??_C@_0BF@LFNPLID@Ours?5Technology?5Inc?4?$AA@	; `string'
PUBLIC	??_C@_0BC@PLHJNEDE@ADTEC?5CORPORATION?$AA@	; `string'
PUBLIC	??_C@_0O@DBHJNIK@MediaTek?5Inc?4?$AA@		; `string'
PUBLIC	??_C@_0BP@BAFJGBFA@Well?5Force?5Electronic?5Co?4?0?5Ltd?$AA@ ; `string'
PUBLIC	??_C@_0BP@FIEIALAE@Hsi?9Chin?5Electronics?5Co?4?0?5Ltd?4?$AA@ ; `string'
PUBLIC	??_C@_0BN@PNJNPPHF@Megawin?5Technology?5Co?4?0?5Ltd?4?$AA@ ; `string'
PUBLIC	??_C@_0BN@DKLMDFEK@Neltron?5Industrial?5Co?4?0?5Ltd?4?$AA@ ; `string'
PUBLIC	??_C@_0CN@LHINEDL@Union?5Power?5Information?5Industri@ ; `string'
PUBLIC	??_C@_0BN@MDHILMJA@Neostar?5Technology?5Co?4?0?5Ltd?4?$AA@ ; `string'
PUBLIC	??_C@_0CB@BNIAIBOP@Smart?5Modular?5Technologies?0?5Inc?4@ ; `string'
PUBLIC	??_C@_0BO@MECAJMAF@Liou?5Yuane?5International?5Ltd?4?$AA@ ; `string'
PUBLIC	??_C@_0BH@JAOPMIJP@Custom?5Engineering?5SPA?$AA@ ; `string'
PUBLIC	??_C@_0CH@HKHHADBM@Power?5Quotient?5International?5Co?4@ ; `string'
PUBLIC	??_C@_0BN@MEJNGPFO@Contek?5Electronics?5Co?4?0?5Ltd?4?$AA@ ; `string'
PUBLIC	??_C@_0N@BBHIMAGO@SDK?5Co?0?5Ltd?4?$AA@		; `string'
PUBLIC	??_C@_0O@PIGMBEOG@inXtron?0?5Inc?4?$AA@		; `string'
PUBLIC	??_C@_0CD@LDGCJJON@Micro?9Star?5International?5Co?4?0?5Lt@ ; `string'
PUBLIC	??_C@_0N@BBFDLJEL@IOGEAR?0?5Inc?4?$AA@		; `string'
PUBLIC	??_C@_0CB@CBEHKKIA@Sure?9Fire?5Electrical?5Corporation@ ; `string'
PUBLIC	??_C@_0N@ECGNEKML@Pitney?5Bowes?$AA@		; `string'
PUBLIC	??_C@_0BJ@ICKBMN@C?9MEDIA?5ELECTRONICS?5INC?4?$AA@ ; `string'
PUBLIC	??_C@_0BI@BKFMOADO@Dolby?5Laboratories?5Inc?4?$AA@ ; `string'
PUBLIC	??_C@_0CF@DEKDBPDL@Taiwan?5Line?5Tek?5Electronic?5Co?4?0?5@ ; `string'
PUBLIC	??_C@_0BH@JNDMIFOJ@Hirakawa?5Hewtech?5Corp?4?$AA@ ; `string'
PUBLIC	??_C@_0CH@DILBGHLF@MEILU?5ELECTRONICS?5?$CISHENZHEN?$CJ?5CO?4@ ; `string'
PUBLIC	??_C@_0BF@GHDJEHFK@Volex?5?$CIAsia?$CJ?5Pte?5Ltd?$AA@ ; `string'
PUBLIC	??_C@_0BD@KEPOILEK@Grape?5Systems?5Inc?4?$AA@	; `string'
PUBLIC	??_C@_0P@MAHCGCHE@NF?5Corporation?$AA@		; `string'
PUBLIC	??_C@_0CD@IJEJHEOO@Shanghai?5Hank?5Connection?5Co?4?0?5Lt@ ; `string'
PUBLIC	??_C@_0N@IDKBGBCG@NALTEC?0?5Inc?4?$AA@		; `string'
PUBLIC	??_C@_0BH@IIKDMMBP@Qualcomm?5Atheros?0?5Inc?4?$AA@ ; `string'
PUBLIC	??_C@_0BE@KPNEJJKA@ENE?5Technology?5Inc?4?$AA@	; `string'
PUBLIC	??_C@_0BM@OOCFEMN@e?9CONN?5ELECTRONIC?5CO?4?0?5LTD?4?$AA@ ; `string'
PUBLIC	??_C@_0L@OACAMJJG@Z?9Com?5INC?4?$AA@		; `string'
PUBLIC	??_C@_0BC@ECMAKMHG@Intel?5Corporation?$AA@	; `string'
PUBLIC	??_C@_0BE@DLHFEAFK@Shin?5Din?5Cable?5Ltd?4?$AA@	; `string'
PUBLIC	??_C@_0BM@NGPEIKDH@emsys?5Embedded?5Systems?5GmbH?$AA@ ; `string'
PUBLIC	??_C@_0BO@DKFGFGHA@Singatron?5Enterprise?5Co?4?5Ltd?4?$AA@ ; `string'
PUBLIC	??_C@_0BD@PCKEPBKO@Motorola?5Solutions?$AA@	; `string'
PUBLIC	??_C@_0BN@KPNGPOOH@Honda?5Tsushin?5Kogyo?5Co?4?0?5Ltd?$AA@ ; `string'
PUBLIC	??_C@_0BN@PNHCHLDH@Solid?5State?5System?5Co?4?0?5Ltd?4?$AA@ ; `string'
PUBLIC	??_C@_0BN@KANEMGNF@Whanam?5Electronics?5Co?4?0?5Ltd?4?$AA@ ; `string'
PUBLIC	??_C@_0BH@FHGKBINA@Chant?5Sincere?5Co?4?0?5Ltd?$AA@ ; `string'
PUBLIC	??_C@_0CA@KMAKLJKD@Dong?5Guan?5Shinko?5Wire?5Co?4?0?5Ltd?4?$AA@ ; `string'
PUBLIC	??_C@_0BH@GADMIKAO@Billion?5Bright?5Limited?$AA@ ; `string'
PUBLIC	??_C@_0BL@IIBBHDLP@Sonix?5Technology?5Co?4?0?5Ltd?4?$AA@ ; `string'
PUBLIC	??_C@_08EDJBOCE@Aeroflex?$AA@			; `string'
PUBLIC	??_C@_0BG@BDCJOHPC@Taiyo?5Yuden?5Co?4?0?5Ltd?4?$AA@ ; `string'
PUBLIC	??_C@_0BB@BJDBAEPG@Dura?5Micro?0?5Inc?4?$AA@	; `string'
PUBLIC	??_C@_0N@BIDPCKE@Hasbro?0?5Inc?4?$AA@		; `string'
PUBLIC	??_C@_0BK@EBNIPBJG@LTK?5International?5Limited?$AA@ ; `string'
PUBLIC	??_C@_0BI@GAPKJOJF@Elka?5International?5Ltd?4?$AA@ ; `string'
PUBLIC	??_C@_0M@PBGCMNLB@Ericsson?5AB?$AA@		; `string'
PUBLIC	??_C@_0BM@OODBLDMG@Realtek?5Semiconductor?5Corp?4?$AA@ ; `string'
PUBLIC	??_C@_0BH@PKPGHPEE@Seagate?5Technology?5LLC?$AA@ ; `string'
PUBLIC	??_C@_0BP@JGDEFBDO@Murata?5Manufacturing?5Co?4?0?5Ltd?4?$AA@ ; `string'
PUBLIC	??_C@_0BA@BLJMPEH@HTC?5Corporation?$AA@		; `string'
PUBLIC	??_C@_0O@PGGKPFEM@O2Micro?0?5Inc?4?$AA@		; `string'
PUBLIC	??_C@_0BN@DBGBIANO@ASIX?5Electronics?5Corporation?$AA@ ; `string'
PUBLIC	??_C@_0BK@DICOBJHO@Maxim?5Integrated?5Products?$AA@ ; `string'
PUBLIC	??_C@_0BN@IGCLCEEO@Sinbon?5Electronics?5Co?4?0?5Ltd?4?$AA@ ; `string'
PUBLIC	??_C@_0BJ@MJIIIHDL@Musical?5Electronics?5Ltd?4?$AA@ ; `string'
PUBLIC	??_C@_0P@GFHEPPBN@Olivetti?5S?4p?4A?$AA@	; `string'
PUBLIC	??_C@_0BP@IGDJFEE@Pan?9Asia?5Electronics?5Co?4?0?5Ltd?4?$AA@ ; `string'
PUBLIC	??_C@_0BO@KKOFHFLP@Yokogawa?5Electric?5Corporation?$AA@ ; `string'
PUBLIC	??_C@_0CK@PLBMIBK@Electronic?5Warfare?5Associates?0?5I@ ; `string'
PUBLIC	??_C@_0BG@HEOGBEPO@ASUSTek?5Computer?5Inc?4?$AA@ ; `string'
PUBLIC	??_C@_09FMCEBPKI@Option?5NV?$AA@		; `string'
PUBLIC	??_C@_0BH@CELKNPMM@Allion?5Test?5Labs?0?5Inc?4?$AA@ ; `string'
PUBLIC	??_C@_0BE@HMAJKJ@Vimicro?5Corporation?$AA@	; `string'
PUBLIC	??_C@_0CC@EIBHCLN@SANYO?5Semiconductor?5Company?5Micr@ ; `string'
PUBLIC	??_C@_0BM@KFMMGOHA@Wincor?5Nixdorf?5GmbH?5?$CG?5Co?5KG?$AA@ ; `string'
PUBLIC	??_C@_0BF@BPGMFHBM@Young?5Chang?5Co?4?5Ltd?4?$AA@ ; `string'
PUBLIC	??_C@_0CP@BLIFGEAH@Japan?5Aviation?5Electronics?5Indus@ ; `string'
PUBLIC	??_C@_0BJ@JHAHKIDB@CHESEN?5ELECTRONICS?5CORP?4?$AA@ ; `string'
PUBLIC	??_C@_0O@HDJGGMBN@Intertek?5NSTL?$AA@		; `string'
PUBLIC	??_C@_0BG@IJFMHNNO@Green?5House?5Co?4?0?5Ltd?4?$AA@ ; `string'
PUBLIC	??_C@_0P@KBOGHGP@Broadcom?5Corp?4?$AA@		; `string'
PUBLIC	??_C@_0BN@FBNECLJJ@Mimaki?5Engineering?5Co?4?0?5Ltd?4?$AA@ ; `string'
PUBLIC	??_C@_0BD@LHJHCFAG@COMPUTEX?5Co?4?0?5Ltd?4?$AA@	; `string'
PUBLIC	??_C@_0BB@KGGFOALP@I?1O?5Interconnect?$AA@	; `string'
PUBLIC	??_C@_0BK@IKEGAKKP@Hirose?5Electric?5Co?4?0?5Ltd?4?$AA@ ; `string'
PUBLIC	??_C@_0BF@EKKNDOHK@Physio?9Control?0?5Inc?4?$AA@ ; `string'
PUBLIC	??_C@_0BB@HPCCBBBB@HOYA?5Corporation?$AA@	; `string'
PUBLIC	??_C@_0BL@MPNFCJBM@Jo?9Dan?5International?0?5Inc?4?$AA@ ; `string'
PUBLIC	??_C@_0BG@LAHNEDCJ@A?9FOUR?5TECH?5CO?4?0?5LTD?4?$AA@ ; `string'
PUBLIC	??_C@_05KFMIDCBE@Jungo?$AA@			; `string'
PUBLIC	??_C@_0CD@HNEJNPKP@Electronics?5Testing?5Center?0?5Taiw@ ; `string'
PUBLIC	??_C@_0BE@OJFDPOOK@Workbit?5Corporation?$AA@	; `string'
PUBLIC	??_C@_0BC@JHLIIJEE@NISCA?5Corporation?$AA@	; `string'
PUBLIC	??_C@_0BN@OHPOFJEM@Japan?5Cash?5Machine?5Co?4?0?5Ltd?4?$AA@ ; `string'
PUBLIC	??_C@_0CA@NGELPCKK@Lin?5Shiung?5Enterprise?5Co?4?0?5Ltd?4?$AA@ ; `string'
PUBLIC	??_C@_0BH@NHOGNCFH@Contech?5Research?0?5Inc?4?$AA@ ; `string'
PUBLIC	??_C@_0CF@DOLEFDNC@TRIDENT?5MICROSYSTEMS?5?$CIFar?5East?$CJ?5@ ; `string'
PUBLIC	??_C@_0O@LKCCNLNO@Polycom?0?5Inc?4?$AA@		; `string'
PUBLIC	??_C@_0BH@DIONPOBP@Medialogic?5Corporation?$AA@	; `string'
PUBLIC	??_C@_0BL@KLPBIJLK@Agilent?5Technologies?0?5Inc?4?$AA@ ; `string'
PUBLIC	??_C@_06HLMMPIBG@NVIDIA?$AA@			; `string'
PUBLIC	??_C@_0BM@LKMMOGNE@Kingston?5Technology?5Company?$AA@ ; `string'
PUBLIC	??_C@_0BG@PLHGNMC@J?4S?4T?4?5Mfg?4?5Co?4?0?5Ltd?4?$AA@ ; `string'
PUBLIC	??_C@_0M@DPPDGGNF@Plextor?5LLC?$AA@		; `string'
PUBLIC	??_C@_0BF@FDMCHING@Pixart?5Imaging?0?5Inc?4?$AA@ ; `string'
PUBLIC	??_C@_0BE@JMAMIBAH@Toshiba?5Corporation?$AA@	; `string'
PUBLIC	??_C@_0BB@IJHLMKN@Dymo?5Corporation?$AA@	; `string'
PUBLIC	??_C@_0BF@OCKCLCDJ@Garmin?5International?$AA@	; `string'
PUBLIC	??_C@_0BO@BNPBHCJB@Silicon?5Motion?0?5Inc?4?5?9?5Taiwan?$AA@ ; `string'
PUBLIC	??_C@_0BF@DGGIOLK@Audio?9Technica?5Corp?4?$AA@	; `string'
PUBLIC	??_C@_0BJ@DEEADHEC@FARADAY?5Technology?5Corp?4?$AA@ ; `string'
PUBLIC	??_C@_0BA@ILLLPBKP@AuthenTec?0?5Inc?4?$AA@	; `string'
PUBLIC	??_C@_0L@NMFIDNE@Gemalto?5SA?$AA@		; `string'
PUBLIC	??_C@_0BE@PMKDDGDC@Pioneer?5Corporation?$AA@	; `string'
PUBLIC	??_C@_0BO@JNLBBKDI@TAI?5TWUN?5ENTERPRISE?5CO?4?0?5LTD?4?$AA@ ; `string'
PUBLIC	??_C@_0BI@HFFFIPIB@Texas?5Instruments?5Japan?$AA@ ; `string'
PUBLIC	??_C@_0BH@CFIMBAIC@RadioShack?5Corporation?$AA@	; `string'
PUBLIC	??_C@_0BP@PNBHHOAN@Icron?5Technologies?5Corporation?$AA@ ; `string'
PUBLIC	??_C@_0BA@EMBEKEAB@Lauterbach?5GmbH?$AA@	; `string'
PUBLIC	??_C@_0BG@FKPDHKLP@A?9Tec?5Subsystem?0?5Inc?4?$AA@ ; `string'
PUBLIC	??_C@_0BB@CEKEIHLM@MEC?5IMEX?5INC?1HPT?$AA@	; `string'
PUBLIC	??_C@_0BF@DELPFPOB@Argosy?5Research?5Inc?4?$AA@	; `string'
PUBLIC	??_C@_0CB@POAJBKGF@Action?5Star?5Enterprise?5Co?4?0?5Ltd?4@ ; `string'
PUBLIC	??_C@_0BO@CAINGGKC@Evermuch?5Technology?5Co?4?0?5Ltd?4?$AA@ ; `string'
PUBLIC	??_C@_0BH@FDLEJAIK@Dotop?5Technology?0?5Inc?4?$AA@ ; `string'
PUBLIC	??_C@_0BE@OPFGKFFJ@Century?5Corporation?$AA@	; `string'
PUBLIC	??_C@_0BH@NBGJMCGE@Circuit?5Assembly?5Corp?4?$AA@ ; `string'
PUBLIC	??_C@_0CA@BNLONGOH@David?5Electronics?5Company?0?5Ltd?4?$AA@ ; `string'
PUBLIC	??_C@_0BJ@ODMCNPPD@Arasan?5Chip?5Systems?5Inc?4?$AA@ ; `string'
PUBLIC	??_C@_0BJ@JKHOIPCI@Casio?5Computer?5Co?4?0?5Ltd?4?$AA@ ; `string'
PUBLIC	??_C@_0BL@FNDINGLK@Carry?5Technology?5Co?4?0?5Ltd?4?$AA@ ; `string'
PUBLIC	??_C@_0BN@EGFACLDP@AVerMedia?5Technologies?0?5Inc?4?$AA@ ; `string'
PUBLIC	??_C@_0BH@MGBHEDBN@TIME?5Interconnect?5Ltd?4?$AA@ ; `string'
PUBLIC	??_C@_0BE@NJLEDFOB@OLYMPUS?5CORPORATION?$AA@	; `string'
PUBLIC	??_C@_0O@OCMFCBHB@Plustek?0?5Inc?4?$AA@		; `string'
PUBLIC	??_C@_0BL@MPFKAMGD@National?5Technical?5Systems?$AA@ ; `string'
PUBLIC	??_C@_0CB@LGBOFDFN@Copartner?5Technology?5Corporation@ ; `string'
PUBLIC	??_C@_0BE@KACIGGGG@SanDisk?5Corporation?$AA@	; `string'
PUBLIC	??_C@_0BI@OBNCJIEM@Fairchild?5Semiconductor?$AA@ ; `string'
PUBLIC	??_C@_0CG@IKDDLBBP@Comda?5Advanced?5Technology?5Corpor@ ; `string'
PUBLIC	??_C@_0BA@FCBANMAL@HID?5Global?5GmbH?$AA@	; `string'
PUBLIC	??_C@_0CD@HFGLNKOO@Jess?9Link?5Products?5Co?4?0?5Ltd?4?5?$CIJP@ ; `string'
PUBLIC	??_C@_0BK@PCICHEDF@Cyber?5Power?5Systems?0?5Inc?4?$AA@ ; `string'
PUBLIC	??_C@_0BL@PJBMJABB@Lorom?5Industrial?5Co?4?0?5Ltd?4?$AA@ ; `string'
PUBLIC	??_C@_0BA@IFGJOCOG@Sunix?5Co?4?0?5Ltd?4?$AA@	; `string'
PUBLIC	??_C@_0O@NNOCEOFA@Imation?5Corp?4?$AA@		; `string'
PUBLIC	??_C@_0BP@JCFMJDGG@Magic?5Control?5Technology?5Corp?4?$AA@ ; `string'
PUBLIC	??_C@_0CA@HDLCMAHN@Excel?5Cell?5Electronic?5Co?4?0?5Ltd?4?$AA@ ; `string'
PUBLIC	??_C@_0CA@MKILJNBK@Oki?5Electric?5Industry?5Co?4?0?5Ltd?4?$AA@ ; `string'
PUBLIC	??_C@_0BM@MDDCDOBA@Heisei?5Electronics?5Co?4?5Ltd?4?$AA@ ; `string'
PUBLIC	??_C@_0CA@FPPDHAGC@Mitsubishi?5Electric?5Corporation?$AA@ ; `string'
PUBLIC	??_C@_0L@IGNPDHHH@SIIG?0?5Inc?4?$AA@		; `string'
PUBLIC	??_C@_0BJ@IAMJELKE@Bizlink?5Technology?0?5Inc?4?$AA@ ; `string'
PUBLIC	??_C@_0BC@PBNHDNIB@Leoco?5Corporation?$AA@	; `string'
PUBLIC	??_C@_0BF@KBMIOCIB@Oki?5Data?5Corporation?$AA@	; `string'
PUBLIC	??_C@_0BD@MFHNCDAI@Pixela?5Corporation?$AA@	; `string'
PUBLIC	??_C@_0P@DFEICALO@Testronic?5Labs?$AA@		; `string'
PUBLIC	??_C@_0CC@NHGJCBNO@Greatland?5Electronics?5Taiwan?5Ltd@ ; `string'
PUBLIC	??_C@_0CC@KJLDAPCA@Xiamen?5Doowell?5Electron?5Co?4?0?5Ltd@ ; `string'
PUBLIC	??_C@_0BE@KEFLECEP@MadCatz?5Europe?5Ltd?4?$AA@	; `string'
PUBLIC	??_C@_0BA@EMAGANPI@Tektronix?0?5Inc?4?$AA@	; `string'
PUBLIC	??_C@_0BN@HLLIJJKK@Hagiwara?5Solutions?5Co?4?0?5Ltd?4?$AA@ ; `string'
PUBLIC	??_C@_0BM@LFPCEBHN@Golden?5Bridge?5Electech?5Inc?4?$AA@ ; `string'
PUBLIC	??_C@_09JOKCKELG@Dell?5Inc?4?$AA@		; `string'
PUBLIC	??_C@_0BK@PDKHMLGO@Prolific?5Technology?0?5Inc?4?$AA@ ; `string'
PUBLIC	??_C@_0BH@GHMCMJEK@ACARD?5Technology?5Corp?4?$AA@ ; `string'
PUBLIC	??_C@_0BJ@BPDLABPC@Total?5Technologies?0?5Ltd?4?$AA@ ; `string'
PUBLIC	??_C@_0BJ@PKNBNCAJ@Hamamatsu?5Photonics?5K?4K?4?$AA@ ; `string'
PUBLIC	??_C@_0CA@PAFBBAIH@TSAY?9E?5?$CIBVI?$CJ?5International?5Inc?4?$AA@ ; `string'
PUBLIC	??_C@_0DD@MJJJJEAM@Good?5Way?5Technology?5Co?4?0?5Ltd?4?5?$CG?5@ ; `string'
PUBLIC	??_C@_0BE@DBNMJIBL@Sigma?5Designs?0?5Inc?4?$AA@	; `string'
PUBLIC	??_C@_0BJ@HLMOOHDB@Tekcon?5Electronics?5Corp?4?$AA@ ; `string'
PUBLIC	??_C@_0BL@JPOIGLAH@Glory?5Mark?5Electronic?5Ltd?4?$AA@ ; `string'
PUBLIC	??_C@_0BP@BBNBDGIM@Space?5Shuttle?5Hi?9Tech?5Co?4?0Ltd?4?$AA@ ; `string'
PUBLIC	??_C@_0BA@BPHBIEFO@WIBU?9Systems?5AG?$AA@	; `string'
PUBLIC	??_C@_0BC@HBOMJHJG@Suyin?5Corporation?$AA@	; `string'
PUBLIC	??_C@_0BL@EBDNAMPI@Ji?9Haw?5Industrial?5Co?4?0?5Ltd?$AA@ ; `string'
PUBLIC	??_C@_0CH@PMGKCBAF@Analog?5Devices?0?5Inc?4?5Development@ ; `string'
PUBLIC	??_C@_0P@GAMNDPPF@Chrontel?0?5Inc?4?$AA@	; `string'
PUBLIC	??_C@_0O@JBKMBCEI@Avision?0?5Inc?4?$AA@		; `string'
PUBLIC	??_C@_0CA@POFLHCFC@MAIN?5SUPER?5ENTERPRISES?5CO?4?0LTD?4?$AA@ ; `string'
PUBLIC	??_C@_0BB@GCAKJIAA@Littelfuse?0?5Inc?4?$AA@	; `string'
PUBLIC	??_C@_0BH@OFHNPHHH@Seiko?5Instruments?5Inc?4?$AA@ ; `string'
PUBLIC	??_C@_0CD@BNDJFIFN@TransAct?5Technologies?5Incorporat@ ; `string'
PUBLIC	??_C@_0BK@EHGAEDDA@Totoku?5Electric?5Co?4?0?5LTD?4?$AA@ ; `string'
PUBLIC	??_C@_0CE@IBGJKEKA@Joinsoon?5Electronics?5Mfg?4?5Co?4?0?5L@ ; `string'
PUBLIC	??_C@_0BH@LJAJLGJE@SMK?5Manufacturing?5Inc?4?$AA@ ; `string'
PUBLIC	??_C@_0BP@HAMNADII@Novatek?5Microelectronics?5Corp?4?$AA@ ; `string'
PUBLIC	??_C@_0BD@PJDPEADK@LeCroy?5Corporation?$AA@	; `string'
PUBLIC	??_C@_0BJ@IOEIJMCL@Datalogic?5Scanning?0?5Inc?4?$AA@ ; `string'
PUBLIC	??_C@_0BI@NBAANMIA@Unixtar?5Technology?5Inc?4?$AA@ ; `string'
PUBLIC	??_C@_0BI@KBGKOOGJ@Fuji?5Electric?5Co?4?0?5Ltd?4?$AA@ ; `string'
PUBLIC	??_C@_0BE@CKIEML@Genesys?5Logic?0?5Inc?4?$AA@	; `string'
PUBLIC	??_C@_0BE@JPKFBBCH@Symbol?5Technologies?$AA@	; `string'
PUBLIC	??_C@_0BC@CNOLCDCN@Lexar?5Media?0?5Inc?4?$AA@	; `string'
PUBLIC	??_C@_0BM@OADDMKLB@Microtek?5International?5Inc?4?$AA@ ; `string'
PUBLIC	??_C@_0BD@DNOMCPDN@Ricoh?5Company?5Ltd?4?$AA@	; `string'
PUBLIC	??_C@_0CP@IMDHJGED@Foxlink?1Cheng?5Uei?5Precision?5Indu@ ; `string'
PUBLIC	??_C@_0O@JJANANCF@Qualcomm?0?5Inc?$AA@		; `string'
PUBLIC	??_C@_0CA@ILGCAFHO@Kawasaki?5Microelectronics?0?5Inc?4?$AA@ ; `string'
PUBLIC	??_C@_0BB@BDKIEMDH@Tyco?5Electronics?$AA@	; `string'
PUBLIC	??_C@_0BF@DJDIGDEG@National?5Instruments?$AA@	; `string'
PUBLIC	??_C@_0BH@BEKADALE@Y?4C?4?5Cable?5U?4S?4A?4?0?5Inc?$AA@ ; `string'
PUBLIC	??_C@_05EBJDGKGA@Apple?$AA@			; `string'
PUBLIC	??_C@_0BO@PALNNPFJ@OmniVision?5Technologies?0?5Inc?4?$AA@ ; `string'
PUBLIC	??_C@_05EENIFCCI@LaCie?$AA@			; `string'
PUBLIC	??_C@_0BD@DLALOKFF@Iomega?5Corporation?$AA@	; `string'
PUBLIC	??_C@_0BC@LGOLJEOJ@OMRON?5Corporation?$AA@	; `string'
PUBLIC	??_C@_0BD@CKEFINHN@Alcor?5Micro?0?5Corp?4?$AA@	; `string'
PUBLIC	??_C@_0BE@PNCFOBBM@RATOC?5Systems?0?5Inc?4?$AA@	; `string'
PUBLIC	??_C@_0BD@CDPILELF@Roland?5Corporation?$AA@	; `string'
PUBLIC	??_C@_08DBEKGGBP@AVM?5GmbH?$AA@			; `string'
PUBLIC	??_C@_0P@DLENFJNK@Y?9E?5Data?0?5Inc?4?$AA@	; `string'
PUBLIC	??_C@_0CC@JDHIHHMP@BAFO?1Quality?5Computer?5Accessorie@ ; `string'
PUBLIC	??_C@_0BC@DJMACOGF@Zoran?5Corporation?$AA@	; `string'
PUBLIC	??_C@_0BH@BPNCPPJL@Conexant?5Systems?0?5Inc?4?$AA@ ; `string'
PUBLIC	??_C@_0BA@PCAMLHGM@WACOM?5Co?4?0?5Ltd?4?$AA@	; `string'
PUBLIC	??_C@_0BN@LLCBPJLE@Cadence?5Design?5Systems?0?5Inc?4?$AA@ ; `string'
PUBLIC	??_C@_0BM@FGPDBDMF@ATEN?5International?5Co?4?5Ltd?4?$AA@ ; `string'
PUBLIC	??_C@_0BF@BLKLAKEJ@Fuji?5Xerox?5Co?4?0?5Ltd?4?$AA@ ; `string'
PUBLIC	??_C@_0BB@FOPBDEC@Sony?5Corporation?$AA@	; `string'
PUBLIC	??_C@_0P@JMAENH@Synopsys?0?5Inc?4?$AA@		; `string'
PUBLIC	??_C@_0BH@OKBFFENA@Wacom?5Technology?5Corp?4?$AA@ ; `string'
PUBLIC	??_C@_0BK@EAHBAECN@Aladdin?5Knowledge?5Systems?$AA@ ; `string'
PUBLIC	??_C@_0BF@OEIMDHJB@PLX?5Technology?0?5Inc?4?$AA@ ; `string'
PUBLIC	??_C@_0BP@MPHIFDML@ACON?0?5Advanced?9Connectek?0?5Inc?4?$AA@ ; `string'
PUBLIC	??_C@_0CH@IKHGDMKC@Taiwan?5Semiconductor?5Manufacturi@ ; `string'
PUBLIC	??_C@_0BK@CJECLAIC@American?5Power?5Conversion?$AA@ ; `string'
PUBLIC	??_C@_0BI@IEJECICL@Star?5Micronics?5Co?4?0?5LTD?$AA@ ; `string'
PUBLIC	??_C@_0CG@MHMGALMF@Longwell?5Electronics?1Longwell?5Co@ ; `string'
PUBLIC	??_C@_0BA@MNHCACLA@FCI?5Electronics?$AA@	; `string'
PUBLIC	??_C@_0BD@JPLKCFJN@Belkin?5Corporation?$AA@	; `string'
PUBLIC	??_C@_0BE@OMIFCFDP@Hosiden?5Corporation?$AA@	; `string'
PUBLIC	??_C@_0N@HPKDLJPE@Fujikura?1DDK?$AA@		; `string'
PUBLIC	??_C@_0M@LAOEDIBA@PFU?5Limited?$AA@		; `string'
PUBLIC	??_C@_0BN@EENPEENP@SUNPLUS?5TECHNOLOGY?5CO?4?0?5LTD?4?$AA@ ; `string'
PUBLIC	??_C@_0BJ@LIIOOGBH@Brother?5Industries?0?5Ltd?4?$AA@ ; `string'
PUBLIC	??_C@_0BI@JIJDPPMO@Newnex?5Technology?5Corp?4?$AA@ ; `string'
PUBLIC	??_C@_0BO@DEPAFADD@Chicony?5Electronics?5Co?4?0?5Ltd?4?$AA@ ; `string'
PUBLIC	??_C@_0BO@EFCPDDGG@Tokyo?5Electron?5Device?5Limited?$AA@ ; `string'
PUBLIC	??_C@_0BI@BJLCCIIK@Northstar?5Systems?5Corp?4?$AA@ ; `string'
PUBLIC	??_C@_0BO@CGAOADOO@Samsung?5Electronics?5Co?4?0?5Ltd?4?$AA@ ; `string'
PUBLIC	??_C@_0BB@LGJOJJNH@SCM?5Microsystems?$AA@	; `string'
PUBLIC	??_C@_0BB@LFOEADKM@Exar?5Corporation?$AA@	; `string'
PUBLIC	??_C@_0BC@NGIIFMHF@Sharp?5Corporation?$AA@	; `string'
PUBLIC	??_C@_0BG@HPBJICLA@Panasonic?5Corporation?$AA@	; `string'
PUBLIC	??_C@_0BL@BJMPMCDF@Holtek?5Semiconductor?0?5Inc?4?$AA@ ; `string'
PUBLIC	??_C@_0BK@GLLPJAAH@Microchip?5Technology?5Inc?4?$AA@ ; `string'
PUBLIC	??_C@_0M@CIDIGMJE@ST?9Ericsson?$AA@		; `string'
PUBLIC	??_C@_0BF@DGJHAIHG@FUJIFILM?5Corporation?$AA@	; `string'
PUBLIC	??_C@_0BJ@CAOGFALO@Lite?9On?5Technology?5Corp?4?$AA@ ; `string'
PUBLIC	??_C@_0N@MFGIPGKK@Fujitsu?5Ltd?4?$AA@		; `string'
PUBLIC	??_C@_0BG@NAOBNEME@I?9O?5Data?5Device?0?5Inc?4?$AA@ ; `string'
PUBLIC	??_C@_0BC@LODEJCJJ@Seiko?5Epson?5Corp?4?$AA@	; `string'
PUBLIC	??_C@_0BJ@IBBFBLCL@Compal?5Electronics?0?5Inc?4?$AA@ ; `string'
PUBLIC	??_C@_0P@POFNKNIM@ROHM?5Co?4?0?5Ltd?4?$AA@	; `string'
PUBLIC	??_C@_0BG@FGCLJBBL@Cypress?5Semiconductor?$AA@	; `string'
PUBLIC	??_C@_0BC@HJPMHLJH@Pan?5International?$AA@	; `string'
PUBLIC	??_C@_0BC@GNNADKEG@Nikon?5Corporation?$AA@	; `string'
PUBLIC	??_C@_0L@GLDEECEB@Canon?5Inc?4?$AA@		; `string'
PUBLIC	??_C@_09OEADKIBB@Visioneer?$AA@			; `string'
PUBLIC	??_C@_0O@EDCNNFOI@Hitachi?0?5Ltd?4?$AA@		; `string'
PUBLIC	??_C@_0BD@LBNNEMMM@Yamaha?5Corporation?$AA@	; `string'
PUBLIC	??_C@_0O@KONCBIDB@ITE?5Tech?5Inc?4?$AA@		; `string'
PUBLIC	??_C@_0BC@OEHDDJBP@Foxconn?5?1?5Hon?5Hai?$AA@	; `string'
PUBLIC	??_C@_0BD@KBJBCOHP@STMicroelectronics?$AA@	; `string'
PUBLIC	??_C@_0BE@OKFLBHJF@Kyocera?5Corporation?$AA@	; `string'
PUBLIC	??_C@_0CE@MGJHDLEM@Toshiba?5America?5Info?4?5Systems?0?5I@ ; `string'
PUBLIC	??_C@_0BC@JKCENOI@Plantronics?0?5Inc?4?$AA@	; `string'
PUBLIC	??_C@_0BA@JMLOFGEB@LSI?5Corporation?$AA@	; `string'
PUBLIC	??_C@_0O@NMJDEFAN@Logitech?5Inc?4?$AA@		; `string'
PUBLIC	??_C@_0BE@JEFPHDAK@American?5Megatrends?$AA@	; `string'
PUBLIC	??_C@_0BO@JJGMGNMK@Wieson?5Technologies?5Co?4?0?5Ltd?4?$AA@ ; `string'
PUBLIC	??_C@_05CFGIIEPJ@EATON?$AA@			; `string'
PUBLIC	??_C@_0BD@CABKABLN@Primax?5Electronics?$AA@	; `string'
PUBLIC	??_C@_0BG@EOBPLLNH@Microsoft?5Corporation?$AA@	; `string'
PUBLIC	??_C@_0BK@EAFCJGLH@Renesas?5Electronics?5Corp?4?$AA@ ; `string'
PUBLIC	??_C@_0BC@CIDHCDNI@KYE?5Systems?5Corp?4?$AA@	; `string'
PUBLIC	??_C@_0CB@JOFOMFLH@Silicon?5Integrated?5Systems?5Corp?4@ ; `string'
PUBLIC	??_C@_0BC@NEDOGEDE@Texas?5Instruments?$AA@	; `string'
PUBLIC	??_C@_0BI@LOPMEJIG@Alps?5Electric?5Co?4?0?5Ltd?4?$AA@ ; `string'
PUBLIC	??_C@_0BH@LFBOMFGA@EIZO?5NANAO?5CORPORATION?$AA@ ; `string'
PUBLIC	??_C@_0BL@KCFEHCNK@Lexmark?5International?5Inc?4?$AA@ ; `string'
PUBLIC	??_C@_0BH@PDGAJDKJ@Advanced?5Micro?5Devices?$AA@ ; `string'
PUBLIC	??_C@_0BK@BGJHIBOH@Fujitsu?5Component?5Limited?$AA@ ; `string'
PUBLIC	??_C@_0L@JMLDMEEO@Molex?5Inc?4?$AA@		; `string'
PUBLIC	??_C@_04JKLOLBDG@SMSC?$AA@			; `string'
PUBLIC	??_C@_0BC@LOIKONEK@Nokia?5Corporation?$AA@	; `string'
PUBLIC	??_C@_0O@CDIDDBG@Creative?5Labs?$AA@		; `string'
PUBLIC	??_C@_0BJ@BBLEBCKI@Nuvoton?5Technology?5Corp?4?$AA@ ; `string'
PUBLIC	??_C@_0BP@EJPGPDCC@Giga?9Byte?5Technology?5Co?4?0?5Ltd?4?$AA@ ; `string'
PUBLIC	??_C@_0N@HBBMPLAJ@BUFFALO?5INC?4?$AA@		; `string'
PUBLIC	??_C@_0BB@DMJKNCDK@MCCI?5Corporation?$AA@	; `string'
PUBLIC	??_C@_0BH@LEHBDMGE@VIA?5Technologies?0?5Inc?4?$AA@ ; `string'
PUBLIC	??_C@_0BH@JCNGEJDK@Weltrend?5Semiconductor?$AA@	; `string'
PUBLIC	??_C@_0BG@DEIKAEKL@Eastman?5Kodak?5Company?$AA@	; `string'
PUBLIC	??_C@_0BA@KPLBOCAE@NEC?5Corporation?$AA@	; `string'
PUBLIC	??_C@_0BF@PKMDPELO@Quanta?5Computer?5Inc?4?$AA@	; `string'
PUBLIC	??_C@_0DA@NLEDAFLA@Future?5Technology?5Devices?5Intern@ ; `string'
PUBLIC	??_C@_0BM@MEJFLCNJ@Elitegroup?5Computer?5Systems?$AA@ ; `string'
PUBLIC	??_C@_0O@EJFJAJAK@Diebold?0?5Inc?4?$AA@		; `string'
PUBLIC	??_C@_0BA@GKDJMMLL@Hewlett?5Packard?$AA@	; `string'
PUBLIC	??_C@_0BC@ELLAHEBO@Atmel?5Corporation?$AA@	; `string'
PUBLIC	?strchr@@YAPADPADH@Z				; strchr
PUBLIC	?GetVendorString@USB@@SAPADG@Z			; USB::GetVendorString
PUBLIC	?capacity@?$vector@PAXV?$allocator@PAX@std@@@std@@QBEIXZ ; std::vector<void *,std::allocator<void *> >::capacity
PUBLIC	??$_Uninit_copy@PAPAXPAPAXV?$allocator@PAX@std@@@std@@YAPAPAXPAPAX00AAV?$allocator@PAX@0@U_Scalar_ptr_iterator_tag@0@U_Range_checked_iterator_tag@0@@Z ; std::_Uninit_copy<void * *,void * *,std::allocator<void *> >
PUBLIC	??$unchecked_uninitialized_copy@PAPAXPAPAXV?$allocator@PAX@std@@@stdext@@YAPAPAXPAPAX00AAV?$allocator@PAX@std@@@Z ; stdext::unchecked_uninitialized_copy<void * *,void * *,std::allocator<void *> >
PUBLIC	??$_Uninit_move@PAPAXPAPAXV?$allocator@PAX@std@@U_Undefined_move_tag@2@@std@@YAPAPAXPAPAX00AAV?$allocator@PAX@0@U_Undefined_move_tag@0@U_Range_checked_iterator_tag@0@@Z ; std::_Uninit_move<void * *,void * *,std::allocator<void *>,std::_Undefined_move_tag>
PUBLIC	??$_Unchecked_uninitialized_move@PAPAXPAPAXV?$allocator@PAX@std@@@stdext@@YAPAPAXPAPAX00AAV?$allocator@PAX@std@@@Z ; stdext::_Unchecked_uninitialized_move<void * *,void * *,std::allocator<void *> >
PUBLIC	??$_Umove@PAPAX@?$vector@PAXV?$allocator@PAX@std@@@std@@IAEPAPAXPAPAX00@Z ; std::vector<void *,std::allocator<void *> >::_Umove<void * *>
PUBLIC	??$_Fill@PAPAXPAX@std@@YAXPAPAX0ABQAX@Z		; std::_Fill<void * *,void *>
PUBLIC	??$fill@PAPAXPAX@std@@YAXPAPAX0ABQAX@Z		; std::fill<void * *,void *>
PUBLIC	??$_Move_cat@PAPAX@std@@YA?AU_Undefined_move_tag@0@ABQAPAX@Z ; std::_Move_cat<void * *>
PUBLIC	??$_Copy_backward_opt@PAPAXPAPAXUrandom_access_iterator_tag@std@@@std@@YAPAPAXPAPAX00Urandom_access_iterator_tag@0@U_Scalar_ptr_iterator_tag@0@U_Range_checked_iterator_tag@0@@Z ; std::_Copy_backward_opt<void * *,void * *,std::random_access_iterator_tag>
PUBLIC	??$_Move_backward_opt@PAPAXPAPAXUrandom_access_iterator_tag@std@@U_Undefined_move_tag@2@@std@@YAPAPAXPAPAX00Urandom_access_iterator_tag@0@U_Undefined_move_tag@0@U_Range_checked_iterator_tag@0@@Z ; std::_Move_backward_opt<void * *,void * *,std::random_access_iterator_tag,std::_Undefined_move_tag>
PUBLIC	??$_Unchecked_move_backward@PAPAXPAPAX@stdext@@YAPAPAXPAPAX00@Z ; stdext::_Unchecked_move_backward<void * *,void * *>
PUBLIC	?_Insert_n@?$vector@PAXV?$allocator@PAX@std@@@std@@IAEXV?$_Vector_const_iterator@PAXV?$allocator@PAX@std@@@2@IABQAX@Z ; std::vector<void *,std::allocator<void *> >::_Insert_n
PUBLIC	??G?$_Vector_const_iterator@PAXV?$allocator@PAX@std@@@std@@QBEHABV01@@Z ; std::_Vector_const_iterator<void *,std::allocator<void *> >::operator-
PUBLIC	?insert@?$vector@PAXV?$allocator@PAX@std@@@std@@QAE?AV?$_Vector_iterator@PAXV?$allocator@PAX@std@@@2@V?$_Vector_const_iterator@PAXV?$allocator@PAX@std@@@2@ABQAX@Z ; std::vector<void *,std::allocator<void *> >::insert
PUBLIC	??$_Iter_cat@PAPAX@std@@YA?AUrandom_access_iterator_tag@0@ABQAPAX@Z ; std::_Iter_cat<void * *>
PUBLIC	??$_Fill_n@PAPAXIPAX@std@@YAXPAPAXIABQAXU_Range_checked_iterator_tag@0@@Z ; std::_Fill_n<void * *,unsigned int,void *>
PUBLIC	??$_Fill_n@PAPAXIPAX@std@@YAXPAPAXIABQAXUrandom_access_iterator_tag@0@U_Range_checked_iterator_tag@0@@Z ; std::_Fill_n<void * *,unsigned int,void *>
PUBLIC	??$unchecked_fill_n@PAPAXIPAX@stdext@@YAXPAPAXIABQAX@Z ; stdext::unchecked_fill_n<void * *,unsigned int,void *>
PUBLIC	??$_Uninit_fill_n@PAPAXIPAXV?$allocator@PAX@std@@@std@@YAXPAPAXIABQAXAAV?$allocator@PAX@0@U_Scalar_ptr_iterator_tag@0@U_Range_checked_iterator_tag@0@@Z ; std::_Uninit_fill_n<void * *,unsigned int,void *,std::allocator<void *> >
PUBLIC	??$unchecked_uninitialized_fill_n@PAPAXIPAXV?$allocator@PAX@std@@@stdext@@YAXPAPAXIABQAXAAV?$allocator@PAX@std@@@Z ; stdext::unchecked_uninitialized_fill_n<void * *,unsigned int,void *,std::allocator<void *> >
PUBLIC	?_Ufill@?$vector@PAXV?$allocator@PAX@std@@@std@@IAEPAPAXPAPAXIABQAX@Z ; std::vector<void *,std::allocator<void *> >::_Ufill
PUBLIC	?push_back@?$vector@PAXV?$allocator@PAX@std@@@std@@QAEXABQAX@Z ; std::vector<void *,std::allocator<void *> >::push_back
PUBLIC	??0USB@@QAE@XZ					; USB::USB
PUBLIC	??1USB@@QAE@XZ					; USB::~USB
PUBLIC	??_GUSB@@QAEPAXI@Z				; USB::`scalar deleting destructor'
PUBLIC	??0PBuffer@@QAE@XZ				; PBuffer::PBuffer
PUBLIC	?_clear@PBuffer@@QAEXXZ				; PBuffer::_clear
PUBLIC	??1PBuffer@@QAE@XZ				; PBuffer::~PBuffer
PUBLIC	?_allocMem@PBuffer@@QAEPAEH@Z			; PBuffer::_allocMem
PUBLIC	?_Xran@?$vector@V?$basic_string@DU?$char_traits@D@std@@V?$allocator@D@2@@std@@V?$allocator@V?$basic_string@DU?$char_traits@D@std@@V?$allocator@D@2@@std@@@2@@std@@KAXXZ ; std::vector<std::basic_string<char,std::char_traits<char>,std::allocator<char> >,std::allocator<std::basic_string<char,std::char_traits<char>,std::allocator<char> > > >::_Xran
PUBLIC	??D?$_Vector_const_iterator@V?$basic_string@DU?$char_traits@D@std@@V?$allocator@D@2@@std@@V?$allocator@V?$basic_string@DU?$char_traits@D@std@@V?$allocator@D@2@@std@@@2@@std@@QBEABV?$basic_string@DU?$char_traits@D@std@@V?$allocator@D@2@@1@XZ ; std::_Vector_const_iterator<std::basic_string<char,std::char_traits<char>,std::allocator<char> >,std::allocator<std::basic_string<char,std::char_traits<char>,std::allocator<char> > > >::operator*
PUBLIC	??D?$_Vector_iterator@V?$basic_string@DU?$char_traits@D@std@@V?$allocator@D@2@@std@@V?$allocator@V?$basic_string@DU?$char_traits@D@std@@V?$allocator@D@2@@std@@@2@@std@@QBEAAV?$basic_string@DU?$char_traits@D@std@@V?$allocator@D@2@@1@XZ ; std::_Vector_iterator<std::basic_string<char,std::char_traits<char>,std::allocator<char> >,std::allocator<std::basic_string<char,std::char_traits<char>,std::allocator<char> > > >::operator*
PUBLIC	?at@?$vector@V?$basic_string@DU?$char_traits@D@std@@V?$allocator@D@2@@std@@V?$allocator@V?$basic_string@DU?$char_traits@D@std@@V?$allocator@D@2@@std@@@2@@std@@QAEAAV?$basic_string@DU?$char_traits@D@std@@V?$allocator@D@2@@2@I@Z ; std::vector<std::basic_string<char,std::char_traits<char>,std::allocator<char> >,std::allocator<std::basic_string<char,std::char_traits<char>,std::allocator<char> > > >::at
PUBLIC	??$_Uninit_copy@PAV?$basic_string@DU?$char_traits@D@std@@V?$allocator@D@2@@std@@PAV12@V?$allocator@V?$basic_string@DU?$char_traits@D@std@@V?$allocator@D@2@@std@@@2@@std@@YAPAV?$basic_string@DU?$char_traits@D@std@@V?$allocator@D@2@@0@PAV10@00AAV?$allocator@V?$basic_string@DU?$char_traits@D@std@@V?$allocator@D@2@@std@@@0@U_Nonscalar_ptr_iterator_tag@0@U_Range_checked_iterator_tag@0@@Z ; std::_Uninit_copy<std::basic_string<char,std::char_traits<char>,std::allocator<char> > *,std::basic_string<char,std::char_traits<char>,std::allocator<char> > *,std::allocator<std::basic_string<char,std::char_traits<char>,std::allocator<char> > > >
PUBLIC	??$unchecked_uninitialized_copy@PAV?$basic_string@DU?$char_traits@D@std@@V?$allocator@D@2@@std@@PAV12@V?$allocator@V?$basic_string@DU?$char_traits@D@std@@V?$allocator@D@2@@std@@@2@@stdext@@YAPAV?$basic_string@DU?$char_traits@D@std@@V?$allocator@D@2@@std@@PAV12@00AAV?$allocator@V?$basic_string@DU?$char_traits@D@std@@V?$allocator@D@2@@std@@@2@@Z ; stdext::unchecked_uninitialized_copy<std::basic_string<char,std::char_traits<char>,std::allocator<char> > *,std::basic_string<char,std::char_traits<char>,std::allocator<char> > *,std::allocator<std::basic_string<char,std::char_traits<char>,std::allocator<char> > > >
PUBLIC	??$_Ucopy@PAV?$basic_string@DU?$char_traits@D@std@@V?$allocator@D@2@@std@@@?$vector@V?$basic_string@DU?$char_traits@D@std@@V?$allocator@D@2@@std@@V?$allocator@V?$basic_string@DU?$char_traits@D@std@@V?$allocator@D@2@@std@@@2@@std@@IAEPAV?$basic_string@DU?$char_traits@D@std@@V?$allocator@D@2@@1@PAV21@00@Z ; std::vector<std::basic_string<char,std::char_traits<char>,std::allocator<char> >,std::allocator<std::basic_string<char,std::char_traits<char>,std::allocator<char> > > >::_Ucopy<std::basic_string<char,std::char_traits<char>,std::allocator<char> > *>
PUBLIC	??4?$vector@V?$basic_string@DU?$char_traits@D@std@@V?$allocator@D@2@@std@@V?$allocator@V?$basic_string@DU?$char_traits@D@std@@V?$allocator@D@2@@std@@@2@@std@@QAEAAV01@ABV01@@Z ; std::vector<std::basic_string<char,std::char_traits<char>,std::allocator<char> >,std::allocator<std::basic_string<char,std::char_traits<char>,std::allocator<char> > > >::operator=
PUBLIC	?GetIPs@MonitorIPs@@QAEXAAV?$vector@V?$basic_string@DU?$char_traits@D@std@@V?$allocator@D@2@@std@@V?$allocator@V?$basic_string@DU?$char_traits@D@std@@V?$allocator@D@2@@std@@@2@@std@@@Z ; MonitorIPs::GetIPs
PUBLIC	?strstr@@YAPADPADPBD@Z				; strstr
PUBLIC	??0?$allocator@V?$basic_string@DU?$char_traits@D@std@@V?$allocator@D@2@@std@@@std@@QAE@XZ ; std::allocator<std::basic_string<char,std::char_traits<char>,std::allocator<char> > >::allocator<std::basic_string<char,std::char_traits<char>,std::allocator<char> > >
PUBLIC	??$?0V?$basic_string@DU?$char_traits@D@std@@V?$allocator@D@2@@std@@@?$allocator@V_Aux_cont@std@@@std@@QAE@ABV?$allocator@V?$basic_string@DU?$char_traits@D@std@@V?$allocator@D@2@@std@@@1@@Z ; std::allocator<std::_Aux_cont>::allocator<std::_Aux_cont><std::basic_string<char,std::char_traits<char>,std::allocator<char> > >
PUBLIC	??0?$_Container_base_aux_alloc_real@V?$allocator@V?$basic_string@DU?$char_traits@D@std@@V?$allocator@D@2@@std@@@std@@@std@@IAE@V?$allocator@V?$basic_string@DU?$char_traits@D@std@@V?$allocator@D@2@@std@@@1@@Z ; std::_Container_base_aux_alloc_real<std::allocator<std::basic_string<char,std::char_traits<char>,std::allocator<char> > > >::_Container_base_aux_alloc_real<std::allocator<std::basic_string<char,std::char_traits<char>,std::allocator<char> > > >
PUBLIC	??0?$allocator@V?$basic_string@DU?$char_traits@D@std@@V?$allocator@D@2@@std@@@std@@QAE@ABV01@@Z ; std::allocator<std::basic_string<char,std::char_traits<char>,std::allocator<char> > >::allocator<std::basic_string<char,std::char_traits<char>,std::allocator<char> > >
PUBLIC	??0?$_Vector_val@V?$basic_string@DU?$char_traits@D@std@@V?$allocator@D@2@@std@@V?$allocator@V?$basic_string@DU?$char_traits@D@std@@V?$allocator@D@2@@std@@@2@@std@@IAE@V?$allocator@V?$basic_string@DU?$char_traits@D@std@@V?$allocator@D@2@@std@@@1@@Z ; std::_Vector_val<std::basic_string<char,std::char_traits<char>,std::allocator<char> >,std::allocator<std::basic_string<char,std::char_traits<char>,std::allocator<char> > > >::_Vector_val<std::basic_string<char,std::char_traits<char>,std::allocator<char> >,std::allocator<std::basic_string<char,std::char_traits<char>,std::allocator<char> > > >
PUBLIC	?_Buy@?$vector@V?$basic_string@DU?$char_traits@D@std@@V?$allocator@D@2@@std@@V?$allocator@V?$basic_string@DU?$char_traits@D@std@@V?$allocator@D@2@@std@@@2@@std@@IAE_NI@Z ; std::vector<std::basic_string<char,std::char_traits<char>,std::allocator<char> >,std::allocator<std::basic_string<char,std::char_traits<char>,std::allocator<char> > > >::_Buy
PUBLIC	??0?$vector@V?$basic_string@DU?$char_traits@D@std@@V?$allocator@D@2@@std@@V?$allocator@V?$basic_string@DU?$char_traits@D@std@@V?$allocator@D@2@@std@@@2@@std@@QAE@XZ ; std::vector<std::basic_string<char,std::char_traits<char>,std::allocator<char> >,std::allocator<std::basic_string<char,std::char_traits<char>,std::allocator<char> > > >::vector<std::basic_string<char,std::char_traits<char>,std::allocator<char> >,std::allocator<std::basic_string<char,std::char_traits<char>,std::allocator<char> > > >
PUBLIC	??0MonitorIPs@@QAE@XZ				; MonitorIPs::MonitorIPs
PUBLIC	??1?$_Container_base_aux_alloc_real@V?$allocator@V?$basic_string@DU?$char_traits@D@std@@V?$allocator@D@2@@std@@@std@@@std@@IAE@XZ ; std::_Container_base_aux_alloc_real<std::allocator<std::basic_string<char,std::char_traits<char>,std::allocator<char> > > >::~_Container_base_aux_alloc_real<std::allocator<std::basic_string<char,std::char_traits<char>,std::allocator<char> > > >
PUBLIC	??1?$_Vector_val@V?$basic_string@DU?$char_traits@D@std@@V?$allocator@D@2@@std@@V?$allocator@V?$basic_string@DU?$char_traits@D@std@@V?$allocator@D@2@@std@@@2@@std@@QAE@XZ ; std::_Vector_val<std::basic_string<char,std::char_traits<char>,std::allocator<char> >,std::allocator<std::basic_string<char,std::char_traits<char>,std::allocator<char> > > >::~_Vector_val<std::basic_string<char,std::char_traits<char>,std::allocator<char> >,std::allocator<std::basic_string<char,std::char_traits<char>,std::allocator<char> > > >
PUBLIC	?_Tidy@?$vector@V?$basic_string@DU?$char_traits@D@std@@V?$allocator@D@2@@std@@V?$allocator@V?$basic_string@DU?$char_traits@D@std@@V?$allocator@D@2@@std@@@2@@std@@IAEXXZ ; std::vector<std::basic_string<char,std::char_traits<char>,std::allocator<char> >,std::allocator<std::basic_string<char,std::char_traits<char>,std::allocator<char> > > >::_Tidy
PUBLIC	??1?$vector@V?$basic_string@DU?$char_traits@D@std@@V?$allocator@D@2@@std@@V?$allocator@V?$basic_string@DU?$char_traits@D@std@@V?$allocator@D@2@@std@@@2@@std@@QAE@XZ ; std::vector<std::basic_string<char,std::char_traits<char>,std::allocator<char> >,std::allocator<std::basic_string<char,std::char_traits<char>,std::allocator<char> > > >::~vector<std::basic_string<char,std::char_traits<char>,std::allocator<char> >,std::allocator<std::basic_string<char,std::char_traits<char>,std::allocator<char> > > >
PUBLIC	??1MonitorIPs@@QAE@XZ				; MonitorIPs::~MonitorIPs
PUBLIC	?IsChanged@MonitorIPs@@QAE_NXZ			; MonitorIPs::IsChanged
PUBLIC	?size@?$vector@PAXV?$allocator@PAX@std@@@std@@QBEIXZ ; std::vector<void *,std::allocator<void *> >::size
PUBLIC	??0out_of_range@std@@QAE@ABV?$basic_string@DU?$char_traits@D@std@@V?$allocator@D@2@@1@@Z ; std::out_of_range::out_of_range
PUBLIC	??1out_of_range@std@@UAE@XZ			; std::out_of_range::~out_of_range
PUBLIC	??_Gout_of_range@std@@UAEPAXI@Z			; std::out_of_range::`scalar deleting destructor'
PUBLIC	??0out_of_range@std@@QAE@ABV01@@Z		; std::out_of_range::out_of_range
PUBLIC	?_Xran@?$vector@PAXV?$allocator@PAX@std@@@std@@KAXXZ ; std::vector<void *,std::allocator<void *> >::_Xran
PUBLIC	??D?$_Vector_const_iterator@PAXV?$allocator@PAX@std@@@std@@QBEABQAXXZ ; std::_Vector_const_iterator<void *,std::allocator<void *> >::operator*
PUBLIC	??D?$_Vector_iterator@PAXV?$allocator@PAX@std@@@std@@QBEAAPAXXZ ; std::_Vector_iterator<void *,std::allocator<void *> >::operator*
PUBLIC	??Y?$_Vector_const_iterator@PAXV?$allocator@PAX@std@@@std@@QAEAAV01@H@Z ; std::_Vector_const_iterator<void *,std::allocator<void *> >::operator+=
PUBLIC	??Y?$_Vector_iterator@PAXV?$allocator@PAX@std@@@std@@QAEAAV01@H@Z ; std::_Vector_iterator<void *,std::allocator<void *> >::operator+=
PUBLIC	??H?$_Vector_iterator@PAXV?$allocator@PAX@std@@@std@@QBE?AV01@H@Z ; std::_Vector_iterator<void *,std::allocator<void *> >::operator+
PUBLIC	?at@?$vector@PAXV?$allocator@PAX@std@@@std@@QAEAAPAXI@Z ; std::vector<void *,std::allocator<void *> >::at
PUBLIC	?begin@?$vector@PAXV?$allocator@PAX@std@@@std@@QAE?AV?$_Vector_iterator@PAXV?$allocator@PAX@std@@@2@XZ ; std::vector<void *,std::allocator<void *> >::begin
PUBLIC	?end@?$vector@PAXV?$allocator@PAX@std@@@std@@QAE?AV?$_Vector_iterator@PAXV?$allocator@PAX@std@@@2@XZ ; std::vector<void *,std::allocator<void *> >::end
PUBLIC	??0?$_Iterator_with_base@Urandom_access_iterator_tag@std@@PAXHPBQAXABQAXV_Iterator_base_aux@2@@std@@QAE@XZ ; std::_Iterator_with_base<std::random_access_iterator_tag,void *,int,void * const *,void * const &,std::_Iterator_base_aux>::_Iterator_with_base<std::random_access_iterator_tag,void *,int,void * const *,void * const &,std::_Iterator_base_aux>
PUBLIC	??0?$_Ranit@PAXHPBQAXABQAX@std@@QAE@XZ		; std::_Ranit<void *,int,void * const *,void * const &>::_Ranit<void *,int,void * const *,void * const &>
PUBLIC	??0?$_Vector_const_iterator@PAXV?$allocator@PAX@std@@@std@@QAE@PAPAXPBV_Container_base_aux@1@@Z ; std::_Vector_const_iterator<void *,std::allocator<void *> >::_Vector_const_iterator<void *,std::allocator<void *> >
PUBLIC	??0?$_Vector_iterator@PAXV?$allocator@PAX@std@@@std@@QAE@PAPAXPBV_Container_base_aux@1@@Z ; std::_Vector_iterator<void *,std::allocator<void *> >::_Vector_iterator<void *,std::allocator<void *> >
PUBLIC	?_Make_iter@?$vector@PAXV?$allocator@PAX@std@@@std@@QBE?AV?$_Vector_iterator@PAXV?$allocator@PAX@std@@@2@V?$_Vector_const_iterator@PAXV?$allocator@PAX@std@@@2@@Z ; std::vector<void *,std::allocator<void *> >::_Make_iter
PUBLIC	??8?$_Vector_const_iterator@PAXV?$allocator@PAX@std@@@std@@QBE_NABV01@@Z ; std::_Vector_const_iterator<void *,std::allocator<void *> >::operator==
PUBLIC	??9?$_Vector_const_iterator@PAXV?$allocator@PAX@std@@@std@@QBE_NABV01@@Z ; std::_Vector_const_iterator<void *,std::allocator<void *> >::operator!=
PUBLIC	??$_Checked_base@PAPAX@std@@YAPAPAXAAPAPAXU_Unchanged_checked_iterator_base_type_tag@0@@Z ; std::_Checked_base<void * *>
PUBLIC	??$_Checked_base@PAPAX@std@@YAPAPAXAAPAPAX@Z	; std::_Checked_base<void * *>
PUBLIC	??$_Iter_random@PAPAXPAPAX@std@@YA?AUrandom_access_iterator_tag@0@ABQAPAX0@Z ; std::_Iter_random<void * *,void * *>
PUBLIC	??$_Copy_opt@PAPAXPAPAXUrandom_access_iterator_tag@std@@@std@@YAPAPAXPAPAX00Urandom_access_iterator_tag@0@U_Scalar_ptr_iterator_tag@0@U_Range_checked_iterator_tag@0@@Z ; std::_Copy_opt<void * *,void * *,std::random_access_iterator_tag>
PUBLIC	??$unchecked_copy@PAPAXPAPAX@stdext@@YAPAPAXPAPAX00@Z ; stdext::unchecked_copy<void * *,void * *>
PUBLIC	?erase@?$vector@PAXV?$allocator@PAX@std@@@std@@QAE?AV?$_Vector_iterator@PAXV?$allocator@PAX@std@@@2@V?$_Vector_const_iterator@PAXV?$allocator@PAX@std@@@2@0@Z ; std::vector<void *,std::allocator<void *> >::erase
PUBLIC	?clear@?$vector@PAXV?$allocator@PAX@std@@@std@@QAEXXZ ; std::vector<void *,std::allocator<void *> >::clear
PUBLIC	??0?$allocator@PAX@std@@QAE@XZ			; std::allocator<void *>::allocator<void *>
PUBLIC	??0_Aux_cont@std@@QAE@QBV_Container_base_aux@1@@Z ; std::_Aux_cont::_Aux_cont
PUBLIC	??0_Container_base_aux@std@@QAE@XZ		; std::_Container_base_aux::_Container_base_aux
PUBLIC	??$_Allocate@V_Aux_cont@std@@@std@@YAPAV_Aux_cont@0@IPAV10@@Z ; std::_Allocate<std::_Aux_cont>
PUBLIC	?allocate@?$allocator@V_Aux_cont@std@@@std@@QAEPAV_Aux_cont@2@I@Z ; std::allocator<std::_Aux_cont>::allocate
PUBLIC	??$?0PAX@?$allocator@V_Aux_cont@std@@@std@@QAE@ABV?$allocator@PAX@1@@Z ; std::allocator<std::_Aux_cont>::allocator<std::_Aux_cont><void *>
PUBLIC	??0?$_Container_base_aux_alloc_real@V?$allocator@PAX@std@@@std@@IAE@V?$allocator@PAX@1@@Z ; std::_Container_base_aux_alloc_real<std::allocator<void *> >::_Container_base_aux_alloc_real<std::allocator<void *> >
PUBLIC	??0?$allocator@PAX@std@@QAE@ABV01@@Z		; std::allocator<void *>::allocator<void *>
PUBLIC	??0?$_Vector_val@PAXV?$allocator@PAX@std@@@std@@IAE@V?$allocator@PAX@1@@Z ; std::_Vector_val<void *,std::allocator<void *> >::_Vector_val<void *,std::allocator<void *> >
PUBLIC	??$_Allocate@PAX@std@@YAPAPAXIPAPAX@Z		; std::_Allocate<void *>
PUBLIC	?allocate@?$allocator@PAX@std@@QAEPAPAXI@Z	; std::allocator<void *>::allocate
PUBLIC	?max_size@?$allocator@PAX@std@@QBEIXZ		; std::allocator<void *>::max_size
PUBLIC	?max_size@?$vector@PAXV?$allocator@PAX@std@@@std@@QBEIXZ ; std::vector<void *,std::allocator<void *> >::max_size
PUBLIC	?_Xlen@?$vector@PAXV?$allocator@PAX@std@@@std@@KAXXZ ; std::vector<void *,std::allocator<void *> >::_Xlen
PUBLIC	?_Buy@?$vector@PAXV?$allocator@PAX@std@@@std@@IAE_NI@Z ; std::vector<void *,std::allocator<void *> >::_Buy
PUBLIC	??0?$vector@PAXV?$allocator@PAX@std@@@std@@QAE@XZ ; std::vector<void *,std::allocator<void *> >::vector<void *,std::allocator<void *> >
PUBLIC	??1_Container_base_aux@std@@QAE@XZ		; std::_Container_base_aux::~_Container_base_aux
PUBLIC	?deallocate@?$allocator@V_Aux_cont@std@@@std@@QAEXPAV_Aux_cont@2@I@Z ; std::allocator<std::_Aux_cont>::deallocate
PUBLIC	??1?$_Container_base_aux_alloc_real@V?$allocator@PAX@std@@@std@@IAE@XZ ; std::_Container_base_aux_alloc_real<std::allocator<void *> >::~_Container_base_aux_alloc_real<std::allocator<void *> >
PUBLIC	??1?$_Vector_val@PAXV?$allocator@PAX@std@@@std@@QAE@XZ ; std::_Vector_val<void *,std::allocator<void *> >::~_Vector_val<void *,std::allocator<void *> >
PUBLIC	?deallocate@?$allocator@PAX@std@@QAEXPAPAXI@Z	; std::allocator<void *>::deallocate
PUBLIC	??$_Ptr_cat@PAPAXPAPAX@std@@YA?AU_Scalar_ptr_iterator_tag@0@AAPAPAX0@Z ; std::_Ptr_cat<void * *,void * *>
PUBLIC	??$_Destroy_range@V?$allocator@PAX@std@@@std@@YAXPAPAX0AAV?$allocator@PAX@0@U_Scalar_ptr_iterator_tag@0@@Z ; std::_Destroy_range<std::allocator<void *> >
PUBLIC	??$_Destroy_range@V?$allocator@PAX@std@@@std@@YAXPAPAX0AAV?$allocator@PAX@0@@Z ; std::_Destroy_range<std::allocator<void *> >
PUBLIC	?_Destroy@?$vector@PAXV?$allocator@PAX@std@@@std@@IAEXPAPAX0@Z ; std::vector<void *,std::allocator<void *> >::_Destroy
PUBLIC	?_Tidy@?$vector@PAXV?$allocator@PAX@std@@@std@@IAEXXZ ; std::vector<void *,std::allocator<void *> >::_Tidy
PUBLIC	??1?$vector@PAXV?$allocator@PAX@std@@@std@@QAE@XZ ; std::vector<void *,std::allocator<void *> >::~vector<void *,std::allocator<void *> >
PUBLIC	??_R0?AVout_of_range@std@@@8			; std::out_of_range `RTTI Type Descriptor'
PUBLIC	__CT??_R0?AVout_of_range@std@@@8??0out_of_range@std@@QAE@ABV01@@Z40
PUBLIC	__CTA3?AVout_of_range@std@@
PUBLIC	__TI3?AVout_of_range@std@@
PUBLIC	??_C@_09BAECPDM@?$DO?$DO?5MonIPs?$AA@		; `string'
PUBLIC	??_C@_09CLAHNHIH@?$DM?$DM?5MonIPs?$AA@		; `string'
PUBLIC	?gbTerminate@@3HA				; gbTerminate
PUBLIC	?gbShutdown@@3HA				; gbShutdown
PUBLIC	?ghWnd@@3PAUHWND__@@A				; ghWnd
PUBLIC	?ghInstance@@3PAUHINSTANCE__@@A			; ghInstance
PUBLIC	?gbForceChecking@@3HA				; gbForceChecking
PUBLIC	?gszLogFilePrefix@@3PADA			; gszLogFilePrefix
PUBLIC	?gTickStart@@3_KA				; gTickStart
PUBLIC	??_C@_02BBAHNLBA@?$CFp?$AA@			; `string'
PUBLIC	??_C@_0BA@GBPLBEEL@SysStatus_Trace?$AA@		; `string'
PUBLIC	??_C@_03LBAKCJJ@dbg?$AA@			; `string'
PUBLIC	??_C@_03GLILPAEP@wnd?$AA@			; `string'
PUBLIC	??_C@_03NMGDDAFL@wmi?$AA@			; `string'
PUBLIC	??_C@_0CP@CLGPPHLF@?$CF?44d?9?$CF?42d?9?$CF?42d?5?$CF?42d?3?$CF?42d?3?$CF?42d?4?$CF?4@ ; `string'
PUBLIC	??_C@_05NNFHCGPF@?$CFs?4?$CFs?$AA@		; `string'
PUBLIC	??_C@_09BJLKJKJF@?$CFs?4?$CFs_old?$AA@		; `string'
PUBLIC	??_C@_0O@FHDHJHFN@SysStatus_Log?$AA@		; `string'
PUBLIC	??_C@_0EF@BJCOJGPD@?$AN?6?$CF?44d?9?$CF?42d?9?$CF?42d?5?$CF?42d?3?$CF?42d?3?$CF?42d?4@ ; `string'
PUBLIC	??_C@_05OLKONLEL@?7?$CFs?$AN?6?$AA@		; `string'
PUBLIC	??_C@_06BEJGOBHG@?$CFs?4log?$AA@		; `string'
PUBLIC	??_C@_0BG@EELIKDKI@TID?5?$CF?45u?5ID?5?$CF?45u?5?$CFs?$AN?6?$AA@ ; `string'
PUBLIC	??_C@_0BE@GIEOINGB@?$DO?$DO?5ChkLogFileSz?0?5?$CFu?$AA@ ; `string'
PUBLIC	??_C@_0BJ@LGJHGBPF@?9?9?5ChkLogFileSz?0?5Opng?5?$CFs?$AA@ ; `string'
PUBLIC	??_C@_0BK@HOHICOFN@?9?9?5ChkLogFileSz?0?5?$CFs?5Sz?5?$CFu?$AA@ ; `string'
PUBLIC	??_C@_07KFBNGPEH@?$CFs?4?$CF?43d?$AA@		; `string'
PUBLIC	??_C@_0CA@MGCLJDML@?9?9?5ChkLogFileSz?0?5Trying?5opng?5?$CFs?$AA@ ; `string'
PUBLIC	??_C@_0CD@DNFINAJK@?9?9?5ChkLogFileSz?0?5Last?5file?5fnd?3?5@ ; `string'
PUBLIC	??_C@_0CL@JDMPMEKE@?9?9?5ChkLogFileSz?0?5Removing?5?$CFs?5?9?5o@ ; `string'
PUBLIC	??_C@_0CD@KIGAJNDH@?9?9?5ChkLogFileSz?0?5Renaming?5?$CFs?5?9?$DO?5@ ; `string'
PUBLIC	??_C@_06HFHPDHC@?$CFs?4000?$AA@			; `string'
PUBLIC	??_C@_0CD@PNMJAMBO@?9?9?5ChkLogFileSz?0?5Remaning?5?$CFs?5?9?$DO?5@ ; `string'
PUBLIC	??_C@_0BA@GCOGCGED@?$DM?$DM?5ChkLogFileSz?$AA@	; `string'
PUBLIC	??_C@_0L@MNPEAJCA@netmsg?4dll?$AA@		; `string'
PUBLIC	??_C@_0BM@GCCDOOIB@?$CFs?5?$FLVID?3?$CFs?5PID?3?$CFs?5SN?3?$CFs?$FN?5?$CFs?$AA@ ; `string'
PUBLIC	??_C@_0BE@ENHKCHAG@New?5DeviceName?5null?$AA@	; `string'
PUBLIC	??_C@_04CFJMJGDJ@?$CF?42X?$AA@			; `string'
PUBLIC	??_C@_09KECABMHK@SysStatus?$AA@			; `string'
PUBLIC	??_C@_0CF@MLLEOGPJ@?$CFs_?$CF?44d?9?$CF?42d?9?$CF?42d_?$CF?42d?9?$CF?42d?9?$CF?42d@ ; `string'
PUBLIC	??_C@_0DE@KOKEPHBJ@CreateMiniDump?0?5Created?5MiniDump@ ; `string'
PUBLIC	??_C@_0ED@NLNOIJDN@CreateMiniDump?0?5Failed?5to?5create@ ; `string'
PUBLIC	??_C@_0GA@GFOAHNCA@AppUnhndldExcptFltr?0?5Attempt?5to?5@ ; `string'
PUBLIC	??_C@_0BJ@PPCHIOMP@?$CFs?0?5?$CF02d?3?$CF02d?3?$CF02d?0?5?$CFf?5s?$AA@ ; `string'
PUBLIC	??_C@_0BF@MMBEHPNG@?$CF02d?3?$CF02d?3?$CF02d?0?5?$CFf?5s?$AA@ ; `string'
PUBLIC	??_C@_0DA@DAMKDCLP@?9?9?5SetThrdName?0?5Tp?5?$CFp?0?5Name?5?$CFs?0?5@ ; `string'
PUBLIC	??_C@_0DN@OLKMHNED@?$DO?$DO?5StartThrd?0?5Name?5?$CFs?0?5Func?5?$CFp?0?5@ ; `string'
PUBLIC	??_C@_0BP@FDECIAPH@?9?9?5StartThrd?0?5?$CFs?5Id?5?$CFu?0?5Hnd?5?$CFp?$AA@ ; `string'
PUBLIC	??_C@_0CB@LFOPNEOO@?9?9?5StartThrd?0?5No?5?$CFs?5thrd?5created@ ; `string'
PUBLIC	??_C@_0BB@POKBMEDO@?$DM?$DM?5StartThrd?0?5?$CFp?$AA@ ; `string'
PUBLIC	??_C@_0BH@BDJONOMH@?$DM?$DM?5StartThrd?0?5ret?5True?$AA@ ; `string'
PUBLIC	??_C@_0BI@EBHNNPDK@?$DM?$DM?5StartThrd?0?5ret?5False?$AA@ ; `string'
PUBLIC	??_C@_0BJ@JJOKMIHG@?$DO?$DO?5EndPendgThrd?0?5Hndl?5?$CFp?$AA@ ; `string'
PUBLIC	??_C@_0BI@LKAHEPCO@?$DO?$DO?5RlsThrdStck?0?5Hndl?5?$CFp?$AA@ ; `string'
PUBLIC	??_C@_1BE@GJOFHIHD@?$AAn?$AAt?$AAd?$AAl?$AAl?$AA?4?$AAd?$AAl?$AAl?$AA?$AA@ ; `string'
PUBLIC	??_C@_0BH@FCCILLCE@RtlFreeUserThreadStack?$AA@	; `string'
PUBLIC	??_C@_0BA@OFOICJDM@?$DM?$DM?5EndPendgThrd?$AA@	; `string'
PUBLIC	??_C@_0GB@KBNPPDGJ@WndProcMsg?0?5Wnd?5?$CFp?0?5Msg?50x?$CF?44X?0?5@ ; `string'
PUBLIC	??_C@_0BK@GJJBBOEE@Session?5Closure?5Requested?$AA@ ; `string'
PUBLIC	??_C@_0M@LLINGCEN@End?5Session?$AA@		; `string'
PUBLIC	??_C@_0CF@OJAKBKAK@User?5Defined?5?$CFs?0?5Size?5?$CFu?0?5DevTyp@ ; `string'
PUBLIC	??_C@_07NHAMMCDJ@Arrived?$AA@			; `string'
PUBLIC	??_C@_07PKIBBDFP@Removed?$AA@			; `string'
PUBLIC	??_C@_0BP@PNOLPDFB@Device?5?$CFs?0?5Size?5?$CFu?0?5DevType?5?$CFu?$AA@ ; `string'
PUBLIC	??_C@_0BM@HKOFJDPP@Usb?5CHANGE?5Dev?5?$DM?$CFs?5GUID?5?$CFs?$DO?$AA@ ; `string'
PUBLIC	??_C@_0M@FPDKOEDO@USB?5ARRIVAL?$AA@		; `string'
PUBLIC	??_C@_0M@ENJCMGFB@USB?5?5REMOVE?$AA@		; `string'
PUBLIC	??_C@_0CG@OJJDNJOH@Volume?5CHANGE?5?$DMFlags?5?$CFp?0?5UnitMas@ ; `string'
PUBLIC	??_C@_0CA@FNGBCCOE@Oem?5CHANGE?5?$DMId?5?$CFp?0?5SuppFunc?5?$CFp?$DO?$AA@ ; `string'
PUBLIC	??_C@_0BE@FJDGCJID@DevNode?5CHANGE?5?$DM?$CFp?$DO?$AA@ ; `string'
PUBLIC	??_C@_0BB@LPBNHOKC@Port?5CHANGE?5?$DM?$CFs?$DO?$AA@ ; `string'
PUBLIC	??_C@_0CD@BNLENJBO@Net?5CHANGE?5?$DMResource?5?$CFp?0?5Flags?5?$CF@ ; `string'
PUBLIC	??_C@_0EN@GBOFOCLM@Handle?5CHANGE?5?$DMHandle?5?$CFp?0?5NameOf@ ; `string'
PUBLIC	??_C@_0CK@KDAHPGC@Would?5you?5like?5to?5close?5this?5app@ ; `string'
PUBLIC	??_C@_0P@BIPEBJDO@Exit?5Requested?$AA@		; `string'
PUBLIC	??_C@_0DC@MBHJGPCP@Would?5you?5like?5to?5quickly?5close?5@ ; `string'
PUBLIC	??_C@_0BF@CDGGKCEM@Quick?5Exit?5Requested?$AA@	; `string'
PUBLIC	??_C@_0L@EMLHDHFB@?$DO?$DO?5ThrdMsg?$AA@	; `string'
PUBLIC	??_C@_0BA@JDKJFHEL@SysStatusWClass?$AA@		; `string'
PUBLIC	??_C@_0BK@MOCDLCEG@?$DM?$DM?5ThrdMsg?0?5RegCls?5?$CFu?0?5?$CFs?$AA@ ; `string'
PUBLIC	??_C@_0BN@CBADGOHO@?$DM?$DM?5ThrdMsg?0?5CreateWnd?5?$CFu?0?5?$CFs?$AA@ ; `string'
PUBLIC	??_C@_0L@BACOFOKN@?$DM?$DM?5ThrdMsg?$AA@	; `string'
PUBLIC	??_C@_0L@JKENOCG@?$DO?$DO?5ThrdUSB?$AA@		; `string'
PUBLIC	??_C@_0BP@GBFCDAOJ@?$DM?$DM?5ThrdUSB?0?5New?5USB?5class?5null?$AA@ ; `string'
PUBLIC	??_C@_0L@FFDNLHNK@?$DM?$DM?5ThrdUSB?$AA@	; `string'
PUBLIC	??_C@_0M@DOPFDNB@?$DO?$DO?5ProcInfo?$AA@	; `string'
PUBLIC	??_C@_0CO@LMCBGMGC@Processes?5Informaton?0?5Number?5of?5@ ; `string'
PUBLIC	??_C@_0OJ@BFFOFANH@?$DO?5?5?5?5?5?5Process?5Name?0?5ProcessID?0?5@ ; `string'
PUBLIC	??_C@_09EEKGDCPH@?$DMunknown?$DO?$AA@		; `string'
PUBLIC	??_C@_0EH@FOMPOKBN@?$DO?5?$CF?43d?0?5?$CFs?0?5?$CFu?0?5?$CFu?0?5?$CFu?0?5?$CFu?0?5?$CF02d@ ; `string'
PUBLIC	??_C@_0DO@MLNPPNEI@?$DO?5?$CF?43d?0?5?$DMunknown?$DO?0?5?$CFu?0?5?$DP?0?5?$DP?0?5?$DP?0?5@ ; `string'
PUBLIC	??_C@_0CK@JDCGCMFK@ProcessInfo?0?5EnumProcesses?5faile@ ; `string'
PUBLIC	??_C@_0M@LHLIHEIP@?$DM?$DM?5ProcInfo?$AA@	; `string'
PUBLIC	??_C@_0N@LBFHMDOO@?$DO?$DO?5HwProfile?$AA@	; `string'
PUBLIC	??_C@_0DA@OIKPBLGF@Hardware?5Profile?0?5DockInfo?5?$CFp?0?5G@ ; `string'
PUBLIC	??_C@_0CG@MGHJNPJJ@HwProfile?0?5GetCurrentHwProfile?5?$CF@ ; `string'
PUBLIC	??_C@_0N@DNDAOIDK@?$DM?$DM?5HwProfile?$AA@	; `string'
PUBLIC	??_C@_0BK@DFNBACLA@GetCurrentProcessorNumber?$AA@ ; `string'
PUBLIC	??_C@_08PNLNEKOB@kernel32?$AA@			; `string'
PUBLIC	??_C@_0EH@HJFNKFOJ@?9?9?5CurrentProcessorNumber?0?5GetCu@ ; `string'
PUBLIC	??_C@_0L@BFGFHKGB@?$DO?$DO?5SysInfo?$AA@	; `string'
PUBLIC	??_C@_0BD@EBOFFHEB@x64?5?$CIAMD?5or?5Intel?$CJ?$AA@ ; `string'
PUBLIC	??_C@_0BE@BAGOKCHN@Intel?5Itanium?9based?$AA@	; `string'
PUBLIC	??_C@_03NDFEINMN@x86?$AA@			; `string'
PUBLIC	??_C@_07NBCGADJA@Unknown?$AA@			; `string'
PUBLIC	??_C@_0FN@KGKHOIOF@Computer?3?5?$CFs?0?5Processor?$CIs?$CJ?5?$CFu?5?$CFf@ ; `string'
PUBLIC	??_C@_0L@EJPMBDJN@?$DM?$DM?5SysInfo?$AA@	; `string'
PUBLIC	??_C@_09GNLGFJCP@?$DO?$DO?5OSInfo?$AA@		; `string'
PUBLIC	??_C@_0BC@LGEIIGCP@Domain?5Controller?$AA@	; `string'
PUBLIC	??_C@_06LGMEBDBC@Server?$AA@			; `string'
PUBLIC	??_C@_0M@CILGCIDH@Workstation?$AA@		; `string'
PUBLIC	??_C@_0EG@OPOFGEHK@OSInfo?0?5Version?5?$CFu?4?$CFu?4?$CFu?0?5Platfo@ ; `string'
PUBLIC	??_C@_09EHLFKBJE@?$DM?$DM?5OSInfo?$AA@		; `string'
PUBLIC	??_C@_09CJJPFOJ@?$DO?$DO?5SysMem?$AA@		; `string'
PUBLIC	??_C@_0O@OAHOAHIO@System?5Memory?$AA@		; `string'
PUBLIC	??_C@_0BB@DIEGGMCF@Usage?3?5?$CFu?$CF?$CF?5used?$AA@ ; `string'
PUBLIC	??_C@_0CC@JHNBDNDC@Physical?3?5?$CFu?5MB?5used?0?5?$CFu?5MB?5avai@ ; `string'
PUBLIC	??_C@_0CC@PBKOHCPF@Pagefile?3?5?$CFu?5MB?5used?0?5?$CFu?5MB?5avai@ ; `string'
PUBLIC	??_C@_0DB@BKHHAKDB@Virtual?3?5?$CFu?5MB?5used?0?5?$CFu?5MB?5avail@ ; `string'
PUBLIC	??_C@_09CIJKANFC@?$DM?$DM?5SysMem?$AA@		; `string'
PUBLIC	??_C@_0M@OJEMNBAD@?$DO?$DO?5SysTimes?$AA@	; `string'
PUBLIC	??_C@_0N@HHJCFDFH@System?5Times?$AA@		; `string'
PUBLIC	??_C@_0CE@PJKLEAEE@Kernel?5time?3?5?$CF02d?3?$CF02d?3?$CF02d?5?$CI?$CFu?5@ ; `string'
PUBLIC	??_C@_0CC@JKEHGGOG@User?5time?3?5?$CF02d?3?$CF02d?3?$CF02d?5?$CI?$CFu?5s?$CJ@ ; `string'
PUBLIC	??_C@_0BN@JFNEHINJ@Idle?3?5?$CF02d?3?$CF02d?3?$CF02d?5?$CI?$CFu?5s?$CJ?4?$AA@ ; `string'
PUBLIC	??_C@_0DP@OCMJGDEB@Processor?3?5?$CFI64u?5counts?0?5?$CFI64u?5c@ ; `string'
PUBLIC	??_C@_0M@FNBLPGFN@?$DM?$DM?5SysTimes?$AA@	; `string'
PUBLIC	??_C@_09MOKIPJGJ@NoRootDir?$AA@			; `string'
PUBLIC	??_C@_05OCBIINAK@Fixed?$AA@			; `string'
PUBLIC	??_C@_06MHHFENDB@Remote?$AA@			; `string'
PUBLIC	??_C@_05JIFOIGMJ@CDRom?$AA@			; `string'
PUBLIC	??_C@_07CPJGKNJN@RamDisk?$AA@			; `string'
PUBLIC	??_C@_0L@DELJGCCE@?$DO?$DO?5LogDrvs?$AA@	; `string'
PUBLIC	??_C@_0BM@FAMDJNNB@Logical?5Drivers?5?$CFu?5?$CI0x?$CF?48X?$CJ?$AA@ ; `string'
PUBLIC	??_C@_0BJ@BENIJAPK@?$DO?$DO?5?$CF?43d?0?5?$CFs?3?5Type?5?$CFs?$CI?$CFu?$CJ?$AA@ ; `string'
PUBLIC	??_C@_0GE@FHMIJHPP@?5?5?5VolumeInfo?0?5Name?5?$CFs?0?5SerialNu@ ; `string'
PUBLIC	??_C@_0GJ@NOKMBBI@?5?5?5FreeSpace?0?5SectorsPerCluster?5@ ; `string'
PUBLIC	??_C@_0L@GICAALNI@?$DM?$DM?5LogDrvs?$AA@	; `string'
PUBLIC	??_C@_0L@INHKNAJI@?$DO?$DO?5SysDirs?$AA@	; `string'
PUBLIC	??_C@_0BD@OAHOLNHD@System?5Directories?$AA@	; `string'
PUBLIC	??_C@_09LGICPEGI@SysDir?5?$CFs?$AA@		; `string'
PUBLIC	??_C@_0M@JFNOOIEA@TempPath?5?$CFs?$AA@		; `string'
PUBLIC	??_C@_09PEBHDCJJ@WinDir?5?$CFs?$AA@		; `string'
PUBLIC	??_C@_0N@JJNMAABC@WinSysDir?5?$CFs?$AA@		; `string'
PUBLIC	??_C@_0L@NBODLJGE@?$DM?$DM?5SysDirs?$AA@	; `string'
PUBLIC	??_C@_0BC@MLMEFHGM@?$DO?$DO?5SysLogProcInfo?$AA@ ; `string'
PUBLIC	??_C@_0BP@KHGALBC@GetLogicalProcessorInformation?$AA@ ; `string'
PUBLIC	??_C@_0DO@CNICBAHJ@?$DM?$DM?5SysLogProcInfo?0?5Out?0?5Unsupp?5G@ ; `string'
PUBLIC	??_C@_0CG@LHEIAGGO@?9?9?5SysLogProcInfo?0?5Allocation?5fa@ ; `string'
PUBLIC	??_C@_0CF@KLILJGPG@?9?9?5SysLogProcInfo?0?5GLPI?5Error?5?$CFu@ ; `string'
PUBLIC	??_C@_0EC@BGADHKMF@?9?9?5SysLogProcInfo?0?5Unsupp?5LOGICA@ ; `string'
PUBLIC	??_C@_0CB@ECHENMHH@Logical?5Processor?$CIs?$CJ?5Information@ ; `string'
PUBLIC	??_C@_0BJ@CBGNJNLO@Number?5of?5NUMA?5nodes?3?5?$CFd?$AA@ ; `string'
PUBLIC	??_C@_0CK@CIFFOGGE@Number?5of?5physical?5processor?5pac@ ; `string'
PUBLIC	??_C@_0BO@JLJNFPPO@Number?5of?5processor?5cores?3?5?$CFd?$AA@ ; `string'
PUBLIC	??_C@_0CB@NEBFNBCF@Number?5of?5logical?5processors?3?5?$CFd@ ; `string'
PUBLIC	??_C@_0CO@JLHKKOJE@Number?5of?5processor?5L1?1L2?1L3?5cac@ ; `string'
PUBLIC	??_C@_0BC@BKCMKMCI@?$DM?$DM?5SysLogProcInfo?$AA@ ; `string'
PUBLIC	??_C@_0L@ILKGPHOB@?$DO?$DO?5DevDrvs?$AA@	; `string'
PUBLIC	??_C@_0BO@PHKHDLGJ@Device?5Drivers?0?5Number?5of?3?5?$CFd?$AA@ ; `string'
PUBLIC	??_C@_0P@OBFOPNMD@?$DO?5?$CF?43d?0?5?$CFs?0?5?$CFs?$AA@ ; `string'
PUBLIC	??_C@_0EB@GKALJOAD@DevDrvs?0?5EnumDeviceDrivers?5faile@ ; `string'
PUBLIC	??_C@_0L@NHDPJOBN@?$DM?$DM?5DevDrvs?$AA@	; `string'
PUBLIC	??_C@_0M@CDFFAHFO@?$DO?$DO?5PerfInfo?$AA@	; `string'
PUBLIC	??_C@_0BI@ECNHKKAA@Performance?5Information?$AA@ ; `string'
PUBLIC	??_C@_0CE@ONMEHFLA@Commit?3?5Total?5?$CFu?0?5Limit?5?$CFu?0?5Peak@ ; `string'
PUBLIC	??_C@_0CB@KFDPCIGB@Physical?3?5Total?5?$CFu?0?5Available?5?$CFu@ ; `string'
PUBLIC	??_C@_0BA@DCNNFMJH@System?5Cache?5?$CFu?$AA@	; `string'
PUBLIC	??_C@_0CI@POMBEGEK@Kernel?3?5Total?5?$CFu?0?5Paged?5?$CFu?0?5Nonp@ ; `string'
PUBLIC	??_C@_0N@HEDGONEI@Page?5Size?5?$CFu?$AA@	; `string'
PUBLIC	??_C@_0CD@DBCKLHBG@Process?5?$CFu?0?5Handles?5?$CFu?0?5Threads?5@ ; `string'
PUBLIC	??_C@_0CL@PIJNDBHN@PerfInfo?0?5GetPerformanceInfo?5fai@ ; `string'
PUBLIC	??_C@_0M@JHACCAAA@?$DM?$DM?5PerfInfo?$AA@	; `string'
PUBLIC	?gpPrinterInfoList@@3PAU_printer_info_list_@@A	; gpPrinterInfoList
PUBLIC	??_C@_0P@CKNBFJNB@?$DO?$DO?5GetPtrsList?$AA@	; `string'
PUBLIC	??_C@_0BL@CMACENMK@?$DM?$DM?5GetPtrsList?0?5No?5Printer?$AA@ ; `string'
PUBLIC	??_C@_0CB@CEENFMON@?$DM?$DM?5GetPtrsList?0?5new?5PtrInfo?5null@ ; `string'
PUBLIC	??_C@_0CL@CMLCIBBP@?$DM?$DM?5GetPtrsList?0?5EnumPrinters?5Err@ ; `string'
PUBLIC	??_C@_0CF@POBEDBNN@?$DM?$DM?5GetPtrsList?0?5new?5PrtInfoList?5@ ; `string'
PUBLIC	??_C@_0BL@DODNOLI@Printers?5Information?5?$CI?$CFd?$CJ?3?$AA@ ; `string'
PUBLIC	??_C@_0FD@LPLLHANM@?$DO?5?5?5?5?5Printer?0?5Port?0?5Driver?0?5Pro@ ; `string'
PUBLIC	??_C@_0P@EABBNIJO@?$DMLocalPrinter?$DO?$AA@	; `string'
PUBLIC	??_C@_0DB@OBDCAEAF@?$DO?5?$CF?42d?3?5?2?2?$CFs?2?$CFs?0?5?5?$CFs?0?5?$CFs?0?5?$CFs?0?5?$CFu@ ; `string'
PUBLIC	??_C@_0P@GDDJCMON@?$DM?$DM?5GetPtrsList?$AA@	; `string'
PUBLIC	??_C@_0CA@MEDOMPCD@?$DO?$DO?5GetBinList?0?5Name?5?$CFs?0?5Port?5?$CFs?$AA@ ; `string'
PUBLIC	??_C@_0DP@ODPFIDLO@?$DM?$DM?5GetBinList?0?5DeviceCapabilitie@ ; `string'
PUBLIC	??_C@_0CJ@MFGEJMEH@?$DM?$DM?5GetBinList?0?5?$DM?$CFs?$DO?5new?5DC_BINS?5@ ; `string'
PUBLIC	??_C@_0DD@GBLOLICC@?$DM?$DM?5GetBinList?0?5?$DM?$CFs?$DO?5new?5PTRDATA_@ ; `string'
PUBLIC	??_C@_0DN@NNGIOEEB@?$DM?$DM?5GetBinList?0?5DeviceCapabilitie@ ; `string'
PUBLIC	??_C@_0CN@HGGHLGCE@?9?9?5GetBinList?0?5?$DM?$CFs?$DO?5new?5DC_BINNA@ ; `string'
PUBLIC	??_C@_0EB@NDHMGLE@?9?9?5GetBinList?0?5DeviceCapabilitie@ ; `string'
PUBLIC	??_C@_0BH@CEPOJCOE@?$DM?$DM?5GetBinList?0?5List?5?$CFp?$AA@ ; `string'
PUBLIC	??_C@_0CC@ONAFHJDF@?$DO?$DO?5GetPaperList?0?5Name?5?$CFs?0?5Port?5?$CF@ ; `string'
PUBLIC	??_C@_0ED@BJPJPBDI@?$DM?$DM?5GetPaperList?0?5DeviceCapabilit@ ; `string'
PUBLIC	??_C@_0CN@BIOGLDPF@?$DM?$DM?5GetPaperList?0?5?$DM?$CFs?$DO?5new?5DC_PAP@ ; `string'
PUBLIC	??_C@_0DF@MINJLAHF@?$DM?$DM?5GetPaperList?0?5?$DM?$CFs?$DO?5new?5PTRDAT@ ; `string'
PUBLIC	??_C@_0EB@CEGPPGMD@?$DM?$DM?5GetPaperList?0?5DeviceCapabilit@ ; `string'
PUBLIC	??_C@_0DA@NJCIHNJI@?9?9?5GetPaperList?0?5?$DM?$CFs?$DO?5new?5DC_PAP@ ; `string'
PUBLIC	??_C@_0EE@PHEGEMLJ@?9?9?5GetPaperList?0?5DeviceCapabilit@ ; `string'
PUBLIC	??_C@_0DB@DLBCIEDL@?9?9?5GetPaperList?0?5?$DM?$CFs?$DO?5new?5DC_PAP@ ; `string'
PUBLIC	??_C@_0EF@EEKEBLFH@?9?9?5GetPaperList?0?5DeviceCapabilit@ ; `string'
PUBLIC	??_C@_0BJ@HGBNGAMD@?$DM?$DM?5GetPaperList?0?5List?5?$CFp?$AA@ ; `string'
PUBLIC	??_C@_0CG@PBHDOEPC@?$DO?$DO?5GetMediaTypeList?0?5Name?5?$CFs?0?5Po@ ; `string'
PUBLIC	??_C@_0EL@HJFPMCKK@?$DM?$DM?5GetMediaTypeList?0?5DeviceCapab@ ; `string'
PUBLIC	??_C@_0DF@EKPICGIC@?9?9?5GetMediaTypeList?0?5?$DM?$CFs?$DO?5new?5DC@ ; `string'
PUBLIC	??_C@_0DJ@IAEPPFOH@?$DM?$DM?5GetMediaTypeList?0?5?$DM?$CFs?$DO?5new?5PT@ ; `string'
PUBLIC	??_C@_0EJ@PFOHCMBM@?$DM?$DM?5GetMediaTypeList?0?5DeviceCapab@ ; `string'
PUBLIC	??_C@_0DJ@CAKMLHPC@?9?9?5GetMediaTypeList?0?5?$DM?$CFs?$DO?5new?5DC@ ; `string'
PUBLIC	??_C@_0EN@LODPGLOM@?9?9?5GetMediaTypeList?0?5DeviceCapab@ ; `string'
PUBLIC	??_C@_0BN@IBLEBHCE@?$DM?$DM?5GetMediaTypeList?0?5List?5?$CFp?$AA@ ; `string'
PUBLIC	??_C@_0L@DBGBMPOH@?$DO?$DO?5PtrInfo?$AA@	; `string'
PUBLIC	??_C@_0BH@ENEDNFCI@?$DM?$DM?5PtrInfo?0?5No?5Printer?$AA@ ; `string'
PUBLIC	??_C@_0BN@HOILGMMA@?$DM?$DM?5PtrInfo?0?5PtrInfoList?5null?$AA@ ; `string'
PUBLIC	??_C@_0CG@GNJLFBNH@Info?5from?5?$CFs?0?5Port?5?$CFs?0?5Driver?5?$CFs@ ; `string'
PUBLIC	??_C@_0EH@EFLGGGFH@?9?9?5PtrInfo?0?5DeviceCapabilities?$CID@ ; `string'
PUBLIC	??_C@_0DB@OINKGGOI@?9?9?5PtrInfo?0?5?$DM?$CFs?$DO?5new?5DC_ENUMRESO@ ; `string'
PUBLIC	??_C@_0EF@GAIMDBJI@?9?9?5PtrInfo?0?5DeviceCapabilities?$CID@ ; `string'
PUBLIC	??_C@_0BJ@PLJPAGFI@DC_ENUMRESOLUTIONS?5?$CI?$CFd?$CJ?3?$AA@ ; `string'
PUBLIC	??_C@_0P@OBKMFCDP@?$DO?$CF?42d?3?5?$CFu?5x?5?$CFu?$AA@ ; `string'
PUBLIC	??_C@_0BL@IBIADDJ@DC_BINS?0?5DC_BINNAMES?5?$CI?$CFd?$CJ?3?$AA@ ; `string'
PUBLIC	??_C@_0O@KDMGFAIN@?$DO?$CF?42d?3?5?$CFu?0?5?$CFs?$AA@ ; `string'
PUBLIC	??_C@_0CP@BNOBPGPC@?9?9?5PtrInfo?0?5Catch?5unhndld?5excpet@ ; `string'
PUBLIC	??_C@_0CN@GKNAEPGN@DC_PAPERS?0?5DC_PAPERNAMES?0?5DC_PAP@ ; `string'
PUBLIC	??_C@_0BJ@ENBLCNAO@?$DO?$CF?42d?3?5?$CFu?0?5?$CFs?0?5?$CF?45d?5?$CF?45d?$AA@ ; `string'
PUBLIC	??_C@_0DB@CMDEFNNK@?9?9?5PtrInfo?0?5Catch?5unhndld?5excpet@ ; `string'
PUBLIC	??_C@_0BC@NAFPPPIH@DC_ORIENTATION?5?$CFd?$AA@	; `string'
PUBLIC	??_C@_0N@GOBEBGOJ@DC_COPIES?5?$CFd?$AA@		; `string'
PUBLIC	??_C@_0O@CECDKEDL@DC_COLLATE?5?$CFd?$AA@	; `string'
PUBLIC	??_C@_0BC@CPGDDBNJ@DC_COLORDEVICE?5?$CFd?$AA@	; `string'
PUBLIC	??_C@_0N@JAMONLMJ@DC_DUPLEX?5?$CFd?$AA@		; `string'
PUBLIC	??_C@_0N@BOEFEHCB@DC_DRIVER?5?$CFd?$AA@		; `string'
PUBLIC	??_C@_0O@BHGLDB@DC_VERSION?5?$CFd?$AA@		; `string'
PUBLIC	??_C@_0N@FMBEEHK@DC_FIELDS?5?$CFu?$AA@		; `string'
PUBLIC	??_C@_0CC@DHNLPIEG@DC_MAXEXTENT?3?5Lenght?5?$CFu?0?5Width?5?$CF@ ; `string'
PUBLIC	??_C@_0CC@BIAELLNL@DC_MINEXTENT?3?5Lenght?5?$CFu?0?5Width?5?$CF@ ; `string'
PUBLIC	??_C@_0L@ICJGKLML@DC_SIZE?5?$CFd?$AA@		; `string'
PUBLIC	??_C@_0N@ONNHJAOP@DC_STAPLE?5?$CFd?$AA@		; `string'
PUBLIC	??_C@_0P@MLIHNHLK@DC_TRUETYPE?5?$CFd?$AA@	; `string'
PUBLIC	??_C@_0DL@BCBOOPNM@?9?9?5PtrInfo?0?5DeviceCapabilities?$CID@ ; `string'
PUBLIC	??_C@_0CF@DGNIMKMD@?9?9?5PtrInfo?0?5?$DM?$CFs?$DO?5new?5DC_NUP?5mem?5@ ; `string'
PUBLIC	??_C@_0DJ@OGEOOIOH@?9?9?5PtrInfo?0?5DeviceCapabilities?$CID@ ; `string'
PUBLIC	??_C@_0N@EHIGBDLP@DC_NUP?5?$CI?$CFd?$CJ?3?$AA@	; `string'
PUBLIC	??_C@_09MFCBGNBM@?$DO?$CF?42d?3?5?$CFu?$AA@	; `string'
PUBLIC	??_C@_0EI@JLEFIGNJ@?9?9?5PtrInfo?0?5DeviceCapabilities?$CID@ ; `string'
PUBLIC	??_C@_0DC@MCOOCAIH@?9?9?5PtrInfo?0?5?$DM?$CFs?$DO?5new?5DC_FILEDEPE@ ; `string'
PUBLIC	??_C@_0EG@KMPBJHDP@?9?9?5PtrInfo?0?5DeviceCapabilities?$CID@ ; `string'
PUBLIC	??_C@_0BK@NAHDGPCH@DC_FILEDEPENDENCIES?5?$CI?$CFd?$CJ?3?$AA@ ; `string'
PUBLIC	??_C@_09JDHLMKJK@?$DO?$CF?42d?3?5?$CFs?$AA@	; `string'
PUBLIC	??_C@_0EC@NHFFPEJM@?9?9?5PtrInfo?0?5DeviceCapabilities?$CID@ ; `string'
PUBLIC	??_C@_0CM@KMOLCCC@?9?9?5PtrInfo?0?5?$DM?$CFs?$DO?5new?5DC_MEDIAREA@ ; `string'
PUBLIC	??_C@_0EA@BCFCBCDG@?9?9?5PtrInfo?0?5DeviceCapabilities?$CID@ ; `string'
PUBLIC	??_C@_0BE@JHLOAEJA@DC_MEDIAREADY?5?$CI?$CFd?$CJ?3?$AA@ ; `string'
PUBLIC	??_C@_0CH@OFCLBKDH@DC_MEDIATYPES?0?5DC_MEDIATYPENAMES@ ; `string'
PUBLIC	??_C@_0DF@CIBLFONP@?9?9?5PtrInfo?0?5Catch?5unhndld?5excpet@ ; `string'
PUBLIC	??_C@_0ED@IFJFLJEL@?9?9?5PtrInfo?0?5DeviceCapabilities?$CID@ ; `string'
PUBLIC	??_C@_0CN@FDCGHEM@?9?9?5PtrInfo?0?5?$DM?$CFs?$DO?5new?5DC_PERSONAL@ ; `string'
PUBLIC	??_C@_0EB@NKGMPEJL@?9?9?5PtrInfo?0?5DeviceCapabilities?$CID@ ; `string'
PUBLIC	??_C@_0BF@JJAELOOF@DC_PERSONALITY?5?$CI?$CFd?$CJ?3?$AA@ ; `string'
PUBLIC	??_C@_08JFBLCBEM@DEVMODE?3?$AA@			; `string'
PUBLIC	??_C@_0BA@KDNAKNNN@?$DO?5DeviceName?5?$CFs?$AA@	; `string'
PUBLIC	??_C@_0BB@GFIGJBOF@?$DO?5SpecVersion?5?$CFd?$AA@ ; `string'
PUBLIC	??_C@_0BD@FHCKIAEA@?$DO?5DriverVersion?5?$CFd?$AA@ ; `string'
PUBLIC	??_C@_09EJHHAJLO@?$DO?5Size?5?$CFd?$AA@		; `string'
PUBLIC	??_C@_0BB@NFLJLFB@?$DO?5DriverExtra?5?$CFd?$AA@	; `string'
PUBLIC	??_C@_0BG@JDMKIO@?$DO?5DriverFields?50x?$CF?48X?$AA@ ; `string'
PUBLIC	??_C@_0M@PJOJJBEC@?$DO?5Orient?5?$CFd?$AA@	; `string'
PUBLIC	??_C@_0P@MIJBPCPJ@?$DO?5PaperSize?5?$CFd?$AA@	; `string'
PUBLIC	??_C@_0BB@ECLINGE@?$DO?5PaperLenght?5?$CFd?$AA@	; `string'
PUBLIC	??_C@_0BA@EJLKBGAF@?$DO?5PaperWidth?5?$CFd?$AA@	; `string'
PUBLIC	??_C@_0L@CIICACOJ@?$DO?5Scale?5?$CFd?$AA@	; `string'
PUBLIC	??_C@_0M@MCOJLIEN@?$DO?5Copies?5?$CFd?$AA@	; `string'
PUBLIC	??_C@_0BD@PBLNKDE@?$DO?5DefaultSource?5?$CFd?$AA@ ; `string'
PUBLIC	??_C@_0BB@FEEDGEPE@?$DO?5PrintQulity?5?$CFd?$AA@ ; `string'
PUBLIC	??_C@_0L@OGGOANCL@?$DO?5Color?5?$CFd?$AA@	; `string'
PUBLIC	??_C@_0M@DMDDHFGN@?$DO?5Duplex?5?$CFd?$AA@	; `string'
PUBLIC	??_C@_0BB@ODANIHPJ@?$DO?5YResolution?5?$CFd?$AA@ ; `string'
PUBLIC	??_C@_0O@ODMOOLLN@?$DO?5TTOption?5?$CFd?$AA@	; `string'
PUBLIC	??_C@_0N@DEPFBBGA@?$DO?5Collate?5?$CFd?$AA@	; `string'
PUBLIC	??_C@_0O@NAFNONHG@?$DO?5FormName?5?$CFs?$AA@	; `string'
PUBLIC	??_C@_0P@HBAMONIO@?$DO?5LogPixels?5?$CFd?$AA@	; `string'
PUBLIC	??_C@_0BA@IJGBMLDF@?$DO?5BitsPerPel?5?$CFu?$AA@	; `string'
PUBLIC	??_C@_0P@GJDEABGN@?$DO?5PelsWidth?5?$CFu?$AA@	; `string'
PUBLIC	??_C@_0BA@FJKIIKDN@?$DO?5PelsHeight?5?$CFd?$AA@	; `string'
PUBLIC	??_C@_0P@BALKIIFI@?$DO?5ICMMethod?5?$CFu?$AA@	; `string'
PUBLIC	??_C@_0P@FBGPJDBI@?$DO?5ICMIntent?5?$CFu?$AA@	; `string'
PUBLIC	??_C@_0P@DGLLLDPA@?$DO?5MediaType?5?$CFu?$AA@	; `string'
PUBLIC	??_C@_0BA@IBDIEDAP@?$DO?5DitherType?5?$CFu?$AA@	; `string'
PUBLIC	??_C@_0P@ODIJDFHK@?$DO?5Reserved1?5?$CFu?$AA@	; `string'
PUBLIC	??_C@_0P@KECJEPKK@?$DO?5Reserved2?5?$CFu?$AA@	; `string'
PUBLIC	??_C@_0BC@ILEBHAGL@?$DO?5PanningWidth?5?$CFu?$AA@ ; `string'
PUBLIC	??_C@_0BD@ODPAHJGJ@?$DO?5PanningHeight?5?$CFu?$AA@ ; `string'
PUBLIC	??_C@_0CG@GNEJHKAM@?9?9?5PtrInfo?0?5OpenPrinter?5Err?5?$CFd?5M@ ; `string'
PUBLIC	??_C@_0M@CPAOAHIM@DeviceCaps?3?$AA@		; `string'
PUBLIC	??_C@_0BD@JDPBNNPN@?$DO?5DRIVERVERSION?5?$CFd?$AA@ ; `string'
PUBLIC	??_C@_0BA@KDKPJOH@?$DO?5TECHNOLOGY?5?$CFd?$AA@	; `string'
PUBLIC	??_C@_0O@HMCMNAPC@?$DO?5HORZSIZE?5?$CFd?$AA@	; `string'
PUBLIC	??_C@_0O@LDGIGNAG@?$DO?5VERTSIZE?5?$CFd?$AA@	; `string'
PUBLIC	??_C@_0N@IFBEPCKP@?$DO?5HORZRES?5?$CFd?$AA@	; `string'
PUBLIC	??_C@_0N@HLDMJPJJ@?$DO?5VERTRES?5?$CFd?$AA@	; `string'
PUBLIC	??_C@_0P@CHMKJDGJ@?$DO?5BITSPIXEL?5?$CFd?$AA@	; `string'
PUBLIC	??_C@_0M@DABMECAD@?$DO?5PLANES?5?$CFd?$AA@	; `string'
PUBLIC	??_C@_0BA@GCBODPHK@?$DO?5NUMBRUSHES?5?$CFd?$AA@	; `string'
PUBLIC	??_C@_0N@HHCKOKCG@?$DO?5NUMPENS?5?$CFd?$AA@	; `string'
PUBLIC	??_C@_0BA@IJEEOFOD@?$DO?5NUMMARKERS?5?$CFd?$AA@	; `string'
PUBLIC	??_C@_0O@HIAAJLOF@?$DO?5NUMFONTS?5?$CFd?$AA@	; `string'
PUBLIC	??_C@_0P@CDPEOCLN@?$DO?5NUMCOLORS?5?$CFd?$AA@	; `string'
PUBLIC	??_C@_0BB@BIAFAHJC@?$DO?5PDEVICESIZE?5?$CFd?$AA@ ; `string'
PUBLIC	??_C@_0P@MJKILKAG@?$DO?5CURVECAPS?5?$CFd?$AA@	; `string'
PUBLIC	??_C@_0O@NIBLPDAA@?$DO?5LINECAPS?5?$CFd?$AA@	; `string'
PUBLIC	??_C@_0BD@NDEFMMIK@?$DO?5POLYGONALCAPS?5?$CFd?$AA@ ; `string'
PUBLIC	??_C@_0O@EJBOFNFI@?$DO?5TEXTCAPS?5?$CFd?$AA@	; `string'
PUBLIC	??_C@_0O@NPFDNMHE@?$DO?5CLIPCAPS?5?$CFd?$AA@	; `string'
PUBLIC	??_C@_0BA@OCKGHOJF@?$DO?5RASTERCAPS?5?$CFd?$AA@	; `string'
PUBLIC	??_C@_0N@DGFFNBBI@?$DO?5ASPECTX?5?$CFd?$AA@	; `string'
PUBLIC	??_C@_0N@LDFPIKI@?$DO?5ASPECTY?5?$CFd?$AA@	; `string'
PUBLIC	??_C@_0O@KAIPPGFP@?$DO?5ASPECTXY?5?$CFd?$AA@	; `string'
PUBLIC	??_C@_0BA@NDEAPPCA@?$DO?5LOGPIXELSX?5?$CFd?$AA@	; `string'
PUBLIC	??_C@_0BA@OOCANGJA@?$DO?5LOGPIXELSY?5?$CFd?$AA@	; `string'
PUBLIC	??_C@_0BB@KNEJGJKJ@?$DO?5SIZEPALETTE?5?$CFd?$AA@ ; `string'
PUBLIC	??_C@_0BB@KMMENDMI@?$DO?5NUMRESERVED?5?$CFd?$AA@ ; `string'
PUBLIC	??_C@_0O@GGNNNIFP@?$DO?5COLORRES?5?$CFd?$AA@	; `string'
PUBLIC	??_C@_0BD@HDEIPKKB@?$DO?5PHYSICALWIDTH?5?$CFd?$AA@ ; `string'
PUBLIC	??_C@_0BE@BHEFJOBO@?$DO?5PHYSICALHEIGHT?5?$CFd?$AA@ ; `string'
PUBLIC	??_C@_0BF@PADOFFNF@?$DO?5PHYSICALOFFSETX?5?$CFd?$AA@ ; `string'
PUBLIC	??_C@_0BF@MNFOHMGF@?$DO?5PHYSICALOFFSETY?5?$CFd?$AA@ ; `string'
PUBLIC	??_C@_0BE@LLMKMDFO@?$DO?5SCALINGFACTORX?5?$CFd?$AA@ ; `string'
PUBLIC	??_C@_0BE@IGKKOKOO@?$DO?5SCALINGFACTORY?5?$CFd?$AA@ ; `string'
PUBLIC	??_C@_0O@KHHELDLL@?$DO?5VREFRESH?5?$CFd?$AA@	; `string'
PUBLIC	??_C@_0BE@COAHGLLD@?$DO?5DESKTOPVERTRES?5?$CFd?$AA@ ; `string'
PUBLIC	??_C@_0BE@NACPAGIF@?$DO?5DESKTOPHORZRES?5?$CFd?$AA@ ; `string'
PUBLIC	??_C@_0BC@JFPGOKHF@?$DO?5BLTALIGNMENT?5?$CFd?$AA@ ; `string'
PUBLIC	??_C@_0BE@BAMFBECL@?$DO?5SHADEBLENDCAPS?5?$CFd?$AA@ ; `string'
PUBLIC	??_C@_0BD@DKIEMMJN@?$DO?5COLORMGMTCAPS?5?$CFd?$AA@ ; `string'
PUBLIC	??_C@_09IGELCPAM@Layout?5?$CFu?$AA@		; `string'
PUBLIC	??_C@_0O@FBFECABI@DEFAULT?5FONT?3?$AA@		; `string'
PUBLIC	??_C@_0M@JCFCFHLH@?$DO?5Height?5?$CFd?$AA@	; `string'
PUBLIC	??_C@_0L@KBIDCEMN@?$DO?5Width?5?$CFd?$AA@	; `string'
PUBLIC	??_C@_0P@DLDGLOB@?$DO?5Escapment?5?$CFd?$AA@	; `string'
PUBLIC	??_C@_0BB@DFLFEINK@?$DO?5Orientation?5?$CFd?$AA@ ; `string'
PUBLIC	??_C@_0M@EEPHINNC@?$DO?5Weight?5?$CFd?$AA@	; `string'
PUBLIC	??_C@_0P@FOGJLDPM@?$DO?5Italic?5?$CF?42Xh?$AA@	; `string'
PUBLIC	??_C@_0BC@IHAMIHEE@?$DO?5Underline?5?$CF?42Xh?$AA@ ; `string'
PUBLIC	??_C@_0BC@MFABLFLO@?$DO?5StrikeOut?5?$CF?42Xh?$AA@ ; `string'
PUBLIC	??_C@_0BA@CJMDNNAL@?$DO?5CharSet?5?$CF?42Xh?$AA@ ; `string'
PUBLIC	??_C@_0BF@IIGPOAFP@?$DO?5OutPrecision?5?$CF?42Xh?$AA@ ; `string'
PUBLIC	??_C@_0BG@FHJOGBNN@?$DO?5ClipPrecision?5?$CF?42Xh?$AA@ ; `string'
PUBLIC	??_C@_0BA@PONLFNLB@?$DO?5Quality?5?$CF?42Xh?$AA@ ; `string'
PUBLIC	??_C@_0BH@FCEMNLND@?$DO?5PitchAndFamily?5?$CF?42Xh?$AA@ ; `string'
PUBLIC	??_C@_0O@PBJPIOLO@?$DO?5FaceName?5?$CFs?$AA@	; `string'
PUBLIC	??_C@_0BN@PNGCEDEF@?9?9?5PtrInfo?0?5new?5LOGFONT?5null?$AA@ ; `string'
PUBLIC	??_C@_0CD@PFIFHLGI@?9?9?5PtrInfo?0?5CreateIC?5Err?5?$CFd?5Msg?5@ ; `string'
PUBLIC	??_C@_0L@GNPIKGBL@?$DM?$DM?5PtrInfo?$AA@	; `string'
PUBLIC	??_C@_04HPMIDMKH@True?$AA@			; `string'
PUBLIC	??_C@_05MKDOIIA@False?$AA@			; `string'
PUBLIC	??_C@_0BJ@JNNHNEI@?$DO?$DO?5GetSysIPAddrs?0?5?$CFp?0?5?$CFs?$AA@ ; `string'
PUBLIC	??_C@_0BD@JGGPHJBD@IP?5Addresses?5?$CI?$CFu?$CJ?3?$AA@ ; `string'
PUBLIC	??_C@_09BDGNKGNI@?$DO?5?$CF02u?5?$CFs?$AA@	; `string'
PUBLIC	??_C@_0BB@CMFNMPNL@?$DM?$DM?5GetSysIPAddrs?$AA@	; `string'
PUBLIC	??_C@_0O@BHNLPBFJ@?$DO?$DO?5GetSysDets?$AA@	; `string'
PUBLIC	??_C@_09NLLCGGEI@HwProfile?$AA@			; `string'
PUBLIC	??_C@_07JFBHEENG@SysInfo?$AA@			; `string'
PUBLIC	??_C@_06HKOPCFLK@OSInfo?$AA@			; `string'
PUBLIC	??_C@_0BA@JCIBBNDO@SysLogPrcsrInfo?$AA@		; `string'
PUBLIC	??_C@_07NAIOOCP@SysDirs?$AA@			; `string'
PUBLIC	??_C@_0O@JGOJIALP@?$DM?$DM?5GetSysDets?$AA@	; `string'
PUBLIC	??_C@_0N@DKCIAKLO@?$DO?$DO?5GetSysSts?$AA@	; `string'
PUBLIC	??_C@_08LMMJIFBC@SysTimes?$AA@			; `string'
PUBLIC	??_C@_06BFMAIJHM@SysMem?$AA@			; `string'
PUBLIC	??_C@_08HGNAFDEP@PerfInfo?$AA@			; `string'
PUBLIC	??_C@_08FGGKAHMA@ProcInfo?$AA@			; `string'
PUBLIC	??_C@_0N@LGEPCBGK@?$DM?$DM?5GetSysSts?$AA@	; `string'
PUBLIC	??_C@_07LEMLFMJD@LogDrvs?$AA@			; `string'
PUBLIC	??_C@_03IONNGCBN@USB?$AA@			; `string'
PUBLIC	??_C@_08IHNDGAAK@DevDrvrs?$AA@			; `string'
PUBLIC	??_C@_07LBBDPBFA@PtrInfo?$AA@			; `string'
PUBLIC	??_C@_0BC@OAHODHDF@?$DO?$DO?5ThrdWMISysPerf?$AA@ ; `string'
PUBLIC	??_C@_0BC@DBJGMMHB@?$DM?$DM?5ThrdWMISysPerf?$AA@ ; `string'
PUBLIC	??_C@_0BB@JJECDJHH@?$DO?$DO?5ThrdWMIHwSnsr?$AA@	; `string'
PUBLIC	??_C@_0BB@MKNOIMND@?$DM?$DM?5ThrdWMIHwSnsr?$AA@	; `string'
PUBLIC	??_C@_0BC@CBIOEKJP@?$DO?$DO?5ThrdWMISysVols?$AA@ ; `string'
PUBLIC	??_C@_0BC@PAGGLBNL@?$DM?$DM?5ThrdWMISysVols?$AA@ ; `string'
PUBLIC	??_C@_0N@LKBNMLDB@?$DO?$DO?5GetWMISts?$AA@	; `string'
PUBLIC	??_C@_0L@KDFOBJKP@WMISysPerf?$AA@		; `string'
PUBLIC	??_C@_09NAIFMJBP@WMIHwSnsr?$AA@			; `string'
PUBLIC	??_C@_0L@GCKOGEAF@WMISysVols?$AA@		; `string'
PUBLIC	??_C@_0N@DGHKOAOF@?$DM?$DM?5GetWMISts?$AA@	; `string'
PUBLIC	??_C@_0L@PGBNDJPK@?$DO?$DO?5WinMain?$AA@	; `string'
PUBLIC	??_C@_0BG@FONLKPFK@SysStatus?0?5CmdLine?5?$CFs?$AA@ ; `string'
PUBLIC	??_C@_07GKIGKNOK@runonce?$AA@			; `string'
PUBLIC	??_C@_07KNKAAJIE@sysinfo?$AA@			; `string'
PUBLIC	??_C@_05NAPFDJNG@timer?$AA@			; `string'
PUBLIC	??_C@_07MMMFAJOG@ThrdMsg?$AA@			; `string'
PUBLIC	??_C@_06NNJPAOHJ@ThrWMI?$AA@			; `string'
PUBLIC	??_C@_03CCLAEDDF@Yes?$AA@			; `string'
PUBLIC	??_C@_02JINPPBEP@No?$AA@			; `string'
PUBLIC	??_C@_0BH@ICNNMNOE@Net?5Alive?$DP?5?$CFs?0?5Type?5?$CFu?$AA@ ; `string'
PUBLIC	??_C@_0BA@HGBCLIME@Net?5Chkg?5Err?5?$CFu?$AA@	; `string'
PUBLIC	??_C@_0BI@PLMFNPPL@?9?9?5?$CF02d?3?$CF02d?3?$CF02d?0?5?$CFf?5s?$AA@ ; `string'
PUBLIC	??_C@_0CC@PCCAGIIF@SysStatus?5?9?5Running?5for?5?$CF02d?3?$CF02@ ; `string'
PUBLIC	??_C@_0BJ@LIJJDDJF@WinMain?0?5Wait?5ThrdMsg?5?$CFX?$AA@ ; `string'
PUBLIC	??_C@_0BM@NMJKDPPO@invalid?5vector?$DMT?$DO?5subscript?$AA@ ; `string'
PUBLIC	??_7out_of_range@std@@6B@			; std::out_of_range::`vftable'
EXTRN	__imp__OutputDebugStringA@4:PROC
EXTRN	__imp__WriteFile@20:PROC
EXTRN	__vsnprintf:PROC
EXTRN	__imp__GetFileSize@8:PROC
EXTRN	__imp__SetFilePointer@16:PROC
EXTRN	_remove:PROC
EXTRN	_rename:PROC
EXTRN	__imp__FormatMessageA@28:PROC
EXTRN	__imp__LoadLibraryExA@12:PROC
EXTRN	_isdigit:PROC
EXTRN	_strchr:PROC
EXTRN	_sprintf:PROC
EXTRN	__imp__GetCurrentProcessId@0:PROC
EXTRN	__imp__GetCurrentThreadId@0:PROC
EXTRN	__imp__GetLocalTime@4:PROC
EXTRN	__imp__CreateFileA@28:PROC
EXTRN	_MiniDumpWriteDump@28:PROC
EXTRN	_exit:PROC
EXTRN	__imp__WideCharToMultiByte@32:PROC
EXTRN	__imp__RaiseException@16:PROC
EXTRN	__beginthreadex:PROC
EXTRN	__imp__FreeLibrary@4:PROC
EXTRN	__imp__TerminateThread@8:PROC
EXTRN	__imp__GetExitCodeThread@8:PROC
EXTRN	__imp__GetModuleHandleW@4:PROC
EXTRN	__imp__DefWindowProcA@16:PROC
EXTRN	__imp__PostQuitMessage@4:PROC
EXTRN	__imp__MessageBoxA@16:PROC
EXTRN	__imp__GetMessageA@16:PROC
EXTRN	__imp__TranslateMessage@4:PROC
EXTRN	__imp__DispatchMessageA@4:PROC
EXTRN	__imp__RegisterDeviceNotificationA@12:PROC
EXTRN	__imp__UnregisterDeviceNotification@4:PROC
EXTRN	__imp__RegisterClassA@4:PROC
EXTRN	__imp__CreateWindowExA@48:PROC
EXTRN	__imp__IsWindow@4:PROC
EXTRN	__imp__DestroyWindow@4:PROC
EXTRN	__imp__ShowWindow@8:PROC
EXTRN	__imp__GetProcessHandleCount@8:PROC
EXTRN	__imp__GetProcessTimes@20:PROC
EXTRN	__imp__OpenProcess@12:PROC
EXTRN	_EnumProcesses@12:PROC
EXTRN	_EnumProcessModules@16:PROC
EXTRN	_GetProcessMemoryInfo@12:PROC
EXTRN	__imp__GetCurrentHwProfileA@4:PROC
EXTRN	__imp__GetSystemInfo@4:PROC
EXTRN	__imp__GetComputerNameA@8:PROC
EXTRN	__imp__GetVersionExA@4:PROC
EXTRN	__imp__GlobalMemoryStatusEx@4:PROC
EXTRN	_GetSystemTimes@12:PROC
EXTRN	__imp__FileTimeToSystemTime@8:PROC
EXTRN	__imp__QueryPerformanceCounter@4:PROC
EXTRN	__imp__QueryPerformanceFrequency@4:PROC
EXTRN	__imp__GetLogicalDrives@0:PROC
EXTRN	__imp__GetLogicalDriveStringsA@8:PROC
EXTRN	__imp__GetDriveTypeA@4:PROC
EXTRN	__imp__GetDiskFreeSpaceA@20:PROC
EXTRN	__imp__GetVolumeInformationA@32:PROC
EXTRN	__imp__GetSystemDirectoryA@8:PROC
EXTRN	__imp__GetTempPathA@8:PROC
EXTRN	__imp__GetWindowsDirectoryA@8:PROC
EXTRN	__imp__GetSystemWindowsDirectoryA@8:PROC
EXTRN	__imp__GetProcAddress@8:PROC
EXTRN	__imp__GetModuleHandleA@4:PROC
EXTRN	_free:PROC
EXTRN	_malloc:PROC
EXTRN	_EnumDeviceDrivers@12:PROC
EXTRN	_GetDeviceDriverBaseNameA@12:PROC
EXTRN	_GetDeviceDriverFileNameA@12:PROC
EXTRN	_GetPerformanceInfo@8:PROC
EXTRN	_EnumPrintersA@28:PROC
EXTRN	_strncpy:PROC
EXTRN	__imp__CreateICA@16:PROC
EXTRN	__imp__DeleteDC@4:PROC
EXTRN	__imp__DeviceCapabilitiesA@20:PROC
EXTRN	__imp__GetCurrentObject@8:PROC
EXTRN	__imp__GetDeviceCaps@8:PROC
EXTRN	__imp__GetLayout@4:PROC
EXTRN	__imp__GetObjectA@12:PROC
EXTRN	_OpenPrinterA@12:PROC
EXTRN	_DocumentPropertiesA@24:PROC
EXTRN	_ClosePrinter@4:PROC
EXTRN	??_U@YAPAXI@Z:PROC				; operator new[]
EXTRN	??_V@YAXPAX@Z:PROC				; operator delete[]
EXTRN	__endthreadex:PROC
EXTRN	__strlwr:PROC
EXTRN	_strstr:PROC
EXTRN	__imp__GetCurrentProcess@0:PROC
EXTRN	__imp__SetUnhandledExceptionFilter@4:PROC
EXTRN	__imp__Sleep@4:PROC
EXTRN	__imp__GetTickCount@0:PROC
EXTRN	__imp__PostMessageA@16:PROC
EXTRN	__imp__SetWindowTextA@8:PROC
EXTRN	_atoi:PROC
EXTRN	_GetModuleBaseNameA@16:PROC
EXTRN	__imp__PathRemoveExtensionA@4:PROC
EXTRN	_IsNetworkAlive@4:PROC
EXTRN	__imp__CloseHandle@4:PROC
EXTRN	__imp__UnregisterWaitEx@8:PROC
EXTRN	??_Eout_of_range@std@@UAEPAXI@Z:PROC		; std::out_of_range::`vector deleting destructor'
EXTRN	_atexit:PROC
?gbTerminate@@3HA DD 01H DUP (?)			; gbTerminate
?gbShutdown@@3HA DD 01H DUP (?)				; gbShutdown
?ghWnd@@3PAUHWND__@@A DD 01H DUP (?)			; ghWnd
?ghInstance@@3PAUHINSTANCE__@@A DD 01H DUP (?)		; ghInstance
?gbForceChecking@@3HA DD 01H DUP (?)			; gbForceChecking
?gszLogFilePrefix@@3PADA DB 0400H DUP (?)		; gszLogFilePrefix
	ALIGN	8

?gTickStart@@3_KA DQ 01H DUP (?)			; gTickStart
?gpPrinterInfoList@@3PAU_printer_info_list_@@A DD 01H DUP (?) ; gpPrinterInfoList
;	COMDAT ??_7out_of_range@std@@6B@
CONST	SEGMENT
??_7out_of_range@std@@6B@ DD FLAT:??_R4out_of_range@std@@6B@ ; std::out_of_range::`vftable'
	DD	FLAT:??_Eout_of_range@std@@UAEPAXI@Z
	DD	FLAT:?what@logic_error@std@@UBEPBDXZ
CONST	ENDS
;	COMDAT ??_R4out_of_range@std@@6B@
rdata$r	SEGMENT
??_R4out_of_range@std@@6B@ DD 00H			; std::out_of_range::`RTTI Complete Object Locator'
	DD	00H
	DD	00H
	DD	FLAT:??_R0?AVout_of_range@std@@@8
	DD	FLAT:??_R3out_of_range@std@@8
rdata$r	ENDS
;	COMDAT ??_R3out_of_range@std@@8
rdata$r	SEGMENT
??_R3out_of_range@std@@8 DD 00H				; std::out_of_range::`RTTI Class Hierarchy Descriptor'
	DD	00H
	DD	03H
	DD	FLAT:??_R2out_of_range@std@@8
rdata$r	ENDS
;	COMDAT ??_R2out_of_range@std@@8
rdata$r	SEGMENT
??_R2out_of_range@std@@8 DD FLAT:??_R1A@?0A@EA@out_of_range@std@@8 ; std::out_of_range::`RTTI Base Class Array'
	DD	FLAT:??_R1A@?0A@EA@logic_error@std@@8
	DD	FLAT:??_R1A@?0A@EA@exception@std@@8
rdata$r	ENDS
;	COMDAT ??_R1A@?0A@EA@out_of_range@std@@8
rdata$r	SEGMENT
??_R1A@?0A@EA@out_of_range@std@@8 DD FLAT:??_R0?AVout_of_range@std@@@8 ; std::out_of_range::`RTTI Base Class Descriptor at (0,-1,0,64)'
	DD	02H
	DD	00H
	DD	0ffffffffH
	DD	00H
	DD	040H
	DD	FLAT:??_R3out_of_range@std@@8
rdata$r	ENDS
;	COMDAT ??_C@_0BM@NMJKDPPO@invalid?5vector?$DMT?$DO?5subscript?$AA@
CONST	SEGMENT
??_C@_0BM@NMJKDPPO@invalid?5vector?$DMT?$DO?5subscript?$AA@ DB 'invalid v'
	DB	'ector<T> subscript', 00H			; `string'
CONST	ENDS
;	COMDAT ??_C@_0BJ@LIJJDDJF@WinMain?0?5Wait?5ThrdMsg?5?$CFX?$AA@
CONST	SEGMENT
??_C@_0BJ@LIJJDDJF@WinMain?0?5Wait?5ThrdMsg?5?$CFX?$AA@ DB 'WinMain, Wait'
	DB	' ThrdMsg %X', 00H				; `string'
CONST	ENDS
;	COMDAT ??_C@_0CC@PCCAGIIF@SysStatus?5?9?5Running?5for?5?$CF02d?3?$CF02@
CONST	SEGMENT
??_C@_0CC@PCCAGIIF@SysStatus?5?9?5Running?5for?5?$CF02d?3?$CF02@ DB 'SysS'
	DB	'tatus - Running for %02d:%02d', 00H		; `string'
CONST	ENDS
;	COMDAT ??_C@_0BI@PLMFNPPL@?9?9?5?$CF02d?3?$CF02d?3?$CF02d?0?5?$CFf?5s?$AA@
CONST	SEGMENT
??_C@_0BI@PLMFNPPL@?9?9?5?$CF02d?3?$CF02d?3?$CF02d?0?5?$CFf?5s?$AA@ DB '-'
	DB	'- %02d:%02d:%02d, %f s', 00H		; `string'
CONST	ENDS
;	COMDAT ??_C@_0BA@HGBCLIME@Net?5Chkg?5Err?5?$CFu?$AA@
CONST	SEGMENT
??_C@_0BA@HGBCLIME@Net?5Chkg?5Err?5?$CFu?$AA@ DB 'Net Chkg Err %u', 00H ; `string'
CONST	ENDS
;	COMDAT ??_C@_0BH@ICNNMNOE@Net?5Alive?$DP?5?$CFs?0?5Type?5?$CFu?$AA@
CONST	SEGMENT
??_C@_0BH@ICNNMNOE@Net?5Alive?$DP?5?$CFs?0?5Type?5?$CFu?$AA@ DB 'Net Aliv'
	DB	'e? %s, Type %u', 00H			; `string'
CONST	ENDS
;	COMDAT ??_C@_02JINPPBEP@No?$AA@
CONST	SEGMENT
??_C@_02JINPPBEP@No?$AA@ DB 'No', 00H			; `string'
CONST	ENDS
;	COMDAT ??_C@_03CCLAEDDF@Yes?$AA@
CONST	SEGMENT
??_C@_03CCLAEDDF@Yes?$AA@ DB 'Yes', 00H			; `string'
CONST	ENDS
;	COMDAT ??_C@_06NNJPAOHJ@ThrWMI?$AA@
CONST	SEGMENT
??_C@_06NNJPAOHJ@ThrWMI?$AA@ DB 'ThrWMI', 00H		; `string'
CONST	ENDS
;	COMDAT ??_C@_07MMMFAJOG@ThrdMsg?$AA@
CONST	SEGMENT
??_C@_07MMMFAJOG@ThrdMsg?$AA@ DB 'ThrdMsg', 00H		; `string'
CONST	ENDS
;	COMDAT ??_C@_05NAPFDJNG@timer?$AA@
CONST	SEGMENT
??_C@_05NAPFDJNG@timer?$AA@ DB 'timer', 00H		; `string'
CONST	ENDS
;	COMDAT ??_C@_07KNKAAJIE@sysinfo?$AA@
CONST	SEGMENT
??_C@_07KNKAAJIE@sysinfo?$AA@ DB 'sysinfo', 00H		; `string'
CONST	ENDS
;	COMDAT ??_C@_07GKIGKNOK@runonce?$AA@
CONST	SEGMENT
??_C@_07GKIGKNOK@runonce?$AA@ DB 'runonce', 00H		; `string'
CONST	ENDS
;	COMDAT ??_C@_0BG@FONLKPFK@SysStatus?0?5CmdLine?5?$CFs?$AA@
CONST	SEGMENT
??_C@_0BG@FONLKPFK@SysStatus?0?5CmdLine?5?$CFs?$AA@ DB 'SysStatus, CmdLin'
	DB	'e %s', 00H					; `string'
CONST	ENDS
;	COMDAT ??_C@_0L@PGBNDJPK@?$DO?$DO?5WinMain?$AA@
CONST	SEGMENT
??_C@_0L@PGBNDJPK@?$DO?$DO?5WinMain?$AA@ DB '>> WinMain', 00H ; `string'
CONST	ENDS
;	COMDAT ??_C@_0N@DGHKOAOF@?$DM?$DM?5GetWMISts?$AA@
CONST	SEGMENT
??_C@_0N@DGHKOAOF@?$DM?$DM?5GetWMISts?$AA@ DB '<< GetWMISts', 00H ; `string'
CONST	ENDS
;	COMDAT ??_C@_0L@GCKOGEAF@WMISysVols?$AA@
CONST	SEGMENT
??_C@_0L@GCKOGEAF@WMISysVols?$AA@ DB 'WMISysVols', 00H	; `string'
CONST	ENDS
;	COMDAT ??_C@_09NAIFMJBP@WMIHwSnsr?$AA@
CONST	SEGMENT
??_C@_09NAIFMJBP@WMIHwSnsr?$AA@ DB 'WMIHwSnsr', 00H	; `string'
CONST	ENDS
;	COMDAT ??_C@_0L@KDFOBJKP@WMISysPerf?$AA@
CONST	SEGMENT
??_C@_0L@KDFOBJKP@WMISysPerf?$AA@ DB 'WMISysPerf', 00H	; `string'
CONST	ENDS
;	COMDAT ??_C@_0N@LKBNMLDB@?$DO?$DO?5GetWMISts?$AA@
CONST	SEGMENT
??_C@_0N@LKBNMLDB@?$DO?$DO?5GetWMISts?$AA@ DB '>> GetWMISts', 00H ; `string'
CONST	ENDS
;	COMDAT ??_C@_0BC@PAGGLBNL@?$DM?$DM?5ThrdWMISysVols?$AA@
CONST	SEGMENT
??_C@_0BC@PAGGLBNL@?$DM?$DM?5ThrdWMISysVols?$AA@ DB '<< ThrdWMISysVols', 00H ; `string'
CONST	ENDS
;	COMDAT ??_C@_0BC@CBIOEKJP@?$DO?$DO?5ThrdWMISysVols?$AA@
CONST	SEGMENT
??_C@_0BC@CBIOEKJP@?$DO?$DO?5ThrdWMISysVols?$AA@ DB '>> ThrdWMISysVols', 00H ; `string'
CONST	ENDS
;	COMDAT ??_C@_0BB@MKNOIMND@?$DM?$DM?5ThrdWMIHwSnsr?$AA@
CONST	SEGMENT
??_C@_0BB@MKNOIMND@?$DM?$DM?5ThrdWMIHwSnsr?$AA@ DB '<< ThrdWMIHwSnsr', 00H ; `string'
CONST	ENDS
;	COMDAT ??_C@_0BB@JJECDJHH@?$DO?$DO?5ThrdWMIHwSnsr?$AA@
CONST	SEGMENT
??_C@_0BB@JJECDJHH@?$DO?$DO?5ThrdWMIHwSnsr?$AA@ DB '>> ThrdWMIHwSnsr', 00H ; `string'
CONST	ENDS
;	COMDAT ??_C@_0BC@DBJGMMHB@?$DM?$DM?5ThrdWMISysPerf?$AA@
CONST	SEGMENT
??_C@_0BC@DBJGMMHB@?$DM?$DM?5ThrdWMISysPerf?$AA@ DB '<< ThrdWMISysPerf', 00H ; `string'
CONST	ENDS
;	COMDAT ??_C@_0BC@OAHODHDF@?$DO?$DO?5ThrdWMISysPerf?$AA@
CONST	SEGMENT
??_C@_0BC@OAHODHDF@?$DO?$DO?5ThrdWMISysPerf?$AA@ DB '>> ThrdWMISysPerf', 00H ; `string'
CONST	ENDS
;	COMDAT ??_C@_07LBBDPBFA@PtrInfo?$AA@
CONST	SEGMENT
??_C@_07LBBDPBFA@PtrInfo?$AA@ DB 'PtrInfo', 00H		; `string'
CONST	ENDS
;	COMDAT ??_C@_08IHNDGAAK@DevDrvrs?$AA@
CONST	SEGMENT
??_C@_08IHNDGAAK@DevDrvrs?$AA@ DB 'DevDrvrs', 00H	; `string'
CONST	ENDS
;	COMDAT ??_C@_03IONNGCBN@USB?$AA@
CONST	SEGMENT
??_C@_03IONNGCBN@USB?$AA@ DB 'USB', 00H			; `string'
CONST	ENDS
;	COMDAT ??_C@_07LEMLFMJD@LogDrvs?$AA@
CONST	SEGMENT
??_C@_07LEMLFMJD@LogDrvs?$AA@ DB 'LogDrvs', 00H		; `string'
CONST	ENDS
;	COMDAT ??_C@_0N@LGEPCBGK@?$DM?$DM?5GetSysSts?$AA@
CONST	SEGMENT
??_C@_0N@LGEPCBGK@?$DM?$DM?5GetSysSts?$AA@ DB '<< GetSysSts', 00H ; `string'
CONST	ENDS
;	COMDAT ??_C@_08FGGKAHMA@ProcInfo?$AA@
CONST	SEGMENT
??_C@_08FGGKAHMA@ProcInfo?$AA@ DB 'ProcInfo', 00H	; `string'
CONST	ENDS
;	COMDAT ??_C@_08HGNAFDEP@PerfInfo?$AA@
CONST	SEGMENT
??_C@_08HGNAFDEP@PerfInfo?$AA@ DB 'PerfInfo', 00H	; `string'
CONST	ENDS
;	COMDAT ??_C@_06BFMAIJHM@SysMem?$AA@
CONST	SEGMENT
??_C@_06BFMAIJHM@SysMem?$AA@ DB 'SysMem', 00H		; `string'
CONST	ENDS
;	COMDAT ??_C@_08LMMJIFBC@SysTimes?$AA@
CONST	SEGMENT
??_C@_08LMMJIFBC@SysTimes?$AA@ DB 'SysTimes', 00H	; `string'
CONST	ENDS
;	COMDAT ??_C@_0N@DKCIAKLO@?$DO?$DO?5GetSysSts?$AA@
CONST	SEGMENT
??_C@_0N@DKCIAKLO@?$DO?$DO?5GetSysSts?$AA@ DB '>> GetSysSts', 00H ; `string'
CONST	ENDS
;	COMDAT ??_C@_0O@JGOJIALP@?$DM?$DM?5GetSysDets?$AA@
CONST	SEGMENT
??_C@_0O@JGOJIALP@?$DM?$DM?5GetSysDets?$AA@ DB '<< GetSysDets', 00H ; `string'
CONST	ENDS
;	COMDAT ??_C@_07NAIOOCP@SysDirs?$AA@
CONST	SEGMENT
??_C@_07NAIOOCP@SysDirs?$AA@ DB 'SysDirs', 00H		; `string'
CONST	ENDS
;	COMDAT ??_C@_0BA@JCIBBNDO@SysLogPrcsrInfo?$AA@
CONST	SEGMENT
??_C@_0BA@JCIBBNDO@SysLogPrcsrInfo?$AA@ DB 'SysLogPrcsrInfo', 00H ; `string'
CONST	ENDS
;	COMDAT ??_C@_06HKOPCFLK@OSInfo?$AA@
CONST	SEGMENT
??_C@_06HKOPCFLK@OSInfo?$AA@ DB 'OSInfo', 00H		; `string'
CONST	ENDS
;	COMDAT ??_C@_07JFBHEENG@SysInfo?$AA@
CONST	SEGMENT
??_C@_07JFBHEENG@SysInfo?$AA@ DB 'SysInfo', 00H		; `string'
CONST	ENDS
;	COMDAT ??_C@_09NLLCGGEI@HwProfile?$AA@
CONST	SEGMENT
??_C@_09NLLCGGEI@HwProfile?$AA@ DB 'HwProfile', 00H	; `string'
CONST	ENDS
;	COMDAT ??_C@_0O@BHNLPBFJ@?$DO?$DO?5GetSysDets?$AA@
CONST	SEGMENT
??_C@_0O@BHNLPBFJ@?$DO?$DO?5GetSysDets?$AA@ DB '>> GetSysDets', 00H ; `string'
CONST	ENDS
;	COMDAT ??_C@_0BB@CMFNMPNL@?$DM?$DM?5GetSysIPAddrs?$AA@
CONST	SEGMENT
??_C@_0BB@CMFNMPNL@?$DM?$DM?5GetSysIPAddrs?$AA@ DB '<< GetSysIPAddrs', 00H ; `string'
CONST	ENDS
;	COMDAT ??_C@_09BDGNKGNI@?$DO?5?$CF02u?5?$CFs?$AA@
CONST	SEGMENT
??_C@_09BDGNKGNI@?$DO?5?$CF02u?5?$CFs?$AA@ DB '> %02u %s', 00H ; `string'
CONST	ENDS
;	COMDAT ??_C@_0BD@JGGPHJBD@IP?5Addresses?5?$CI?$CFu?$CJ?3?$AA@
CONST	SEGMENT
??_C@_0BD@JGGPHJBD@IP?5Addresses?5?$CI?$CFu?$CJ?3?$AA@ DB 'IP Addresses ('
	DB	'%u):', 00H					; `string'
CONST	ENDS
;	COMDAT ??_C@_0BJ@JNNHNEI@?$DO?$DO?5GetSysIPAddrs?0?5?$CFp?0?5?$CFs?$AA@
CONST	SEGMENT
??_C@_0BJ@JNNHNEI@?$DO?$DO?5GetSysIPAddrs?0?5?$CFp?0?5?$CFs?$AA@ DB '>> G'
	DB	'etSysIPAddrs, %p, %s', 00H			; `string'
CONST	ENDS
;	COMDAT ??_C@_05MKDOIIA@False?$AA@
CONST	SEGMENT
??_C@_05MKDOIIA@False?$AA@ DB 'False', 00H		; `string'
CONST	ENDS
;	COMDAT ??_C@_04HPMIDMKH@True?$AA@
CONST	SEGMENT
??_C@_04HPMIDMKH@True?$AA@ DB 'True', 00H		; `string'
CONST	ENDS
;	COMDAT ??_C@_0L@GNPIKGBL@?$DM?$DM?5PtrInfo?$AA@
CONST	SEGMENT
??_C@_0L@GNPIKGBL@?$DM?$DM?5PtrInfo?$AA@ DB '<< PtrInfo', 00H ; `string'
CONST	ENDS
;	COMDAT ??_C@_0CD@PFIFHLGI@?9?9?5PtrInfo?0?5CreateIC?5Err?5?$CFd?5Msg?5@
CONST	SEGMENT
??_C@_0CD@PFIFHLGI@?9?9?5PtrInfo?0?5CreateIC?5Err?5?$CFd?5Msg?5@ DB '-- P'
	DB	'trInfo, CreateIC Err %d Msg %s', 00H	; `string'
CONST	ENDS
;	COMDAT ??_C@_0BN@PNGCEDEF@?9?9?5PtrInfo?0?5new?5LOGFONT?5null?$AA@
CONST	SEGMENT
??_C@_0BN@PNGCEDEF@?9?9?5PtrInfo?0?5new?5LOGFONT?5null?$AA@ DB '-- PtrInf'
	DB	'o, new LOGFONT null', 00H			; `string'
CONST	ENDS
;	COMDAT ??_C@_0O@PBJPIOLO@?$DO?5FaceName?5?$CFs?$AA@
CONST	SEGMENT
??_C@_0O@PBJPIOLO@?$DO?5FaceName?5?$CFs?$AA@ DB '> FaceName %s', 00H ; `string'
CONST	ENDS
;	COMDAT ??_C@_0BH@FCEMNLND@?$DO?5PitchAndFamily?5?$CF?42Xh?$AA@
CONST	SEGMENT
??_C@_0BH@FCEMNLND@?$DO?5PitchAndFamily?5?$CF?42Xh?$AA@ DB '> PitchAndFam'
	DB	'ily %.2Xh', 00H				; `string'
CONST	ENDS
;	COMDAT ??_C@_0BA@PONLFNLB@?$DO?5Quality?5?$CF?42Xh?$AA@
CONST	SEGMENT
??_C@_0BA@PONLFNLB@?$DO?5Quality?5?$CF?42Xh?$AA@ DB '> Quality %.2Xh', 00H ; `string'
CONST	ENDS
;	COMDAT ??_C@_0BG@FHJOGBNN@?$DO?5ClipPrecision?5?$CF?42Xh?$AA@
CONST	SEGMENT
??_C@_0BG@FHJOGBNN@?$DO?5ClipPrecision?5?$CF?42Xh?$AA@ DB '> ClipPrecisio'
	DB	'n %.2Xh', 00H				; `string'
CONST	ENDS
;	COMDAT ??_C@_0BF@IIGPOAFP@?$DO?5OutPrecision?5?$CF?42Xh?$AA@
CONST	SEGMENT
??_C@_0BF@IIGPOAFP@?$DO?5OutPrecision?5?$CF?42Xh?$AA@ DB '> OutPrecision '
	DB	'%.2Xh', 00H					; `string'
CONST	ENDS
;	COMDAT ??_C@_0BA@CJMDNNAL@?$DO?5CharSet?5?$CF?42Xh?$AA@
CONST	SEGMENT
??_C@_0BA@CJMDNNAL@?$DO?5CharSet?5?$CF?42Xh?$AA@ DB '> CharSet %.2Xh', 00H ; `string'
CONST	ENDS
;	COMDAT ??_C@_0BC@MFABLFLO@?$DO?5StrikeOut?5?$CF?42Xh?$AA@
CONST	SEGMENT
??_C@_0BC@MFABLFLO@?$DO?5StrikeOut?5?$CF?42Xh?$AA@ DB '> StrikeOut %.2Xh', 00H ; `string'
CONST	ENDS
;	COMDAT ??_C@_0BC@IHAMIHEE@?$DO?5Underline?5?$CF?42Xh?$AA@
CONST	SEGMENT
??_C@_0BC@IHAMIHEE@?$DO?5Underline?5?$CF?42Xh?$AA@ DB '> Underline %.2Xh', 00H ; `string'
CONST	ENDS
;	COMDAT ??_C@_0P@FOGJLDPM@?$DO?5Italic?5?$CF?42Xh?$AA@
CONST	SEGMENT
??_C@_0P@FOGJLDPM@?$DO?5Italic?5?$CF?42Xh?$AA@ DB '> Italic %.2Xh', 00H ; `string'
CONST	ENDS
;	COMDAT ??_C@_0M@EEPHINNC@?$DO?5Weight?5?$CFd?$AA@
CONST	SEGMENT
??_C@_0M@EEPHINNC@?$DO?5Weight?5?$CFd?$AA@ DB '> Weight %d', 00H ; `string'
CONST	ENDS
;	COMDAT ??_C@_0BB@DFLFEINK@?$DO?5Orientation?5?$CFd?$AA@
CONST	SEGMENT
??_C@_0BB@DFLFEINK@?$DO?5Orientation?5?$CFd?$AA@ DB '> Orientation %d', 00H ; `string'
CONST	ENDS
;	COMDAT ??_C@_0P@DLDGLOB@?$DO?5Escapment?5?$CFd?$AA@
CONST	SEGMENT
??_C@_0P@DLDGLOB@?$DO?5Escapment?5?$CFd?$AA@ DB '> Escapment %d', 00H ; `string'
CONST	ENDS
;	COMDAT ??_C@_0L@KBIDCEMN@?$DO?5Width?5?$CFd?$AA@
CONST	SEGMENT
??_C@_0L@KBIDCEMN@?$DO?5Width?5?$CFd?$AA@ DB '> Width %d', 00H ; `string'
CONST	ENDS
;	COMDAT ??_C@_0M@JCFCFHLH@?$DO?5Height?5?$CFd?$AA@
CONST	SEGMENT
??_C@_0M@JCFCFHLH@?$DO?5Height?5?$CFd?$AA@ DB '> Height %d', 00H ; `string'
CONST	ENDS
;	COMDAT ??_C@_0O@FBFECABI@DEFAULT?5FONT?3?$AA@
CONST	SEGMENT
??_C@_0O@FBFECABI@DEFAULT?5FONT?3?$AA@ DB 'DEFAULT FONT:', 00H ; `string'
CONST	ENDS
;	COMDAT ??_C@_09IGELCPAM@Layout?5?$CFu?$AA@
CONST	SEGMENT
??_C@_09IGELCPAM@Layout?5?$CFu?$AA@ DB 'Layout %u', 00H	; `string'
CONST	ENDS
;	COMDAT ??_C@_0BD@DKIEMMJN@?$DO?5COLORMGMTCAPS?5?$CFd?$AA@
CONST	SEGMENT
??_C@_0BD@DKIEMMJN@?$DO?5COLORMGMTCAPS?5?$CFd?$AA@ DB '> COLORMGMTCAPS %d'
	DB	00H						; `string'
CONST	ENDS
;	COMDAT ??_C@_0BE@BAMFBECL@?$DO?5SHADEBLENDCAPS?5?$CFd?$AA@
CONST	SEGMENT
??_C@_0BE@BAMFBECL@?$DO?5SHADEBLENDCAPS?5?$CFd?$AA@ DB '> SHADEBLENDCAPS '
	DB	'%d', 00H					; `string'
CONST	ENDS
;	COMDAT ??_C@_0BC@JFPGOKHF@?$DO?5BLTALIGNMENT?5?$CFd?$AA@
CONST	SEGMENT
??_C@_0BC@JFPGOKHF@?$DO?5BLTALIGNMENT?5?$CFd?$AA@ DB '> BLTALIGNMENT %d', 00H ; `string'
CONST	ENDS
;	COMDAT ??_C@_0BE@NACPAGIF@?$DO?5DESKTOPHORZRES?5?$CFd?$AA@
CONST	SEGMENT
??_C@_0BE@NACPAGIF@?$DO?5DESKTOPHORZRES?5?$CFd?$AA@ DB '> DESKTOPHORZRES '
	DB	'%d', 00H					; `string'
CONST	ENDS
;	COMDAT ??_C@_0BE@COAHGLLD@?$DO?5DESKTOPVERTRES?5?$CFd?$AA@
CONST	SEGMENT
??_C@_0BE@COAHGLLD@?$DO?5DESKTOPVERTRES?5?$CFd?$AA@ DB '> DESKTOPVERTRES '
	DB	'%d', 00H					; `string'
CONST	ENDS
;	COMDAT ??_C@_0O@KHHELDLL@?$DO?5VREFRESH?5?$CFd?$AA@
CONST	SEGMENT
??_C@_0O@KHHELDLL@?$DO?5VREFRESH?5?$CFd?$AA@ DB '> VREFRESH %d', 00H ; `string'
CONST	ENDS
;	COMDAT ??_C@_0BE@IGKKOKOO@?$DO?5SCALINGFACTORY?5?$CFd?$AA@
CONST	SEGMENT
??_C@_0BE@IGKKOKOO@?$DO?5SCALINGFACTORY?5?$CFd?$AA@ DB '> SCALINGFACTORY '
	DB	'%d', 00H					; `string'
CONST	ENDS
;	COMDAT ??_C@_0BE@LLMKMDFO@?$DO?5SCALINGFACTORX?5?$CFd?$AA@
CONST	SEGMENT
??_C@_0BE@LLMKMDFO@?$DO?5SCALINGFACTORX?5?$CFd?$AA@ DB '> SCALINGFACTORX '
	DB	'%d', 00H					; `string'
CONST	ENDS
;	COMDAT ??_C@_0BF@MNFOHMGF@?$DO?5PHYSICALOFFSETY?5?$CFd?$AA@
CONST	SEGMENT
??_C@_0BF@MNFOHMGF@?$DO?5PHYSICALOFFSETY?5?$CFd?$AA@ DB '> PHYSICALOFFSET'
	DB	'Y %d', 00H					; `string'
CONST	ENDS
;	COMDAT ??_C@_0BF@PADOFFNF@?$DO?5PHYSICALOFFSETX?5?$CFd?$AA@
CONST	SEGMENT
??_C@_0BF@PADOFFNF@?$DO?5PHYSICALOFFSETX?5?$CFd?$AA@ DB '> PHYSICALOFFSET'
	DB	'X %d', 00H					; `string'
CONST	ENDS
;	COMDAT ??_C@_0BE@BHEFJOBO@?$DO?5PHYSICALHEIGHT?5?$CFd?$AA@
CONST	SEGMENT
??_C@_0BE@BHEFJOBO@?$DO?5PHYSICALHEIGHT?5?$CFd?$AA@ DB '> PHYSICALHEIGHT '
	DB	'%d', 00H					; `string'
CONST	ENDS
;	COMDAT ??_C@_0BD@HDEIPKKB@?$DO?5PHYSICALWIDTH?5?$CFd?$AA@
CONST	SEGMENT
??_C@_0BD@HDEIPKKB@?$DO?5PHYSICALWIDTH?5?$CFd?$AA@ DB '> PHYSICALWIDTH %d'
	DB	00H						; `string'
CONST	ENDS
;	COMDAT ??_C@_0O@GGNNNIFP@?$DO?5COLORRES?5?$CFd?$AA@
CONST	SEGMENT
??_C@_0O@GGNNNIFP@?$DO?5COLORRES?5?$CFd?$AA@ DB '> COLORRES %d', 00H ; `string'
CONST	ENDS
;	COMDAT ??_C@_0BB@KMMENDMI@?$DO?5NUMRESERVED?5?$CFd?$AA@
CONST	SEGMENT
??_C@_0BB@KMMENDMI@?$DO?5NUMRESERVED?5?$CFd?$AA@ DB '> NUMRESERVED %d', 00H ; `string'
CONST	ENDS
;	COMDAT ??_C@_0BB@KNEJGJKJ@?$DO?5SIZEPALETTE?5?$CFd?$AA@
CONST	SEGMENT
??_C@_0BB@KNEJGJKJ@?$DO?5SIZEPALETTE?5?$CFd?$AA@ DB '> SIZEPALETTE %d', 00H ; `string'
CONST	ENDS
;	COMDAT ??_C@_0BA@OOCANGJA@?$DO?5LOGPIXELSY?5?$CFd?$AA@
CONST	SEGMENT
??_C@_0BA@OOCANGJA@?$DO?5LOGPIXELSY?5?$CFd?$AA@ DB '> LOGPIXELSY %d', 00H ; `string'
CONST	ENDS
;	COMDAT ??_C@_0BA@NDEAPPCA@?$DO?5LOGPIXELSX?5?$CFd?$AA@
CONST	SEGMENT
??_C@_0BA@NDEAPPCA@?$DO?5LOGPIXELSX?5?$CFd?$AA@ DB '> LOGPIXELSX %d', 00H ; `string'
CONST	ENDS
;	COMDAT ??_C@_0O@KAIPPGFP@?$DO?5ASPECTXY?5?$CFd?$AA@
CONST	SEGMENT
??_C@_0O@KAIPPGFP@?$DO?5ASPECTXY?5?$CFd?$AA@ DB '> ASPECTXY %d', 00H ; `string'
CONST	ENDS
;	COMDAT ??_C@_0N@LDFPIKI@?$DO?5ASPECTY?5?$CFd?$AA@
CONST	SEGMENT
??_C@_0N@LDFPIKI@?$DO?5ASPECTY?5?$CFd?$AA@ DB '> ASPECTY %d', 00H ; `string'
CONST	ENDS
;	COMDAT ??_C@_0N@DGFFNBBI@?$DO?5ASPECTX?5?$CFd?$AA@
CONST	SEGMENT
??_C@_0N@DGFFNBBI@?$DO?5ASPECTX?5?$CFd?$AA@ DB '> ASPECTX %d', 00H ; `string'
CONST	ENDS
;	COMDAT ??_C@_0BA@OCKGHOJF@?$DO?5RASTERCAPS?5?$CFd?$AA@
CONST	SEGMENT
??_C@_0BA@OCKGHOJF@?$DO?5RASTERCAPS?5?$CFd?$AA@ DB '> RASTERCAPS %d', 00H ; `string'
CONST	ENDS
;	COMDAT ??_C@_0O@NPFDNMHE@?$DO?5CLIPCAPS?5?$CFd?$AA@
CONST	SEGMENT
??_C@_0O@NPFDNMHE@?$DO?5CLIPCAPS?5?$CFd?$AA@ DB '> CLIPCAPS %d', 00H ; `string'
CONST	ENDS
;	COMDAT ??_C@_0O@EJBOFNFI@?$DO?5TEXTCAPS?5?$CFd?$AA@
CONST	SEGMENT
??_C@_0O@EJBOFNFI@?$DO?5TEXTCAPS?5?$CFd?$AA@ DB '> TEXTCAPS %d', 00H ; `string'
CONST	ENDS
;	COMDAT ??_C@_0BD@NDEFMMIK@?$DO?5POLYGONALCAPS?5?$CFd?$AA@
CONST	SEGMENT
??_C@_0BD@NDEFMMIK@?$DO?5POLYGONALCAPS?5?$CFd?$AA@ DB '> POLYGONALCAPS %d'
	DB	00H						; `string'
CONST	ENDS
;	COMDAT ??_C@_0O@NIBLPDAA@?$DO?5LINECAPS?5?$CFd?$AA@
CONST	SEGMENT
??_C@_0O@NIBLPDAA@?$DO?5LINECAPS?5?$CFd?$AA@ DB '> LINECAPS %d', 00H ; `string'
CONST	ENDS
;	COMDAT ??_C@_0P@MJKILKAG@?$DO?5CURVECAPS?5?$CFd?$AA@
CONST	SEGMENT
??_C@_0P@MJKILKAG@?$DO?5CURVECAPS?5?$CFd?$AA@ DB '> CURVECAPS %d', 00H ; `string'
CONST	ENDS
;	COMDAT ??_C@_0BB@BIAFAHJC@?$DO?5PDEVICESIZE?5?$CFd?$AA@
CONST	SEGMENT
??_C@_0BB@BIAFAHJC@?$DO?5PDEVICESIZE?5?$CFd?$AA@ DB '> PDEVICESIZE %d', 00H ; `string'
CONST	ENDS
;	COMDAT ??_C@_0P@CDPEOCLN@?$DO?5NUMCOLORS?5?$CFd?$AA@
CONST	SEGMENT
??_C@_0P@CDPEOCLN@?$DO?5NUMCOLORS?5?$CFd?$AA@ DB '> NUMCOLORS %d', 00H ; `string'
CONST	ENDS
;	COMDAT ??_C@_0O@HIAAJLOF@?$DO?5NUMFONTS?5?$CFd?$AA@
CONST	SEGMENT
??_C@_0O@HIAAJLOF@?$DO?5NUMFONTS?5?$CFd?$AA@ DB '> NUMFONTS %d', 00H ; `string'
CONST	ENDS
;	COMDAT ??_C@_0BA@IJEEOFOD@?$DO?5NUMMARKERS?5?$CFd?$AA@
CONST	SEGMENT
??_C@_0BA@IJEEOFOD@?$DO?5NUMMARKERS?5?$CFd?$AA@ DB '> NUMMARKERS %d', 00H ; `string'
CONST	ENDS
;	COMDAT ??_C@_0N@HHCKOKCG@?$DO?5NUMPENS?5?$CFd?$AA@
CONST	SEGMENT
??_C@_0N@HHCKOKCG@?$DO?5NUMPENS?5?$CFd?$AA@ DB '> NUMPENS %d', 00H ; `string'
CONST	ENDS
;	COMDAT ??_C@_0BA@GCBODPHK@?$DO?5NUMBRUSHES?5?$CFd?$AA@
CONST	SEGMENT
??_C@_0BA@GCBODPHK@?$DO?5NUMBRUSHES?5?$CFd?$AA@ DB '> NUMBRUSHES %d', 00H ; `string'
CONST	ENDS
;	COMDAT ??_C@_0M@DABMECAD@?$DO?5PLANES?5?$CFd?$AA@
CONST	SEGMENT
??_C@_0M@DABMECAD@?$DO?5PLANES?5?$CFd?$AA@ DB '> PLANES %d', 00H ; `string'
CONST	ENDS
;	COMDAT ??_C@_0P@CHMKJDGJ@?$DO?5BITSPIXEL?5?$CFd?$AA@
CONST	SEGMENT
??_C@_0P@CHMKJDGJ@?$DO?5BITSPIXEL?5?$CFd?$AA@ DB '> BITSPIXEL %d', 00H ; `string'
CONST	ENDS
;	COMDAT ??_C@_0N@HLDMJPJJ@?$DO?5VERTRES?5?$CFd?$AA@
CONST	SEGMENT
??_C@_0N@HLDMJPJJ@?$DO?5VERTRES?5?$CFd?$AA@ DB '> VERTRES %d', 00H ; `string'
CONST	ENDS
;	COMDAT ??_C@_0N@IFBEPCKP@?$DO?5HORZRES?5?$CFd?$AA@
CONST	SEGMENT
??_C@_0N@IFBEPCKP@?$DO?5HORZRES?5?$CFd?$AA@ DB '> HORZRES %d', 00H ; `string'
CONST	ENDS
;	COMDAT ??_C@_0O@LDGIGNAG@?$DO?5VERTSIZE?5?$CFd?$AA@
CONST	SEGMENT
??_C@_0O@LDGIGNAG@?$DO?5VERTSIZE?5?$CFd?$AA@ DB '> VERTSIZE %d', 00H ; `string'
CONST	ENDS
;	COMDAT ??_C@_0O@HMCMNAPC@?$DO?5HORZSIZE?5?$CFd?$AA@
CONST	SEGMENT
??_C@_0O@HMCMNAPC@?$DO?5HORZSIZE?5?$CFd?$AA@ DB '> HORZSIZE %d', 00H ; `string'
CONST	ENDS
;	COMDAT ??_C@_0BA@KDKPJOH@?$DO?5TECHNOLOGY?5?$CFd?$AA@
CONST	SEGMENT
??_C@_0BA@KDKPJOH@?$DO?5TECHNOLOGY?5?$CFd?$AA@ DB '> TECHNOLOGY %d', 00H ; `string'
CONST	ENDS
;	COMDAT ??_C@_0BD@JDPBNNPN@?$DO?5DRIVERVERSION?5?$CFd?$AA@
CONST	SEGMENT
??_C@_0BD@JDPBNNPN@?$DO?5DRIVERVERSION?5?$CFd?$AA@ DB '> DRIVERVERSION %d'
	DB	00H						; `string'
CONST	ENDS
;	COMDAT ??_C@_0M@CPAOAHIM@DeviceCaps?3?$AA@
CONST	SEGMENT
??_C@_0M@CPAOAHIM@DeviceCaps?3?$AA@ DB 'DeviceCaps:', 00H ; `string'
CONST	ENDS
;	COMDAT ??_C@_0CG@GNEJHKAM@?9?9?5PtrInfo?0?5OpenPrinter?5Err?5?$CFd?5M@
CONST	SEGMENT
??_C@_0CG@GNEJHKAM@?9?9?5PtrInfo?0?5OpenPrinter?5Err?5?$CFd?5M@ DB '-- Pt'
	DB	'rInfo, OpenPrinter Err %d Msg %s', 00H	; `string'
CONST	ENDS
;	COMDAT ??_C@_0BD@ODPAHJGJ@?$DO?5PanningHeight?5?$CFu?$AA@
CONST	SEGMENT
??_C@_0BD@ODPAHJGJ@?$DO?5PanningHeight?5?$CFu?$AA@ DB '> PanningHeight %u'
	DB	00H						; `string'
CONST	ENDS
;	COMDAT ??_C@_0BC@ILEBHAGL@?$DO?5PanningWidth?5?$CFu?$AA@
CONST	SEGMENT
??_C@_0BC@ILEBHAGL@?$DO?5PanningWidth?5?$CFu?$AA@ DB '> PanningWidth %u', 00H ; `string'
CONST	ENDS
;	COMDAT ??_C@_0P@KECJEPKK@?$DO?5Reserved2?5?$CFu?$AA@
CONST	SEGMENT
??_C@_0P@KECJEPKK@?$DO?5Reserved2?5?$CFu?$AA@ DB '> Reserved2 %u', 00H ; `string'
CONST	ENDS
;	COMDAT ??_C@_0P@ODIJDFHK@?$DO?5Reserved1?5?$CFu?$AA@
CONST	SEGMENT
??_C@_0P@ODIJDFHK@?$DO?5Reserved1?5?$CFu?$AA@ DB '> Reserved1 %u', 00H ; `string'
CONST	ENDS
;	COMDAT ??_C@_0BA@IBDIEDAP@?$DO?5DitherType?5?$CFu?$AA@
CONST	SEGMENT
??_C@_0BA@IBDIEDAP@?$DO?5DitherType?5?$CFu?$AA@ DB '> DitherType %u', 00H ; `string'
CONST	ENDS
;	COMDAT ??_C@_0P@DGLLLDPA@?$DO?5MediaType?5?$CFu?$AA@
CONST	SEGMENT
??_C@_0P@DGLLLDPA@?$DO?5MediaType?5?$CFu?$AA@ DB '> MediaType %u', 00H ; `string'
CONST	ENDS
;	COMDAT ??_C@_0P@FBGPJDBI@?$DO?5ICMIntent?5?$CFu?$AA@
CONST	SEGMENT
??_C@_0P@FBGPJDBI@?$DO?5ICMIntent?5?$CFu?$AA@ DB '> ICMIntent %u', 00H ; `string'
CONST	ENDS
;	COMDAT ??_C@_0P@BALKIIFI@?$DO?5ICMMethod?5?$CFu?$AA@
CONST	SEGMENT
??_C@_0P@BALKIIFI@?$DO?5ICMMethod?5?$CFu?$AA@ DB '> ICMMethod %u', 00H ; `string'
CONST	ENDS
;	COMDAT ??_C@_0BA@FJKIIKDN@?$DO?5PelsHeight?5?$CFd?$AA@
CONST	SEGMENT
??_C@_0BA@FJKIIKDN@?$DO?5PelsHeight?5?$CFd?$AA@ DB '> PelsHeight %d', 00H ; `string'
CONST	ENDS
;	COMDAT ??_C@_0P@GJDEABGN@?$DO?5PelsWidth?5?$CFu?$AA@
CONST	SEGMENT
??_C@_0P@GJDEABGN@?$DO?5PelsWidth?5?$CFu?$AA@ DB '> PelsWidth %u', 00H ; `string'
CONST	ENDS
;	COMDAT ??_C@_0BA@IJGBMLDF@?$DO?5BitsPerPel?5?$CFu?$AA@
CONST	SEGMENT
??_C@_0BA@IJGBMLDF@?$DO?5BitsPerPel?5?$CFu?$AA@ DB '> BitsPerPel %u', 00H ; `string'
CONST	ENDS
;	COMDAT ??_C@_0P@HBAMONIO@?$DO?5LogPixels?5?$CFd?$AA@
CONST	SEGMENT
??_C@_0P@HBAMONIO@?$DO?5LogPixels?5?$CFd?$AA@ DB '> LogPixels %d', 00H ; `string'
CONST	ENDS
;	COMDAT ??_C@_0O@NAFNONHG@?$DO?5FormName?5?$CFs?$AA@
CONST	SEGMENT
??_C@_0O@NAFNONHG@?$DO?5FormName?5?$CFs?$AA@ DB '> FormName %s', 00H ; `string'
CONST	ENDS
;	COMDAT ??_C@_0N@DEPFBBGA@?$DO?5Collate?5?$CFd?$AA@
CONST	SEGMENT
??_C@_0N@DEPFBBGA@?$DO?5Collate?5?$CFd?$AA@ DB '> Collate %d', 00H ; `string'
CONST	ENDS
;	COMDAT ??_C@_0O@ODMOOLLN@?$DO?5TTOption?5?$CFd?$AA@
CONST	SEGMENT
??_C@_0O@ODMOOLLN@?$DO?5TTOption?5?$CFd?$AA@ DB '> TTOption %d', 00H ; `string'
CONST	ENDS
;	COMDAT ??_C@_0BB@ODANIHPJ@?$DO?5YResolution?5?$CFd?$AA@
CONST	SEGMENT
??_C@_0BB@ODANIHPJ@?$DO?5YResolution?5?$CFd?$AA@ DB '> YResolution %d', 00H ; `string'
CONST	ENDS
;	COMDAT ??_C@_0M@DMDDHFGN@?$DO?5Duplex?5?$CFd?$AA@
CONST	SEGMENT
??_C@_0M@DMDDHFGN@?$DO?5Duplex?5?$CFd?$AA@ DB '> Duplex %d', 00H ; `string'
CONST	ENDS
;	COMDAT ??_C@_0L@OGGOANCL@?$DO?5Color?5?$CFd?$AA@
CONST	SEGMENT
??_C@_0L@OGGOANCL@?$DO?5Color?5?$CFd?$AA@ DB '> Color %d', 00H ; `string'
CONST	ENDS
;	COMDAT ??_C@_0BB@FEEDGEPE@?$DO?5PrintQulity?5?$CFd?$AA@
CONST	SEGMENT
??_C@_0BB@FEEDGEPE@?$DO?5PrintQulity?5?$CFd?$AA@ DB '> PrintQulity %d', 00H ; `string'
CONST	ENDS
;	COMDAT ??_C@_0BD@PBLNKDE@?$DO?5DefaultSource?5?$CFd?$AA@
CONST	SEGMENT
??_C@_0BD@PBLNKDE@?$DO?5DefaultSource?5?$CFd?$AA@ DB '> DefaultSource %d', 00H ; `string'
CONST	ENDS
;	COMDAT ??_C@_0M@MCOJLIEN@?$DO?5Copies?5?$CFd?$AA@
CONST	SEGMENT
??_C@_0M@MCOJLIEN@?$DO?5Copies?5?$CFd?$AA@ DB '> Copies %d', 00H ; `string'
CONST	ENDS
;	COMDAT ??_C@_0L@CIICACOJ@?$DO?5Scale?5?$CFd?$AA@
CONST	SEGMENT
??_C@_0L@CIICACOJ@?$DO?5Scale?5?$CFd?$AA@ DB '> Scale %d', 00H ; `string'
CONST	ENDS
;	COMDAT ??_C@_0BA@EJLKBGAF@?$DO?5PaperWidth?5?$CFd?$AA@
CONST	SEGMENT
??_C@_0BA@EJLKBGAF@?$DO?5PaperWidth?5?$CFd?$AA@ DB '> PaperWidth %d', 00H ; `string'
CONST	ENDS
;	COMDAT ??_C@_0BB@ECLINGE@?$DO?5PaperLenght?5?$CFd?$AA@
CONST	SEGMENT
??_C@_0BB@ECLINGE@?$DO?5PaperLenght?5?$CFd?$AA@ DB '> PaperLenght %d', 00H ; `string'
CONST	ENDS
;	COMDAT ??_C@_0P@MIJBPCPJ@?$DO?5PaperSize?5?$CFd?$AA@
CONST	SEGMENT
??_C@_0P@MIJBPCPJ@?$DO?5PaperSize?5?$CFd?$AA@ DB '> PaperSize %d', 00H ; `string'
CONST	ENDS
;	COMDAT ??_C@_0M@PJOJJBEC@?$DO?5Orient?5?$CFd?$AA@
CONST	SEGMENT
??_C@_0M@PJOJJBEC@?$DO?5Orient?5?$CFd?$AA@ DB '> Orient %d', 00H ; `string'
CONST	ENDS
;	COMDAT ??_C@_0BG@JDMKIO@?$DO?5DriverFields?50x?$CF?48X?$AA@
CONST	SEGMENT
??_C@_0BG@JDMKIO@?$DO?5DriverFields?50x?$CF?48X?$AA@ DB '> DriverFields 0'
	DB	'x%.8X', 00H					; `string'
CONST	ENDS
;	COMDAT ??_C@_0BB@NFLJLFB@?$DO?5DriverExtra?5?$CFd?$AA@
CONST	SEGMENT
??_C@_0BB@NFLJLFB@?$DO?5DriverExtra?5?$CFd?$AA@ DB '> DriverExtra %d', 00H ; `string'
CONST	ENDS
;	COMDAT ??_C@_09EJHHAJLO@?$DO?5Size?5?$CFd?$AA@
CONST	SEGMENT
??_C@_09EJHHAJLO@?$DO?5Size?5?$CFd?$AA@ DB '> Size %d', 00H ; `string'
CONST	ENDS
;	COMDAT ??_C@_0BD@FHCKIAEA@?$DO?5DriverVersion?5?$CFd?$AA@
CONST	SEGMENT
??_C@_0BD@FHCKIAEA@?$DO?5DriverVersion?5?$CFd?$AA@ DB '> DriverVersion %d'
	DB	00H						; `string'
CONST	ENDS
;	COMDAT ??_C@_0BB@GFIGJBOF@?$DO?5SpecVersion?5?$CFd?$AA@
CONST	SEGMENT
??_C@_0BB@GFIGJBOF@?$DO?5SpecVersion?5?$CFd?$AA@ DB '> SpecVersion %d', 00H ; `string'
CONST	ENDS
;	COMDAT ??_C@_0BA@KDNAKNNN@?$DO?5DeviceName?5?$CFs?$AA@
CONST	SEGMENT
??_C@_0BA@KDNAKNNN@?$DO?5DeviceName?5?$CFs?$AA@ DB '> DeviceName %s', 00H ; `string'
CONST	ENDS
;	COMDAT ??_C@_08JFBLCBEM@DEVMODE?3?$AA@
CONST	SEGMENT
??_C@_08JFBLCBEM@DEVMODE?3?$AA@ DB 'DEVMODE:', 00H	; `string'
CONST	ENDS
;	COMDAT ??_C@_0BF@JJAELOOF@DC_PERSONALITY?5?$CI?$CFd?$CJ?3?$AA@
CONST	SEGMENT
??_C@_0BF@JJAELOOF@DC_PERSONALITY?5?$CI?$CFd?$CJ?3?$AA@ DB 'DC_PERSONALIT'
	DB	'Y (%d):', 00H				; `string'
CONST	ENDS
;	COMDAT ??_C@_0EB@NKGMPEJL@?9?9?5PtrInfo?0?5DeviceCapabilities?$CID@
CONST	SEGMENT
??_C@_0EB@NKGMPEJL@?9?9?5PtrInfo?0?5DeviceCapabilities?$CID@ DB '-- PtrIn'
	DB	'fo, DeviceCapabilities(DC_PERSONALITY, %p) Err %d Msg %s', 00H ; `string'
CONST	ENDS
;	COMDAT ??_C@_0CN@FDCGHEM@?9?9?5PtrInfo?0?5?$DM?$CFs?$DO?5new?5DC_PERSONAL@
CONST	SEGMENT
??_C@_0CN@FDCGHEM@?9?9?5PtrInfo?0?5?$DM?$CFs?$DO?5new?5DC_PERSONAL@ DB '-'
	DB	'- PtrInfo, <%s> new DC_PERSONALITY mem null', 00H ; `string'
CONST	ENDS
;	COMDAT ??_C@_0ED@IFJFLJEL@?9?9?5PtrInfo?0?5DeviceCapabilities?$CID@
CONST	SEGMENT
??_C@_0ED@IFJFLJEL@?9?9?5PtrInfo?0?5DeviceCapabilities?$CID@ DB '-- PtrIn'
	DB	'fo, DeviceCapabilities(DC_PERSONALITY, null) Err %d Msg %s', 00H ; `string'
CONST	ENDS
;	COMDAT ??_C@_0DF@CIBLFONP@?9?9?5PtrInfo?0?5Catch?5unhndld?5excpet@
CONST	SEGMENT
??_C@_0DF@CIBLFONP@?9?9?5PtrInfo?0?5Catch?5unhndld?5excpet@ DB '-- PtrInf'
	DB	'o, Catch unhndld excpetion on MediaTypeList', 00H ; `string'
CONST	ENDS
;	COMDAT ??_C@_0CH@OFCLBKDH@DC_MEDIATYPES?0?5DC_MEDIATYPENAMES@
CONST	SEGMENT
??_C@_0CH@OFCLBKDH@DC_MEDIATYPES?0?5DC_MEDIATYPENAMES@ DB 'DC_MEDIATYPES,'
	DB	' DC_MEDIATYPENAMES (%d):', 00H		; `string'
CONST	ENDS
;	COMDAT ??_C@_0BE@JHLOAEJA@DC_MEDIAREADY?5?$CI?$CFd?$CJ?3?$AA@
CONST	SEGMENT
??_C@_0BE@JHLOAEJA@DC_MEDIAREADY?5?$CI?$CFd?$CJ?3?$AA@ DB 'DC_MEDIAREADY '
	DB	'(%d):', 00H					; `string'
CONST	ENDS
;	COMDAT ??_C@_0EA@BCFCBCDG@?9?9?5PtrInfo?0?5DeviceCapabilities?$CID@
CONST	SEGMENT
??_C@_0EA@BCFCBCDG@?9?9?5PtrInfo?0?5DeviceCapabilities?$CID@ DB '-- PtrIn'
	DB	'fo, DeviceCapabilities(DC_MEDIAREADY, %p) Err %d Msg %s', 00H ; `string'
CONST	ENDS
;	COMDAT ??_C@_0CM@KMOLCCC@?9?9?5PtrInfo?0?5?$DM?$CFs?$DO?5new?5DC_MEDIAREA@
CONST	SEGMENT
??_C@_0CM@KMOLCCC@?9?9?5PtrInfo?0?5?$DM?$CFs?$DO?5new?5DC_MEDIAREA@ DB '-'
	DB	'- PtrInfo, <%s> new DC_MEDIAREADY mem null', 00H ; `string'
CONST	ENDS
;	COMDAT ??_C@_0EC@NHFFPEJM@?9?9?5PtrInfo?0?5DeviceCapabilities?$CID@
CONST	SEGMENT
??_C@_0EC@NHFFPEJM@?9?9?5PtrInfo?0?5DeviceCapabilities?$CID@ DB '-- PtrIn'
	DB	'fo, DeviceCapabilities(DC_MEDIAREADY, null) Err %d Msg %s', 00H ; `string'
CONST	ENDS
;	COMDAT ??_C@_09JDHLMKJK@?$DO?$CF?42d?3?5?$CFs?$AA@
CONST	SEGMENT
??_C@_09JDHLMKJK@?$DO?$CF?42d?3?5?$CFs?$AA@ DB '>%.2d: %s', 00H ; `string'
CONST	ENDS
;	COMDAT ??_C@_0BK@NAHDGPCH@DC_FILEDEPENDENCIES?5?$CI?$CFd?$CJ?3?$AA@
CONST	SEGMENT
??_C@_0BK@NAHDGPCH@DC_FILEDEPENDENCIES?5?$CI?$CFd?$CJ?3?$AA@ DB 'DC_FILED'
	DB	'EPENDENCIES (%d):', 00H			; `string'
CONST	ENDS
;	COMDAT ??_C@_0EG@KMPBJHDP@?9?9?5PtrInfo?0?5DeviceCapabilities?$CID@
CONST	SEGMENT
??_C@_0EG@KMPBJHDP@?9?9?5PtrInfo?0?5DeviceCapabilities?$CID@ DB '-- PtrIn'
	DB	'fo, DeviceCapabilities(DC_FILEDEPENDENCIES, %p) Err %d Msg %s'
	DB	00H						; `string'
CONST	ENDS
;	COMDAT ??_C@_0DC@MCOOCAIH@?9?9?5PtrInfo?0?5?$DM?$CFs?$DO?5new?5DC_FILEDEPE@
CONST	SEGMENT
??_C@_0DC@MCOOCAIH@?9?9?5PtrInfo?0?5?$DM?$CFs?$DO?5new?5DC_FILEDEPE@ DB '-'
	DB	'- PtrInfo, <%s> new DC_FILEDEPENDENCIES mem null', 00H ; `string'
CONST	ENDS
;	COMDAT ??_C@_0EI@JLEFIGNJ@?9?9?5PtrInfo?0?5DeviceCapabilities?$CID@
CONST	SEGMENT
??_C@_0EI@JLEFIGNJ@?9?9?5PtrInfo?0?5DeviceCapabilities?$CID@ DB '-- PtrIn'
	DB	'fo, DeviceCapabilities(DC_FILEDEPENDENCIES, null) Err %d Msg '
	DB	'%s', 00H					; `string'
CONST	ENDS
;	COMDAT ??_C@_09MFCBGNBM@?$DO?$CF?42d?3?5?$CFu?$AA@
CONST	SEGMENT
??_C@_09MFCBGNBM@?$DO?$CF?42d?3?5?$CFu?$AA@ DB '>%.2d: %u', 00H ; `string'
CONST	ENDS
;	COMDAT ??_C@_0N@EHIGBDLP@DC_NUP?5?$CI?$CFd?$CJ?3?$AA@
CONST	SEGMENT
??_C@_0N@EHIGBDLP@DC_NUP?5?$CI?$CFd?$CJ?3?$AA@ DB 'DC_NUP (%d):', 00H ; `string'
CONST	ENDS
;	COMDAT ??_C@_0DJ@OGEOOIOH@?9?9?5PtrInfo?0?5DeviceCapabilities?$CID@
CONST	SEGMENT
??_C@_0DJ@OGEOOIOH@?9?9?5PtrInfo?0?5DeviceCapabilities?$CID@ DB '-- PtrIn'
	DB	'fo, DeviceCapabilities(DC_NUP, %p) Err %d Msg %s', 00H ; `string'
CONST	ENDS
;	COMDAT ??_C@_0CF@DGNIMKMD@?9?9?5PtrInfo?0?5?$DM?$CFs?$DO?5new?5DC_NUP?5mem?5@
CONST	SEGMENT
??_C@_0CF@DGNIMKMD@?9?9?5PtrInfo?0?5?$DM?$CFs?$DO?5new?5DC_NUP?5mem?5@ DB '-'
	DB	'- PtrInfo, <%s> new DC_NUP mem null', 00H	; `string'
CONST	ENDS
;	COMDAT ??_C@_0DL@BCBOOPNM@?9?9?5PtrInfo?0?5DeviceCapabilities?$CID@
CONST	SEGMENT
??_C@_0DL@BCBOOPNM@?9?9?5PtrInfo?0?5DeviceCapabilities?$CID@ DB '-- PtrIn'
	DB	'fo, DeviceCapabilities(DC_NUP, null) Err %d Msg %s', 00H ; `string'
CONST	ENDS
;	COMDAT ??_C@_0P@MLIHNHLK@DC_TRUETYPE?5?$CFd?$AA@
CONST	SEGMENT
??_C@_0P@MLIHNHLK@DC_TRUETYPE?5?$CFd?$AA@ DB 'DC_TRUETYPE %d', 00H ; `string'
CONST	ENDS
;	COMDAT ??_C@_0N@ONNHJAOP@DC_STAPLE?5?$CFd?$AA@
CONST	SEGMENT
??_C@_0N@ONNHJAOP@DC_STAPLE?5?$CFd?$AA@ DB 'DC_STAPLE %d', 00H ; `string'
CONST	ENDS
;	COMDAT ??_C@_0L@ICJGKLML@DC_SIZE?5?$CFd?$AA@
CONST	SEGMENT
??_C@_0L@ICJGKLML@DC_SIZE?5?$CFd?$AA@ DB 'DC_SIZE %d', 00H ; `string'
CONST	ENDS
;	COMDAT ??_C@_0CC@BIAELLNL@DC_MINEXTENT?3?5Lenght?5?$CFu?0?5Width?5?$CF@
CONST	SEGMENT
??_C@_0CC@BIAELLNL@DC_MINEXTENT?3?5Lenght?5?$CFu?0?5Width?5?$CF@ DB 'DC_M'
	DB	'INEXTENT: Lenght %u, Width %u', 00H		; `string'
CONST	ENDS
;	COMDAT ??_C@_0CC@DHNLPIEG@DC_MAXEXTENT?3?5Lenght?5?$CFu?0?5Width?5?$CF@
CONST	SEGMENT
??_C@_0CC@DHNLPIEG@DC_MAXEXTENT?3?5Lenght?5?$CFu?0?5Width?5?$CF@ DB 'DC_M'
	DB	'AXEXTENT: Lenght %u, Width %u', 00H		; `string'
CONST	ENDS
;	COMDAT ??_C@_0N@FMBEEHK@DC_FIELDS?5?$CFu?$AA@
CONST	SEGMENT
??_C@_0N@FMBEEHK@DC_FIELDS?5?$CFu?$AA@ DB 'DC_FIELDS %u', 00H ; `string'
CONST	ENDS
;	COMDAT ??_C@_0O@BHGLDB@DC_VERSION?5?$CFd?$AA@
CONST	SEGMENT
??_C@_0O@BHGLDB@DC_VERSION?5?$CFd?$AA@ DB 'DC_VERSION %d', 00H ; `string'
CONST	ENDS
;	COMDAT ??_C@_0N@BOEFEHCB@DC_DRIVER?5?$CFd?$AA@
CONST	SEGMENT
??_C@_0N@BOEFEHCB@DC_DRIVER?5?$CFd?$AA@ DB 'DC_DRIVER %d', 00H ; `string'
CONST	ENDS
;	COMDAT ??_C@_0N@JAMONLMJ@DC_DUPLEX?5?$CFd?$AA@
CONST	SEGMENT
??_C@_0N@JAMONLMJ@DC_DUPLEX?5?$CFd?$AA@ DB 'DC_DUPLEX %d', 00H ; `string'
CONST	ENDS
;	COMDAT ??_C@_0BC@CPGDDBNJ@DC_COLORDEVICE?5?$CFd?$AA@
CONST	SEGMENT
??_C@_0BC@CPGDDBNJ@DC_COLORDEVICE?5?$CFd?$AA@ DB 'DC_COLORDEVICE %d', 00H ; `string'
CONST	ENDS
;	COMDAT ??_C@_0O@CECDKEDL@DC_COLLATE?5?$CFd?$AA@
CONST	SEGMENT
??_C@_0O@CECDKEDL@DC_COLLATE?5?$CFd?$AA@ DB 'DC_COLLATE %d', 00H ; `string'
CONST	ENDS
;	COMDAT ??_C@_0N@GOBEBGOJ@DC_COPIES?5?$CFd?$AA@
CONST	SEGMENT
??_C@_0N@GOBEBGOJ@DC_COPIES?5?$CFd?$AA@ DB 'DC_COPIES %d', 00H ; `string'
CONST	ENDS
;	COMDAT ??_C@_0BC@NAFPPPIH@DC_ORIENTATION?5?$CFd?$AA@
CONST	SEGMENT
??_C@_0BC@NAFPPPIH@DC_ORIENTATION?5?$CFd?$AA@ DB 'DC_ORIENTATION %d', 00H ; `string'
CONST	ENDS
;	COMDAT ??_C@_0DB@CMDEFNNK@?9?9?5PtrInfo?0?5Catch?5unhndld?5excpet@
CONST	SEGMENT
??_C@_0DB@CMDEFNNK@?9?9?5PtrInfo?0?5Catch?5unhndld?5excpet@ DB '-- PtrInf'
	DB	'o, Catch unhndld excpetion on PaperList', 00H ; `string'
CONST	ENDS
;	COMDAT ??_C@_0BJ@ENBLCNAO@?$DO?$CF?42d?3?5?$CFu?0?5?$CFs?0?5?$CF?45d?5?$CF?45d?$AA@
CONST	SEGMENT
??_C@_0BJ@ENBLCNAO@?$DO?$CF?42d?3?5?$CFu?0?5?$CFs?0?5?$CF?45d?5?$CF?45d?$AA@ DB '>'
	DB	'%.2d: %u, %s, %.5d %.5d', 00H		; `string'
CONST	ENDS
;	COMDAT ??_C@_0CN@GKNAEPGN@DC_PAPERS?0?5DC_PAPERNAMES?0?5DC_PAP@
CONST	SEGMENT
??_C@_0CN@GKNAEPGN@DC_PAPERS?0?5DC_PAPERNAMES?0?5DC_PAP@ DB 'DC_PAPERS, D'
	DB	'C_PAPERNAMES, DC_PAPERSIZE (%d):', 00H	; `string'
CONST	ENDS
;	COMDAT ??_C@_0CP@BNOBPGPC@?9?9?5PtrInfo?0?5Catch?5unhndld?5excpet@
CONST	SEGMENT
??_C@_0CP@BNOBPGPC@?9?9?5PtrInfo?0?5Catch?5unhndld?5excpet@ DB '-- PtrInf'
	DB	'o, Catch unhndld excpetion on BinList', 00H	; `string'
CONST	ENDS
;	COMDAT ??_C@_0O@KDMGFAIN@?$DO?$CF?42d?3?5?$CFu?0?5?$CFs?$AA@
CONST	SEGMENT
??_C@_0O@KDMGFAIN@?$DO?$CF?42d?3?5?$CFu?0?5?$CFs?$AA@ DB '>%.2d: %u, %s', 00H ; `string'
CONST	ENDS
;	COMDAT ??_C@_0BL@IBIADDJ@DC_BINS?0?5DC_BINNAMES?5?$CI?$CFd?$CJ?3?$AA@
CONST	SEGMENT
??_C@_0BL@IBIADDJ@DC_BINS?0?5DC_BINNAMES?5?$CI?$CFd?$CJ?3?$AA@ DB 'DC_BIN'
	DB	'S, DC_BINNAMES (%d):', 00H			; `string'
CONST	ENDS
;	COMDAT ??_C@_0P@OBKMFCDP@?$DO?$CF?42d?3?5?$CFu?5x?5?$CFu?$AA@
CONST	SEGMENT
??_C@_0P@OBKMFCDP@?$DO?$CF?42d?3?5?$CFu?5x?5?$CFu?$AA@ DB '>%.2d: %u x %u'
	DB	00H						; `string'
CONST	ENDS
;	COMDAT ??_C@_0BJ@PLJPAGFI@DC_ENUMRESOLUTIONS?5?$CI?$CFd?$CJ?3?$AA@
CONST	SEGMENT
??_C@_0BJ@PLJPAGFI@DC_ENUMRESOLUTIONS?5?$CI?$CFd?$CJ?3?$AA@ DB 'DC_ENUMRE'
	DB	'SOLUTIONS (%d):', 00H			; `string'
CONST	ENDS
;	COMDAT ??_C@_0EF@GAIMDBJI@?9?9?5PtrInfo?0?5DeviceCapabilities?$CID@
CONST	SEGMENT
??_C@_0EF@GAIMDBJI@?9?9?5PtrInfo?0?5DeviceCapabilities?$CID@ DB '-- PtrIn'
	DB	'fo, DeviceCapabilities(DC_ENUMRESOLUTIONS, %p) Err %d Msg %s', 00H ; `string'
CONST	ENDS
;	COMDAT ??_C@_0DB@OINKGGOI@?9?9?5PtrInfo?0?5?$DM?$CFs?$DO?5new?5DC_ENUMRESO@
CONST	SEGMENT
??_C@_0DB@OINKGGOI@?9?9?5PtrInfo?0?5?$DM?$CFs?$DO?5new?5DC_ENUMRESO@ DB '-'
	DB	'- PtrInfo, <%s> new DC_ENUMRESOLUTIONS mem null', 00H ; `string'
CONST	ENDS
;	COMDAT ??_C@_0EH@EFLGGGFH@?9?9?5PtrInfo?0?5DeviceCapabilities?$CID@
CONST	SEGMENT
??_C@_0EH@EFLGGGFH@?9?9?5PtrInfo?0?5DeviceCapabilities?$CID@ DB '-- PtrIn'
	DB	'fo, DeviceCapabilities(DC_ENUMRESOLUTIONS, null) Err %d Msg %'
	DB	's', 00H					; `string'
CONST	ENDS
;	COMDAT ??_C@_0CG@GNJLFBNH@Info?5from?5?$CFs?0?5Port?5?$CFs?0?5Driver?5?$CFs@
CONST	SEGMENT
??_C@_0CG@GNJLFBNH@Info?5from?5?$CFs?0?5Port?5?$CFs?0?5Driver?5?$CFs@ DB 'I'
	DB	'nfo from %s, Port %s, Driver %s (%d)', 00H	; `string'
CONST	ENDS
;	COMDAT ??_C@_0BN@HOILGMMA@?$DM?$DM?5PtrInfo?0?5PtrInfoList?5null?$AA@
CONST	SEGMENT
??_C@_0BN@HOILGMMA@?$DM?$DM?5PtrInfo?0?5PtrInfoList?5null?$AA@ DB '<< Ptr'
	DB	'Info, PtrInfoList null', 00H		; `string'
CONST	ENDS
;	COMDAT ??_C@_0BH@ENEDNFCI@?$DM?$DM?5PtrInfo?0?5No?5Printer?$AA@
CONST	SEGMENT
??_C@_0BH@ENEDNFCI@?$DM?$DM?5PtrInfo?0?5No?5Printer?$AA@ DB '<< PtrInfo, '
	DB	'No Printer', 00H				; `string'
CONST	ENDS
;	COMDAT ??_C@_0L@DBGBMPOH@?$DO?$DO?5PtrInfo?$AA@
CONST	SEGMENT
??_C@_0L@DBGBMPOH@?$DO?$DO?5PtrInfo?$AA@ DB '>> PtrInfo', 00H ; `string'
CONST	ENDS
;	COMDAT ??_C@_0BN@IBLEBHCE@?$DM?$DM?5GetMediaTypeList?0?5List?5?$CFp?$AA@
CONST	SEGMENT
??_C@_0BN@IBLEBHCE@?$DM?$DM?5GetMediaTypeList?0?5List?5?$CFp?$AA@ DB '<< '
	DB	'GetMediaTypeList, List %p', 00H		; `string'
CONST	ENDS
;	COMDAT ??_C@_0EN@LODPGLOM@?9?9?5GetMediaTypeList?0?5DeviceCapab@
CONST	SEGMENT
??_C@_0EN@LODPGLOM@?9?9?5GetMediaTypeList?0?5DeviceCapab@ DB '-- GetMedia'
	DB	'TypeList, DeviceCapabilities(DC_MEDIATYPENAMES, %p) Err %d Ms'
	DB	'g %s', 00H					; `string'
CONST	ENDS
;	COMDAT ??_C@_0DJ@CAKMLHPC@?9?9?5GetMediaTypeList?0?5?$DM?$CFs?$DO?5new?5DC@
CONST	SEGMENT
??_C@_0DJ@CAKMLHPC@?9?9?5GetMediaTypeList?0?5?$DM?$CFs?$DO?5new?5DC@ DB '-'
	DB	'- GetMediaTypeList, <%s> new DC_MEDIATYPENAMES mem null', 00H ; `string'
CONST	ENDS
;	COMDAT ??_C@_0EJ@PFOHCMBM@?$DM?$DM?5GetMediaTypeList?0?5DeviceCapab@
CONST	SEGMENT
??_C@_0EJ@PFOHCMBM@?$DM?$DM?5GetMediaTypeList?0?5DeviceCapab@ DB '<< GetM'
	DB	'ediaTypeList, DeviceCapabilities(DC_MEDIATYPES, %p) Err %d Ms'
	DB	'g %s', 00H					; `string'
CONST	ENDS
;	COMDAT ??_C@_0DJ@IAEPPFOH@?$DM?$DM?5GetMediaTypeList?0?5?$DM?$CFs?$DO?5new?5PT@
CONST	SEGMENT
??_C@_0DJ@IAEPPFOH@?$DM?$DM?5GetMediaTypeList?0?5?$DM?$CFs?$DO?5new?5PT@ DB '<'
	DB	'< GetMediaTypeList, <%s> new PTRDATA_INFO_LIST mem null', 00H ; `string'
CONST	ENDS
;	COMDAT ??_C@_0DF@EKPICGIC@?9?9?5GetMediaTypeList?0?5?$DM?$CFs?$DO?5new?5DC@
CONST	SEGMENT
??_C@_0DF@EKPICGIC@?9?9?5GetMediaTypeList?0?5?$DM?$CFs?$DO?5new?5DC@ DB '-'
	DB	'- GetMediaTypeList, <%s> new DC_MEDIATYPES mem null', 00H ; `string'
CONST	ENDS
;	COMDAT ??_C@_0EL@HJFPMCKK@?$DM?$DM?5GetMediaTypeList?0?5DeviceCapab@
CONST	SEGMENT
??_C@_0EL@HJFPMCKK@?$DM?$DM?5GetMediaTypeList?0?5DeviceCapab@ DB '<< GetM'
	DB	'ediaTypeList, DeviceCapabilities(DC_MEDIATYPES, null) Err %d '
	DB	'Msg %s', 00H				; `string'
CONST	ENDS
;	COMDAT ??_C@_0CG@PBHDOEPC@?$DO?$DO?5GetMediaTypeList?0?5Name?5?$CFs?0?5Po@
CONST	SEGMENT
??_C@_0CG@PBHDOEPC@?$DO?$DO?5GetMediaTypeList?0?5Name?5?$CFs?0?5Po@ DB '>'
	DB	'> GetMediaTypeList, Name %s, Port %s', 00H	; `string'
CONST	ENDS
;	COMDAT ??_C@_0BJ@HGBNGAMD@?$DM?$DM?5GetPaperList?0?5List?5?$CFp?$AA@
CONST	SEGMENT
??_C@_0BJ@HGBNGAMD@?$DM?$DM?5GetPaperList?0?5List?5?$CFp?$AA@ DB '<< GetP'
	DB	'aperList, List %p', 00H			; `string'
CONST	ENDS
;	COMDAT ??_C@_0EF@EEKEBLFH@?9?9?5GetPaperList?0?5DeviceCapabilit@
CONST	SEGMENT
??_C@_0EF@EEKEBLFH@?9?9?5GetPaperList?0?5DeviceCapabilit@ DB '-- GetPaper'
	DB	'List, DeviceCapabilities(DC_PAPERNAMES, %p) Err %d Msg %s', 00H ; `string'
CONST	ENDS
;	COMDAT ??_C@_0DB@DLBCIEDL@?9?9?5GetPaperList?0?5?$DM?$CFs?$DO?5new?5DC_PAP@
CONST	SEGMENT
??_C@_0DB@DLBCIEDL@?9?9?5GetPaperList?0?5?$DM?$CFs?$DO?5new?5DC_PAP@ DB '-'
	DB	'- GetPaperList, <%s> new DC_PAPERNAMES mem null', 00H ; `string'
CONST	ENDS
;	COMDAT ??_C@_0EE@PHEGEMLJ@?9?9?5GetPaperList?0?5DeviceCapabilit@
CONST	SEGMENT
??_C@_0EE@PHEGEMLJ@?9?9?5GetPaperList?0?5DeviceCapabilit@ DB '-- GetPaper'
	DB	'List, DeviceCapabilities(DC_PAPERSIZE, %p) Err %d Msg %s', 00H ; `string'
CONST	ENDS
;	COMDAT ??_C@_0DA@NJCIHNJI@?9?9?5GetPaperList?0?5?$DM?$CFs?$DO?5new?5DC_PAP@
CONST	SEGMENT
??_C@_0DA@NJCIHNJI@?9?9?5GetPaperList?0?5?$DM?$CFs?$DO?5new?5DC_PAP@ DB '-'
	DB	'- GetPaperList, <%s> new DC_PAPERSIZE mem null', 00H ; `string'
CONST	ENDS
;	COMDAT ??_C@_0EB@CEGPPGMD@?$DM?$DM?5GetPaperList?0?5DeviceCapabilit@
CONST	SEGMENT
??_C@_0EB@CEGPPGMD@?$DM?$DM?5GetPaperList?0?5DeviceCapabilit@ DB '<< GetP'
	DB	'aperList, DeviceCapabilities(DC_PAPERS, %p) Err %d Msg %s', 00H ; `string'
CONST	ENDS
;	COMDAT ??_C@_0DF@MINJLAHF@?$DM?$DM?5GetPaperList?0?5?$DM?$CFs?$DO?5new?5PTRDAT@
CONST	SEGMENT
??_C@_0DF@MINJLAHF@?$DM?$DM?5GetPaperList?0?5?$DM?$CFs?$DO?5new?5PTRDAT@ DB '<'
	DB	'< GetPaperList, <%s> new PTRDATA_INFO_LIST mem null', 00H ; `string'
CONST	ENDS
;	COMDAT ??_C@_0CN@BIOGLDPF@?$DM?$DM?5GetPaperList?0?5?$DM?$CFs?$DO?5new?5DC_PAP@
CONST	SEGMENT
??_C@_0CN@BIOGLDPF@?$DM?$DM?5GetPaperList?0?5?$DM?$CFs?$DO?5new?5DC_PAP@ DB '<'
	DB	'< GetPaperList, <%s> new DC_PAPERS mem null', 00H ; `string'
CONST	ENDS
;	COMDAT ??_C@_0ED@BJPJPBDI@?$DM?$DM?5GetPaperList?0?5DeviceCapabilit@
CONST	SEGMENT
??_C@_0ED@BJPJPBDI@?$DM?$DM?5GetPaperList?0?5DeviceCapabilit@ DB '<< GetP'
	DB	'aperList, DeviceCapabilities(DC_PAPERS, null) Err %d Msg %s', 00H ; `string'
CONST	ENDS
;	COMDAT ??_C@_0CC@ONAFHJDF@?$DO?$DO?5GetPaperList?0?5Name?5?$CFs?0?5Port?5?$CF@
CONST	SEGMENT
??_C@_0CC@ONAFHJDF@?$DO?$DO?5GetPaperList?0?5Name?5?$CFs?0?5Port?5?$CF@ DB '>'
	DB	'> GetPaperList, Name %s, Port %s', 00H	; `string'
CONST	ENDS
;	COMDAT ??_C@_0BH@CEPOJCOE@?$DM?$DM?5GetBinList?0?5List?5?$CFp?$AA@
CONST	SEGMENT
??_C@_0BH@CEPOJCOE@?$DM?$DM?5GetBinList?0?5List?5?$CFp?$AA@ DB '<< GetBin'
	DB	'List, List %p', 00H				; `string'
CONST	ENDS
;	COMDAT ??_C@_0EB@NDHMGLE@?9?9?5GetBinList?0?5DeviceCapabilitie@
CONST	SEGMENT
??_C@_0EB@NDHMGLE@?9?9?5GetBinList?0?5DeviceCapabilitie@ DB '-- GetBinLis'
	DB	't, DeviceCapabilities(DC_BINNAMES, %p) Err %d Msg %s', 00H ; `string'
CONST	ENDS
;	COMDAT ??_C@_0CN@HGGHLGCE@?9?9?5GetBinList?0?5?$DM?$CFs?$DO?5new?5DC_BINNA@
CONST	SEGMENT
??_C@_0CN@HGGHLGCE@?9?9?5GetBinList?0?5?$DM?$CFs?$DO?5new?5DC_BINNA@ DB '-'
	DB	'- GetBinList, <%s> new DC_BINNAMES mem null', 00H ; `string'
CONST	ENDS
;	COMDAT ??_C@_0DN@NNGIOEEB@?$DM?$DM?5GetBinList?0?5DeviceCapabilitie@
CONST	SEGMENT
??_C@_0DN@NNGIOEEB@?$DM?$DM?5GetBinList?0?5DeviceCapabilitie@ DB '<< GetB'
	DB	'inList, DeviceCapabilities(DC_BINS, %p) Err %d Msg %s', 00H ; `string'
CONST	ENDS
;	COMDAT ??_C@_0DD@GBLOLICC@?$DM?$DM?5GetBinList?0?5?$DM?$CFs?$DO?5new?5PTRDATA_@
CONST	SEGMENT
??_C@_0DD@GBLOLICC@?$DM?$DM?5GetBinList?0?5?$DM?$CFs?$DO?5new?5PTRDATA_@ DB '<'
	DB	'< GetBinList, <%s> new PTRDATA_INFO_LIST mem null', 00H ; `string'
CONST	ENDS
;	COMDAT ??_C@_0CJ@MFGEJMEH@?$DM?$DM?5GetBinList?0?5?$DM?$CFs?$DO?5new?5DC_BINS?5@
CONST	SEGMENT
??_C@_0CJ@MFGEJMEH@?$DM?$DM?5GetBinList?0?5?$DM?$CFs?$DO?5new?5DC_BINS?5@ DB '<'
	DB	'< GetBinList, <%s> new DC_BINS mem null', 00H ; `string'
CONST	ENDS
;	COMDAT ??_C@_0DP@ODPFIDLO@?$DM?$DM?5GetBinList?0?5DeviceCapabilitie@
CONST	SEGMENT
??_C@_0DP@ODPFIDLO@?$DM?$DM?5GetBinList?0?5DeviceCapabilitie@ DB '<< GetB'
	DB	'inList, DeviceCapabilities(DC_BINS, null) Err %d Msg %s', 00H ; `string'
CONST	ENDS
;	COMDAT ??_C@_0CA@MEDOMPCD@?$DO?$DO?5GetBinList?0?5Name?5?$CFs?0?5Port?5?$CFs?$AA@
CONST	SEGMENT
??_C@_0CA@MEDOMPCD@?$DO?$DO?5GetBinList?0?5Name?5?$CFs?0?5Port?5?$CFs?$AA@ DB '>'
	DB	'> GetBinList, Name %s, Port %s', 00H	; `string'
CONST	ENDS
;	COMDAT ??_C@_0P@GDDJCMON@?$DM?$DM?5GetPtrsList?$AA@
CONST	SEGMENT
??_C@_0P@GDDJCMON@?$DM?$DM?5GetPtrsList?$AA@ DB '<< GetPtrsList', 00H ; `string'
CONST	ENDS
;	COMDAT ??_C@_0DB@OBDCAEAF@?$DO?5?$CF?42d?3?5?2?2?$CFs?2?$CFs?0?5?5?$CFs?0?5?$CFs?0?5?$CFs?0?5?$CFu@
CONST	SEGMENT
??_C@_0DB@OBDCAEAF@?$DO?5?$CF?42d?3?5?2?2?$CFs?2?$CFs?0?5?5?$CFs?0?5?$CFs?0?5?$CFs?0?5?$CFu@ DB '>'
	DB	' %.2d: \\%s\%s,  %s, %s, %s, %u, %u, %s, %s, %s', 00H ; `string'
CONST	ENDS
;	COMDAT ??_C@_0P@EABBNIJO@?$DMLocalPrinter?$DO?$AA@
CONST	SEGMENT
??_C@_0P@EABBNIJO@?$DMLocalPrinter?$DO?$AA@ DB '<LocalPrinter>', 00H ; `string'
CONST	ENDS
;	COMDAT ??_C@_0FD@LPLLHANM@?$DO?5?5?5?5?5Printer?0?5Port?0?5Driver?0?5Pro@
CONST	SEGMENT
??_C@_0FD@LPLLHANM@?$DO?5?5?5?5?5Printer?0?5Port?0?5Driver?0?5Pro@ DB '> '
	DB	'    Printer, Port, Driver, Processor, Status, Priority, Locat'
	DB	'ion, Share, Comment', 00H			; `string'
CONST	ENDS
;	COMDAT ??_C@_0BL@DODNOLI@Printers?5Information?5?$CI?$CFd?$CJ?3?$AA@
CONST	SEGMENT
??_C@_0BL@DODNOLI@Printers?5Information?5?$CI?$CFd?$CJ?3?$AA@ DB 'Printer'
	DB	's Information (%d):', 00H			; `string'
CONST	ENDS
;	COMDAT ??_C@_0CF@POBEDBNN@?$DM?$DM?5GetPtrsList?0?5new?5PrtInfoList?5@
CONST	SEGMENT
??_C@_0CF@POBEDBNN@?$DM?$DM?5GetPtrsList?0?5new?5PrtInfoList?5@ DB '<< Ge'
	DB	'tPtrsList, new PrtInfoList null', 00H	; `string'
CONST	ENDS
;	COMDAT ??_C@_0CL@CMLCIBBP@?$DM?$DM?5GetPtrsList?0?5EnumPrinters?5Err@
CONST	SEGMENT
??_C@_0CL@CMLCIBBP@?$DM?$DM?5GetPtrsList?0?5EnumPrinters?5Err@ DB '<< Get'
	DB	'PtrsList, EnumPrinters Err %d Msg %s', 00H	; `string'
CONST	ENDS
;	COMDAT ??_C@_0CB@CEENFMON@?$DM?$DM?5GetPtrsList?0?5new?5PtrInfo?5null@
CONST	SEGMENT
??_C@_0CB@CEENFMON@?$DM?$DM?5GetPtrsList?0?5new?5PtrInfo?5null@ DB '<< Ge'
	DB	'tPtrsList, new PtrInfo null', 00H		; `string'
CONST	ENDS
;	COMDAT ??_C@_0BL@CMACENMK@?$DM?$DM?5GetPtrsList?0?5No?5Printer?$AA@
CONST	SEGMENT
??_C@_0BL@CMACENMK@?$DM?$DM?5GetPtrsList?0?5No?5Printer?$AA@ DB '<< GetPt'
	DB	'rsList, No Printer', 00H			; `string'
CONST	ENDS
;	COMDAT ??_C@_0P@CKNBFJNB@?$DO?$DO?5GetPtrsList?$AA@
CONST	SEGMENT
??_C@_0P@CKNBFJNB@?$DO?$DO?5GetPtrsList?$AA@ DB '>> GetPtrsList', 00H ; `string'
CONST	ENDS
;	COMDAT ??_C@_0M@JHACCAAA@?$DM?$DM?5PerfInfo?$AA@
CONST	SEGMENT
??_C@_0M@JHACCAAA@?$DM?$DM?5PerfInfo?$AA@ DB '<< PerfInfo', 00H ; `string'
CONST	ENDS
;	COMDAT ??_C@_0CL@PIJNDBHN@PerfInfo?0?5GetPerformanceInfo?5fai@
CONST	SEGMENT
??_C@_0CL@PIJNDBHN@PerfInfo?0?5GetPerformanceInfo?5fai@ DB 'PerfInfo, Get'
	DB	'PerformanceInfo failed %u, %s', 00H		; `string'
CONST	ENDS
;	COMDAT ??_C@_0CD@DBCKLHBG@Process?5?$CFu?0?5Handles?5?$CFu?0?5Threads?5@
CONST	SEGMENT
??_C@_0CD@DBCKLHBG@Process?5?$CFu?0?5Handles?5?$CFu?0?5Threads?5@ DB 'Pro'
	DB	'cess %u, Handles %u, Threads %u', 00H	; `string'
CONST	ENDS
;	COMDAT ??_C@_0N@HEDGONEI@Page?5Size?5?$CFu?$AA@
CONST	SEGMENT
??_C@_0N@HEDGONEI@Page?5Size?5?$CFu?$AA@ DB 'Page Size %u', 00H ; `string'
CONST	ENDS
;	COMDAT ??_C@_0CI@POMBEGEK@Kernel?3?5Total?5?$CFu?0?5Paged?5?$CFu?0?5Nonp@
CONST	SEGMENT
??_C@_0CI@POMBEGEK@Kernel?3?5Total?5?$CFu?0?5Paged?5?$CFu?0?5Nonp@ DB 'Ke'
	DB	'rnel: Total %u, Paged %u, Nonpaged %u', 00H	; `string'
CONST	ENDS
;	COMDAT ??_C@_0BA@DCNNFMJH@System?5Cache?5?$CFu?$AA@
CONST	SEGMENT
??_C@_0BA@DCNNFMJH@System?5Cache?5?$CFu?$AA@ DB 'System Cache %u', 00H ; `string'
CONST	ENDS
;	COMDAT ??_C@_0CB@KFDPCIGB@Physical?3?5Total?5?$CFu?0?5Available?5?$CFu@
CONST	SEGMENT
??_C@_0CB@KFDPCIGB@Physical?3?5Total?5?$CFu?0?5Available?5?$CFu@ DB 'Phys'
	DB	'ical: Total %u, Available %u', 00H		; `string'
CONST	ENDS
;	COMDAT ??_C@_0CE@ONMEHFLA@Commit?3?5Total?5?$CFu?0?5Limit?5?$CFu?0?5Peak@
CONST	SEGMENT
??_C@_0CE@ONMEHFLA@Commit?3?5Total?5?$CFu?0?5Limit?5?$CFu?0?5Peak@ DB 'Co'
	DB	'mmit: Total %u, Limit %u, Peak %u', 00H	; `string'
CONST	ENDS
;	COMDAT ??_C@_0BI@ECNHKKAA@Performance?5Information?$AA@
CONST	SEGMENT
??_C@_0BI@ECNHKKAA@Performance?5Information?$AA@ DB 'Performance Informat'
	DB	'ion', 00H					; `string'
CONST	ENDS
;	COMDAT ??_C@_0M@CDFFAHFO@?$DO?$DO?5PerfInfo?$AA@
CONST	SEGMENT
??_C@_0M@CDFFAHFO@?$DO?$DO?5PerfInfo?$AA@ DB '>> PerfInfo', 00H ; `string'
CONST	ENDS
;	COMDAT ??_C@_0L@NHDPJOBN@?$DM?$DM?5DevDrvs?$AA@
CONST	SEGMENT
??_C@_0L@NHDPJOBN@?$DM?$DM?5DevDrvs?$AA@ DB '<< DevDrvs', 00H ; `string'
CONST	ENDS
;	COMDAT ??_C@_0EB@GKALJOAD@DevDrvs?0?5EnumDeviceDrivers?5faile@
CONST	SEGMENT
??_C@_0EB@GKALJOAD@DevDrvs?0?5EnumDeviceDrivers?5faile@ DB 'DevDrvs, Enum'
	DB	'DeviceDrivers failed: %u, %s (array size needed %u)', 00H ; `string'
CONST	ENDS
;	COMDAT ??_C@_0P@OBFOPNMD@?$DO?5?$CF?43d?0?5?$CFs?0?5?$CFs?$AA@
CONST	SEGMENT
??_C@_0P@OBFOPNMD@?$DO?5?$CF?43d?0?5?$CFs?0?5?$CFs?$AA@ DB '> %.3d, %s, %'
	DB	's', 00H					; `string'
CONST	ENDS
;	COMDAT ??_C@_0BO@PHKHDLGJ@Device?5Drivers?0?5Number?5of?3?5?$CFd?$AA@
CONST	SEGMENT
??_C@_0BO@PHKHDLGJ@Device?5Drivers?0?5Number?5of?3?5?$CFd?$AA@ DB 'Device'
	DB	' Drivers, Number of: %d', 00H		; `string'
CONST	ENDS
;	COMDAT ??_C@_0L@ILKGPHOB@?$DO?$DO?5DevDrvs?$AA@
CONST	SEGMENT
??_C@_0L@ILKGPHOB@?$DO?$DO?5DevDrvs?$AA@ DB '>> DevDrvs', 00H ; `string'
CONST	ENDS
;	COMDAT ??_C@_0BC@BKCMKMCI@?$DM?$DM?5SysLogProcInfo?$AA@
CONST	SEGMENT
??_C@_0BC@BKCMKMCI@?$DM?$DM?5SysLogProcInfo?$AA@ DB '<< SysLogProcInfo', 00H ; `string'
CONST	ENDS
;	COMDAT ??_C@_0CO@JLHKKOJE@Number?5of?5processor?5L1?1L2?1L3?5cac@
CONST	SEGMENT
??_C@_0CO@JLHKKOJE@Number?5of?5processor?5L1?1L2?1L3?5cac@ DB 'Number of '
	DB	'processor L1/L2/L3 caches: %d/%d/%d', 00H	; `string'
CONST	ENDS
;	COMDAT ??_C@_0CB@NEBFNBCF@Number?5of?5logical?5processors?3?5?$CFd@
CONST	SEGMENT
??_C@_0CB@NEBFNBCF@Number?5of?5logical?5processors?3?5?$CFd@ DB 'Number o'
	DB	'f logical processors: %d', 00H		; `string'
CONST	ENDS
;	COMDAT ??_C@_0BO@JLJNFPPO@Number?5of?5processor?5cores?3?5?$CFd?$AA@
CONST	SEGMENT
??_C@_0BO@JLJNFPPO@Number?5of?5processor?5cores?3?5?$CFd?$AA@ DB 'Number '
	DB	'of processor cores: %d', 00H		; `string'
CONST	ENDS
;	COMDAT ??_C@_0CK@CIFFOGGE@Number?5of?5physical?5processor?5pac@
CONST	SEGMENT
??_C@_0CK@CIFFOGGE@Number?5of?5physical?5processor?5pac@ DB 'Number of ph'
	DB	'ysical processor packages: %d', 00H		; `string'
CONST	ENDS
;	COMDAT ??_C@_0BJ@CBGNJNLO@Number?5of?5NUMA?5nodes?3?5?$CFd?$AA@
CONST	SEGMENT
??_C@_0BJ@CBGNJNLO@Number?5of?5NUMA?5nodes?3?5?$CFd?$AA@ DB 'Number of NU'
	DB	'MA nodes: %d', 00H				; `string'
CONST	ENDS
;	COMDAT ??_C@_0CB@ECHENMHH@Logical?5Processor?$CIs?$CJ?5Information@
CONST	SEGMENT
??_C@_0CB@ECHENMHH@Logical?5Processor?$CIs?$CJ?5Information@ DB 'Logical '
	DB	'Processor(s) Information', 00H		; `string'
CONST	ENDS
;	COMDAT ??_C@_0EC@BGADHKMF@?9?9?5SysLogProcInfo?0?5Unsupp?5LOGICA@
CONST	SEGMENT
??_C@_0EC@BGADHKMF@?9?9?5SysLogProcInfo?0?5Unsupp?5LOGICA@ DB '-- SysLogP'
	DB	'rocInfo, Unsupp LOGICAL_PROCESSOR_RELATIONSHIP value %d', 00H ; `string'
CONST	ENDS
;	COMDAT ??_C@_0CF@KLILJGPG@?9?9?5SysLogProcInfo?0?5GLPI?5Error?5?$CFu@
CONST	SEGMENT
??_C@_0CF@KLILJGPG@?9?9?5SysLogProcInfo?0?5GLPI?5Error?5?$CFu@ DB '-- Sys'
	DB	'LogProcInfo, GLPI Error %u, %s', 00H	; `string'
CONST	ENDS
;	COMDAT ??_C@_0CG@LHEIAGGO@?9?9?5SysLogProcInfo?0?5Allocation?5fa@
CONST	SEGMENT
??_C@_0CG@LHEIAGGO@?9?9?5SysLogProcInfo?0?5Allocation?5fa@ DB '-- SysLogP'
	DB	'rocInfo, Allocation failure', 00H		; `string'
CONST	ENDS
;	COMDAT ??_C@_0DO@CNICBAHJ@?$DM?$DM?5SysLogProcInfo?0?5Out?0?5Unsupp?5G@
CONST	SEGMENT
??_C@_0DO@CNICBAHJ@?$DM?$DM?5SysLogProcInfo?0?5Out?0?5Unsupp?5G@ DB '<< S'
	DB	'ysLogProcInfo, Out, Unsupp GetLogicalProcessorInformation', 00H ; `string'
CONST	ENDS
;	COMDAT ??_C@_0BP@KHGALBC@GetLogicalProcessorInformation?$AA@
CONST	SEGMENT
??_C@_0BP@KHGALBC@GetLogicalProcessorInformation?$AA@ DB 'GetLogicalProce'
	DB	'ssorInformation', 00H			; `string'
CONST	ENDS
;	COMDAT ??_C@_0BC@MLMEFHGM@?$DO?$DO?5SysLogProcInfo?$AA@
CONST	SEGMENT
??_C@_0BC@MLMEFHGM@?$DO?$DO?5SysLogProcInfo?$AA@ DB '>> SysLogProcInfo', 00H ; `string'
CONST	ENDS
;	COMDAT ??_C@_0L@NBODLJGE@?$DM?$DM?5SysDirs?$AA@
CONST	SEGMENT
??_C@_0L@NBODLJGE@?$DM?$DM?5SysDirs?$AA@ DB '<< SysDirs', 00H ; `string'
CONST	ENDS
;	COMDAT ??_C@_0N@JJNMAABC@WinSysDir?5?$CFs?$AA@
CONST	SEGMENT
??_C@_0N@JJNMAABC@WinSysDir?5?$CFs?$AA@ DB 'WinSysDir %s', 00H ; `string'
CONST	ENDS
;	COMDAT ??_C@_09PEBHDCJJ@WinDir?5?$CFs?$AA@
CONST	SEGMENT
??_C@_09PEBHDCJJ@WinDir?5?$CFs?$AA@ DB 'WinDir %s', 00H	; `string'
CONST	ENDS
;	COMDAT ??_C@_0M@JFNOOIEA@TempPath?5?$CFs?$AA@
CONST	SEGMENT
??_C@_0M@JFNOOIEA@TempPath?5?$CFs?$AA@ DB 'TempPath %s', 00H ; `string'
CONST	ENDS
;	COMDAT ??_C@_09LGICPEGI@SysDir?5?$CFs?$AA@
CONST	SEGMENT
??_C@_09LGICPEGI@SysDir?5?$CFs?$AA@ DB 'SysDir %s', 00H	; `string'
CONST	ENDS
;	COMDAT ??_C@_0BD@OAHOLNHD@System?5Directories?$AA@
CONST	SEGMENT
??_C@_0BD@OAHOLNHD@System?5Directories?$AA@ DB 'System Directories', 00H ; `string'
CONST	ENDS
;	COMDAT ??_C@_0L@INHKNAJI@?$DO?$DO?5SysDirs?$AA@
CONST	SEGMENT
??_C@_0L@INHKNAJI@?$DO?$DO?5SysDirs?$AA@ DB '>> SysDirs', 00H ; `string'
CONST	ENDS
;	COMDAT ??_C@_0L@GICAALNI@?$DM?$DM?5LogDrvs?$AA@
CONST	SEGMENT
??_C@_0L@GICAALNI@?$DM?$DM?5LogDrvs?$AA@ DB '<< LogDrvs', 00H ; `string'
CONST	ENDS
;	COMDAT ??_C@_0GJ@NOKMBBI@?5?5?5FreeSpace?0?5SectorsPerCluster?5@
CONST	SEGMENT
??_C@_0GJ@NOKMBBI@?5?5?5FreeSpace?0?5SectorsPerCluster?5@ DB '   FreeSpac'
	DB	'e, SectorsPerCluster %u, BytesPerSector %u, NumberOfFreeClust'
	DB	'ers %u, TotalNumberOfClusters %u', 00H	; `string'
CONST	ENDS
;	COMDAT ??_C@_0GE@FHMIJHPP@?5?5?5VolumeInfo?0?5Name?5?$CFs?0?5SerialNu@
CONST	SEGMENT
??_C@_0GE@FHMIJHPP@?5?5?5VolumeInfo?0?5Name?5?$CFs?0?5SerialNu@ DB '   Vo'
	DB	'lumeInfo, Name %s, SerialNumber %u, MaxComponentLenght %u, Fi'
	DB	'leSysflags 0x%08X, FileSysName %s', 00H	; `string'
CONST	ENDS
;	COMDAT ??_C@_0BJ@BENIJAPK@?$DO?$DO?5?$CF?43d?0?5?$CFs?3?5Type?5?$CFs?$CI?$CFu?$CJ?$AA@
CONST	SEGMENT
??_C@_0BJ@BENIJAPK@?$DO?$DO?5?$CF?43d?0?5?$CFs?3?5Type?5?$CFs?$CI?$CFu?$CJ?$AA@ DB '>'
	DB	'> %.3d, %s: Type %s(%u)', 00H		; `string'
CONST	ENDS
;	COMDAT ??_C@_0BM@FAMDJNNB@Logical?5Drivers?5?$CFu?5?$CI0x?$CF?48X?$CJ?$AA@
CONST	SEGMENT
??_C@_0BM@FAMDJNNB@Logical?5Drivers?5?$CFu?5?$CI0x?$CF?48X?$CJ?$AA@ DB 'L'
	DB	'ogical Drivers %u (0x%.8X)', 00H		; `string'
CONST	ENDS
;	COMDAT ??_C@_0L@DELJGCCE@?$DO?$DO?5LogDrvs?$AA@
CONST	SEGMENT
??_C@_0L@DELJGCCE@?$DO?$DO?5LogDrvs?$AA@ DB '>> LogDrvs', 00H ; `string'
CONST	ENDS
;	COMDAT ??_C@_07CPJGKNJN@RamDisk?$AA@
CONST	SEGMENT
??_C@_07CPJGKNJN@RamDisk?$AA@ DB 'RamDisk', 00H		; `string'
CONST	ENDS
;	COMDAT ??_C@_05JIFOIGMJ@CDRom?$AA@
CONST	SEGMENT
??_C@_05JIFOIGMJ@CDRom?$AA@ DB 'CDRom', 00H		; `string'
CONST	ENDS
;	COMDAT ??_C@_06MHHFENDB@Remote?$AA@
CONST	SEGMENT
??_C@_06MHHFENDB@Remote?$AA@ DB 'Remote', 00H		; `string'
CONST	ENDS
;	COMDAT ??_C@_05OCBIINAK@Fixed?$AA@
CONST	SEGMENT
??_C@_05OCBIINAK@Fixed?$AA@ DB 'Fixed', 00H		; `string'
CONST	ENDS
;	COMDAT ??_C@_09MOKIPJGJ@NoRootDir?$AA@
CONST	SEGMENT
??_C@_09MOKIPJGJ@NoRootDir?$AA@ DB 'NoRootDir', 00H	; `string'
CONST	ENDS
;	COMDAT ??_C@_0M@FNBLPGFN@?$DM?$DM?5SysTimes?$AA@
CONST	SEGMENT
??_C@_0M@FNBLPGFN@?$DM?$DM?5SysTimes?$AA@ DB '<< SysTimes', 00H ; `string'
CONST	ENDS
;	COMDAT ??_C@_0DP@OCMJGDEB@Processor?3?5?$CFI64u?5counts?0?5?$CFI64u?5c@
CONST	SEGMENT
??_C@_0DP@OCMJGDEB@Processor?3?5?$CFI64u?5counts?0?5?$CFI64u?5c@ DB 'Proc'
	DB	'essor: %I64u counts, %I64u counts/sec, %02d:%02d:%02d %f s', 00H ; `string'
CONST	ENDS
;	COMDAT ??_C@_0BN@JFNEHINJ@Idle?3?5?$CF02d?3?$CF02d?3?$CF02d?5?$CI?$CFu?5s?$CJ?4?$AA@
CONST	SEGMENT
??_C@_0BN@JFNEHINJ@Idle?3?5?$CF02d?3?$CF02d?3?$CF02d?5?$CI?$CFu?5s?$CJ?4?$AA@ DB 'I'
	DB	'dle: %02d:%02d:%02d (%u s).', 00H		; `string'
CONST	ENDS
;	COMDAT ??_C@_0CC@JKEHGGOG@User?5time?3?5?$CF02d?3?$CF02d?3?$CF02d?5?$CI?$CFu?5s?$CJ@
CONST	SEGMENT
??_C@_0CC@JKEHGGOG@User?5time?3?5?$CF02d?3?$CF02d?3?$CF02d?5?$CI?$CFu?5s?$CJ@ DB 'U'
	DB	'ser time: %02d:%02d:%02d (%u s).', 00H	; `string'
CONST	ENDS
;	COMDAT ??_C@_0CE@PJKLEAEE@Kernel?5time?3?5?$CF02d?3?$CF02d?3?$CF02d?5?$CI?$CFu?5@
CONST	SEGMENT
??_C@_0CE@PJKLEAEE@Kernel?5time?3?5?$CF02d?3?$CF02d?3?$CF02d?5?$CI?$CFu?5@ DB 'K'
	DB	'ernel time: %02d:%02d:%02d (%u s).', 00H	; `string'
CONST	ENDS
;	COMDAT ??_C@_0N@HHJCFDFH@System?5Times?$AA@
CONST	SEGMENT
??_C@_0N@HHJCFDFH@System?5Times?$AA@ DB 'System Times', 00H ; `string'
CONST	ENDS
;	COMDAT ??_C@_0M@OJEMNBAD@?$DO?$DO?5SysTimes?$AA@
CONST	SEGMENT
??_C@_0M@OJEMNBAD@?$DO?$DO?5SysTimes?$AA@ DB '>> SysTimes', 00H ; `string'
CONST	ENDS
;	COMDAT ??_C@_09CIJKANFC@?$DM?$DM?5SysMem?$AA@
CONST	SEGMENT
??_C@_09CIJKANFC@?$DM?$DM?5SysMem?$AA@ DB '<< SysMem', 00H ; `string'
CONST	ENDS
;	COMDAT ??_C@_0DB@BKHHAKDB@Virtual?3?5?$CFu?5MB?5used?0?5?$CFu?5MB?5avail@
CONST	SEGMENT
??_C@_0DB@BKHHAKDB@Virtual?3?5?$CFu?5MB?5used?0?5?$CFu?5MB?5avail@ DB 'Vi'
	DB	'rtual: %u MB used, %u MB avail, %u MB extended', 00H ; `string'
CONST	ENDS
;	COMDAT ??_C@_0CC@PBKOHCPF@Pagefile?3?5?$CFu?5MB?5used?0?5?$CFu?5MB?5avai@
CONST	SEGMENT
??_C@_0CC@PBKOHCPF@Pagefile?3?5?$CFu?5MB?5used?0?5?$CFu?5MB?5avai@ DB 'Pa'
	DB	'gefile: %u MB used, %u MB avail', 00H	; `string'
CONST	ENDS
;	COMDAT ??_C@_0CC@JHNBDNDC@Physical?3?5?$CFu?5MB?5used?0?5?$CFu?5MB?5avai@
CONST	SEGMENT
??_C@_0CC@JHNBDNDC@Physical?3?5?$CFu?5MB?5used?0?5?$CFu?5MB?5avai@ DB 'Ph'
	DB	'ysical: %u MB used, %u MB avail', 00H	; `string'
CONST	ENDS
;	COMDAT ??_C@_0BB@DIEGGMCF@Usage?3?5?$CFu?$CF?$CF?5used?$AA@
CONST	SEGMENT
??_C@_0BB@DIEGGMCF@Usage?3?5?$CFu?$CF?$CF?5used?$AA@ DB 'Usage: %u%% used'
	DB	00H						; `string'
CONST	ENDS
;	COMDAT ??_C@_0O@OAHOAHIO@System?5Memory?$AA@
CONST	SEGMENT
??_C@_0O@OAHOAHIO@System?5Memory?$AA@ DB 'System Memory', 00H ; `string'
CONST	ENDS
;	COMDAT ??_C@_09CJJPFOJ@?$DO?$DO?5SysMem?$AA@
CONST	SEGMENT
??_C@_09CJJPFOJ@?$DO?$DO?5SysMem?$AA@ DB '>> SysMem', 00H ; `string'
CONST	ENDS
;	COMDAT ??_C@_09EHLFKBJE@?$DM?$DM?5OSInfo?$AA@
CONST	SEGMENT
??_C@_09EHLFKBJE@?$DM?$DM?5OSInfo?$AA@ DB '<< OSInfo', 00H ; `string'
CONST	ENDS
;	COMDAT ??_C@_0EG@OPOFGEHK@OSInfo?0?5Version?5?$CFu?4?$CFu?4?$CFu?0?5Platfo@
CONST	SEGMENT
??_C@_0EG@OPOFGEHK@OSInfo?0?5Version?5?$CFu?4?$CFu?4?$CFu?0?5Platfo@ DB 'O'
	DB	'SInfo, Version %u.%u.%u, Platform %u, SP %s(%u.%u), Suite 0x%'
	DB	'08X, %s', 00H				; `string'
CONST	ENDS
;	COMDAT ??_C@_0M@CILGCIDH@Workstation?$AA@
CONST	SEGMENT
??_C@_0M@CILGCIDH@Workstation?$AA@ DB 'Workstation', 00H ; `string'
CONST	ENDS
;	COMDAT ??_C@_06LGMEBDBC@Server?$AA@
CONST	SEGMENT
??_C@_06LGMEBDBC@Server?$AA@ DB 'Server', 00H		; `string'
CONST	ENDS
;	COMDAT ??_C@_0BC@LGEIIGCP@Domain?5Controller?$AA@
CONST	SEGMENT
??_C@_0BC@LGEIIGCP@Domain?5Controller?$AA@ DB 'Domain Controller', 00H ; `string'
CONST	ENDS
;	COMDAT ??_C@_09GNLGFJCP@?$DO?$DO?5OSInfo?$AA@
CONST	SEGMENT
??_C@_09GNLGFJCP@?$DO?$DO?5OSInfo?$AA@ DB '>> OSInfo', 00H ; `string'
CONST	ENDS
;	COMDAT ??_C@_0L@EJPMBDJN@?$DM?$DM?5SysInfo?$AA@
CONST	SEGMENT
??_C@_0L@EJPMBDJN@?$DM?$DM?5SysInfo?$AA@ DB '<< SysInfo', 00H ; `string'
CONST	ENDS
;	COMDAT ??_C@_0FN@KGKHOIOF@Computer?3?5?$CFs?0?5Processor?$CIs?$CJ?5?$CFu?5?$CFf@
CONST	SEGMENT
??_C@_0FN@KGKHOIOF@Computer?3?5?$CFs?0?5Processor?$CIs?$CJ?5?$CFu?5?$CFf@ DB 'C'
	DB	'omputer: %s, Processor(s) %u %f Mhz Current %u, %s, Level %u,'
	DB	' Rev %u, Type %u; Page Size %u', 00H	; `string'
CONST	ENDS
;	COMDAT ??_C@_07NBCGADJA@Unknown?$AA@
CONST	SEGMENT
??_C@_07NBCGADJA@Unknown?$AA@ DB 'Unknown', 00H		; `string'
CONST	ENDS
;	COMDAT ??_C@_03NDFEINMN@x86?$AA@
CONST	SEGMENT
??_C@_03NDFEINMN@x86?$AA@ DB 'x86', 00H			; `string'
CONST	ENDS
;	COMDAT ??_C@_0BE@BAGOKCHN@Intel?5Itanium?9based?$AA@
CONST	SEGMENT
??_C@_0BE@BAGOKCHN@Intel?5Itanium?9based?$AA@ DB 'Intel Itanium-based', 00H ; `string'
CONST	ENDS
;	COMDAT ??_C@_0BD@EBOFFHEB@x64?5?$CIAMD?5or?5Intel?$CJ?$AA@
CONST	SEGMENT
??_C@_0BD@EBOFFHEB@x64?5?$CIAMD?5or?5Intel?$CJ?$AA@ DB 'x64 (AMD or Intel'
	DB	')', 00H					; `string'
CONST	ENDS
;	COMDAT ??_C@_0L@BFGFHKGB@?$DO?$DO?5SysInfo?$AA@
CONST	SEGMENT
??_C@_0L@BFGFHKGB@?$DO?$DO?5SysInfo?$AA@ DB '>> SysInfo', 00H ; `string'
CONST	ENDS
;	COMDAT ??_C@_0EH@HJFNKFOJ@?9?9?5CurrentProcessorNumber?0?5GetCu@
CONST	SEGMENT
??_C@_0EH@HJFNKFOJ@?9?9?5CurrentProcessorNumber?0?5GetCu@ DB '-- CurrentP'
	DB	'rocessorNumber, GetCurrentProcessorNumber is not supported.', 00H ; `string'
CONST	ENDS
;	COMDAT ??_C@_08PNLNEKOB@kernel32?$AA@
CONST	SEGMENT
??_C@_08PNLNEKOB@kernel32?$AA@ DB 'kernel32', 00H	; `string'
CONST	ENDS
;	COMDAT ??_C@_0BK@DFNBACLA@GetCurrentProcessorNumber?$AA@
CONST	SEGMENT
??_C@_0BK@DFNBACLA@GetCurrentProcessorNumber?$AA@ DB 'GetCurrentProcessor'
	DB	'Number', 00H				; `string'
CONST	ENDS
;	COMDAT ??_C@_0N@DNDAOIDK@?$DM?$DM?5HwProfile?$AA@
CONST	SEGMENT
??_C@_0N@DNDAOIDK@?$DM?$DM?5HwProfile?$AA@ DB '<< HwProfile', 00H ; `string'
CONST	ENDS
;	COMDAT ??_C@_0CG@MGHJNPJJ@HwProfile?0?5GetCurrentHwProfile?5?$CF@
CONST	SEGMENT
??_C@_0CG@MGHJNPJJ@HwProfile?0?5GetCurrentHwProfile?5?$CF@ DB 'HwProfile,'
	DB	' GetCurrentHwProfile %u, %s', 00H		; `string'
CONST	ENDS
;	COMDAT ??_C@_0DA@OIKPBLGF@Hardware?5Profile?0?5DockInfo?5?$CFp?0?5G@
CONST	SEGMENT
??_C@_0DA@OIKPBLGF@Hardware?5Profile?0?5DockInfo?5?$CFp?0?5G@ DB 'Hardwar'
	DB	'e Profile, DockInfo %p, GUID %s, Name %s', 00H ; `string'
CONST	ENDS
;	COMDAT ??_C@_0N@LBFHMDOO@?$DO?$DO?5HwProfile?$AA@
CONST	SEGMENT
??_C@_0N@LBFHMDOO@?$DO?$DO?5HwProfile?$AA@ DB '>> HwProfile', 00H ; `string'
CONST	ENDS
;	COMDAT ??_C@_0M@LHLIHEIP@?$DM?$DM?5ProcInfo?$AA@
CONST	SEGMENT
??_C@_0M@LHLIHEIP@?$DM?$DM?5ProcInfo?$AA@ DB '<< ProcInfo', 00H ; `string'
CONST	ENDS
;	COMDAT ??_C@_0CK@JDCGCMFK@ProcessInfo?0?5EnumProcesses?5faile@
CONST	SEGMENT
??_C@_0CK@JDCGCMFK@ProcessInfo?0?5EnumProcesses?5faile@ DB 'ProcessInfo, '
	DB	'EnumProcesses failed: %u, %s', 00H		; `string'
CONST	ENDS
;	COMDAT ??_C@_0DO@MLNPPNEI@?$DO?5?$CF?43d?0?5?$DMunknown?$DO?0?5?$CFu?0?5?$DP?0?5?$DP?0?5?$DP?0?5@
CONST	SEGMENT
??_C@_0DO@MLNPPNEI@?$DO?5?$CF?43d?0?5?$DMunknown?$DO?0?5?$CFu?0?5?$DP?0?5?$DP?0?5?$DP?0?5@ DB '>'
	DB	' %.3d, <unknown>, %u, ?, ?, ?, ??:??:??, ?, ?, ?, ?, ?, ?, ?', 00H ; `string'
CONST	ENDS
;	COMDAT ??_C@_0EH@FOMPOKBN@?$DO?5?$CF?43d?0?5?$CFs?0?5?$CFu?0?5?$CFu?0?5?$CFu?0?5?$CFu?0?5?$CF02d@
CONST	SEGMENT
??_C@_0EH@FOMPOKBN@?$DO?5?$CF?43d?0?5?$CFs?0?5?$CFu?0?5?$CFu?0?5?$CFu?0?5?$CFu?0?5?$CF02d@ DB '>'
	DB	' %.3d, %s, %u, %u, %u, %u, %02d:%02d:%02d, %u, %u, %u, %u, %u'
	DB	', %u, %u', 00H				; `string'
CONST	ENDS
;	COMDAT ??_C@_09EEKGDCPH@?$DMunknown?$DO?$AA@
CONST	SEGMENT
??_C@_09EEKGDCPH@?$DMunknown?$DO?$AA@ DB '<unknown>', 00H ; `string'
CONST	ENDS
;	COMDAT ??_C@_0OJ@BFFOFANH@?$DO?5?5?5?5?5?5Process?5Name?0?5ProcessID?0?5@
CONST	SEGMENT
??_C@_0OJ@BFFOFANH@?$DO?5?5?5?5?5?5Process?5Name?0?5ProcessID?0?5@ DB '> '
	DB	'     Process Name, ProcessID, Handles, PagefileUsage, PeakPag'
	DB	'efileUsage, CPUTime, PageFaultCount, PeakWorkingSetSize, Work'
	DB	'ingSetSize, QuotaPeakPagedPoolUsage, QuotaPagedPoolUsage, Quo'
	DB	'taPeakNonPagedPoolUsage, QuotaNonPagedPoolUsage', 00H ; `string'
CONST	ENDS
;	COMDAT ??_C@_0CO@LMCBGMGC@Processes?5Informaton?0?5Number?5of?5@
CONST	SEGMENT
??_C@_0CO@LMCBGMGC@Processes?5Informaton?0?5Number?5of?5@ DB 'Processes I'
	DB	'nformaton, Number of processes: %u', 00H	; `string'
CONST	ENDS
;	COMDAT ??_C@_0M@DOPFDNB@?$DO?$DO?5ProcInfo?$AA@
CONST	SEGMENT
??_C@_0M@DOPFDNB@?$DO?$DO?5ProcInfo?$AA@ DB '>> ProcInfo', 00H ; `string'
CONST	ENDS
;	COMDAT ??_C@_0L@FFDNLHNK@?$DM?$DM?5ThrdUSB?$AA@
CONST	SEGMENT
??_C@_0L@FFDNLHNK@?$DM?$DM?5ThrdUSB?$AA@ DB '<< ThrdUSB', 00H ; `string'
CONST	ENDS
;	COMDAT ??_C@_0BP@GBFCDAOJ@?$DM?$DM?5ThrdUSB?0?5New?5USB?5class?5null?$AA@
CONST	SEGMENT
??_C@_0BP@GBFCDAOJ@?$DM?$DM?5ThrdUSB?0?5New?5USB?5class?5null?$AA@ DB '<<'
	DB	' ThrdUSB, New USB class null', 00H		; `string'
CONST	ENDS
;	COMDAT ??_C@_0L@JKENOCG@?$DO?$DO?5ThrdUSB?$AA@
CONST	SEGMENT
??_C@_0L@JKENOCG@?$DO?$DO?5ThrdUSB?$AA@ DB '>> ThrdUSB', 00H ; `string'
CONST	ENDS
;	COMDAT ??_C@_0L@BACOFOKN@?$DM?$DM?5ThrdMsg?$AA@
CONST	SEGMENT
??_C@_0L@BACOFOKN@?$DM?$DM?5ThrdMsg?$AA@ DB '<< ThrdMsg', 00H ; `string'
CONST	ENDS
;	COMDAT ??_C@_0BN@CBADGOHO@?$DM?$DM?5ThrdMsg?0?5CreateWnd?5?$CFu?0?5?$CFs?$AA@
CONST	SEGMENT
??_C@_0BN@CBADGOHO@?$DM?$DM?5ThrdMsg?0?5CreateWnd?5?$CFu?0?5?$CFs?$AA@ DB '<'
	DB	'< ThrdMsg, CreateWnd %u, %s', 00H		; `string'
CONST	ENDS
;	COMDAT ??_C@_0BK@MOCDLCEG@?$DM?$DM?5ThrdMsg?0?5RegCls?5?$CFu?0?5?$CFs?$AA@
CONST	SEGMENT
??_C@_0BK@MOCDLCEG@?$DM?$DM?5ThrdMsg?0?5RegCls?5?$CFu?0?5?$CFs?$AA@ DB '<'
	DB	'< ThrdMsg, RegCls %u, %s', 00H		; `string'
CONST	ENDS
;	COMDAT ??_C@_0BA@JDKJFHEL@SysStatusWClass?$AA@
CONST	SEGMENT
??_C@_0BA@JDKJFHEL@SysStatusWClass?$AA@ DB 'SysStatusWClass', 00H ; `string'
CONST	ENDS
;	COMDAT ??_C@_0L@EMLHDHFB@?$DO?$DO?5ThrdMsg?$AA@
CONST	SEGMENT
??_C@_0L@EMLHDHFB@?$DO?$DO?5ThrdMsg?$AA@ DB '>> ThrdMsg', 00H ; `string'
CONST	ENDS
;	COMDAT ??_C@_0BF@CDGGKCEM@Quick?5Exit?5Requested?$AA@
CONST	SEGMENT
??_C@_0BF@CDGGKCEM@Quick?5Exit?5Requested?$AA@ DB 'Quick Exit Requested', 00H ; `string'
CONST	ENDS
;	COMDAT ??_C@_0DC@MBHJGPCP@Would?5you?5like?5to?5quickly?5close?5@
CONST	SEGMENT
??_C@_0DC@MBHJGPCP@Would?5you?5like?5to?5quickly?5close?5@ DB 'Would you '
	DB	'like to quickly close this application?', 00H ; `string'
CONST	ENDS
;	COMDAT ??_C@_0P@BIPEBJDO@Exit?5Requested?$AA@
CONST	SEGMENT
??_C@_0P@BIPEBJDO@Exit?5Requested?$AA@ DB 'Exit Requested', 00H ; `string'
CONST	ENDS
;	COMDAT ??_C@_0CK@KDAHPGC@Would?5you?5like?5to?5close?5this?5app@
CONST	SEGMENT
??_C@_0CK@KDAHPGC@Would?5you?5like?5to?5close?5this?5app@ DB 'Would you l'
	DB	'ike to close this application?', 00H	; `string'
CONST	ENDS
;	COMDAT ??_C@_0EN@GBOFOCLM@Handle?5CHANGE?5?$DMHandle?5?$CFp?0?5NameOf@
CONST	SEGMENT
??_C@_0EN@GBOFOCLM@Handle?5CHANGE?5?$DMHandle?5?$CFp?0?5NameOf@ DB 'Handl'
	DB	'e CHANGE <Handle %p, NameOffset %d, Name %s, DevNotify %p, Ev'
	DB	'ntGUID %s>', 00H				; `string'
CONST	ENDS
;	COMDAT ??_C@_0CD@BNLENJBO@Net?5CHANGE?5?$DMResource?5?$CFp?0?5Flags?5?$CF@
CONST	SEGMENT
??_C@_0CD@BNLENJBO@Net?5CHANGE?5?$DMResource?5?$CFp?0?5Flags?5?$CF@ DB 'N'
	DB	'et CHANGE <Resource %p, Flags %p>', 00H	; `string'
CONST	ENDS
;	COMDAT ??_C@_0BB@LPBNHOKC@Port?5CHANGE?5?$DM?$CFs?$DO?$AA@
CONST	SEGMENT
??_C@_0BB@LPBNHOKC@Port?5CHANGE?5?$DM?$CFs?$DO?$AA@ DB 'Port CHANGE <%s>', 00H ; `string'
CONST	ENDS
;	COMDAT ??_C@_0BE@FJDGCJID@DevNode?5CHANGE?5?$DM?$CFp?$DO?$AA@
CONST	SEGMENT
??_C@_0BE@FJDGCJID@DevNode?5CHANGE?5?$DM?$CFp?$DO?$AA@ DB 'DevNode CHANGE'
	DB	' <%p>', 00H					; `string'
CONST	ENDS
;	COMDAT ??_C@_0CA@FNGBCCOE@Oem?5CHANGE?5?$DMId?5?$CFp?0?5SuppFunc?5?$CFp?$DO?$AA@
CONST	SEGMENT
??_C@_0CA@FNGBCCOE@Oem?5CHANGE?5?$DMId?5?$CFp?0?5SuppFunc?5?$CFp?$DO?$AA@ DB 'O'
	DB	'em CHANGE <Id %p, SuppFunc %p>', 00H	; `string'
CONST	ENDS
;	COMDAT ??_C@_0CG@OJJDNJOH@Volume?5CHANGE?5?$DMFlags?5?$CFp?0?5UnitMas@
CONST	SEGMENT
??_C@_0CG@OJJDNJOH@Volume?5CHANGE?5?$DMFlags?5?$CFp?0?5UnitMas@ DB 'Volum'
	DB	'e CHANGE <Flags %p, UnitMask %p>', 00H	; `string'
CONST	ENDS
;	COMDAT ??_C@_0M@ENJCMGFB@USB?5?5REMOVE?$AA@
CONST	SEGMENT
??_C@_0M@ENJCMGFB@USB?5?5REMOVE?$AA@ DB 'USB  REMOVE', 00H ; `string'
CONST	ENDS
;	COMDAT ??_C@_0M@FPDKOEDO@USB?5ARRIVAL?$AA@
CONST	SEGMENT
??_C@_0M@FPDKOEDO@USB?5ARRIVAL?$AA@ DB 'USB ARRIVAL', 00H ; `string'
CONST	ENDS
;	COMDAT ??_C@_0BM@HKOFJDPP@Usb?5CHANGE?5Dev?5?$DM?$CFs?5GUID?5?$CFs?$DO?$AA@
CONST	SEGMENT
??_C@_0BM@HKOFJDPP@Usb?5CHANGE?5Dev?5?$DM?$CFs?5GUID?5?$CFs?$DO?$AA@ DB 'U'
	DB	'sb CHANGE Dev <%s GUID %s>', 00H		; `string'
CONST	ENDS
;	COMDAT ??_C@_0BP@PNOLPDFB@Device?5?$CFs?0?5Size?5?$CFu?0?5DevType?5?$CFu?$AA@
CONST	SEGMENT
??_C@_0BP@PNOLPDFB@Device?5?$CFs?0?5Size?5?$CFu?0?5DevType?5?$CFu?$AA@ DB 'D'
	DB	'evice %s, Size %u, DevType %u', 00H		; `string'
CONST	ENDS
;	COMDAT ??_C@_07PKIBBDFP@Removed?$AA@
CONST	SEGMENT
??_C@_07PKIBBDFP@Removed?$AA@ DB 'Removed', 00H		; `string'
CONST	ENDS
;	COMDAT ??_C@_07NHAMMCDJ@Arrived?$AA@
CONST	SEGMENT
??_C@_07NHAMMCDJ@Arrived?$AA@ DB 'Arrived', 00H		; `string'
CONST	ENDS
;	COMDAT ??_C@_0CF@OJAKBKAK@User?5Defined?5?$CFs?0?5Size?5?$CFu?0?5DevTyp@
CONST	SEGMENT
??_C@_0CF@OJAKBKAK@User?5Defined?5?$CFs?0?5Size?5?$CFu?0?5DevTyp@ DB 'Use'
	DB	'r Defined %s, Size %u, DevType %u', 00H	; `string'
CONST	ENDS
;	COMDAT ??_C@_0M@LLINGCEN@End?5Session?$AA@
CONST	SEGMENT
??_C@_0M@LLINGCEN@End?5Session?$AA@ DB 'End Session', 00H ; `string'
CONST	ENDS
;	COMDAT ??_C@_0BK@GJJBBOEE@Session?5Closure?5Requested?$AA@
CONST	SEGMENT
??_C@_0BK@GJJBBOEE@Session?5Closure?5Requested?$AA@ DB 'Session Closure R'
	DB	'equested', 00H				; `string'
CONST	ENDS
;	COMDAT ??_C@_0GB@KBNPPDGJ@WndProcMsg?0?5Wnd?5?$CFp?0?5Msg?50x?$CF?44X?0?5@
CONST	SEGMENT
??_C@_0GB@KBNPPDGJ@WndProcMsg?0?5Wnd?5?$CFp?0?5Msg?50x?$CF?44X?0?5@ DB 'W'
	DB	'ndProcMsg, Wnd %p, Msg 0x%.4X, WPrm 0x%.8X HI 0x%.4X LO 0x%.4'
	DB	'X, LPrm 0x%.8X HI 0x%.4X LO 0x%.4X', 00H	; `string'
CONST	ENDS
;	COMDAT ??_C@_0BA@OFOICJDM@?$DM?$DM?5EndPendgThrd?$AA@
CONST	SEGMENT
??_C@_0BA@OFOICJDM@?$DM?$DM?5EndPendgThrd?$AA@ DB '<< EndPendgThrd', 00H ; `string'
CONST	ENDS
;	COMDAT ??_C@_0BH@FCCILLCE@RtlFreeUserThreadStack?$AA@
CONST	SEGMENT
??_C@_0BH@FCCILLCE@RtlFreeUserThreadStack?$AA@ DB 'RtlFreeUserThreadStack'
	DB	00H						; `string'
CONST	ENDS
;	COMDAT ??_C@_1BE@GJOFHIHD@?$AAn?$AAt?$AAd?$AAl?$AAl?$AA?4?$AAd?$AAl?$AAl?$AA?$AA@
CONST	SEGMENT
??_C@_1BE@GJOFHIHD@?$AAn?$AAt?$AAd?$AAl?$AAl?$AA?4?$AAd?$AAl?$AAl?$AA?$AA@ DB 'n'
	DB	00H, 't', 00H, 'd', 00H, 'l', 00H, 'l', 00H, '.', 00H, 'd', 00H
	DB	'l', 00H, 'l', 00H, 00H, 00H			; `string'
CONST	ENDS
;	COMDAT ??_C@_0BI@LKAHEPCO@?$DO?$DO?5RlsThrdStck?0?5Hndl?5?$CFp?$AA@
CONST	SEGMENT
??_C@_0BI@LKAHEPCO@?$DO?$DO?5RlsThrdStck?0?5Hndl?5?$CFp?$AA@ DB '>> RlsTh'
	DB	'rdStck, Hndl %p', 00H			; `string'
CONST	ENDS
;	COMDAT ??_C@_0BJ@JJOKMIHG@?$DO?$DO?5EndPendgThrd?0?5Hndl?5?$CFp?$AA@
CONST	SEGMENT
??_C@_0BJ@JJOKMIHG@?$DO?$DO?5EndPendgThrd?0?5Hndl?5?$CFp?$AA@ DB '>> EndP'
	DB	'endgThrd, Hndl %p', 00H			; `string'
CONST	ENDS
;	COMDAT ??_C@_0BI@EBHNNPDK@?$DM?$DM?5StartThrd?0?5ret?5False?$AA@
CONST	SEGMENT
??_C@_0BI@EBHNNPDK@?$DM?$DM?5StartThrd?0?5ret?5False?$AA@ DB '<< StartThr'
	DB	'd, ret False', 00H				; `string'
CONST	ENDS
;	COMDAT ??_C@_0BH@BDJONOMH@?$DM?$DM?5StartThrd?0?5ret?5True?$AA@
CONST	SEGMENT
??_C@_0BH@BDJONOMH@?$DM?$DM?5StartThrd?0?5ret?5True?$AA@ DB '<< StartThrd'
	DB	', ret True', 00H				; `string'
CONST	ENDS
;	COMDAT ??_C@_0BB@POKBMEDO@?$DM?$DM?5StartThrd?0?5?$CFp?$AA@
CONST	SEGMENT
??_C@_0BB@POKBMEDO@?$DM?$DM?5StartThrd?0?5?$CFp?$AA@ DB '<< StartThrd, %p'
	DB	00H						; `string'
CONST	ENDS
;	COMDAT ??_C@_0CB@LFOPNEOO@?9?9?5StartThrd?0?5No?5?$CFs?5thrd?5created@
CONST	SEGMENT
??_C@_0CB@LFOPNEOO@?9?9?5StartThrd?0?5No?5?$CFs?5thrd?5created@ DB '-- St'
	DB	'artThrd, No %s thrd created', 00H		; `string'
CONST	ENDS
;	COMDAT ??_C@_0BP@FDECIAPH@?9?9?5StartThrd?0?5?$CFs?5Id?5?$CFu?0?5Hnd?5?$CFp?$AA@
CONST	SEGMENT
??_C@_0BP@FDECIAPH@?9?9?5StartThrd?0?5?$CFs?5Id?5?$CFu?0?5Hnd?5?$CFp?$AA@ DB '-'
	DB	'- StartThrd, %s Id %u, Hnd %p', 00H		; `string'
CONST	ENDS
;	COMDAT ??_C@_0DN@OLKMHNED@?$DO?$DO?5StartThrd?0?5Name?5?$CFs?0?5Func?5?$CFp?0?5@
CONST	SEGMENT
??_C@_0DN@OLKMHNED@?$DO?$DO?5StartThrd?0?5Name?5?$CFs?0?5Func?5?$CFp?0?5@ DB '>'
	DB	'> StartThrd, Name %s, Func %p, Dat %p, Timeout %u, pHndl %p', 00H ; `string'
CONST	ENDS
;	COMDAT ??_C@_0DA@DAMKDCLP@?9?9?5SetThrdName?0?5Tp?5?$CFp?0?5Name?5?$CFs?0?5@
CONST	SEGMENT
??_C@_0DA@DAMKDCLP@?9?9?5SetThrdName?0?5Tp?5?$CFp?0?5Name?5?$CFs?0?5@ DB '-'
	DB	'- SetThrdName, Tp %p, Name %s, Id %u, Flags %p', 00H ; `string'
CONST	ENDS
;	COMDAT ??_C@_0BF@MMBEHPNG@?$CF02d?3?$CF02d?3?$CF02d?0?5?$CFf?5s?$AA@
CONST	SEGMENT
??_C@_0BF@MMBEHPNG@?$CF02d?3?$CF02d?3?$CF02d?0?5?$CFf?5s?$AA@ DB '%02d:%0'
	DB	'2d:%02d, %f s', 00H				; `string'
CONST	ENDS
;	COMDAT ??_C@_0BJ@PPCHIOMP@?$CFs?0?5?$CF02d?3?$CF02d?3?$CF02d?0?5?$CFf?5s?$AA@
CONST	SEGMENT
??_C@_0BJ@PPCHIOMP@?$CFs?0?5?$CF02d?3?$CF02d?3?$CF02d?0?5?$CFf?5s?$AA@ DB '%'
	DB	's, %02d:%02d:%02d, %f s', 00H		; `string'
CONST	ENDS
;	COMDAT ??_C@_0GA@GFOAHNCA@AppUnhndldExcptFltr?0?5Attempt?5to?5@
CONST	SEGMENT
??_C@_0GA@GFOAHNCA@AppUnhndldExcptFltr?0?5Attempt?5to?5@ DB 'AppUnhndldEx'
	DB	'cptFltr, Attempt to create MiniDump file before exit proc due'
	DB	' to unhndld exception.', 00H		; `string'
CONST	ENDS
;	COMDAT ??_C@_0ED@NLNOIJDN@CreateMiniDump?0?5Failed?5to?5create@
CONST	SEGMENT
??_C@_0ED@NLNOIJDN@CreateMiniDump?0?5Failed?5to?5create@ DB 'CreateMiniDu'
	DB	'mp, Failed to create MiniDump file. Last Error: %d, %s', 00H ; `string'
CONST	ENDS
;	COMDAT ??_C@_0DE@KOKEPHBJ@CreateMiniDump?0?5Created?5MiniDump@
CONST	SEGMENT
??_C@_0DE@KOKEPHBJ@CreateMiniDump?0?5Created?5MiniDump@ DB 'CreateMiniDum'
	DB	'p, Created MiniDump file located at %s', 00H ; `string'
CONST	ENDS
;	COMDAT ??_C@_0CF@MLLEOGPJ@?$CFs_?$CF?44d?9?$CF?42d?9?$CF?42d_?$CF?42d?9?$CF?42d?9?$CF?42d@
CONST	SEGMENT
??_C@_0CF@MLLEOGPJ@?$CFs_?$CF?44d?9?$CF?42d?9?$CF?42d_?$CF?42d?9?$CF?42d?9?$CF?42d@ DB '%'
	DB	's_%.4d-%.2d-%.2d_%.2d-%.2d-%.2d.dmp', 00H	; `string'
CONST	ENDS
;	COMDAT ??_C@_09KECABMHK@SysStatus?$AA@
CONST	SEGMENT
??_C@_09KECABMHK@SysStatus?$AA@ DB 'SysStatus', 00H	; `string'
CONST	ENDS
;	COMDAT ??_C@_04CFJMJGDJ@?$CF?42X?$AA@
CONST	SEGMENT
??_C@_04CFJMJGDJ@?$CF?42X?$AA@ DB '%.2X', 00H		; `string'
CONST	ENDS
;	COMDAT ??_C@_0BE@ENHKCHAG@New?5DeviceName?5null?$AA@
CONST	SEGMENT
??_C@_0BE@ENHKCHAG@New?5DeviceName?5null?$AA@ DB 'New DeviceName null', 00H ; `string'
CONST	ENDS
;	COMDAT ??_C@_0BM@GCCDOOIB@?$CFs?5?$FLVID?3?$CFs?5PID?3?$CFs?5SN?3?$CFs?$FN?5?$CFs?$AA@
CONST	SEGMENT
??_C@_0BM@GCCDOOIB@?$CFs?5?$FLVID?3?$CFs?5PID?3?$CFs?5SN?3?$CFs?$FN?5?$CFs?$AA@ DB '%'
	DB	's [VID:%s PID:%s SN:%s] %s', 00H		; `string'
CONST	ENDS
;	COMDAT ??_C@_0L@MNPEAJCA@netmsg?4dll?$AA@
CONST	SEGMENT
??_C@_0L@MNPEAJCA@netmsg?4dll?$AA@ DB 'netmsg.dll', 00H	; `string'
CONST	ENDS
;	COMDAT ??_C@_0BA@GCOGCGED@?$DM?$DM?5ChkLogFileSz?$AA@
CONST	SEGMENT
??_C@_0BA@GCOGCGED@?$DM?$DM?5ChkLogFileSz?$AA@ DB '<< ChkLogFileSz', 00H ; `string'
CONST	ENDS
;	COMDAT ??_C@_0CD@PNMJAMBO@?9?9?5ChkLogFileSz?0?5Remaning?5?$CFs?5?9?$DO?5@
CONST	SEGMENT
??_C@_0CD@PNMJAMBO@?9?9?5ChkLogFileSz?0?5Remaning?5?$CFs?5?9?$DO?5@ DB '-'
	DB	'- ChkLogFileSz, Remaning %s -> %s', 00H	; `string'
CONST	ENDS
;	COMDAT ??_C@_06HFHPDHC@?$CFs?4000?$AA@
CONST	SEGMENT
??_C@_06HFHPDHC@?$CFs?4000?$AA@ DB '%s.000', 00H	; `string'
CONST	ENDS
;	COMDAT ??_C@_0CD@KIGAJNDH@?9?9?5ChkLogFileSz?0?5Renaming?5?$CFs?5?9?$DO?5@
CONST	SEGMENT
??_C@_0CD@KIGAJNDH@?9?9?5ChkLogFileSz?0?5Renaming?5?$CFs?5?9?$DO?5@ DB '-'
	DB	'- ChkLogFileSz, Renaming %s -> %s', 00H	; `string'
CONST	ENDS
;	COMDAT ??_C@_0CL@JDMPMEKE@?9?9?5ChkLogFileSz?0?5Removing?5?$CFs?5?9?5o@
CONST	SEGMENT
??_C@_0CL@JDMPMEKE@?9?9?5ChkLogFileSz?0?5Removing?5?$CFs?5?9?5o@ DB '-- C'
	DB	'hkLogFileSz, Removing %s - oldest file', 00H ; `string'
CONST	ENDS
;	COMDAT ??_C@_0CD@DNFINAJK@?9?9?5ChkLogFileSz?0?5Last?5file?5fnd?3?5@
CONST	SEGMENT
??_C@_0CD@DNFINAJK@?9?9?5ChkLogFileSz?0?5Last?5file?5fnd?3?5@ DB '-- ChkL'
	DB	'ogFileSz, Last file fnd: %s', 00H		; `string'
CONST	ENDS
;	COMDAT ??_C@_0CA@MGCLJDML@?9?9?5ChkLogFileSz?0?5Trying?5opng?5?$CFs?$AA@
CONST	SEGMENT
??_C@_0CA@MGCLJDML@?9?9?5ChkLogFileSz?0?5Trying?5opng?5?$CFs?$AA@ DB '-- '
	DB	'ChkLogFileSz, Trying opng %s', 00H		; `string'
CONST	ENDS
;	COMDAT ??_C@_07KFBNGPEH@?$CFs?4?$CF?43d?$AA@
CONST	SEGMENT
??_C@_07KFBNGPEH@?$CFs?4?$CF?43d?$AA@ DB '%s.%.3d', 00H	; `string'
CONST	ENDS
;	COMDAT ??_C@_0BK@HOHICOFN@?9?9?5ChkLogFileSz?0?5?$CFs?5Sz?5?$CFu?$AA@
CONST	SEGMENT
??_C@_0BK@HOHICOFN@?9?9?5ChkLogFileSz?0?5?$CFs?5Sz?5?$CFu?$AA@ DB '-- Chk'
	DB	'LogFileSz, %s Sz %u', 00H			; `string'
CONST	ENDS
;	COMDAT ??_C@_0BJ@LGJHGBPF@?9?9?5ChkLogFileSz?0?5Opng?5?$CFs?$AA@
CONST	SEGMENT
??_C@_0BJ@LGJHGBPF@?9?9?5ChkLogFileSz?0?5Opng?5?$CFs?$AA@ DB '-- ChkLogFi'
	DB	'leSz, Opng %s', 00H				; `string'
CONST	ENDS
;	COMDAT ??_C@_0BE@GIEOINGB@?$DO?$DO?5ChkLogFileSz?0?5?$CFu?$AA@
CONST	SEGMENT
??_C@_0BE@GIEOINGB@?$DO?$DO?5ChkLogFileSz?0?5?$CFu?$AA@ DB '>> ChkLogFile'
	DB	'Sz, %u', 00H				; `string'
CONST	ENDS
;	COMDAT ??_C@_0BG@EELIKDKI@TID?5?$CF?45u?5ID?5?$CF?45u?5?$CFs?$AN?6?$AA@
CONST	SEGMENT
??_C@_0BG@EELIKDKI@TID?5?$CF?45u?5ID?5?$CF?45u?5?$CFs?$AN?6?$AA@ DB 'TID '
	DB	'%.5u ID %.5u %s', 0dH, 0aH, 00H		; `string'
CONST	ENDS
;	COMDAT ??_C@_06BEJGOBHG@?$CFs?4log?$AA@
CONST	SEGMENT
??_C@_06BEJGOBHG@?$CFs?4log?$AA@ DB '%s.log', 00H	; `string'
CONST	ENDS
;	COMDAT ??_C@_05OLKONLEL@?7?$CFs?$AN?6?$AA@
CONST	SEGMENT
??_C@_05OLKONLEL@?7?$CFs?$AN?6?$AA@ DB 09H, '%s', 0dH, 0aH, 00H ; `string'
CONST	ENDS
;	COMDAT ??_C@_0EF@BJCOJGPD@?$AN?6?$CF?44d?9?$CF?42d?9?$CF?42d?5?$CF?42d?3?$CF?42d?3?$CF?42d?4@
CONST	SEGMENT
??_C@_0EF@BJCOJGPD@?$AN?6?$CF?44d?9?$CF?42d?9?$CF?42d?5?$CF?42d?3?$CF?42d?3?$CF?42d?4@ DB 0dH
	DB	0aH, '%.4d-%.2d-%.2d %.2d:%.2d:%.2d.%.3d PID %.5u TID %.5u ID '
	DB	'%.5u', 0dH, 0aH, '%s', 0dH, 0aH, 00H	; `string'
CONST	ENDS
;	COMDAT ??_C@_0O@FHDHJHFN@SysStatus_Log?$AA@
CONST	SEGMENT
??_C@_0O@FHDHJHFN@SysStatus_Log?$AA@ DB 'SysStatus_Log', 00H ; `string'
CONST	ENDS
;	COMDAT ??_C@_09BJLKJKJF@?$CFs?4?$CFs_old?$AA@
CONST	SEGMENT
??_C@_09BJLKJKJF@?$CFs?4?$CFs_old?$AA@ DB '%s.%s_old', 00H ; `string'
CONST	ENDS
;	COMDAT ??_C@_05NNFHCGPF@?$CFs?4?$CFs?$AA@
CONST	SEGMENT
??_C@_05NNFHCGPF@?$CFs?4?$CFs?$AA@ DB '%s.%s', 00H	; `string'
CONST	ENDS
;	COMDAT ??_C@_0CP@CLGPPHLF@?$CF?44d?9?$CF?42d?9?$CF?42d?5?$CF?42d?3?$CF?42d?3?$CF?42d?4?$CF?4@
CONST	SEGMENT
??_C@_0CP@CLGPPHLF@?$CF?44d?9?$CF?42d?9?$CF?42d?5?$CF?42d?3?$CF?42d?3?$CF?42d?4?$CF?4@ DB '%'
	DB	'.4d-%.2d-%.2d %.2d:%.2d:%.2d.%.3d PID %.5u %s', 00H ; `string'
CONST	ENDS
;	COMDAT ??_C@_03NMGDDAFL@wmi?$AA@
CONST	SEGMENT
??_C@_03NMGDDAFL@wmi?$AA@ DB 'wmi', 00H			; `string'
CONST	ENDS
;	COMDAT ??_C@_03GLILPAEP@wnd?$AA@
CONST	SEGMENT
??_C@_03GLILPAEP@wnd?$AA@ DB 'wnd', 00H			; `string'
CONST	ENDS
;	COMDAT ??_C@_03LBAKCJJ@dbg?$AA@
CONST	SEGMENT
??_C@_03LBAKCJJ@dbg?$AA@ DB 'dbg', 00H			; `string'
CONST	ENDS
;	COMDAT ??_C@_0BA@GBPLBEEL@SysStatus_Trace?$AA@
CONST	SEGMENT
??_C@_0BA@GBPLBEEL@SysStatus_Trace?$AA@ DB 'SysStatus_Trace', 00H ; `string'
CONST	ENDS
;	COMDAT ??_C@_02BBAHNLBA@?$CFp?$AA@
CONST	SEGMENT
??_C@_02BBAHNLBA@?$CFp?$AA@ DB '%p', 00H		; `string'
CONST	ENDS
;	COMDAT ??_C@_09CLAHNHIH@?$DM?$DM?5MonIPs?$AA@
CONST	SEGMENT
??_C@_09CLAHNHIH@?$DM?$DM?5MonIPs?$AA@ DB '<< MonIPs', 00H ; `string'
CONST	ENDS
;	COMDAT ??_C@_09BAECPDM@?$DO?$DO?5MonIPs?$AA@
CONST	SEGMENT
??_C@_09BAECPDM@?$DO?$DO?5MonIPs?$AA@ DB '>> MonIPs', 00H ; `string'
CONST	ENDS
;	COMDAT ??_C@_0BD@HAJJDCII@Win32_VoltageProbe?$AA@
CONST	SEGMENT
??_C@_0BD@HAJJDCII@Win32_VoltageProbe?$AA@ DB 'Win32_VoltageProbe', 00H ; `string'
CONST	ENDS
;	COMDAT ??_C@_0BH@HMHAIEPK@Win32_TemperatureProbe?$AA@
CONST	SEGMENT
??_C@_0BH@HMHAIEPK@Win32_TemperatureProbe?$AA@ DB 'Win32_TemperatureProbe'
	DB	00H						; `string'
CONST	ENDS
;	COMDAT ??_C@_0L@MPHEPFAH@SystemName?$AA@
CONST	SEGMENT
??_C@_0L@MPHEPFAH@SystemName?$AA@ DB 'SystemName', 00H	; `string'
CONST	ENDS
;	COMDAT ??_C@_0BI@LFKNNEKA@SystemCreationClassName?$AA@
CONST	SEGMENT
??_C@_0BI@LFKNNEKA@SystemCreationClassName?$AA@ DB 'SystemCreationClassNa'
	DB	'me', 00H					; `string'
CONST	ENDS
;	COMDAT ??_C@_0BA@LLOCDJF@MaxBatteryError?$AA@
CONST	SEGMENT
??_C@_0BA@LLOCDJF@MaxBatteryError?$AA@ DB 'MaxBatteryError', 00H ; `string'
CONST	ENDS
;	COMDAT ??_C@_0BD@EBMPMBCC@CapacityMultiplier?$AA@
CONST	SEGMENT
??_C@_0BD@EBMPMBCC@CapacityMultiplier?$AA@ DB 'CapacityMultiplier', 00H ; `string'
CONST	ENDS
;	COMDAT ??_C@_0BA@EMGHNHBI@ManufactureDate?$AA@
CONST	SEGMENT
??_C@_0BA@EMGHNHBI@ManufactureDate?$AA@ DB 'ManufactureDate', 00H ; `string'
CONST	ENDS
;	COMDAT ??_C@_0BG@GEFEDJOA@Win32_PortableBattery?$AA@
CONST	SEGMENT
??_C@_0BG@GEFEDJOA@Win32_PortableBattery?$AA@ DB 'Win32_PortableBattery', 00H ; `string'
CONST	ENDS
;	COMDAT ??_C@_08JLKOPNJP@IsLinear?$AA@
CONST	SEGMENT
??_C@_08JLKOPNJP@IsLinear?$AA@ DB 'IsLinear', 00H	; `string'
CONST	ENDS
;	COMDAT ??_C@_0M@NIGABCBB@MinReadable?$AA@
CONST	SEGMENT
??_C@_0M@NIGABCBB@MinReadable?$AA@ DB 'MinReadable', 00H ; `string'
CONST	ENDS
;	COMDAT ??_C@_0M@EIBDACPL@MaxReadable?$AA@
CONST	SEGMENT
??_C@_0M@EIBDACPL@MaxReadable?$AA@ DB 'MaxReadable', 00H ; `string'
CONST	ENDS
;	COMDAT ??_C@_0BK@CCJKGBMI@UpperThresholdNonCritical?$AA@
CONST	SEGMENT
??_C@_0BK@CCJKGBMI@UpperThresholdNonCritical?$AA@ DB 'UpperThresholdNonCr'
	DB	'itical', 00H				; `string'
CONST	ENDS
;	COMDAT ??_C@_0BE@HGEJIDLL@UpperThresholdFatal?$AA@
CONST	SEGMENT
??_C@_0BE@HGEJIDLL@UpperThresholdFatal?$AA@ DB 'UpperThresholdFatal', 00H ; `string'
CONST	ENDS
;	COMDAT ??_C@_0BH@FKDKGMLL@UpperThresholdCritical?$AA@
CONST	SEGMENT
??_C@_0BH@FKDKGMLL@UpperThresholdCritical?$AA@ DB 'UpperThresholdCritical'
	DB	00H						; `string'
CONST	ENDS
;	COMDAT ??_C@_0BK@LBKIMOJN@LowerThresholdNonCritical?$AA@
CONST	SEGMENT
??_C@_0BK@LBKIMOJN@LowerThresholdNonCritical?$AA@ DB 'LowerThresholdNonCr'
	DB	'itical', 00H				; `string'
CONST	ENDS
;	COMDAT ??_C@_0BE@NPMAGCMK@LowerThresholdFatal?$AA@
CONST	SEGMENT
??_C@_0BE@NPMAGCMK@LowerThresholdFatal?$AA@ DB 'LowerThresholdFatal', 00H ; `string'
CONST	ENDS
;	COMDAT ??_C@_0BH@NMAIJHFM@LowerThresholdCritical?$AA@
CONST	SEGMENT
??_C@_0BH@NMAIJHFM@LowerThresholdCritical?$AA@ DB 'LowerThresholdCritical'
	DB	00H						; `string'
CONST	ENDS
;	COMDAT ??_C@_09FBKECFPC@NormalMin?$AA@
CONST	SEGMENT
??_C@_09FBKECFPC@NormalMin?$AA@ DB 'NormalMin', 00H	; `string'
CONST	ENDS
;	COMDAT ??_C@_09EDCPMBJN@NormalMax?$AA@
CONST	SEGMENT
??_C@_09EDCPMBJN@NormalMax?$AA@ DB 'NormalMax', 00H	; `string'
CONST	ENDS
;	COMDAT ??_C@_0P@OAFFNBPO@NominalReading?$AA@
CONST	SEGMENT
??_C@_0P@OAFFNBPO@NominalReading?$AA@ DB 'NominalReading', 00H ; `string'
CONST	ENDS
;	COMDAT ??_C@_09BKMALBOE@Tolerance?$AA@
CONST	SEGMENT
??_C@_09BKMALBOE@Tolerance?$AA@ DB 'Tolerance', 00H	; `string'
CONST	ENDS
;	COMDAT ??_C@_08NLCOAFEI@Accuracy?$AA@
CONST	SEGMENT
??_C@_08NLCOAFEI@Accuracy?$AA@ DB 'Accuracy', 00H	; `string'
CONST	ENDS
;	COMDAT ??_C@_0P@IDBBEDLI@CurrentReading?$AA@
CONST	SEGMENT
??_C@_0P@IDBBEDLI@CurrentReading?$AA@ DB 'CurrentReading', 00H ; `string'
CONST	ENDS
;	COMDAT ??_C@_0BD@ENAKGAAL@Win32_CurrentProbe?$AA@
CONST	SEGMENT
??_C@_0BD@ENAKGAAL@Win32_CurrentProbe?$AA@ DB 'Win32_CurrentProbe', 00H ; `string'
CONST	ENDS
;	COMDAT ??_C@_0N@JBKHOEPE@SystemUpTime?$AA@
CONST	SEGMENT
??_C@_0N@JBKHOEPE@SystemUpTime?$AA@ DB 'SystemUpTime', 00H ; `string'
CONST	ENDS
;	COMDAT ??_C@_0BC@HMBPBBJB@SystemCallsPerSec?$AA@
CONST	SEGMENT
??_C@_0BC@HMBPBBJB@SystemCallsPerSec?$AA@ DB 'SystemCallsPerSec', 00H ; `string'
CONST	ENDS
;	COMDAT ??_C@_0BF@NPGOAGED@ProcessorQueueLength?$AA@
CONST	SEGMENT
??_C@_0BF@NPGOAGED@ProcessorQueueLength?$AA@ DB 'ProcessorQueueLength', 00H ; `string'
CONST	ENDS
;	COMDAT ??_C@_0BK@NGGOKLMO@PercentRegistryQuotaInUse?$AA@
CONST	SEGMENT
??_C@_0BK@NGGOKLMO@PercentRegistryQuotaInUse?$AA@ DB 'PercentRegistryQuot'
	DB	'aInUse', 00H				; `string'
CONST	ENDS
;	COMDAT ??_C@_0BJ@PHDBHNCO@FloatingEmulationsPerSec?$AA@
CONST	SEGMENT
??_C@_0BJ@PHDBHNCO@FloatingEmulationsPerSec?$AA@ DB 'FloatingEmulationsPe'
	DB	'rSec', 00H					; `string'
CONST	ENDS
;	COMDAT ??_C@_0BF@LGMPDKBA@FileWriteBytesPerSec?$AA@
CONST	SEGMENT
??_C@_0BF@LGMPDKBA@FileWriteBytesPerSec?$AA@ DB 'FileWriteBytesPerSec', 00H ; `string'
CONST	ENDS
;	COMDAT ??_C@_0BE@NKKLPLAB@FileReadBytesPerSec?$AA@
CONST	SEGMENT
??_C@_0BE@NKKLPLAB@FileReadBytesPerSec?$AA@ DB 'FileReadBytesPerSec', 00H ; `string'
CONST	ENDS
;	COMDAT ??_C@_0BM@PIKKJCOI@FileControlOperationsPerSec?$AA@
CONST	SEGMENT
??_C@_0BM@PIKKJCOI@FileControlOperationsPerSec?$AA@ DB 'FileControlOperat'
	DB	'ionsPerSec', 00H				; `string'
CONST	ENDS
;	COMDAT ??_C@_0BH@EMNLAEFK@FileControlBytesPerSec?$AA@
CONST	SEGMENT
??_C@_0BH@EMNLAEFK@FileControlBytesPerSec?$AA@ DB 'FileControlBytesPerSec'
	DB	00H						; `string'
CONST	ENDS
;	COMDAT ??_C@_0BK@DHKAACDP@ExceptionDispatchesPerSec?$AA@
CONST	SEGMENT
??_C@_0BK@DHKAACDP@ExceptionDispatchesPerSec?$AA@ DB 'ExceptionDispatches'
	DB	'PerSec', 00H				; `string'
CONST	ENDS
;	COMDAT ??_C@_0BG@GIPKJDB@ContextSwitchesPerSec?$AA@
CONST	SEGMENT
??_C@_0BG@GIPKJDB@ContextSwitchesPerSec?$AA@ DB 'ContextSwitchesPerSec', 00H ; `string'
CONST	ENDS
;	COMDAT ??_C@_0BG@KHFHJKMP@AlignmentFixupsPerSec?$AA@
CONST	SEGMENT
??_C@_0BG@KHFHJKMP@AlignmentFixupsPerSec?$AA@ DB 'AlignmentFixupsPerSec', 00H ; `string'
CONST	ENDS
;	COMDAT ??_C@_0CA@OICKPIAK@Win32_PerfRawData_PerfOS_System?$AA@
CONST	SEGMENT
??_C@_0CA@OICKPIAK@Win32_PerfRawData_PerfOS_System?$AA@ DB 'Win32_PerfRaw'
	DB	'Data_PerfOS_System', 00H			; `string'
CONST	ENDS
;	COMDAT ??_C@_0BG@FPNGHOGK@PercentPrivilegedTime?$AA@
CONST	SEGMENT
??_C@_0BG@FPNGHOGK@PercentPrivilegedTime?$AA@ DB 'PercentPrivilegedTime', 00H ; `string'
CONST	ENDS
;	COMDAT ??_C@_0BF@GMGAHOLM@PercentInterruptTime?$AA@
CONST	SEGMENT
??_C@_0BF@GMGAHOLM@PercentInterruptTime?$AA@ DB 'PercentInterruptTime', 00H ; `string'
CONST	ENDS
;	COMDAT ??_C@_0P@LMLLFJEI@PercentDPCTime?$AA@
CONST	SEGMENT
??_C@_0P@LMLLFJEI@PercentDPCTime?$AA@ DB 'PercentDPCTime', 00H ; `string'
CONST	ENDS
;	COMDAT ??_C@_0O@LEJEMNCG@PercentC3Time?$AA@
CONST	SEGMENT
??_C@_0O@LEJEMNCG@PercentC3Time?$AA@ DB 'PercentC3Time', 00H ; `string'
CONST	ENDS
;	COMDAT ??_C@_0O@HPMIBOID@PercentC2Time?$AA@
CONST	SEGMENT
??_C@_0O@HPMIBOID@PercentC2Time?$AA@ DB 'PercentC2Time', 00H ; `string'
CONST	ENDS
;	COMDAT ??_C@_0O@PJFMGMCN@PercentC1Time?$AA@
CONST	SEGMENT
??_C@_0O@PJFMGMCN@PercentC1Time?$AA@ DB 'PercentC1Time', 00H ; `string'
CONST	ENDS
;	COMDAT ??_C@_0BB@FCICDGPJ@InterruptsPerSec?$AA@
CONST	SEGMENT
??_C@_0BB@FCICDGPJ@InterruptsPerSec?$AA@ DB 'InterruptsPerSec', 00H ; `string'
CONST	ENDS
;	COMDAT ??_C@_0BB@KHEGFAIJ@DPCsQueuedPerSec?$AA@
CONST	SEGMENT
??_C@_0BB@KHEGFAIJ@DPCsQueuedPerSec?$AA@ DB 'DPCsQueuedPerSec', 00H ; `string'
CONST	ENDS
;	COMDAT ??_C@_07BHCICOFH@DPCRate?$AA@
CONST	SEGMENT
??_C@_07BHCICOFH@DPCRate?$AA@ DB 'DPCRate', 00H		; `string'
CONST	ENDS
;	COMDAT ??_C@_0BE@EPCEDEOH@C3TransitionsPerSec?$AA@
CONST	SEGMENT
??_C@_0BE@EPCEDEOH@C3TransitionsPerSec?$AA@ DB 'C3TransitionsPerSec', 00H ; `string'
CONST	ENDS
;	COMDAT ??_C@_0BE@JIMGLELP@C2TransitionsPerSec?$AA@
CONST	SEGMENT
??_C@_0BE@JIMGLELP@C2TransitionsPerSec?$AA@ DB 'C2TransitionsPerSec', 00H ; `string'
CONST	ENDS
;	COMDAT ??_C@_0BE@DLJADCBG@C1TransitionsPerSec?$AA@
CONST	SEGMENT
??_C@_0BE@DLJADCBG@C1TransitionsPerSec?$AA@ DB 'C1TransitionsPerSec', 00H ; `string'
CONST	ENDS
;	COMDAT ??_C@_0BA@JCLIOML@PercentUserTime?$AA@
CONST	SEGMENT
??_C@_0BA@JCLIOML@PercentUserTime?$AA@ DB 'PercentUserTime', 00H ; `string'
CONST	ENDS
;	COMDAT ??_C@_0BF@EMKPKJGP@PercentProcessorTime?$AA@
CONST	SEGMENT
??_C@_0BF@EMKPKJGP@PercentProcessorTime?$AA@ DB 'PercentProcessorTime', 00H ; `string'
CONST	ENDS
;	COMDAT ??_C@_0CD@BCJODFFP@Win32_PerfRawData_PerfOS_Process@
CONST	SEGMENT
??_C@_0CD@BCJODFFP@Win32_PerfRawData_PerfOS_Process@ DB 'Win32_PerfRawDat'
	DB	'a_PerfOS_Processor', 00H			; `string'
CONST	ENDS
