; Listing generated by Microsoft (R) Optimizing Compiler Version 15.00.30729.01 

	TITLE	e:\Tools\SysStatus\USB.cpp
	.686P
	.XMM
	include listing.inc
	.model	flat

INCLUDELIB OLDNAMES

PUBLIC	??_C@_0L@CCBFPMDD@?5?5?5?5?5?5?5?5?5?5?$AA@	; `string'
PUBLIC	??_C@_08GGFKNFHG@?5?5?5?5?5?5?5?5?$AA@		; `string'
PUBLIC	??_C@_06GGLIPOFD@?5?5?5?5?5?5?$AA@		; `string'
PUBLIC	??_C@_04PFOHOKJK@?5?5?5?5?$AA@			; `string'
PUBLIC	??_C@_02KNHHEEKP@?5?5?$AA@			; `string'
PUBLIC	??_C@_0BC@BOFHLGPH@DeviceInLegacyHub?$AA@	; `string'
PUBLIC	??_C@_0BJ@CHELPMAC@DeviceHubNestedTooDeeply?$AA@ ; `string'
PUBLIC	??_C@_0BJ@DBBHPJJC@DeviceNotEnoughBandwidth?$AA@ ; `string'
PUBLIC	??_C@_0BF@KCIAFGBC@DeviceNotEnoughPower?$AA@	; `string'
PUBLIC	??_C@_0BI@FHCONGJI@DeviceCausedOvercurrent?$AA@	; `string'
PUBLIC	??_C@_0BF@FIJIOADB@DeviceGeneralFailure?$AA@	; `string'
PUBLIC	??_C@_0BI@LKBNFKJE@DeviceFailedEnumeration?$AA@	; `string'
PUBLIC	??_C@_0BA@LIPCCNEI@DeviceConnected?$AA@		; `string'
PUBLIC	??_C@_0BC@CFJFKPGC@NoDeviceConnected?$AA@	; `string'
PUBLIC	??A?$vector@V?$basic_string@DU?$char_traits@D@std@@V?$allocator@D@2@@std@@V?$allocator@V?$basic_string@DU?$char_traits@D@std@@V?$allocator@D@2@@std@@@2@@std@@QAEAAV?$basic_string@DU?$char_traits@D@std@@V?$allocator@D@2@@1@I@Z ; std::vector<std::basic_string<char,std::char_traits<char>,std::allocator<char> >,std::allocator<std::basic_string<char,std::char_traits<char>,std::allocator<char> > > >::operator[]
PUBLIC	?PushBackDetails@USB@@IAEXV?$basic_string@DU?$char_traits@D@std@@V?$allocator@D@2@@std@@@Z ; USB::PushBackDetails
PUBLIC	??_C@_00CNPNBAHC@?$AA@				; `string'
PUBLIC	??_C@_0BI@GFKFEIAL@?9?9?5USB?4PushBackDets?0?5?$CFs?$AA@ ; `string'
PUBLIC	?ConnectionStatuses@@3PAPADA			; ConnectionStatuses
PUBLIC	?UsbViewIndent@@3PAPADA				; UsbViewIndent
PUBLIC	??_C@_0P@JPOMJBKJ@?$DO?$DO?5USB?4EnumUSB?$AA@	; `string'
PUBLIC	??_C@_0N@JNFFEOEJ@cfgmgr32?4dll?$AA@		; `string'
PUBLIC	??_C@_0DE@MNEBEEPL@?$DM?$DM?5USB?4EnumUSB?0?5LoadLib?5cfgmgr32@ ; `string'
PUBLIC	??_C@_0O@CIKLALFP@CM_Get_Parent?$AA@		; `string'
PUBLIC	??_C@_0DI@OFIMABNG@?$DM?$DM?5USB?4EnumUSB?0?5GetProcAdr?5CM_Ge@ ; `string'
PUBLIC	??_C@_0P@OOIACNHP@CM_Get_Sibling?$AA@		; `string'
PUBLIC	??_C@_0DJ@MMFCGNCK@?$DM?$DM?5USB?4EnumUSB?0?5GetProcAdr?5CM_Ge@ ; `string'
PUBLIC	??_C@_0N@EKPGFMC@CM_Get_Child?$AA@		; `string'
PUBLIC	??_C@_0DH@HAEGCLCE@?$DM?$DM?5USB?4EnumUSB?0?5GetProcAdr?5CM_Ge@ ; `string'
PUBLIC	??_C@_0CC@NHFCMMFN@CM_Get_DevNode_Registry_Property@ ; `string'
PUBLIC	??_C@_0EL@DLHLJOM@?$DM?$DM?5USB?4EnumUSB?0?5GetProcAdr?5CM_Ge@ ; `string'
PUBLIC	??_C@_0BD@FFDOPOAJ@CM_Locate_DevNodeA?$AA@	; `string'
PUBLIC	??_C@_0DM@DIBECLHK@?$DM?$DM?5USB?4EnumUSB?0?5GetProcAdr?5CM_Lo@ ; `string'
PUBLIC	??_C@_0O@BMIBGHPI@Enumerate?5USB?$AA@		; `string'
PUBLIC	??_C@_09PEILPPNA@?2?2?4?2HCD?$CFd?$AA@		; `string'
PUBLIC	??_C@_0N@BEFNEIBE@RootHub?5?3?5?$CFs?$AA@	; `string'
PUBLIC	??_C@_07FOIBMAON@RootHub?$AA@			; `string'
PUBLIC	??_C@_0BL@FOIGIFIJ@Total?5Devices?5Connected?5?$CFu?$AA@ ; `string'
PUBLIC	??_C@_0P@NGAEOEJF@?$DM?$DM?5USB?4EnumUSB?$AA@	; `string'
PUBLIC	??_C@_0BA@EBIECMOG@?$DO?$DO?5USB?4DevsDets?$AA@	; `string'
PUBLIC	??_C@_0BD@HNIJLKOP@USB?5Device?5Details?$AA@	; `string'
PUBLIC	??_C@_02DKCKIIND@?$CFs?$AA@			; `string'
PUBLIC	??_C@_0BA@GOKCLIBE@?$DM?$DM?5USB?4DevsDets?$AA@	; `string'
PUBLIC	??_C@_0BC@OBKJMAF@?$DO?$DO?5USB?4GetStrDesc?$AA@ ; `string'
PUBLIC	??_C@_0CJ@MLNPNNOJ@?$DM?$DM?5USB?4GetStrDesc?0?5DeviceIoContr@ ; `string'
PUBLIC	??_C@_0CA@JKPBCDKN@?$DM?$DM?5USB?4GetStrDesc?0?5Bytes?5Ret?5?$CFu?$AA@ ; `string'
PUBLIC	??_C@_0CH@ELGGMNKC@?$DM?$DM?5USB?4GetStrDesc?0?5Inv?5Descripto@ ; `string'
PUBLIC	??_C@_0CD@CHKNKAPD@?$DM?$DM?5USB?4GetStrDesc?0?5Inv?5Sz?5?$CFd?5?$DM?$DO?5@ ; `string'
PUBLIC	??_C@_0BN@ILBIFDNN@?$DM?$DM?5USB?4GetStrDesc?0?5Odd?5Sz?5?$CFd?$AA@ ; `string'
PUBLIC	??_C@_0CF@BKJLPKEL@?$DM?$DM?5USB?4GetStrDesc?0?5new?5DescNode?5@ ; `string'
PUBLIC	??_C@_0DF@ICOPDODD@?9?9?5USB?4GetStrDesc?0?5WideCharToMul@ ; `string'
PUBLIC	??_C@_0BP@BCHFPFAE@?$DM?$DM?5USB?4GetStrDesc?0?5DescNode?5?$CFX?$AA@ ; `string'
PUBLIC	??_C@_0BF@IPAKKGGO@?$DO?$DO?5USB?4AreThrStrDesc?$AA@ ; `string'
PUBLIC	??_C@_0DC@KIEGOLFL@?$DM?$DM?5USB?4AreThrStrDesc?0?5Manufact?5?$CF@ ; `string'
PUBLIC	??_C@_0BN@DEJJKGAD@?$DM?$DM?5USB?4AreThrStrDesc?0?5Cfg?5?$CFd?$AA@ ; `string'
PUBLIC	??_C@_0CD@NAENOJMA@?$DM?$DM?5USB?4AreThrStrDesc?0?5Interface?5@ ; `string'
PUBLIC	??_C@_0CA@JFAJNON@?$DM?$DM?5USB?4AreThrStrDesc?0?5Ret?5False?$AA@ ; `string'
PUBLIC	??_C@_0BG@PLIGAJPI@?$DO?$DO?5USB?4GetAllStrDescs?$AA@ ; `string'
PUBLIC	??_C@_0CJ@HBMGBPGH@?$DM?$DM?5USB?4GetAllStrDescs?0?5SuppLangs@ ; `string'
PUBLIC	??_C@_0CH@IFDPMHNA@?$DM?$DM?5USB?4GetAllStrDescs?0?5SuppLangs@ ; `string'
PUBLIC	??_C@_0BF@GLJHIDAC@?$DO?$DO?5USB?4GetDrvKeyName?$AA@ ; `string'
PUBLIC	??_C@_0DA@OGKODAJE@?9?9?5USB?4GetDriverKeyName?0?5new?5Key@ ; `string'
PUBLIC	??_C@_0BP@IAFNNICI@?$DM?$DM?5USB?4GetDrvKeyName?0?5AName?5?$CFX?$AA@ ; `string'
PUBLIC	??_C@_0BE@BDIOPGJF@?$DO?$DO?5USB?4GetExternHub?$AA@ ; `string'
PUBLIC	??_C@_0DA@HJNGPFIB@?9?9?5USB?4GetExtHubName?0?5new?5extHub@ ; `string'
PUBLIC	??_C@_0CA@PKLCHKGO@?$DM?$DM?5USB?4GetExternHub?0?5HubName?5?$CFX?$AA@ ; `string'
PUBLIC	??_C@_0BE@CPBFJJJ@?$DO?$DO?5USB?4EnumHubPorts?$AA@ ; `string'
PUBLIC	??_C@_0DE@EKAJALEI@?9?9?5USB?4EnumHubPorts?0?5new?5Port?5?$CFd@ ; `string'
PUBLIC	??_C@_0M@PONEPIOA@?$CFs?$FLPort?$CFd?$FN?5?$AA@	; `string'
PUBLIC	??_C@_03MCPBMLDJ@?5?3?5?$AA@			; `string'
PUBLIC	??_C@_09IBNJMOOD@?$FLPort?$CFd?$FN?5?$AA@	; `string'
PUBLIC	??_C@_03BBKEAIF@?$DP?$DP?$DP?$AA@		; `string'
PUBLIC	??_C@_04PKDHFCJF@HIGH?$AA@			; `string'
PUBLIC	??_C@_03IBEFMGAI@LOW?$AA@			; `string'
PUBLIC	??_C@_04DHPBCODG@FULL?$AA@			; `string'
PUBLIC	??_C@_0CF@LGIDNAEF@?$CFs?5?$FLVID?3?$CF?44X?5PID?3?$CF?44X?5SN?3?$CFs?5Spd?3@ ; `string'
PUBLIC	??_C@_0BA@CGBIAJFO@Not?5Initialized?$AA@	; `string'
PUBLIC	??_C@_09CFCBFJND@Not?5Found?$AA@		; `string'
PUBLIC	??_C@_06DIJPEION@?$CFs?$CFs?$CFs?$AA@		; `string'
PUBLIC	??_C@_04HDOCAJNK@?$CFs?$CFs?$AA@		; `string'
PUBLIC	??_C@_0BE@LMILCJOE@?$DM?$DM?5USB?4EnumHubPorts?$AA@ ; `string'
PUBLIC	??_C@_0BP@KMJAGKHH@?$DO?$DO?5USB?4DrvName2DevDesc?0?5Drv?5?$CFs?$AA@ ; `string'
PUBLIC	??_C@_0CJ@PHHANNLH@?$DM?$DM?5USB?4DrvName2DevDesc?0?5LocateDe@ ; `string'
PUBLIC	??_C@_0BP@BAEOHBIH@?$DM?$DM?5USB?4DrvName2DevDesc?0?5ret?5?$CFX?$AA@ ; `string'
PUBLIC	??_C@_0CO@BAPAALJK@?$DM?$DM?5USB?4DrvName2DevDesc?0?5GetDevNo@ ; `string'
PUBLIC	??_C@_0CB@OFAOPKJL@?$DM?$DM?5USB?4DrvName2DevDesc?0?5Ret?5Null@ ; `string'
PUBLIC	??_C@_0P@JENLAABL@?$DO?$DO?5USB?4EnumHub?$AA@	; `string'
PUBLIC	??_C@_04GBDIODIA@?2?2?4?2?$AA@			; `string'
PUBLIC	??_C@_0DB@MFBNHHNK@?9?9?5USB?4EnumHub?0?5new?5Pntr?5for?5Dev@ ; `string'
PUBLIC	??_C@_04MKEDFNGB@?5?3?5?5?$AA@			; `string'
PUBLIC	??_C@_0CG@FMONKKAG@?9?9?5USB?4EnumHub?0?5new?5HubInfo?5?$CI?$CFu?$CJ@ ; `string'
PUBLIC	??_C@_0CD@EDMNKMD@?9?9?5USB?4EnumHub?0?5new?5Info?5?$CI?$CFu?$CJ?5nu@ ; `string'
PUBLIC	??_C@_0P@NNDDHFCH@?$DM?$DM?5USB?4EnumHub?$AA@	; `string'
PUBLIC	??_C@_0BC@PGMOMHHM@?$DO?$DO?5USB?4GetRootHub?$AA@ ; `string'
PUBLIC	??_C@_0BO@LDLFLMCA@?$DM?$DM?5USB?4GetRootHub?0?5HubName?5?$CFX?$AA@ ; `string'
PUBLIC	??_C@_0BI@LFJMJGOI@?$DO?$DO?5USB?4GetHCDDrvKeyName?$AA@ ; `string'
PUBLIC	??_C@_0CH@BGNGLHKH@?$DM?$DM?5USB?4GetHCDDrvKeyName?0?5DrvKeyN@ ; `string'
PUBLIC	??_C@_0BD@HEHGMECG@?$DO?$DO?5USB?4GetStrDescs?$AA@ ; `string'
PUBLIC	??_C@_0CH@BBKGOLN@?$DM?$DM?5USB?4GetStrDescs?0?5StrDescNodeT@ ; `string'
PUBLIC	??_C@_0BC@NBPLLDOB@?$DO?$DO?5USB?4GetCfgDesc?$AA@ ; `string'
PUBLIC	??_C@_0CJ@JPCNJMBL@?$DM?$DM?5USB?4GetCfgDesc?0?5DeviceIoContr@ ; `string'
PUBLIC	??_C@_0CL@CHLLBENA@?$DM?$DM?5USB?4GetCfgDesc?0?5Bytes?5?$CFu?5?$DM?$DO?5B@ ; `string'
PUBLIC	??_C@_0CL@LLJEBADN@?$DM?$DM?5USB?4GetCfgDesc?0?5Total?5?$CFd?5?$DM?5Sz@ ; `string'
PUBLIC	??_C@_0CN@FDNPACDH@?$DM?$DM?5USB?4GetCfgDesc?0?5Req?5DeviceIoC@ ; `string'
PUBLIC	??_C@_0CP@JDNANMP@?$DM?$DM?5USB?4GetCfgDesc?0?5Req?5Bytes?5?$CFu?5@ ; `string'
PUBLIC	??_C@_0CI@LMLHDIHD@?$DM?$DM?5USB?4GetCfgDesc?0?5Req?5Total?5?$CFd?5@ ; `string'
PUBLIC	??_C@_0CL@LPDCGPEM@?9?9?5USB?4GetCfgDescriptor?0?5new?5Buf@ ; `string'
PUBLIC	??_C@_0BG@INDEEKLB@?$DM?$DM?5USB?4GetCfgDesc?0?5?$CFX?$AA@ ; `string'
PUBLIC	??_C@_0P@GOACPFJP@?$DO?$DO?5USB?4HubInfo?$AA@	; `string'
PUBLIC	??_C@_09GDHNALJA@Bus?5Power?$AA@		; `string'
PUBLIC	??_C@_0L@JDJFLKOD@Self?5Power?$AA@		; `string'
PUBLIC	??_C@_0BA@KPNNFMHH@?$DO?5Hub?5Power?3?5?$CFs?$AA@ ; `string'
PUBLIC	??_C@_0BG@IOHBDCFM@?$DO?5Number?5of?5Ports?3?5?$CFd?$AA@ ; `string'
PUBLIC	??_C@_0BK@CEEHKAND@?$DO?5Power?5switching?3?5Ganged?$AA@ ; `string'
PUBLIC	??_C@_0BO@BHNNAPDB@?$DO?5Power?5switching?3?5Individual?$AA@ ; `string'
PUBLIC	??_C@_0BI@FICFFJGB@?$DO?5Power?5switching?3?5None?$AA@ ; `string'
PUBLIC	??_C@_0BG@FBGEODEL@?$DO?5Compound?5device?3?5No?$AA@ ; `string'
PUBLIC	??_C@_0BH@CFBEDMDO@?$DO?5Compound?5device?3?5Yes?$AA@ ; `string'
PUBLIC	??_C@_0CC@ELIAJJDL@?$DO?5Over?9current?5Protection?3?5Globa@ ; `string'
PUBLIC	??_C@_0CG@MEGDLCFA@?$DO?5Over?9current?5Protection?3?5Indiv@ ; `string'
PUBLIC	??_C@_0CO@FGJIHOLC@?$DO?5No?5Over?9current?5Protection?5?$CIBu@ ; `string'
PUBLIC	??_C@_0P@CHOKIAKD@?$DM?$DM?5USB?4HubInfo?$AA@	; `string'
PUBLIC	??_C@_0P@ICANHPPH@?$DO?$DO?5USB?4HubCaps?$AA@	; `string'
PUBLIC	??_C@_0CI@KPNJBEAB@?$DO?5Extended?5Hub?5Capability?5Flags?3@ ; `string'
PUBLIC	??_C@_0BL@GGCJII@?$DO?5?5?5High?5speed?5Capable?3?5?$CFs?$AA@ ; `string'
PUBLIC	??_C@_0BD@FCCHMOKD@?$DO?5?5?5High?5speed?3?5?$CFs?$AA@ ; `string'
PUBLIC	??_C@_0CC@CJLCKEMN@?$DO?5?5?5Mulit?9transaction?5Capable?3?5?$CF@ ; `string'
PUBLIC	??_C@_02IAAGKKDJ@On?$AA@			; `string'
PUBLIC	??_C@_03GCDBBDDL@Off?$AA@			; `string'
PUBLIC	??_C@_0BK@JNPMKCLE@?$DO?5?5?5Mulit?9transaction?3?5?$CFs?$AA@ ; `string'
PUBLIC	??_C@_0BB@BIGCJPGA@?$DO?5?5?5Root?5hub?3?5?$CFs?$AA@ ; `string'
PUBLIC	??_C@_0CC@EBPNDPBD@?$DO?5?5?5Armed?5for?5wake?5on?5connect?3?5?$CF@ ; `string'
PUBLIC	??_C@_0BP@LBBGDALG@?$DO?5?5?5Reserved?5?$CI26?5bits?$CJ?3?5?$CF0?$CD6lx?$AA@ ; `string'
PUBLIC	??_C@_0CG@OCCHEKHL@Extended?5Hub?5Capabilities?5UNAVAI@ ; `string'
PUBLIC	??_C@_0L@BGKBMIAF@High?5speed?$AA@		; `string'
PUBLIC	??_C@_0P@LDNEGAOE@Not?5high?5speed?$AA@		; `string'
PUBLIC	??_C@_0CA@BJAEENFA@?$DO?5Hub?5Capabilities?3?5?$CF0?$CD8lx?5?$CI?$CFs?$CJ?$AA@ ; `string'
PUBLIC	??_C@_0BN@HMIILDFE@Hub?5Capabilities?5UNAVAILABLE?$AA@ ; `string'
PUBLIC	??_C@_0P@MLOFAKML@?$DM?$DM?5USB?4HubCaps?$AA@	; `string'
PUBLIC	??_C@_0BA@IJBIPHPI@?$DO?$DO?5USB?4ConnInfo?$AA@	; `string'
PUBLIC	??_C@_0BM@GIKFEJKI@?$DM?$DM?5USB?4ConnInfo?0?5Input?5null?$AA@ ; `string'
PUBLIC	??_C@_0CG@KIPJNEMD@?$DO?5ConnectionStatus?3?5NoDeviceConn@ ; `string'
PUBLIC	??_C@_0BF@EPIIACIH@?$DO?5Device?5Descriptor?3?$AA@ ; `string'
PUBLIC	??_C@_0BD@EOGCPDGC@?$DO?5?5?5bcdUSB?3?50x?$CF04X?$AA@ ; `string'
PUBLIC	??_C@_0BJ@BBNICMHO@?$DO?5?5?5bDeviceClass?3?50x?$CF02X?$AA@ ; `string'
PUBLIC	??_C@_0BM@IBBMEPAK@?$DO?5?5?5bDeviceSubClass?3?50x?$CF02X?$AA@ ; `string'
PUBLIC	??_C@_0BM@DONCAOLL@?$DO?5?5?5bDeviceProtocol?3?50x?$CF02X?$AA@ ; `string'
PUBLIC	??_C@_0CB@KJHHAJF@?$DO?5?5?5bMaxPacketSize0?3?50x?$CF02X?5?$CI?$CFd?$CJ@ ; `string'
PUBLIC	??_C@_0BK@FCNKAGPN@?$DO?5?5?5idVendor?3?50x?$CF04X?5?$CI?$CFs?$CJ?$AA@ ; `string'
PUBLIC	??_C@_0BG@FEBFICPG@?$DO?5?5?5idProduct?3?50x?$CF04X?$AA@ ; `string'
PUBLIC	??_C@_0BG@IFDGHCDF@?$DO?5?5?5bcdDevice?3?50x?$CF04X?$AA@ ; `string'
PUBLIC	??_C@_0BK@IFOFIIGL@?$DO?5?5?5iManufacturer?3?50x?$CF02X?$AA@ ; `string'
PUBLIC	??_C@_0BF@JLHEPLOO@?$DO?5?5?5iProduct?3?50x?$CF02X?$AA@ ; `string'
PUBLIC	??_C@_0BK@LAPCHIKM@?$DO?5?5?5iSerialNumber?3?50x?$CF02X?$AA@ ; `string'
PUBLIC	??_C@_0BP@EFEAMJPP@?$DO?5?5?5bNumConfigurations?3?50x?$CF02X?$AA@ ; `string'
PUBLIC	??_C@_0BJ@POKCFGAN@?$DO?5?5?5ConnectionStatus?3?5?$CFs?$AA@ ; `string'
PUBLIC	??_C@_0CB@CNIJGGK@?$DO?5?5?5Current?5Config?5Value?3?50x?$CF02X@ ; `string'
PUBLIC	??_C@_0BK@CLDGMCFC@?$DO?5?5?5Device?5Bus?5Speed?3?5Low?$AA@ ; `string'
PUBLIC	??_C@_0BL@CJGBMBHK@?$DO?5?5?5Device?5Bus?5Speed?3?5Full?$AA@ ; `string'
PUBLIC	??_C@_0BL@OEKHLNNJ@?$DO?5?5?5Device?5Bus?5Speed?3?5High?$AA@ ; `string'
PUBLIC	??_C@_0BO@IIJPBIOD@?$DO?5?5?5Device?5Bus?5Speed?3?5Unknown?$AA@ ; `string'
PUBLIC	??_C@_0BL@DEBOODEI@?$DO?5?5?5Device?5Address?3?50x?$CF02X?$AA@ ; `string'
PUBLIC	??_C@_0BF@BAEOANMA@?$DO?5?5?5Open?5Pipes?3?5?$CF02d?$AA@ ; `string'
PUBLIC	??_C@_0BA@KGDOGDAK@?$DM?$DM?5USB?4ConnInfo?$AA@	; `string'
PUBLIC	??_C@_0BE@MPHLOHIN@?$DO?$DO?5USB?4PipeInfo?0?5?$CFu?$AA@ ; `string'
PUBLIC	??_C@_0BA@KIDKADGJ@?$DM?$DM?5USB?4PipeInfo?$AA@	; `string'
PUBLIC	??_C@_0BA@BANBJKNP@?$DO?$DO?5USB?4ConnDesc?$AA@	; `string'
PUBLIC	??_C@_0BM@HNNAHBOO@?$DM?$DM?5USB?4ConnDesc?0?5Input?5null?$AA@ ; `string'
PUBLIC	??_C@_0BA@DPPHAOCN@?$DM?$DM?5USB?4ConnDesc?$AA@	; `string'
PUBLIC	??_C@_0P@KMFKJDAO@?$DO?$DO?5USB?4CfgDesc?$AA@	; `string'
PUBLIC	??_C@_0BM@PCIMCBFD@?$DO?5Configuration?5Descriptor?3?$AA@ ; `string'
PUBLIC	??_C@_0BJ@JBGKFDNL@?$DO?5?5?5wTotalLength?3?50x?$CF04X?$AA@ ; `string'
PUBLIC	??_C@_0BL@JNHEPBEN@?$DO?5?5?5bNumInterfaces?3?50x?$CF02X?$AA@ ; `string'
PUBLIC	??_C@_0CA@KHMLNGHE@?$DO?5?5?5bConfigurationValue?3?50x?$CF02X?$AA@ ; `string'
PUBLIC	??_C@_0BL@MGNBONG@?$DO?5?5?5iConfiguration?3?50x?$CF02X?$AA@ ; `string'
PUBLIC	??_C@_0M@KJBOJHIH@Bus?5Powered?$AA@		; `string'
PUBLIC	??_C@_0N@BBGKMOEA@Self?5Powered?$AA@		; `string'
PUBLIC	??_C@_0O@CEMJPFOE@Remote?5Wakeup?$AA@		; `string'
PUBLIC	??_C@_01OGPIMHDM@?$DP?$AA@			; `string'
PUBLIC	??_C@_0BO@GBBHCHCO@?$DO?5?5?5bmAttributes?3?50x?$CF02X?5?$CI?$CFs?$CJ?$AA@ ; `string'
PUBLIC	??_C@_0BN@BADCCJC@?$DO?5?5?5MaxPower?3?50x?$CF02X?5?$CI?$CFd?5mA?$CJ?$AA@ ; `string'
PUBLIC	??_C@_0P@OFLCOGDC@?$DM?$DM?5USB?4CfgDesc?$AA@	; `string'
PUBLIC	??_C@_0BF@FGFFFEAJ@?$DO?$DO?5USB?4InterfaceDesc?$AA@ ; `string'
PUBLIC	??_C@_0BI@FGHPJGGP@?$DO?5Interface?5Descriptor?3?$AA@ ; `string'
PUBLIC	??_C@_0BN@ONGOLDBE@?$DO?5?5?5bInterfaceNumber?3?50x?$CF02X?$AA@ ; `string'
PUBLIC	??_C@_0BO@JANOLKEO@?$DO?5?5?5bAlternateSetting?3?50x?$CF02X?$AA@ ; `string'
PUBLIC	??_C@_0BK@EHJBAMGD@?$DO?5?5?5bNumEndpoints?3?50x?$CF02X?$AA@ ; `string'
PUBLIC	??_C@_05KKCMAPLJ@Audio?$AA@			; `string'
PUBLIC	??_C@_03GLEFGMHP@HID?$AA@			; `string'
PUBLIC	??_C@_03IFOKPDKP@Hub?$AA@			; `string'
PUBLIC	??_C@_0CB@KPEKNPLO@?$DO?5?5?5bInterfaceClass?3?50x?$CF02X?5?$CI?$CFs?$CJ@ ; `string'
PUBLIC	??_C@_0O@FIEMGMDK@Audio?5Control?$AA@		; `string'
PUBLIC	??_C@_0BA@CCICINDB@Audio?5Streaming?$AA@	; `string'
PUBLIC	??_C@_0P@ODBCJCKO@MIDI?5Streaming?$AA@		; `string'
PUBLIC	??_C@_0CE@PEKAFJHJ@?$DO?5?5?5bInterfaceSubClass?3?50x?$CF02X?5?$CI@ ; `string'
PUBLIC	??_C@_0BP@MCCALMMN@?$DO?5?5?5bInterfaceSubClass?3?50x?$CF02X?$AA@ ; `string'
PUBLIC	??_C@_0BP@HNOOPNHM@?$DO?5?5?5bInterfaceProtocol?3?50x?$CF02X?$AA@ ; `string'
PUBLIC	??_C@_0BH@JAJKJCLD@?$DO?5?5?5iInterface?3?50x?$CF02X?$AA@ ; `string'
PUBLIC	??_C@_0BI@MFPCCAIN@?$DO?5?5?5wNumClasses?3?50x?$CF04X?$AA@ ; `string'
PUBLIC	??_C@_0BF@HIFPCDPI@?$DM?$DM?5USB?4InterfaceDesc?$AA@ ; `string'
PUBLIC	??_C@_0BE@BNJCNLHH@?$DO?$DO?5USB?4EndpointDesc?$AA@ ; `string'
PUBLIC	??_C@_0BH@NNPPCJHP@?$DO?5Endpoint?5Descriptor?3?$AA@ ; `string'
PUBLIC	??_C@_0CA@IMJGHBI@?$DO?5?5?5bEndpointAddress?3?50x?$CF02X?5IN?$AA@ ; `string'
PUBLIC	??_C@_0CB@PIKLNKCM@?$DO?5?5?5bEndpointAddress?3?50x?$CF02X?5OUT@ ; `string'
PUBLIC	??_C@_0BL@ICIOMPJC@?$DO?5?5?5Transfer?5Type?3?5Control?$AA@ ; `string'
PUBLIC	??_C@_0BP@DMDNFJME@?$DO?5?5?5Transfer?5Type?3?5Isochronous?$AA@ ; `string'
PUBLIC	??_C@_0BI@ELEHNLID@?$DO?5?5?5Transfer?5Type?3?5Bulk?$AA@ ; `string'
PUBLIC	??_C@_0BN@MOOEBEKA@?$DO?5?5?5Transfer?5Type?3?5Interrupt?$AA@ ; `string'
PUBLIC	??_C@_0CA@OFHICAPC@?$DO?5?5?5wMaxPacketSize?3?50x?$CF04X?5?$CI?$CFd?$CJ?$AA@ ; `string'
PUBLIC	??_C@_0BG@LPGMHCMJ@?$DO?5?5?5bInterval?3?50x?$CF02X?$AA@ ; `string'
PUBLIC	??_C@_0BG@HBLIDDIE@?$DO?5?5?5wInterval?3?50x?$CF04X?$AA@ ; `string'
PUBLIC	??_C@_0BJ@CECFOBBD@?$DO?5?5?5bSyncAddress?3?50x?$CF02X?$AA@ ; `string'
PUBLIC	??_C@_0BE@KDOIKLAK@?$DM?$DM?5USB?4EndpointDesc?$AA@ ; `string'
PUBLIC	??_C@_0P@IBOMINBP@?$DO?$DO?5USB?4HidDesc?$AA@	; `string'
PUBLIC	??_C@_0BC@FKMEKGFJ@?$DO?5HID?5Descriptor?3?$AA@	; `string'
PUBLIC	??_C@_0BD@JNJCPDHI@?$DO?5?5?5bcdHID?3?50x?$CF04X?$AA@ ; `string'
PUBLIC	??_C@_0BJ@CKIDJFBI@?$DO?5?5?5bCountryCode?3?50x?$CF02X?$AA@ ; `string'
PUBLIC	??_C@_0BM@MKJBFMNP@?$DO?5?5?5bNumDescriptors?3?50x?$CF02X?$AA@ ; `string'
PUBLIC	??_C@_0DN@JAEDHMBE@?$DO?5?5?5?$CF?43i?0?5bDescriptorType?3?50x?$CF02@ ; `string'
PUBLIC	??_C@_0P@MIAEPICD@?$DM?$DM?5USB?4HidDesc?$AA@	; `string'
PUBLIC	??_C@_0BH@LCHICFEL@?$DO?$DO?5USB?4StrDesc?0?5Idx?5?$CFd?$AA@ ; `string'
PUBLIC	??_C@_0P@CCEKBNHE@?$DO?5?5?50x?$CF04X?3?5?$CFs?$AA@ ; `string'
PUBLIC	??_C@_0P@DKFDMJNG@?$DM?$DM?5USB?4StrDesc?$AA@	; `string'
PUBLIC	??_C@_0BD@LEEGFGLN@?$DO?$DO?5USB?4UnknownDesc?$AA@ ; `string'
PUBLIC	??_C@_0BG@FBFGEGLK@?$DO?5Unknown?5Descriptor?3?$AA@ ; `string'
PUBLIC	??_C@_0BM@HOMJLHIG@?$DO?5?5?5bDescriptorType?3?50x?$CF02X?$AA@ ; `string'
PUBLIC	??_C@_0BE@PKPADJND@?$DO?5?5?5bLength?3?50x?$CF02X?$AA@ ; `string'
PUBLIC	??_C@_04CKDHMDHJ@?$DO?5?5?5?$AA@		; `string'
PUBLIC	??_C@_07GHOKFMCD@?$CFs?4?$CF02X?$AA@		; `string'
PUBLIC	??_C@_0BD@MFCGDLMP@?$DM?$DM?5USB?4UnknownDesc?$AA@ ; `string'
EXTRN	__imp__LoadLibraryA@4:PROC
EXTRN	__imp__wsprintfA:PROC
EXTRN	__imp__DeviceIoControl@32:PROC
;	COMDAT ??_C@_0BD@MFCGDLMP@?$DM?$DM?5USB?4UnknownDesc?$AA@
CONST	SEGMENT
??_C@_0BD@MFCGDLMP@?$DM?$DM?5USB?4UnknownDesc?$AA@ DB '<< USB.UnknownDesc'
	DB	00H						; `string'
CONST	ENDS
;	COMDAT ??_C@_07GHOKFMCD@?$CFs?4?$CF02X?$AA@
CONST	SEGMENT
??_C@_07GHOKFMCD@?$CFs?4?$CF02X?$AA@ DB '%s.%02X', 00H	; `string'
CONST	ENDS
;	COMDAT ??_C@_04CKDHMDHJ@?$DO?5?5?5?$AA@
CONST	SEGMENT
??_C@_04CKDHMDHJ@?$DO?5?5?5?$AA@ DB '>   ', 00H		; `string'
CONST	ENDS
;	COMDAT ??_C@_0BE@PKPADJND@?$DO?5?5?5bLength?3?50x?$CF02X?$AA@
CONST	SEGMENT
??_C@_0BE@PKPADJND@?$DO?5?5?5bLength?3?50x?$CF02X?$AA@ DB '>   bLength: 0'
	DB	'x%02X', 00H					; `string'
CONST	ENDS
;	COMDAT ??_C@_0BM@HOMJLHIG@?$DO?5?5?5bDescriptorType?3?50x?$CF02X?$AA@
CONST	SEGMENT
??_C@_0BM@HOMJLHIG@?$DO?5?5?5bDescriptorType?3?50x?$CF02X?$AA@ DB '>   bD'
	DB	'escriptorType: 0x%02X', 00H			; `string'
CONST	ENDS
;	COMDAT ??_C@_0BG@FBFGEGLK@?$DO?5Unknown?5Descriptor?3?$AA@
CONST	SEGMENT
??_C@_0BG@FBFGEGLK@?$DO?5Unknown?5Descriptor?3?$AA@ DB '> Unknown Descrip'
	DB	'tor:', 00H					; `string'
CONST	ENDS
;	COMDAT ??_C@_0BD@LEEGFGLN@?$DO?$DO?5USB?4UnknownDesc?$AA@
CONST	SEGMENT
??_C@_0BD@LEEGFGLN@?$DO?$DO?5USB?4UnknownDesc?$AA@ DB '>> USB.UnknownDesc'
	DB	00H						; `string'
CONST	ENDS
;	COMDAT ??_C@_0P@DKFDMJNG@?$DM?$DM?5USB?4StrDesc?$AA@
CONST	SEGMENT
??_C@_0P@DKFDMJNG@?$DM?$DM?5USB?4StrDesc?$AA@ DB '<< USB.StrDesc', 00H ; `string'
CONST	ENDS
;	COMDAT ??_C@_0P@CCEKBNHE@?$DO?5?5?50x?$CF04X?3?5?$CFs?$AA@
CONST	SEGMENT
??_C@_0P@CCEKBNHE@?$DO?5?5?50x?$CF04X?3?5?$CFs?$AA@ DB '>   0x%04X: %s', 00H ; `string'
CONST	ENDS
;	COMDAT ??_C@_0BH@LCHICFEL@?$DO?$DO?5USB?4StrDesc?0?5Idx?5?$CFd?$AA@
CONST	SEGMENT
??_C@_0BH@LCHICFEL@?$DO?$DO?5USB?4StrDesc?0?5Idx?5?$CFd?$AA@ DB '>> USB.S'
	DB	'trDesc, Idx %d', 00H			; `string'
CONST	ENDS
;	COMDAT ??_C@_0P@MIAEPICD@?$DM?$DM?5USB?4HidDesc?$AA@
CONST	SEGMENT
??_C@_0P@MIAEPICD@?$DM?$DM?5USB?4HidDesc?$AA@ DB '<< USB.HidDesc', 00H ; `string'
CONST	ENDS
;	COMDAT ??_C@_0DN@JAEDHMBE@?$DO?5?5?5?$CF?43i?0?5bDescriptorType?3?50x?$CF02@
CONST	SEGMENT
??_C@_0DN@JAEDHMBE@?$DO?5?5?5?$CF?43i?0?5bDescriptorType?3?50x?$CF02@ DB '>'
	DB	'   %.3i, bDescriptorType: 0x%02X, wDescriptorLength: 0x%04X', 00H ; `string'
CONST	ENDS
;	COMDAT ??_C@_0BM@MKJBFMNP@?$DO?5?5?5bNumDescriptors?3?50x?$CF02X?$AA@
CONST	SEGMENT
??_C@_0BM@MKJBFMNP@?$DO?5?5?5bNumDescriptors?3?50x?$CF02X?$AA@ DB '>   bN'
	DB	'umDescriptors: 0x%02X', 00H			; `string'
CONST	ENDS
;	COMDAT ??_C@_0BJ@CKIDJFBI@?$DO?5?5?5bCountryCode?3?50x?$CF02X?$AA@
CONST	SEGMENT
??_C@_0BJ@CKIDJFBI@?$DO?5?5?5bCountryCode?3?50x?$CF02X?$AA@ DB '>   bCoun'
	DB	'tryCode: 0x%02X', 00H			; `string'
CONST	ENDS
;	COMDAT ??_C@_0BD@JNJCPDHI@?$DO?5?5?5bcdHID?3?50x?$CF04X?$AA@
CONST	SEGMENT
??_C@_0BD@JNJCPDHI@?$DO?5?5?5bcdHID?3?50x?$CF04X?$AA@ DB '>   bcdHID: 0x%'
	DB	'04X', 00H					; `string'
CONST	ENDS
;	COMDAT ??_C@_0BC@FKMEKGFJ@?$DO?5HID?5Descriptor?3?$AA@
CONST	SEGMENT
??_C@_0BC@FKMEKGFJ@?$DO?5HID?5Descriptor?3?$AA@ DB '> HID Descriptor:', 00H ; `string'
CONST	ENDS
;	COMDAT ??_C@_0P@IBOMINBP@?$DO?$DO?5USB?4HidDesc?$AA@
CONST	SEGMENT
??_C@_0P@IBOMINBP@?$DO?$DO?5USB?4HidDesc?$AA@ DB '>> USB.HidDesc', 00H ; `string'
CONST	ENDS
;	COMDAT ??_C@_0BE@KDOIKLAK@?$DM?$DM?5USB?4EndpointDesc?$AA@
CONST	SEGMENT
??_C@_0BE@KDOIKLAK@?$DM?$DM?5USB?4EndpointDesc?$AA@ DB '<< USB.EndpointDe'
	DB	'sc', 00H					; `string'
CONST	ENDS
;	COMDAT ??_C@_0BJ@CECFOBBD@?$DO?5?5?5bSyncAddress?3?50x?$CF02X?$AA@
CONST	SEGMENT
??_C@_0BJ@CECFOBBD@?$DO?5?5?5bSyncAddress?3?50x?$CF02X?$AA@ DB '>   bSync'
	DB	'Address: 0x%02X', 00H			; `string'
CONST	ENDS
;	COMDAT ??_C@_0BG@HBLIDDIE@?$DO?5?5?5wInterval?3?50x?$CF04X?$AA@
CONST	SEGMENT
??_C@_0BG@HBLIDDIE@?$DO?5?5?5wInterval?3?50x?$CF04X?$AA@ DB '>   wInterva'
	DB	'l: 0x%04X', 00H				; `string'
CONST	ENDS
;	COMDAT ??_C@_0BG@LPGMHCMJ@?$DO?5?5?5bInterval?3?50x?$CF02X?$AA@
CONST	SEGMENT
??_C@_0BG@LPGMHCMJ@?$DO?5?5?5bInterval?3?50x?$CF02X?$AA@ DB '>   bInterva'
	DB	'l: 0x%02X', 00H				; `string'
CONST	ENDS
;	COMDAT ??_C@_0CA@OFHICAPC@?$DO?5?5?5wMaxPacketSize?3?50x?$CF04X?5?$CI?$CFd?$CJ?$AA@
CONST	SEGMENT
??_C@_0CA@OFHICAPC@?$DO?5?5?5wMaxPacketSize?3?50x?$CF04X?5?$CI?$CFd?$CJ?$AA@ DB '>'
	DB	'   wMaxPacketSize: 0x%04X (%d)', 00H	; `string'
CONST	ENDS
;	COMDAT ??_C@_0BN@MOOEBEKA@?$DO?5?5?5Transfer?5Type?3?5Interrupt?$AA@
CONST	SEGMENT
??_C@_0BN@MOOEBEKA@?$DO?5?5?5Transfer?5Type?3?5Interrupt?$AA@ DB '>   Tra'
	DB	'nsfer Type: Interrupt', 00H			; `string'
CONST	ENDS
;	COMDAT ??_C@_0BI@ELEHNLID@?$DO?5?5?5Transfer?5Type?3?5Bulk?$AA@
CONST	SEGMENT
??_C@_0BI@ELEHNLID@?$DO?5?5?5Transfer?5Type?3?5Bulk?$AA@ DB '>   Transfer'
	DB	' Type: Bulk', 00H				; `string'
CONST	ENDS
;	COMDAT ??_C@_0BP@DMDNFJME@?$DO?5?5?5Transfer?5Type?3?5Isochronous?$AA@
CONST	SEGMENT
??_C@_0BP@DMDNFJME@?$DO?5?5?5Transfer?5Type?3?5Isochronous?$AA@ DB '>   T'
	DB	'ransfer Type: Isochronous', 00H		; `string'
CONST	ENDS
;	COMDAT ??_C@_0BL@ICIOMPJC@?$DO?5?5?5Transfer?5Type?3?5Control?$AA@
CONST	SEGMENT
??_C@_0BL@ICIOMPJC@?$DO?5?5?5Transfer?5Type?3?5Control?$AA@ DB '>   Trans'
	DB	'fer Type: Control', 00H			; `string'
CONST	ENDS
;	COMDAT ??_C@_0CB@PIKLNKCM@?$DO?5?5?5bEndpointAddress?3?50x?$CF02X?5OUT@
CONST	SEGMENT
??_C@_0CB@PIKLNKCM@?$DO?5?5?5bEndpointAddress?3?50x?$CF02X?5OUT@ DB '>   '
	DB	'bEndpointAddress: 0x%02X OUT', 00H		; `string'
CONST	ENDS
;	COMDAT ??_C@_0CA@IMJGHBI@?$DO?5?5?5bEndpointAddress?3?50x?$CF02X?5IN?$AA@
CONST	SEGMENT
??_C@_0CA@IMJGHBI@?$DO?5?5?5bEndpointAddress?3?50x?$CF02X?5IN?$AA@ DB '> '
	DB	'  bEndpointAddress: 0x%02X IN', 00H		; `string'
CONST	ENDS
;	COMDAT ??_C@_0BH@NNPPCJHP@?$DO?5Endpoint?5Descriptor?3?$AA@
CONST	SEGMENT
??_C@_0BH@NNPPCJHP@?$DO?5Endpoint?5Descriptor?3?$AA@ DB '> Endpoint Descr'
	DB	'iptor:', 00H				; `string'
CONST	ENDS
;	COMDAT ??_C@_0BE@BNJCNLHH@?$DO?$DO?5USB?4EndpointDesc?$AA@
CONST	SEGMENT
??_C@_0BE@BNJCNLHH@?$DO?$DO?5USB?4EndpointDesc?$AA@ DB '>> USB.EndpointDe'
	DB	'sc', 00H					; `string'
CONST	ENDS
;	COMDAT ??_C@_0BF@HIFPCDPI@?$DM?$DM?5USB?4InterfaceDesc?$AA@
CONST	SEGMENT
??_C@_0BF@HIFPCDPI@?$DM?$DM?5USB?4InterfaceDesc?$AA@ DB '<< USB.Interface'
	DB	'Desc', 00H					; `string'
CONST	ENDS
;	COMDAT ??_C@_0BI@MFPCCAIN@?$DO?5?5?5wNumClasses?3?50x?$CF04X?$AA@
CONST	SEGMENT
??_C@_0BI@MFPCCAIN@?$DO?5?5?5wNumClasses?3?50x?$CF04X?$AA@ DB '>   wNumCl'
	DB	'asses: 0x%04X', 00H				; `string'
CONST	ENDS
;	COMDAT ??_C@_0BH@JAJKJCLD@?$DO?5?5?5iInterface?3?50x?$CF02X?$AA@
CONST	SEGMENT
??_C@_0BH@JAJKJCLD@?$DO?5?5?5iInterface?3?50x?$CF02X?$AA@ DB '>   iInterf'
	DB	'ace: 0x%02X', 00H				; `string'
CONST	ENDS
;	COMDAT ??_C@_0BP@HNOOPNHM@?$DO?5?5?5bInterfaceProtocol?3?50x?$CF02X?$AA@
CONST	SEGMENT
??_C@_0BP@HNOOPNHM@?$DO?5?5?5bInterfaceProtocol?3?50x?$CF02X?$AA@ DB '>  '
	DB	' bInterfaceProtocol: 0x%02X', 00H		; `string'
CONST	ENDS
;	COMDAT ??_C@_0BP@MCCALMMN@?$DO?5?5?5bInterfaceSubClass?3?50x?$CF02X?$AA@
CONST	SEGMENT
??_C@_0BP@MCCALMMN@?$DO?5?5?5bInterfaceSubClass?3?50x?$CF02X?$AA@ DB '>  '
	DB	' bInterfaceSubClass: 0x%02X', 00H		; `string'
CONST	ENDS
;	COMDAT ??_C@_0CE@PEKAFJHJ@?$DO?5?5?5bInterfaceSubClass?3?50x?$CF02X?5?$CI@
CONST	SEGMENT
??_C@_0CE@PEKAFJHJ@?$DO?5?5?5bInterfaceSubClass?3?50x?$CF02X?5?$CI@ DB '>'
	DB	'   bInterfaceSubClass: 0x%02X (%s)', 00H	; `string'
CONST	ENDS
;	COMDAT ??_C@_0P@ODBCJCKO@MIDI?5Streaming?$AA@
CONST	SEGMENT
??_C@_0P@ODBCJCKO@MIDI?5Streaming?$AA@ DB 'MIDI Streaming', 00H ; `string'
CONST	ENDS
;	COMDAT ??_C@_0BA@CCICINDB@Audio?5Streaming?$AA@
CONST	SEGMENT
??_C@_0BA@CCICINDB@Audio?5Streaming?$AA@ DB 'Audio Streaming', 00H ; `string'
CONST	ENDS
;	COMDAT ??_C@_0O@FIEMGMDK@Audio?5Control?$AA@
CONST	SEGMENT
??_C@_0O@FIEMGMDK@Audio?5Control?$AA@ DB 'Audio Control', 00H ; `string'
CONST	ENDS
;	COMDAT ??_C@_0CB@KPEKNPLO@?$DO?5?5?5bInterfaceClass?3?50x?$CF02X?5?$CI?$CFs?$CJ@
CONST	SEGMENT
??_C@_0CB@KPEKNPLO@?$DO?5?5?5bInterfaceClass?3?50x?$CF02X?5?$CI?$CFs?$CJ@ DB '>'
	DB	'   bInterfaceClass: 0x%02X (%s)', 00H	; `string'
CONST	ENDS
;	COMDAT ??_C@_03IFOKPDKP@Hub?$AA@
CONST	SEGMENT
??_C@_03IFOKPDKP@Hub?$AA@ DB 'Hub', 00H			; `string'
CONST	ENDS
;	COMDAT ??_C@_03GLEFGMHP@HID?$AA@
CONST	SEGMENT
??_C@_03GLEFGMHP@HID?$AA@ DB 'HID', 00H			; `string'
CONST	ENDS
;	COMDAT ??_C@_05KKCMAPLJ@Audio?$AA@
CONST	SEGMENT
??_C@_05KKCMAPLJ@Audio?$AA@ DB 'Audio', 00H		; `string'
CONST	ENDS
;	COMDAT ??_C@_0BK@EHJBAMGD@?$DO?5?5?5bNumEndpoints?3?50x?$CF02X?$AA@
CONST	SEGMENT
??_C@_0BK@EHJBAMGD@?$DO?5?5?5bNumEndpoints?3?50x?$CF02X?$AA@ DB '>   bNum'
	DB	'Endpoints: 0x%02X', 00H			; `string'
CONST	ENDS
;	COMDAT ??_C@_0BO@JANOLKEO@?$DO?5?5?5bAlternateSetting?3?50x?$CF02X?$AA@
CONST	SEGMENT
??_C@_0BO@JANOLKEO@?$DO?5?5?5bAlternateSetting?3?50x?$CF02X?$AA@ DB '>   '
	DB	'bAlternateSetting: 0x%02X', 00H		; `string'
CONST	ENDS
;	COMDAT ??_C@_0BN@ONGOLDBE@?$DO?5?5?5bInterfaceNumber?3?50x?$CF02X?$AA@
CONST	SEGMENT
??_C@_0BN@ONGOLDBE@?$DO?5?5?5bInterfaceNumber?3?50x?$CF02X?$AA@ DB '>   b'
	DB	'InterfaceNumber: 0x%02X', 00H		; `string'
CONST	ENDS
;	COMDAT ??_C@_0BI@FGHPJGGP@?$DO?5Interface?5Descriptor?3?$AA@
CONST	SEGMENT
??_C@_0BI@FGHPJGGP@?$DO?5Interface?5Descriptor?3?$AA@ DB '> Interface Des'
	DB	'criptor:', 00H				; `string'
CONST	ENDS
;	COMDAT ??_C@_0BF@FGFFFEAJ@?$DO?$DO?5USB?4InterfaceDesc?$AA@
CONST	SEGMENT
??_C@_0BF@FGFFFEAJ@?$DO?$DO?5USB?4InterfaceDesc?$AA@ DB '>> USB.Interface'
	DB	'Desc', 00H					; `string'
CONST	ENDS
;	COMDAT ??_C@_0P@OFLCOGDC@?$DM?$DM?5USB?4CfgDesc?$AA@
CONST	SEGMENT
??_C@_0P@OFLCOGDC@?$DM?$DM?5USB?4CfgDesc?$AA@ DB '<< USB.CfgDesc', 00H ; `string'
CONST	ENDS
;	COMDAT ??_C@_0BN@BADCCJC@?$DO?5?5?5MaxPower?3?50x?$CF02X?5?$CI?$CFd?5mA?$CJ?$AA@
CONST	SEGMENT
??_C@_0BN@BADCCJC@?$DO?5?5?5MaxPower?3?50x?$CF02X?5?$CI?$CFd?5mA?$CJ?$AA@ DB '>'
	DB	'   MaxPower: 0x%02X (%d mA)', 00H		; `string'
CONST	ENDS
;	COMDAT ??_C@_0BO@GBBHCHCO@?$DO?5?5?5bmAttributes?3?50x?$CF02X?5?$CI?$CFs?$CJ?$AA@
CONST	SEGMENT
??_C@_0BO@GBBHCHCO@?$DO?5?5?5bmAttributes?3?50x?$CF02X?5?$CI?$CFs?$CJ?$AA@ DB '>'
	DB	'   bmAttributes: 0x%02X (%s)', 00H		; `string'
CONST	ENDS
;	COMDAT ??_C@_01OGPIMHDM@?$DP?$AA@
CONST	SEGMENT
??_C@_01OGPIMHDM@?$DP?$AA@ DB '?', 00H			; `string'
CONST	ENDS
;	COMDAT ??_C@_0O@CEMJPFOE@Remote?5Wakeup?$AA@
CONST	SEGMENT
??_C@_0O@CEMJPFOE@Remote?5Wakeup?$AA@ DB 'Remote Wakeup', 00H ; `string'
CONST	ENDS
;	COMDAT ??_C@_0N@BBGKMOEA@Self?5Powered?$AA@
CONST	SEGMENT
??_C@_0N@BBGKMOEA@Self?5Powered?$AA@ DB 'Self Powered', 00H ; `string'
CONST	ENDS
;	COMDAT ??_C@_0M@KJBOJHIH@Bus?5Powered?$AA@
CONST	SEGMENT
??_C@_0M@KJBOJHIH@Bus?5Powered?$AA@ DB 'Bus Powered', 00H ; `string'
CONST	ENDS
;	COMDAT ??_C@_0BL@MGNBONG@?$DO?5?5?5iConfiguration?3?50x?$CF02X?$AA@
CONST	SEGMENT
??_C@_0BL@MGNBONG@?$DO?5?5?5iConfiguration?3?50x?$CF02X?$AA@ DB '>   iCon'
	DB	'figuration: 0x%02X', 00H			; `string'
CONST	ENDS
;	COMDAT ??_C@_0CA@KHMLNGHE@?$DO?5?5?5bConfigurationValue?3?50x?$CF02X?$AA@
CONST	SEGMENT
??_C@_0CA@KHMLNGHE@?$DO?5?5?5bConfigurationValue?3?50x?$CF02X?$AA@ DB '> '
	DB	'  bConfigurationValue: 0x%02X', 00H		; `string'
CONST	ENDS
;	COMDAT ??_C@_0BL@JNHEPBEN@?$DO?5?5?5bNumInterfaces?3?50x?$CF02X?$AA@
CONST	SEGMENT
??_C@_0BL@JNHEPBEN@?$DO?5?5?5bNumInterfaces?3?50x?$CF02X?$AA@ DB '>   bNu'
	DB	'mInterfaces: 0x%02X', 00H			; `string'
CONST	ENDS
;	COMDAT ??_C@_0BJ@JBGKFDNL@?$DO?5?5?5wTotalLength?3?50x?$CF04X?$AA@
CONST	SEGMENT
??_C@_0BJ@JBGKFDNL@?$DO?5?5?5wTotalLength?3?50x?$CF04X?$AA@ DB '>   wTota'
	DB	'lLength: 0x%04X', 00H			; `string'
CONST	ENDS
;	COMDAT ??_C@_0BM@PCIMCBFD@?$DO?5Configuration?5Descriptor?3?$AA@
CONST	SEGMENT
??_C@_0BM@PCIMCBFD@?$DO?5Configuration?5Descriptor?3?$AA@ DB '> Configura'
	DB	'tion Descriptor:', 00H			; `string'
CONST	ENDS
;	COMDAT ??_C@_0P@KMFKJDAO@?$DO?$DO?5USB?4CfgDesc?$AA@
CONST	SEGMENT
??_C@_0P@KMFKJDAO@?$DO?$DO?5USB?4CfgDesc?$AA@ DB '>> USB.CfgDesc', 00H ; `string'
CONST	ENDS
;	COMDAT ??_C@_0BA@DPPHAOCN@?$DM?$DM?5USB?4ConnDesc?$AA@
CONST	SEGMENT
??_C@_0BA@DPPHAOCN@?$DM?$DM?5USB?4ConnDesc?$AA@ DB '<< USB.ConnDesc', 00H ; `string'
CONST	ENDS
;	COMDAT ??_C@_0BM@HNNAHBOO@?$DM?$DM?5USB?4ConnDesc?0?5Input?5null?$AA@
CONST	SEGMENT
??_C@_0BM@HNNAHBOO@?$DM?$DM?5USB?4ConnDesc?0?5Input?5null?$AA@ DB '<< USB'
	DB	'.ConnDesc, Input null', 00H			; `string'
CONST	ENDS
;	COMDAT ??_C@_0BA@BANBJKNP@?$DO?$DO?5USB?4ConnDesc?$AA@
CONST	SEGMENT
??_C@_0BA@BANBJKNP@?$DO?$DO?5USB?4ConnDesc?$AA@ DB '>> USB.ConnDesc', 00H ; `string'
CONST	ENDS
;	COMDAT ??_C@_0BA@KIDKADGJ@?$DM?$DM?5USB?4PipeInfo?$AA@
CONST	SEGMENT
??_C@_0BA@KIDKADGJ@?$DM?$DM?5USB?4PipeInfo?$AA@ DB '<< USB.PipeInfo', 00H ; `string'
CONST	ENDS
;	COMDAT ??_C@_0BE@MPHLOHIN@?$DO?$DO?5USB?4PipeInfo?0?5?$CFu?$AA@
CONST	SEGMENT
??_C@_0BE@MPHLOHIN@?$DO?$DO?5USB?4PipeInfo?0?5?$CFu?$AA@ DB '>> USB.PipeI'
	DB	'nfo, %u', 00H				; `string'
CONST	ENDS
;	COMDAT ??_C@_0BA@KGDOGDAK@?$DM?$DM?5USB?4ConnInfo?$AA@
CONST	SEGMENT
??_C@_0BA@KGDOGDAK@?$DM?$DM?5USB?4ConnInfo?$AA@ DB '<< USB.ConnInfo', 00H ; `string'
CONST	ENDS
;	COMDAT ??_C@_0BF@BAEOANMA@?$DO?5?5?5Open?5Pipes?3?5?$CF02d?$AA@
CONST	SEGMENT
??_C@_0BF@BAEOANMA@?$DO?5?5?5Open?5Pipes?3?5?$CF02d?$AA@ DB '>   Open Pip'
	DB	'es: %02d', 00H				; `string'
CONST	ENDS
;	COMDAT ??_C@_0BL@DEBOODEI@?$DO?5?5?5Device?5Address?3?50x?$CF02X?$AA@
CONST	SEGMENT
??_C@_0BL@DEBOODEI@?$DO?5?5?5Device?5Address?3?50x?$CF02X?$AA@ DB '>   De'
	DB	'vice Address: 0x%02X', 00H			; `string'
CONST	ENDS
;	COMDAT ??_C@_0BO@IIJPBIOD@?$DO?5?5?5Device?5Bus?5Speed?3?5Unknown?$AA@
CONST	SEGMENT
??_C@_0BO@IIJPBIOD@?$DO?5?5?5Device?5Bus?5Speed?3?5Unknown?$AA@ DB '>   D'
	DB	'evice Bus Speed: Unknown', 00H		; `string'
CONST	ENDS
;	COMDAT ??_C@_0BL@OEKHLNNJ@?$DO?5?5?5Device?5Bus?5Speed?3?5High?$AA@
CONST	SEGMENT
??_C@_0BL@OEKHLNNJ@?$DO?5?5?5Device?5Bus?5Speed?3?5High?$AA@ DB '>   Devi'
	DB	'ce Bus Speed: High', 00H			; `string'
CONST	ENDS
;	COMDAT ??_C@_0BL@CJGBMBHK@?$DO?5?5?5Device?5Bus?5Speed?3?5Full?$AA@
CONST	SEGMENT
??_C@_0BL@CJGBMBHK@?$DO?5?5?5Device?5Bus?5Speed?3?5Full?$AA@ DB '>   Devi'
	DB	'ce Bus Speed: Full', 00H			; `string'
CONST	ENDS
;	COMDAT ??_C@_0BK@CLDGMCFC@?$DO?5?5?5Device?5Bus?5Speed?3?5Low?$AA@
CONST	SEGMENT
??_C@_0BK@CLDGMCFC@?$DO?5?5?5Device?5Bus?5Speed?3?5Low?$AA@ DB '>   Devic'
	DB	'e Bus Speed: Low', 00H			; `string'
CONST	ENDS
;	COMDAT ??_C@_0CB@CNIJGGK@?$DO?5?5?5Current?5Config?5Value?3?50x?$CF02X@
CONST	SEGMENT
??_C@_0CB@CNIJGGK@?$DO?5?5?5Current?5Config?5Value?3?50x?$CF02X@ DB '>   '
	DB	'Current Config Value: 0x%02X', 00H		; `string'
CONST	ENDS
;	COMDAT ??_C@_0BJ@POKCFGAN@?$DO?5?5?5ConnectionStatus?3?5?$CFs?$AA@
CONST	SEGMENT
??_C@_0BJ@POKCFGAN@?$DO?5?5?5ConnectionStatus?3?5?$CFs?$AA@ DB '>   Conne'
	DB	'ctionStatus: %s', 00H			; `string'
CONST	ENDS
;	COMDAT ??_C@_0BP@EFEAMJPP@?$DO?5?5?5bNumConfigurations?3?50x?$CF02X?$AA@
CONST	SEGMENT
??_C@_0BP@EFEAMJPP@?$DO?5?5?5bNumConfigurations?3?50x?$CF02X?$AA@ DB '>  '
	DB	' bNumConfigurations: 0x%02X', 00H		; `string'
CONST	ENDS
;	COMDAT ??_C@_0BK@LAPCHIKM@?$DO?5?5?5iSerialNumber?3?50x?$CF02X?$AA@
CONST	SEGMENT
??_C@_0BK@LAPCHIKM@?$DO?5?5?5iSerialNumber?3?50x?$CF02X?$AA@ DB '>   iSer'
	DB	'ialNumber: 0x%02X', 00H			; `string'
CONST	ENDS
;	COMDAT ??_C@_0BF@JLHEPLOO@?$DO?5?5?5iProduct?3?50x?$CF02X?$AA@
CONST	SEGMENT
??_C@_0BF@JLHEPLOO@?$DO?5?5?5iProduct?3?50x?$CF02X?$AA@ DB '>   iProduct:'
	DB	' 0x%02X', 00H				; `string'
CONST	ENDS
;	COMDAT ??_C@_0BK@IFOFIIGL@?$DO?5?5?5iManufacturer?3?50x?$CF02X?$AA@
CONST	SEGMENT
??_C@_0BK@IFOFIIGL@?$DO?5?5?5iManufacturer?3?50x?$CF02X?$AA@ DB '>   iMan'
	DB	'ufacturer: 0x%02X', 00H			; `string'
CONST	ENDS
;	COMDAT ??_C@_0BG@IFDGHCDF@?$DO?5?5?5bcdDevice?3?50x?$CF04X?$AA@
CONST	SEGMENT
??_C@_0BG@IFDGHCDF@?$DO?5?5?5bcdDevice?3?50x?$CF04X?$AA@ DB '>   bcdDevic'
	DB	'e: 0x%04X', 00H				; `string'
CONST	ENDS
;	COMDAT ??_C@_0BG@FEBFICPG@?$DO?5?5?5idProduct?3?50x?$CF04X?$AA@
CONST	SEGMENT
??_C@_0BG@FEBFICPG@?$DO?5?5?5idProduct?3?50x?$CF04X?$AA@ DB '>   idProduc'
	DB	't: 0x%04X', 00H				; `string'
CONST	ENDS
;	COMDAT ??_C@_0BK@FCNKAGPN@?$DO?5?5?5idVendor?3?50x?$CF04X?5?$CI?$CFs?$CJ?$AA@
CONST	SEGMENT
??_C@_0BK@FCNKAGPN@?$DO?5?5?5idVendor?3?50x?$CF04X?5?$CI?$CFs?$CJ?$AA@ DB '>'
	DB	'   idVendor: 0x%04X (%s)', 00H		; `string'
CONST	ENDS
;	COMDAT ??_C@_0CB@KJHHAJF@?$DO?5?5?5bMaxPacketSize0?3?50x?$CF02X?5?$CI?$CFd?$CJ@
CONST	SEGMENT
??_C@_0CB@KJHHAJF@?$DO?5?5?5bMaxPacketSize0?3?50x?$CF02X?5?$CI?$CFd?$CJ@ DB '>'
	DB	'   bMaxPacketSize0: 0x%02X (%d)', 00H	; `string'
CONST	ENDS
;	COMDAT ??_C@_0BM@DONCAOLL@?$DO?5?5?5bDeviceProtocol?3?50x?$CF02X?$AA@
CONST	SEGMENT
??_C@_0BM@DONCAOLL@?$DO?5?5?5bDeviceProtocol?3?50x?$CF02X?$AA@ DB '>   bD'
	DB	'eviceProtocol: 0x%02X', 00H			; `string'
CONST	ENDS
;	COMDAT ??_C@_0BM@IBBMEPAK@?$DO?5?5?5bDeviceSubClass?3?50x?$CF02X?$AA@
CONST	SEGMENT
??_C@_0BM@IBBMEPAK@?$DO?5?5?5bDeviceSubClass?3?50x?$CF02X?$AA@ DB '>   bD'
	DB	'eviceSubClass: 0x%02X', 00H			; `string'
CONST	ENDS
;	COMDAT ??_C@_0BJ@BBNICMHO@?$DO?5?5?5bDeviceClass?3?50x?$CF02X?$AA@
CONST	SEGMENT
??_C@_0BJ@BBNICMHO@?$DO?5?5?5bDeviceClass?3?50x?$CF02X?$AA@ DB '>   bDevi'
	DB	'ceClass: 0x%02X', 00H			; `string'
CONST	ENDS
;	COMDAT ??_C@_0BD@EOGCPDGC@?$DO?5?5?5bcdUSB?3?50x?$CF04X?$AA@
CONST	SEGMENT
??_C@_0BD@EOGCPDGC@?$DO?5?5?5bcdUSB?3?50x?$CF04X?$AA@ DB '>   bcdUSB: 0x%'
	DB	'04X', 00H					; `string'
CONST	ENDS
;	COMDAT ??_C@_0BF@EPIIACIH@?$DO?5Device?5Descriptor?3?$AA@
CONST	SEGMENT
??_C@_0BF@EPIIACIH@?$DO?5Device?5Descriptor?3?$AA@ DB '> Device Descripto'
	DB	'r:', 00H					; `string'
CONST	ENDS
;	COMDAT ??_C@_0CG@KIPJNEMD@?$DO?5ConnectionStatus?3?5NoDeviceConn@
CONST	SEGMENT
??_C@_0CG@KIPJNEMD@?$DO?5ConnectionStatus?3?5NoDeviceConn@ DB '> Connecti'
	DB	'onStatus: NoDeviceConnected', 00H		; `string'
CONST	ENDS
;	COMDAT ??_C@_0BM@GIKFEJKI@?$DM?$DM?5USB?4ConnInfo?0?5Input?5null?$AA@
CONST	SEGMENT
??_C@_0BM@GIKFEJKI@?$DM?$DM?5USB?4ConnInfo?0?5Input?5null?$AA@ DB '<< USB'
	DB	'.ConnInfo, Input null', 00H			; `string'
CONST	ENDS
;	COMDAT ??_C@_0BA@IJBIPHPI@?$DO?$DO?5USB?4ConnInfo?$AA@
CONST	SEGMENT
??_C@_0BA@IJBIPHPI@?$DO?$DO?5USB?4ConnInfo?$AA@ DB '>> USB.ConnInfo', 00H ; `string'
CONST	ENDS
;	COMDAT ??_C@_0P@MLOFAKML@?$DM?$DM?5USB?4HubCaps?$AA@
CONST	SEGMENT
??_C@_0P@MLOFAKML@?$DM?$DM?5USB?4HubCaps?$AA@ DB '<< USB.HubCaps', 00H ; `string'
CONST	ENDS
;	COMDAT ??_C@_0BN@HMIILDFE@Hub?5Capabilities?5UNAVAILABLE?$AA@
CONST	SEGMENT
??_C@_0BN@HMIILDFE@Hub?5Capabilities?5UNAVAILABLE?$AA@ DB 'Hub Capabiliti'
	DB	'es UNAVAILABLE', 00H			; `string'
CONST	ENDS
;	COMDAT ??_C@_0CA@BJAEENFA@?$DO?5Hub?5Capabilities?3?5?$CF0?$CD8lx?5?$CI?$CFs?$CJ?$AA@
CONST	SEGMENT
??_C@_0CA@BJAEENFA@?$DO?5Hub?5Capabilities?3?5?$CF0?$CD8lx?5?$CI?$CFs?$CJ?$AA@ DB '>'
	DB	' Hub Capabilities: %0#8lx (%s)', 00H	; `string'
CONST	ENDS
;	COMDAT ??_C@_0P@LDNEGAOE@Not?5high?5speed?$AA@
CONST	SEGMENT
??_C@_0P@LDNEGAOE@Not?5high?5speed?$AA@ DB 'Not high speed', 00H ; `string'
CONST	ENDS
;	COMDAT ??_C@_0L@BGKBMIAF@High?5speed?$AA@
CONST	SEGMENT
??_C@_0L@BGKBMIAF@High?5speed?$AA@ DB 'High speed', 00H	; `string'
CONST	ENDS
;	COMDAT ??_C@_0CG@OCCHEKHL@Extended?5Hub?5Capabilities?5UNAVAI@
CONST	SEGMENT
??_C@_0CG@OCCHEKHL@Extended?5Hub?5Capabilities?5UNAVAI@ DB 'Extended Hub '
	DB	'Capabilities UNAVAILABLE', 00H		; `string'
CONST	ENDS
;	COMDAT ??_C@_0BP@LBBGDALG@?$DO?5?5?5Reserved?5?$CI26?5bits?$CJ?3?5?$CF0?$CD6lx?$AA@
CONST	SEGMENT
??_C@_0BP@LBBGDALG@?$DO?5?5?5Reserved?5?$CI26?5bits?$CJ?3?5?$CF0?$CD6lx?$AA@ DB '>'
	DB	'   Reserved (26 bits): %0#6lx', 00H		; `string'
CONST	ENDS
;	COMDAT ??_C@_0CC@EBPNDPBD@?$DO?5?5?5Armed?5for?5wake?5on?5connect?3?5?$CF@
CONST	SEGMENT
??_C@_0CC@EBPNDPBD@?$DO?5?5?5Armed?5for?5wake?5on?5connect?3?5?$CF@ DB '>'
	DB	'   Armed for wake on connect: %s', 00H	; `string'
CONST	ENDS
;	COMDAT ??_C@_0BB@BIGCJPGA@?$DO?5?5?5Root?5hub?3?5?$CFs?$AA@
CONST	SEGMENT
??_C@_0BB@BIGCJPGA@?$DO?5?5?5Root?5hub?3?5?$CFs?$AA@ DB '>   Root hub: %s'
	DB	00H						; `string'
CONST	ENDS
;	COMDAT ??_C@_0BK@JNPMKCLE@?$DO?5?5?5Mulit?9transaction?3?5?$CFs?$AA@
CONST	SEGMENT
??_C@_0BK@JNPMKCLE@?$DO?5?5?5Mulit?9transaction?3?5?$CFs?$AA@ DB '>   Mul'
	DB	'it-transaction: %s', 00H			; `string'
CONST	ENDS
;	COMDAT ??_C@_03GCDBBDDL@Off?$AA@
CONST	SEGMENT
??_C@_03GCDBBDDL@Off?$AA@ DB 'Off', 00H			; `string'
CONST	ENDS
;	COMDAT ??_C@_02IAAGKKDJ@On?$AA@
CONST	SEGMENT
??_C@_02IAAGKKDJ@On?$AA@ DB 'On', 00H			; `string'
CONST	ENDS
;	COMDAT ??_C@_0CC@CJLCKEMN@?$DO?5?5?5Mulit?9transaction?5Capable?3?5?$CF@
CONST	SEGMENT
??_C@_0CC@CJLCKEMN@?$DO?5?5?5Mulit?9transaction?5Capable?3?5?$CF@ DB '>  '
	DB	' Mulit-transaction Capable: %s', 00H	; `string'
CONST	ENDS
;	COMDAT ??_C@_0BD@FCCHMOKD@?$DO?5?5?5High?5speed?3?5?$CFs?$AA@
CONST	SEGMENT
??_C@_0BD@FCCHMOKD@?$DO?5?5?5High?5speed?3?5?$CFs?$AA@ DB '>   High speed'
	DB	': %s', 00H					; `string'
CONST	ENDS
;	COMDAT ??_C@_0BL@GGCJII@?$DO?5?5?5High?5speed?5Capable?3?5?$CFs?$AA@
CONST	SEGMENT
??_C@_0BL@GGCJII@?$DO?5?5?5High?5speed?5Capable?3?5?$CFs?$AA@ DB '>   Hig'
	DB	'h speed Capable: %s', 00H			; `string'
CONST	ENDS
;	COMDAT ??_C@_0CI@KPNJBEAB@?$DO?5Extended?5Hub?5Capability?5Flags?3@
CONST	SEGMENT
??_C@_0CI@KPNJBEAB@?$DO?5Extended?5Hub?5Capability?5Flags?3@ DB '> Extend'
	DB	'ed Hub Capability Flags: %0#8lx', 00H	; `string'
CONST	ENDS
;	COMDAT ??_C@_0P@ICANHPPH@?$DO?$DO?5USB?4HubCaps?$AA@
CONST	SEGMENT
??_C@_0P@ICANHPPH@?$DO?$DO?5USB?4HubCaps?$AA@ DB '>> USB.HubCaps', 00H ; `string'
CONST	ENDS
;	COMDAT ??_C@_0P@CHOKIAKD@?$DM?$DM?5USB?4HubInfo?$AA@
CONST	SEGMENT
??_C@_0P@CHOKIAKD@?$DM?$DM?5USB?4HubInfo?$AA@ DB '<< USB.HubInfo', 00H ; `string'
CONST	ENDS
;	COMDAT ??_C@_0CO@FGJIHOLC@?$DO?5No?5Over?9current?5Protection?5?$CIBu@
CONST	SEGMENT
??_C@_0CO@FGJIHOLC@?$DO?5No?5Over?9current?5Protection?5?$CIBu@ DB '> No '
	DB	'Over-current Protection (Bus Power Only)', 00H ; `string'
CONST	ENDS
;	COMDAT ??_C@_0CG@MEGDLCFA@?$DO?5Over?9current?5Protection?3?5Indiv@
CONST	SEGMENT
??_C@_0CG@MEGDLCFA@?$DO?5Over?9current?5Protection?3?5Indiv@ DB '> Over-c'
	DB	'urrent Protection: Individual', 00H		; `string'
CONST	ENDS
;	COMDAT ??_C@_0CC@ELIAJJDL@?$DO?5Over?9current?5Protection?3?5Globa@
CONST	SEGMENT
??_C@_0CC@ELIAJJDL@?$DO?5Over?9current?5Protection?3?5Globa@ DB '> Over-c'
	DB	'urrent Protection: Global', 00H		; `string'
CONST	ENDS
;	COMDAT ??_C@_0BH@CFBEDMDO@?$DO?5Compound?5device?3?5Yes?$AA@
CONST	SEGMENT
??_C@_0BH@CFBEDMDO@?$DO?5Compound?5device?3?5Yes?$AA@ DB '> Compound devi'
	DB	'ce: Yes', 00H				; `string'
CONST	ENDS
;	COMDAT ??_C@_0BG@FBGEODEL@?$DO?5Compound?5device?3?5No?$AA@
CONST	SEGMENT
??_C@_0BG@FBGEODEL@?$DO?5Compound?5device?3?5No?$AA@ DB '> Compound devic'
	DB	'e: No', 00H					; `string'
CONST	ENDS
;	COMDAT ??_C@_0BI@FICFFJGB@?$DO?5Power?5switching?3?5None?$AA@
CONST	SEGMENT
??_C@_0BI@FICFFJGB@?$DO?5Power?5switching?3?5None?$AA@ DB '> Power switch'
	DB	'ing: None', 00H				; `string'
CONST	ENDS
;	COMDAT ??_C@_0BO@BHNNAPDB@?$DO?5Power?5switching?3?5Individual?$AA@
CONST	SEGMENT
??_C@_0BO@BHNNAPDB@?$DO?5Power?5switching?3?5Individual?$AA@ DB '> Power '
	DB	'switching: Individual', 00H			; `string'
CONST	ENDS
;	COMDAT ??_C@_0BK@CEEHKAND@?$DO?5Power?5switching?3?5Ganged?$AA@
CONST	SEGMENT
??_C@_0BK@CEEHKAND@?$DO?5Power?5switching?3?5Ganged?$AA@ DB '> Power swit'
	DB	'ching: Ganged', 00H				; `string'
CONST	ENDS
;	COMDAT ??_C@_0BG@IOHBDCFM@?$DO?5Number?5of?5Ports?3?5?$CFd?$AA@
CONST	SEGMENT
??_C@_0BG@IOHBDCFM@?$DO?5Number?5of?5Ports?3?5?$CFd?$AA@ DB '> Number of '
	DB	'Ports: %d', 00H				; `string'
CONST	ENDS
;	COMDAT ??_C@_0BA@KPNNFMHH@?$DO?5Hub?5Power?3?5?$CFs?$AA@
CONST	SEGMENT
??_C@_0BA@KPNNFMHH@?$DO?5Hub?5Power?3?5?$CFs?$AA@ DB '> Hub Power: %s', 00H ; `string'
CONST	ENDS
;	COMDAT ??_C@_0L@JDJFLKOD@Self?5Power?$AA@
CONST	SEGMENT
??_C@_0L@JDJFLKOD@Self?5Power?$AA@ DB 'Self Power', 00H	; `string'
CONST	ENDS
;	COMDAT ??_C@_09GDHNALJA@Bus?5Power?$AA@
CONST	SEGMENT
??_C@_09GDHNALJA@Bus?5Power?$AA@ DB 'Bus Power', 00H	; `string'
CONST	ENDS
;	COMDAT ??_C@_0P@GOACPFJP@?$DO?$DO?5USB?4HubInfo?$AA@
CONST	SEGMENT
??_C@_0P@GOACPFJP@?$DO?$DO?5USB?4HubInfo?$AA@ DB '>> USB.HubInfo', 00H ; `string'
CONST	ENDS
;	COMDAT ??_C@_0BG@INDEEKLB@?$DM?$DM?5USB?4GetCfgDesc?0?5?$CFX?$AA@
CONST	SEGMENT
??_C@_0BG@INDEEKLB@?$DM?$DM?5USB?4GetCfgDesc?0?5?$CFX?$AA@ DB '<< USB.Get'
	DB	'CfgDesc, %X', 00H				; `string'
CONST	ENDS
;	COMDAT ??_C@_0CL@LPDCGPEM@?9?9?5USB?4GetCfgDescriptor?0?5new?5Buf@
CONST	SEGMENT
??_C@_0CL@LPDCGPEM@?9?9?5USB?4GetCfgDescriptor?0?5new?5Buf@ DB '-- USB.Ge'
	DB	'tCfgDescriptor, new Buf (%u) null', 00H	; `string'
CONST	ENDS
;	COMDAT ??_C@_0CI@LMLHDIHD@?$DM?$DM?5USB?4GetCfgDesc?0?5Req?5Total?5?$CFd?5@
CONST	SEGMENT
??_C@_0CI@LMLHDIHD@?$DM?$DM?5USB?4GetCfgDesc?0?5Req?5Total?5?$CFd?5@ DB '<'
	DB	'< USB.GetCfgDesc, Req Total %d < Sz %d', 00H ; `string'
CONST	ENDS
;	COMDAT ??_C@_0CP@JDNANMP@?$DM?$DM?5USB?4GetCfgDesc?0?5Req?5Bytes?5?$CFu?5@
CONST	SEGMENT
??_C@_0CP@JDNANMP@?$DM?$DM?5USB?4GetCfgDesc?0?5Req?5Bytes?5?$CFu?5@ DB '<'
	DB	'< USB.GetCfgDesc, Req Bytes %u <> BytesRet %u', 00H ; `string'
CONST	ENDS
;	COMDAT ??_C@_0CN@FDNPACDH@?$DM?$DM?5USB?4GetCfgDesc?0?5Req?5DeviceIoC@
CONST	SEGMENT
??_C@_0CN@FDNPACDH@?$DM?$DM?5USB?4GetCfgDesc?0?5Req?5DeviceIoC@ DB '<< US'
	DB	'B.GetCfgDesc, Req DeviceIoControl False', 00H ; `string'
CONST	ENDS
;	COMDAT ??_C@_0CL@LLJEBADN@?$DM?$DM?5USB?4GetCfgDesc?0?5Total?5?$CFd?5?$DM?5Sz@
CONST	SEGMENT
??_C@_0CL@LLJEBADN@?$DM?$DM?5USB?4GetCfgDesc?0?5Total?5?$CFd?5?$DM?5Sz@ DB '<'
	DB	'< USB.GetCfgDesc, Total %d < Sz struct %d', 00H ; `string'
CONST	ENDS
;	COMDAT ??_C@_0CL@CHLLBENA@?$DM?$DM?5USB?4GetCfgDesc?0?5Bytes?5?$CFu?5?$DM?$DO?5B@
CONST	SEGMENT
??_C@_0CL@CHLLBENA@?$DM?$DM?5USB?4GetCfgDesc?0?5Bytes?5?$CFu?5?$DM?$DO?5B@ DB '<'
	DB	'< USB.GetCfgDesc, Bytes %u <> BytesRet %u', 00H ; `string'
CONST	ENDS
;	COMDAT ??_C@_0CJ@JPCNJMBL@?$DM?$DM?5USB?4GetCfgDesc?0?5DeviceIoContr@
CONST	SEGMENT
??_C@_0CJ@JPCNJMBL@?$DM?$DM?5USB?4GetCfgDesc?0?5DeviceIoContr@ DB '<< USB'
	DB	'.GetCfgDesc, DeviceIoControl False', 00H	; `string'
CONST	ENDS
;	COMDAT ??_C@_0BC@NBPLLDOB@?$DO?$DO?5USB?4GetCfgDesc?$AA@
CONST	SEGMENT
??_C@_0BC@NBPLLDOB@?$DO?$DO?5USB?4GetCfgDesc?$AA@ DB '>> USB.GetCfgDesc', 00H ; `string'
CONST	ENDS
;	COMDAT ??_C@_0CH@BBKGOLN@?$DM?$DM?5USB?4GetStrDescs?0?5StrDescNodeT@
CONST	SEGMENT
??_C@_0CH@BBKGOLN@?$DM?$DM?5USB?4GetStrDescs?0?5StrDescNodeT@ DB '<< USB.'
	DB	'GetStrDescs, StrDescNodeTail %X', 00H	; `string'
CONST	ENDS
;	COMDAT ??_C@_0BD@HEHGMECG@?$DO?$DO?5USB?4GetStrDescs?$AA@
CONST	SEGMENT
??_C@_0BD@HEHGMECG@?$DO?$DO?5USB?4GetStrDescs?$AA@ DB '>> USB.GetStrDescs'
	DB	00H						; `string'
CONST	ENDS
;	COMDAT ??_C@_0CH@BGNGLHKH@?$DM?$DM?5USB?4GetHCDDrvKeyName?0?5DrvKeyN@
CONST	SEGMENT
??_C@_0CH@BGNGLHKH@?$DM?$DM?5USB?4GetHCDDrvKeyName?0?5DrvKeyN@ DB '<< USB'
	DB	'.GetHCDDrvKeyName, DrvKeyName %X', 00H	; `string'
CONST	ENDS
;	COMDAT ??_C@_0BI@LFJMJGOI@?$DO?$DO?5USB?4GetHCDDrvKeyName?$AA@
CONST	SEGMENT
??_C@_0BI@LFJMJGOI@?$DO?$DO?5USB?4GetHCDDrvKeyName?$AA@ DB '>> USB.GetHCD'
	DB	'DrvKeyName', 00H				; `string'
CONST	ENDS
;	COMDAT ??_C@_0BO@LDLFLMCA@?$DM?$DM?5USB?4GetRootHub?0?5HubName?5?$CFX?$AA@
CONST	SEGMENT
??_C@_0BO@LDLFLMCA@?$DM?$DM?5USB?4GetRootHub?0?5HubName?5?$CFX?$AA@ DB '<'
	DB	'< USB.GetRootHub, HubName %X', 00H		; `string'
CONST	ENDS
;	COMDAT ??_C@_0BC@PGMOMHHM@?$DO?$DO?5USB?4GetRootHub?$AA@
CONST	SEGMENT
??_C@_0BC@PGMOMHHM@?$DO?$DO?5USB?4GetRootHub?$AA@ DB '>> USB.GetRootHub', 00H ; `string'
CONST	ENDS
;	COMDAT ??_C@_0P@NNDDHFCH@?$DM?$DM?5USB?4EnumHub?$AA@
CONST	SEGMENT
??_C@_0P@NNDDHFCH@?$DM?$DM?5USB?4EnumHub?$AA@ DB '<< USB.EnumHub', 00H ; `string'
CONST	ENDS
;	COMDAT ??_C@_0CD@EDMNKMD@?9?9?5USB?4EnumHub?0?5new?5Info?5?$CI?$CFu?$CJ?5nu@
CONST	SEGMENT
??_C@_0CD@EDMNKMD@?9?9?5USB?4EnumHub?0?5new?5Info?5?$CI?$CFu?$CJ?5nu@ DB '-'
	DB	'- USB.EnumHub, new Info (%u) null', 00H	; `string'
CONST	ENDS
;	COMDAT ??_C@_0CG@FMONKKAG@?9?9?5USB?4EnumHub?0?5new?5HubInfo?5?$CI?$CFu?$CJ@
CONST	SEGMENT
??_C@_0CG@FMONKKAG@?9?9?5USB?4EnumHub?0?5new?5HubInfo?5?$CI?$CFu?$CJ@ DB '-'
	DB	'- USB.EnumHub, new HubInfo (%u) null', 00H	; `string'
CONST	ENDS
;	COMDAT ??_C@_04MKEDFNGB@?5?3?5?5?$AA@
CONST	SEGMENT
??_C@_04MKEDFNGB@?5?3?5?5?$AA@ DB ' :  ', 00H		; `string'
CONST	ENDS
;	COMDAT ??_C@_0DB@MFBNHHNK@?9?9?5USB?4EnumHub?0?5new?5Pntr?5for?5Dev@
CONST	SEGMENT
??_C@_0DB@MFBNHHNK@?9?9?5USB?4EnumHub?0?5new?5Pntr?5for?5Dev@ DB '-- USB.'
	DB	'EnumHub, new Pntr for DevName \\.\%s null', 00H ; `string'
CONST	ENDS
;	COMDAT ??_C@_04GBDIODIA@?2?2?4?2?$AA@
CONST	SEGMENT
??_C@_04GBDIODIA@?2?2?4?2?$AA@ DB '\\.\', 00H		; `string'
CONST	ENDS
;	COMDAT ??_C@_0P@JENLAABL@?$DO?$DO?5USB?4EnumHub?$AA@
CONST	SEGMENT
??_C@_0P@JENLAABL@?$DO?$DO?5USB?4EnumHub?$AA@ DB '>> USB.EnumHub', 00H ; `string'
CONST	ENDS
;	COMDAT ??_C@_0CB@OFAOPKJL@?$DM?$DM?5USB?4DrvName2DevDesc?0?5Ret?5Null@
CONST	SEGMENT
??_C@_0CB@OFAOPKJL@?$DM?$DM?5USB?4DrvName2DevDesc?0?5Ret?5Null@ DB '<< US'
	DB	'B.DrvName2DevDesc, Ret Null', 00H		; `string'
CONST	ENDS
;	COMDAT ??_C@_0CO@BAPAALJK@?$DM?$DM?5USB?4DrvName2DevDesc?0?5GetDevNo@
CONST	SEGMENT
??_C@_0CO@BAPAALJK@?$DM?$DM?5USB?4DrvName2DevDesc?0?5GetDevNo@ DB '<< USB'
	DB	'.DrvName2DevDesc, GetDevNodeRegProps %u', 00H ; `string'
CONST	ENDS
;	COMDAT ??_C@_0BP@BAEOHBIH@?$DM?$DM?5USB?4DrvName2DevDesc?0?5ret?5?$CFX?$AA@
CONST	SEGMENT
??_C@_0BP@BAEOHBIH@?$DM?$DM?5USB?4DrvName2DevDesc?0?5ret?5?$CFX?$AA@ DB '<'
	DB	'< USB.DrvName2DevDesc, ret %X', 00H		; `string'
CONST	ENDS
;	COMDAT ??_C@_0CJ@PHHANNLH@?$DM?$DM?5USB?4DrvName2DevDesc?0?5LocateDe@
CONST	SEGMENT
??_C@_0CJ@PHHANNLH@?$DM?$DM?5USB?4DrvName2DevDesc?0?5LocateDe@ DB '<< USB'
	DB	'.DrvName2DevDesc, LocateDevNote %u', 00H	; `string'
CONST	ENDS
;	COMDAT ??_C@_0BP@KMJAGKHH@?$DO?$DO?5USB?4DrvName2DevDesc?0?5Drv?5?$CFs?$AA@
CONST	SEGMENT
??_C@_0BP@KMJAGKHH@?$DO?$DO?5USB?4DrvName2DevDesc?0?5Drv?5?$CFs?$AA@ DB '>'
	DB	'> USB.DrvName2DevDesc, Drv %s', 00H		; `string'
CONST	ENDS
;	COMDAT ??_C@_0BE@LMILCJOE@?$DM?$DM?5USB?4EnumHubPorts?$AA@
CONST	SEGMENT
??_C@_0BE@LMILCJOE@?$DM?$DM?5USB?4EnumHubPorts?$AA@ DB '<< USB.EnumHubPor'
	DB	'ts', 00H					; `string'
CONST	ENDS
;	COMDAT ??_C@_04HDOCAJNK@?$CFs?$CFs?$AA@
CONST	SEGMENT
??_C@_04HDOCAJNK@?$CFs?$CFs?$AA@ DB '%s%s', 00H		; `string'
CONST	ENDS
;	COMDAT ??_C@_06DIJPEION@?$CFs?$CFs?$CFs?$AA@
CONST	SEGMENT
??_C@_06DIJPEION@?$CFs?$CFs?$CFs?$AA@ DB '%s%s%s', 00H	; `string'
CONST	ENDS
;	COMDAT ??_C@_09CFCBFJND@Not?5Found?$AA@
CONST	SEGMENT
??_C@_09CFCBFJND@Not?5Found?$AA@ DB 'Not Found', 00H	; `string'
CONST	ENDS
;	COMDAT ??_C@_0BA@CGBIAJFO@Not?5Initialized?$AA@
CONST	SEGMENT
??_C@_0BA@CGBIAJFO@Not?5Initialized?$AA@ DB 'Not Initialized', 00H ; `string'
CONST	ENDS
;	COMDAT ??_C@_0CF@LGIDNAEF@?$CFs?5?$FLVID?3?$CF?44X?5PID?3?$CF?44X?5SN?3?$CFs?5Spd?3@
CONST	SEGMENT
??_C@_0CF@LGIDNAEF@?$CFs?5?$FLVID?3?$CF?44X?5PID?3?$CF?44X?5SN?3?$CFs?5Spd?3@ DB '%'
	DB	's [VID:%.4X PID:%.4X SN:%s Spd: %s]', 00H	; `string'
CONST	ENDS
;	COMDAT ??_C@_04DHPBCODG@FULL?$AA@
CONST	SEGMENT
??_C@_04DHPBCODG@FULL?$AA@ DB 'FULL', 00H		; `string'
CONST	ENDS
;	COMDAT ??_C@_03IBEFMGAI@LOW?$AA@
CONST	SEGMENT
??_C@_03IBEFMGAI@LOW?$AA@ DB 'LOW', 00H			; `string'
CONST	ENDS
;	COMDAT ??_C@_04PKDHFCJF@HIGH?$AA@
CONST	SEGMENT
??_C@_04PKDHFCJF@HIGH?$AA@ DB 'HIGH', 00H		; `string'
CONST	ENDS
;	COMDAT ??_C@_03BBKEAIF@?$DP?$DP?$DP?$AA@
CONST	SEGMENT
??_C@_03BBKEAIF@?$DP?$DP?$DP?$AA@ DB '???', 00H		; `string'
CONST	ENDS
;	COMDAT ??_C@_09IBNJMOOD@?$FLPort?$CFd?$FN?5?$AA@
CONST	SEGMENT
??_C@_09IBNJMOOD@?$FLPort?$CFd?$FN?5?$AA@ DB '[Port%d] ', 00H ; `string'
CONST	ENDS
;	COMDAT ??_C@_03MCPBMLDJ@?5?3?5?$AA@
CONST	SEGMENT
??_C@_03MCPBMLDJ@?5?3?5?$AA@ DB ' : ', 00H		; `string'
CONST	ENDS
;	COMDAT ??_C@_0M@PONEPIOA@?$CFs?$FLPort?$CFd?$FN?5?$AA@
CONST	SEGMENT
??_C@_0M@PONEPIOA@?$CFs?$FLPort?$CFd?$FN?5?$AA@ DB '%s[Port%d] ', 00H ; `string'
CONST	ENDS
;	COMDAT ??_C@_0DE@EKAJALEI@?9?9?5USB?4EnumHubPorts?0?5new?5Port?5?$CFd@
CONST	SEGMENT
??_C@_0DE@EKAJALEI@?9?9?5USB?4EnumHubPorts?0?5new?5Port?5?$CFd@ DB '-- US'
	DB	'B.EnumHubPorts, new Port %d ConnInfo (%u) null', 00H ; `string'
CONST	ENDS
;	COMDAT ??_C@_0BE@CPBFJJJ@?$DO?$DO?5USB?4EnumHubPorts?$AA@
CONST	SEGMENT
??_C@_0BE@CPBFJJJ@?$DO?$DO?5USB?4EnumHubPorts?$AA@ DB '>> USB.EnumHubPort'
	DB	's', 00H					; `string'
CONST	ENDS
;	COMDAT ??_C@_0CA@PKLCHKGO@?$DM?$DM?5USB?4GetExternHub?0?5HubName?5?$CFX?$AA@
CONST	SEGMENT
??_C@_0CA@PKLCHKGO@?$DM?$DM?5USB?4GetExternHub?0?5HubName?5?$CFX?$AA@ DB '<'
	DB	'< USB.GetExternHub, HubName %X', 00H	; `string'
CONST	ENDS
;	COMDAT ??_C@_0DA@HJNGPFIB@?9?9?5USB?4GetExtHubName?0?5new?5extHub@
CONST	SEGMENT
??_C@_0DA@HJNGPFIB@?9?9?5USB?4GetExtHubName?0?5new?5extHub@ DB '-- USB.Ge'
	DB	'tExtHubName, new extHubNameW (%u) null', 00H ; `string'
CONST	ENDS
;	COMDAT ??_C@_0BE@BDIOPGJF@?$DO?$DO?5USB?4GetExternHub?$AA@
CONST	SEGMENT
??_C@_0BE@BDIOPGJF@?$DO?$DO?5USB?4GetExternHub?$AA@ DB '>> USB.GetExternH'
	DB	'ub', 00H					; `string'
CONST	ENDS
;	COMDAT ??_C@_0BP@IAFNNICI@?$DM?$DM?5USB?4GetDrvKeyName?0?5AName?5?$CFX?$AA@
CONST	SEGMENT
??_C@_0BP@IAFNNICI@?$DM?$DM?5USB?4GetDrvKeyName?0?5AName?5?$CFX?$AA@ DB '<'
	DB	'< USB.GetDrvKeyName, AName %X', 00H		; `string'
CONST	ENDS
;	COMDAT ??_C@_0DA@OGKODAJE@?9?9?5USB?4GetDriverKeyName?0?5new?5Key@
CONST	SEGMENT
??_C@_0DA@OGKODAJE@?9?9?5USB?4GetDriverKeyName?0?5new?5Key@ DB '-- USB.Ge'
	DB	'tDriverKeyName, new KeyNameW (%u) null', 00H ; `string'
CONST	ENDS
;	COMDAT ??_C@_0BF@GLJHIDAC@?$DO?$DO?5USB?4GetDrvKeyName?$AA@
CONST	SEGMENT
??_C@_0BF@GLJHIDAC@?$DO?$DO?5USB?4GetDrvKeyName?$AA@ DB '>> USB.GetDrvKey'
	DB	'Name', 00H					; `string'
CONST	ENDS
;	COMDAT ??_C@_0CH@IFDPMHNA@?$DM?$DM?5USB?4GetAllStrDescs?0?5SuppLangs@
CONST	SEGMENT
??_C@_0CH@IFDPMHNA@?$DM?$DM?5USB?4GetAllStrDescs?0?5SuppLangs@ DB '<< USB'
	DB	'.GetAllStrDescs, SuppLangsStr %X', 00H	; `string'
CONST	ENDS
;	COMDAT ??_C@_0CJ@HBMGBPGH@?$DM?$DM?5USB?4GetAllStrDescs?0?5SuppLangs@
CONST	SEGMENT
??_C@_0CJ@HBMGBPGH@?$DM?$DM?5USB?4GetAllStrDescs?0?5SuppLangs@ DB '<< USB'
	DB	'.GetAllStrDescs, SuppLangsStr null', 00H	; `string'
CONST	ENDS
;	COMDAT ??_C@_0BG@PLIGAJPI@?$DO?$DO?5USB?4GetAllStrDescs?$AA@
CONST	SEGMENT
??_C@_0BG@PLIGAJPI@?$DO?$DO?5USB?4GetAllStrDescs?$AA@ DB '>> USB.GetAllSt'
	DB	'rDescs', 00H				; `string'
CONST	ENDS
;	COMDAT ??_C@_0CA@JFAJNON@?$DM?$DM?5USB?4AreThrStrDesc?0?5Ret?5False?$AA@
CONST	SEGMENT
??_C@_0CA@JFAJNON@?$DM?$DM?5USB?4AreThrStrDesc?0?5Ret?5False?$AA@ DB '<< '
	DB	'USB.AreThrStrDesc, Ret False', 00H		; `string'
CONST	ENDS
;	COMDAT ??_C@_0CD@NAENOJMA@?$DM?$DM?5USB?4AreThrStrDesc?0?5Interface?5@
CONST	SEGMENT
??_C@_0CD@NAENOJMA@?$DM?$DM?5USB?4AreThrStrDesc?0?5Interface?5@ DB '<< US'
	DB	'B.AreThrStrDesc, Interface %d', 00H		; `string'
CONST	ENDS
;	COMDAT ??_C@_0BN@DEJJKGAD@?$DM?$DM?5USB?4AreThrStrDesc?0?5Cfg?5?$CFd?$AA@
CONST	SEGMENT
??_C@_0BN@DEJJKGAD@?$DM?$DM?5USB?4AreThrStrDesc?0?5Cfg?5?$CFd?$AA@ DB '<<'
	DB	' USB.AreThrStrDesc, Cfg %d', 00H		; `string'
CONST	ENDS
;	COMDAT ??_C@_0DC@KIEGOLFL@?$DM?$DM?5USB?4AreThrStrDesc?0?5Manufact?5?$CF@
CONST	SEGMENT
??_C@_0DC@KIEGOLFL@?$DM?$DM?5USB?4AreThrStrDesc?0?5Manufact?5?$CF@ DB '<<'
	DB	' USB.AreThrStrDesc, Manufact %d, Prod %d, SN %d', 00H ; `string'
CONST	ENDS
;	COMDAT ??_C@_0BF@IPAKKGGO@?$DO?$DO?5USB?4AreThrStrDesc?$AA@
CONST	SEGMENT
??_C@_0BF@IPAKKGGO@?$DO?$DO?5USB?4AreThrStrDesc?$AA@ DB '>> USB.AreThrStr'
	DB	'Desc', 00H					; `string'
CONST	ENDS
;	COMDAT ??_C@_0BP@BCHFPFAE@?$DM?$DM?5USB?4GetStrDesc?0?5DescNode?5?$CFX?$AA@
CONST	SEGMENT
??_C@_0BP@BCHFPFAE@?$DM?$DM?5USB?4GetStrDesc?0?5DescNode?5?$CFX?$AA@ DB '<'
	DB	'< USB.GetStrDesc, DescNode %X', 00H		; `string'
CONST	ENDS
;	COMDAT ??_C@_0DF@ICOPDODD@?9?9?5USB?4GetStrDesc?0?5WideCharToMul@
CONST	SEGMENT
??_C@_0DF@ICOPDODD@?9?9?5USB?4GetStrDesc?0?5WideCharToMul@ DB '-- USB.Get'
	DB	'StrDesc, WideCharToMultiByte failed %u, %s', 00H ; `string'
CONST	ENDS
;	COMDAT ??_C@_0CF@BKJLPKEL@?$DM?$DM?5USB?4GetStrDesc?0?5new?5DescNode?5@
CONST	SEGMENT
??_C@_0CF@BKJLPKEL@?$DM?$DM?5USB?4GetStrDesc?0?5new?5DescNode?5@ DB '<< U'
	DB	'SB.GetStrDesc, new DescNode null', 00H	; `string'
CONST	ENDS
;	COMDAT ??_C@_0BN@ILBIFDNN@?$DM?$DM?5USB?4GetStrDesc?0?5Odd?5Sz?5?$CFd?$AA@
CONST	SEGMENT
??_C@_0BN@ILBIFDNN@?$DM?$DM?5USB?4GetStrDesc?0?5Odd?5Sz?5?$CFd?$AA@ DB '<'
	DB	'< USB.GetStrDesc, Odd Sz %d', 00H		; `string'
CONST	ENDS
;	COMDAT ??_C@_0CD@CHKNKAPD@?$DM?$DM?5USB?4GetStrDesc?0?5Inv?5Sz?5?$CFd?5?$DM?$DO?5@
CONST	SEGMENT
??_C@_0CD@CHKNKAPD@?$DM?$DM?5USB?4GetStrDesc?0?5Inv?5Sz?5?$CFd?5?$DM?$DO?5@ DB '<'
	DB	'< USB.GetStrDesc, Inv Sz %d <> %d', 00H	; `string'
CONST	ENDS
;	COMDAT ??_C@_0CH@ELGGMNKC@?$DM?$DM?5USB?4GetStrDesc?0?5Inv?5Descripto@
CONST	SEGMENT
??_C@_0CH@ELGGMNKC@?$DM?$DM?5USB?4GetStrDesc?0?5Inv?5Descripto@ DB '<< US'
	DB	'B.GetStrDesc, Inv DescriptorTp %d', 00H	; `string'
CONST	ENDS
;	COMDAT ??_C@_0CA@JKPBCDKN@?$DM?$DM?5USB?4GetStrDesc?0?5Bytes?5Ret?5?$CFu?$AA@
CONST	SEGMENT
??_C@_0CA@JKPBCDKN@?$DM?$DM?5USB?4GetStrDesc?0?5Bytes?5Ret?5?$CFu?$AA@ DB '<'
	DB	'< USB.GetStrDesc, Bytes Ret %u', 00H	; `string'
CONST	ENDS
;	COMDAT ??_C@_0CJ@MLNPNNOJ@?$DM?$DM?5USB?4GetStrDesc?0?5DeviceIoContr@
CONST	SEGMENT
??_C@_0CJ@MLNPNNOJ@?$DM?$DM?5USB?4GetStrDesc?0?5DeviceIoContr@ DB '<< USB'
	DB	'.GetStrDesc, DeviceIoControl False', 00H	; `string'
CONST	ENDS
;	COMDAT ??_C@_0BC@OBKJMAF@?$DO?$DO?5USB?4GetStrDesc?$AA@
CONST	SEGMENT
??_C@_0BC@OBKJMAF@?$DO?$DO?5USB?4GetStrDesc?$AA@ DB '>> USB.GetStrDesc', 00H ; `string'
CONST	ENDS
;	COMDAT ??_C@_0BA@GOKCLIBE@?$DM?$DM?5USB?4DevsDets?$AA@
CONST	SEGMENT
??_C@_0BA@GOKCLIBE@?$DM?$DM?5USB?4DevsDets?$AA@ DB '<< USB.DevsDets', 00H ; `string'
CONST	ENDS
;	COMDAT ??_C@_02DKCKIIND@?$CFs?$AA@
CONST	SEGMENT
??_C@_02DKCKIIND@?$CFs?$AA@ DB '%s', 00H		; `string'
CONST	ENDS
;	COMDAT ??_C@_0BD@HNIJLKOP@USB?5Device?5Details?$AA@
CONST	SEGMENT
??_C@_0BD@HNIJLKOP@USB?5Device?5Details?$AA@ DB 'USB Device Details', 00H ; `string'
CONST	ENDS
;	COMDAT ??_C@_0BA@EBIECMOG@?$DO?$DO?5USB?4DevsDets?$AA@
CONST	SEGMENT
??_C@_0BA@EBIECMOG@?$DO?$DO?5USB?4DevsDets?$AA@ DB '>> USB.DevsDets', 00H ; `string'
CONST	ENDS
;	COMDAT ??_C@_0P@NGAEOEJF@?$DM?$DM?5USB?4EnumUSB?$AA@
CONST	SEGMENT
??_C@_0P@NGAEOEJF@?$DM?$DM?5USB?4EnumUSB?$AA@ DB '<< USB.EnumUSB', 00H ; `string'
CONST	ENDS
;	COMDAT ??_C@_0BL@FOIGIFIJ@Total?5Devices?5Connected?5?$CFu?$AA@
CONST	SEGMENT
??_C@_0BL@FOIGIFIJ@Total?5Devices?5Connected?5?$CFu?$AA@ DB 'Total Device'
	DB	's Connected %u', 00H			; `string'
CONST	ENDS
;	COMDAT ??_C@_07FOIBMAON@RootHub?$AA@
CONST	SEGMENT
??_C@_07FOIBMAON@RootHub?$AA@ DB 'RootHub', 00H		; `string'
CONST	ENDS
;	COMDAT ??_C@_0N@BEFNEIBE@RootHub?5?3?5?$CFs?$AA@
CONST	SEGMENT
??_C@_0N@BEFNEIBE@RootHub?5?3?5?$CFs?$AA@ DB 'RootHub : %s', 00H ; `string'
CONST	ENDS
;	COMDAT ??_C@_09PEILPPNA@?2?2?4?2HCD?$CFd?$AA@
CONST	SEGMENT
??_C@_09PEILPPNA@?2?2?4?2HCD?$CFd?$AA@ DB '\\.\HCD%d', 00H ; `string'
CONST	ENDS
;	COMDAT ??_C@_0O@BMIBGHPI@Enumerate?5USB?$AA@
CONST	SEGMENT
??_C@_0O@BMIBGHPI@Enumerate?5USB?$AA@ DB 'Enumerate USB', 00H ; `string'
CONST	ENDS
;	COMDAT ??_C@_0DM@DIBECLHK@?$DM?$DM?5USB?4EnumUSB?0?5GetProcAdr?5CM_Lo@
CONST	SEGMENT
??_C@_0DM@DIBECLHK@?$DM?$DM?5USB?4EnumUSB?0?5GetProcAdr?5CM_Lo@ DB '<< US'
	DB	'B.EnumUSB, GetProcAdr CM_Locate_DevNode failed: %u, %s', 00H ; `string'
CONST	ENDS
;	COMDAT ??_C@_0BD@FFDOPOAJ@CM_Locate_DevNodeA?$AA@
CONST	SEGMENT
??_C@_0BD@FFDOPOAJ@CM_Locate_DevNodeA?$AA@ DB 'CM_Locate_DevNodeA', 00H ; `string'
CONST	ENDS
;	COMDAT ??_C@_0EL@DLHLJOM@?$DM?$DM?5USB?4EnumUSB?0?5GetProcAdr?5CM_Ge@
CONST	SEGMENT
??_C@_0EL@DLHLJOM@?$DM?$DM?5USB?4EnumUSB?0?5GetProcAdr?5CM_Ge@ DB '<< USB'
	DB	'.EnumUSB, GetProcAdr CM_Get_DevNode_Registry_Property failed:'
	DB	' %u, %s', 00H				; `string'
CONST	ENDS
;	COMDAT ??_C@_0CC@NHFCMMFN@CM_Get_DevNode_Registry_Property@
CONST	SEGMENT
??_C@_0CC@NHFCMMFN@CM_Get_DevNode_Registry_Property@ DB 'CM_Get_DevNode_R'
	DB	'egistry_PropertyA', 00H			; `string'
CONST	ENDS
;	COMDAT ??_C@_0DH@HAEGCLCE@?$DM?$DM?5USB?4EnumUSB?0?5GetProcAdr?5CM_Ge@
CONST	SEGMENT
??_C@_0DH@HAEGCLCE@?$DM?$DM?5USB?4EnumUSB?0?5GetProcAdr?5CM_Ge@ DB '<< US'
	DB	'B.EnumUSB, GetProcAdr CM_Get_Child failed: %u, %s', 00H ; `string'
CONST	ENDS
;	COMDAT ??_C@_0N@EKPGFMC@CM_Get_Child?$AA@
CONST	SEGMENT
??_C@_0N@EKPGFMC@CM_Get_Child?$AA@ DB 'CM_Get_Child', 00H ; `string'
CONST	ENDS
;	COMDAT ??_C@_0DJ@MMFCGNCK@?$DM?$DM?5USB?4EnumUSB?0?5GetProcAdr?5CM_Ge@
CONST	SEGMENT
??_C@_0DJ@MMFCGNCK@?$DM?$DM?5USB?4EnumUSB?0?5GetProcAdr?5CM_Ge@ DB '<< US'
	DB	'B.EnumUSB, GetProcAdr CM_Get_Sibling failed: %u, %s', 00H ; `string'
CONST	ENDS
;	COMDAT ??_C@_0P@OOIACNHP@CM_Get_Sibling?$AA@
CONST	SEGMENT
??_C@_0P@OOIACNHP@CM_Get_Sibling?$AA@ DB 'CM_Get_Sibling', 00H ; `string'
CONST	ENDS
;	COMDAT ??_C@_0DI@OFIMABNG@?$DM?$DM?5USB?4EnumUSB?0?5GetProcAdr?5CM_Ge@
CONST	SEGMENT
??_C@_0DI@OFIMABNG@?$DM?$DM?5USB?4EnumUSB?0?5GetProcAdr?5CM_Ge@ DB '<< US'
	DB	'B.EnumUSB, GetProcAdr CM_Get_Parent failed: %u, %s', 00H ; `string'
CONST	ENDS
;	COMDAT ??_C@_0O@CIKLALFP@CM_Get_Parent?$AA@
CONST	SEGMENT
??_C@_0O@CIKLALFP@CM_Get_Parent?$AA@ DB 'CM_Get_Parent', 00H ; `string'
CONST	ENDS
;	COMDAT ??_C@_0DE@MNEBEEPL@?$DM?$DM?5USB?4EnumUSB?0?5LoadLib?5cfgmgr32@
CONST	SEGMENT
??_C@_0DE@MNEBEEPL@?$DM?$DM?5USB?4EnumUSB?0?5LoadLib?5cfgmgr32@ DB '<< US'
	DB	'B.EnumUSB, LoadLib cfgmgr32.dll failed: %u, %s', 00H ; `string'
CONST	ENDS
;	COMDAT ??_C@_0N@JNFFEOEJ@cfgmgr32?4dll?$AA@
CONST	SEGMENT
??_C@_0N@JNFFEOEJ@cfgmgr32?4dll?$AA@ DB 'cfgmgr32.dll', 00H ; `string'
CONST	ENDS
;	COMDAT ??_C@_0P@JPOMJBKJ@?$DO?$DO?5USB?4EnumUSB?$AA@
CONST	SEGMENT
??_C@_0P@JPOMJBKJ@?$DO?$DO?5USB?4EnumUSB?$AA@ DB '>> USB.EnumUSB', 00H ; `string'
CONST	ENDS
;	COMDAT ??_C@_0L@CCBFPMDD@?5?5?5?5?5?5?5?5?5?5?$AA@
CONST	SEGMENT
??_C@_0L@CCBFPMDD@?5?5?5?5?5?5?5?5?5?5?$AA@ DB '          ', 00H ; `string'
CONST	ENDS
;	COMDAT ??_C@_08GGFKNFHG@?5?5?5?5?5?5?5?5?$AA@
CONST	SEGMENT
??_C@_08GGFKNFHG@?5?5?5?5?5?5?5?5?$AA@ DB '        ', 00H ; `string'
CONST	ENDS
;	COMDAT ??_C@_06GGLIPOFD@?5?5?5?5?5?5?$AA@
CONST	SEGMENT
??_C@_06GGLIPOFD@?5?5?5?5?5?5?$AA@ DB '      ', 00H	; `string'
CONST	ENDS
;	COMDAT ??_C@_04PFOHOKJK@?5?5?5?5?$AA@
CONST	SEGMENT
??_C@_04PFOHOKJK@?5?5?5?5?$AA@ DB '    ', 00H		; `string'
CONST	ENDS
;	COMDAT ??_C@_02KNHHEEKP@?5?5?$AA@
CONST	SEGMENT
??_C@_02KNHHEEKP@?5?5?$AA@ DB '  ', 00H			; `string'
CONST	ENDS
;	COMDAT ??_C@_0BC@BOFHLGPH@DeviceInLegacyHub?$AA@
CONST	SEGMENT
??_C@_0BC@BOFHLGPH@DeviceInLegacyHub?$AA@ DB 'DeviceInLegacyHub', 00H ; `string'
CONST	ENDS
;	COMDAT ??_C@_0BJ@CHELPMAC@DeviceHubNestedTooDeeply?$AA@
CONST	SEGMENT
??_C@_0BJ@CHELPMAC@DeviceHubNestedTooDeeply?$AA@ DB 'DeviceHubNestedTooDe'
	DB	'eply', 00H					; `string'
CONST	ENDS
;	COMDAT ??_C@_0BJ@DBBHPJJC@DeviceNotEnoughBandwidth?$AA@
CONST	SEGMENT
??_C@_0BJ@DBBHPJJC@DeviceNotEnoughBandwidth?$AA@ DB 'DeviceNotEnoughBandw'
	DB	'idth', 00H					; `string'
CONST	ENDS
;	COMDAT ??_C@_0BF@KCIAFGBC@DeviceNotEnoughPower?$AA@
CONST	SEGMENT
??_C@_0BF@KCIAFGBC@DeviceNotEnoughPower?$AA@ DB 'DeviceNotEnoughPower', 00H ; `string'
CONST	ENDS
;	COMDAT ??_C@_0BI@FHCONGJI@DeviceCausedOvercurrent?$AA@
CONST	SEGMENT
??_C@_0BI@FHCONGJI@DeviceCausedOvercurrent?$AA@ DB 'DeviceCausedOvercurre'
	DB	'nt', 00H					; `string'
CONST	ENDS
;	COMDAT ??_C@_0BF@FIJIOADB@DeviceGeneralFailure?$AA@
CONST	SEGMENT
??_C@_0BF@FIJIOADB@DeviceGeneralFailure?$AA@ DB 'DeviceGeneralFailure', 00H ; `string'
CONST	ENDS
;	COMDAT ??_C@_0BI@LKBNFKJE@DeviceFailedEnumeration?$AA@
CONST	SEGMENT
??_C@_0BI@LKBNFKJE@DeviceFailedEnumeration?$AA@ DB 'DeviceFailedEnumerati'
	DB	'on', 00H					; `string'
CONST	ENDS
;	COMDAT ??_C@_0BA@LIPCCNEI@DeviceConnected?$AA@
CONST	SEGMENT
??_C@_0BA@LIPCCNEI@DeviceConnected?$AA@ DB 'DeviceConnected', 00H ; `string'
CONST	ENDS
;	COMDAT ??_C@_0BC@CFJFKPGC@NoDeviceConnected?$AA@
CONST	SEGMENT
??_C@_0BC@CFJFKPGC@NoDeviceConnected?$AA@ DB 'NoDeviceConnected', 00H ; `string'
CONST	ENDS
;	COMDAT ??_C@_0BI@GFKFEIAL@?9?9?5USB?4PushBackDets?0?5?$CFs?$AA@
CONST	SEGMENT
??_C@_0BI@GFKFEIAL@?9?9?5USB?4PushBackDets?0?5?$CFs?$AA@ DB '-- USB.PushB'
	DB	'ackDets, %s', 00H				; `string'
CONST	ENDS
;	COMDAT ??_C@_00CNPNBAHC@?$AA@
CONST	SEGMENT
??_C@_00CNPNBAHC@?$AA@ DB 00H				; `string'
__bad_alloc_Message DD FLAT:??_C@_0P@GHFPNOJB@bad?5allocation?$AA@
?ConnectionStatuses@@3PAPADA DD FLAT:??_C@_0BC@CFJFKPGC@NoDeviceConnected?$AA@ ; ConnectionStatuses
	DD	FLAT:??_C@_0BA@LIPCCNEI@DeviceConnected?$AA@
	DD	FLAT:??_C@_0BI@LKBNFKJE@DeviceFailedEnumeration?$AA@
	DD	FLAT:??_C@_0BF@FIJIOADB@DeviceGeneralFailure?$AA@
	DD	FLAT:??_C@_0BI@FHCONGJI@DeviceCausedOvercurrent?$AA@
	DD	FLAT:??_C@_0BF@KCIAFGBC@DeviceNotEnoughPower?$AA@
	DD	FLAT:??_C@_0BJ@DBBHPJJC@DeviceNotEnoughBandwidth?$AA@
	DD	FLAT:??_C@_0BJ@CHELPMAC@DeviceHubNestedTooDeeply?$AA@
	DD	FLAT:??_C@_0BC@BOFHLGPH@DeviceInLegacyHub?$AA@
_USBVendorIDs DW 03ebH
	ORG $+2
	DD	FLAT:??_C@_0BC@ELLAHEBO@Atmel?5Corporation?$AA@
	DW	03f0H
	ORG $+2
	DD	FLAT:??_C@_0BA@GKDJMMLL@Hewlett?5Packard?$AA@
	DW	03f4H
	ORG $+2
	DD	FLAT:??_C@_0O@EJFJAJAK@Diebold?0?5Inc?4?$AA@
	DW	03fcH
	ORG $+2
	DD	FLAT:??_C@_0BM@MEJFLCNJ@Elitegroup?5Computer?5Systems?$AA@
	DW	0403H
	ORG $+2
	DD	FLAT:??_C@_0DA@NLEDAFLA@Future?5Technology?5Devices?5Intern@
	DW	0408H
	ORG $+2
	DD	FLAT:??_C@_0BF@PKMDPELO@Quanta?5Computer?5Inc?4?$AA@
	DW	0409H
	ORG $+2
	DD	FLAT:??_C@_0BA@KPLBOCAE@NEC?5Corporation?$AA@
	DW	040aH
	ORG $+2
	DD	FLAT:??_C@_0BG@DEIKAEKL@Eastman?5Kodak?5Company?$AA@
	DW	040bH
	ORG $+2
	DD	FLAT:??_C@_0BH@JCNGEJDK@Weltrend?5Semiconductor?$AA@
	DW	040dH
	ORG $+2
	DD	FLAT:??_C@_0BH@LEHBDMGE@VIA?5Technologies?0?5Inc?4?$AA@
	DW	040eH
	ORG $+2
	DD	FLAT:??_C@_0BB@DMJKNCDK@MCCI?5Corporation?$AA@
	DW	0411H
	ORG $+2
	DD	FLAT:??_C@_0N@HBBMPLAJ@BUFFALO?5INC?4?$AA@
	DW	0414H
	ORG $+2
	DD	FLAT:??_C@_0BP@EJPGPDCC@Giga?9Byte?5Technology?5Co?4?0?5Ltd?4?$AA@
	DW	0416H
	ORG $+2
	DD	FLAT:??_C@_0BJ@BBLEBCKI@Nuvoton?5Technology?5Corp?4?$AA@
	DW	041eH
	ORG $+2
	DD	FLAT:??_C@_0O@CDIDDBG@Creative?5Labs?$AA@
	DW	0421H
	ORG $+2
	DD	FLAT:??_C@_0BC@LOIKONEK@Nokia?5Corporation?$AA@
	DW	0424H
	ORG $+2
	DD	FLAT:??_C@_04JKLOLBDG@SMSC?$AA@
	DW	042fH
	ORG $+2
	DD	FLAT:??_C@_0L@JMLDMEEO@Molex?5Inc?4?$AA@
	DW	0430H
	ORG $+2
	DD	FLAT:??_C@_0BK@BGJHIBOH@Fujitsu?5Component?5Limited?$AA@
	DW	0438H
	ORG $+2
	DD	FLAT:??_C@_0BH@PDGAJDKJ@Advanced?5Micro?5Devices?$AA@
	DW	043dH
	ORG $+2
	DD	FLAT:??_C@_0BL@KCFEHCNK@Lexmark?5International?5Inc?4?$AA@
	DW	0440H
	ORG $+2
	DD	FLAT:??_C@_0BH@LFBOMFGA@EIZO?5NANAO?5CORPORATION?$AA@
	DW	044eH
	ORG $+2
	DD	FLAT:??_C@_0BI@LOPMEJIG@Alps?5Electric?5Co?4?0?5Ltd?4?$AA@
	DW	0451H
	ORG $+2
	DD	FLAT:??_C@_0BC@NEDOGEDE@Texas?5Instruments?$AA@
	DW	0457H
	ORG $+2
	DD	FLAT:??_C@_0CB@JOFOMFLH@Silicon?5Integrated?5Systems?5Corp?4@
	DW	0458H
	ORG $+2
	DD	FLAT:??_C@_0BC@CIDHCDNI@KYE?5Systems?5Corp?4?$AA@
	DW	045bH
	ORG $+2
	DD	FLAT:??_C@_0BK@EAFCJGLH@Renesas?5Electronics?5Corp?4?$AA@
	DW	045eH
	ORG $+2
	DD	FLAT:??_C@_0BG@EOBPLLNH@Microsoft?5Corporation?$AA@
	DW	0461H
	ORG $+2
	DD	FLAT:??_C@_0BD@CABKABLN@Primax?5Electronics?$AA@
	DW	0463H
	ORG $+2
	DD	FLAT:??_C@_05CFGIIEPJ@EATON?$AA@
	DW	0468H
	ORG $+2
	DD	FLAT:??_C@_0BO@JJGMGNMK@Wieson?5Technologies?5Co?4?0?5Ltd?4?$AA@
	DW	046bH
	ORG $+2
	DD	FLAT:??_C@_0BE@JEFPHDAK@American?5Megatrends?$AA@
	DW	046dH
	ORG $+2
	DD	FLAT:??_C@_0O@NMJDEFAN@Logitech?5Inc?4?$AA@
	DW	047eH
	ORG $+2
	DD	FLAT:??_C@_0BA@JMLOFGEB@LSI?5Corporation?$AA@
	DW	047fH
	ORG $+2
	DD	FLAT:??_C@_0BC@JKCENOI@Plantronics?0?5Inc?4?$AA@
	DW	0480H
	ORG $+2
	DD	FLAT:??_C@_0CE@MGJHDLEM@Toshiba?5America?5Info?4?5Systems?0?5I@
	DW	0482H
	ORG $+2
	DD	FLAT:??_C@_0BE@OKFLBHJF@Kyocera?5Corporation?$AA@
	DW	0483H
	ORG $+2
	DD	FLAT:??_C@_0BD@KBJBCOHP@STMicroelectronics?$AA@
	DW	0489H
	ORG $+2
	DD	FLAT:??_C@_0BC@OEHDDJBP@Foxconn?5?1?5Hon?5Hai?$AA@
	DW	048dH
	ORG $+2
	DD	FLAT:??_C@_0O@KONCBIDB@ITE?5Tech?5Inc?4?$AA@
	DW	0499H
	ORG $+2
	DD	FLAT:??_C@_0BD@LBNNEMMM@Yamaha?5Corporation?$AA@
	DW	04a4H
	ORG $+2
	DD	FLAT:??_C@_0O@EDCNNFOI@Hitachi?0?5Ltd?4?$AA@
	DW	04a7H
	ORG $+2
	DD	FLAT:??_C@_09OEADKIBB@Visioneer?$AA@
	DW	04a9H
	ORG $+2
	DD	FLAT:??_C@_0L@GLDEECEB@Canon?5Inc?4?$AA@
	DW	04b0H
	ORG $+2
	DD	FLAT:??_C@_0BC@GNNADKEG@Nikon?5Corporation?$AA@
	DW	04b1H
	ORG $+2
	DD	FLAT:??_C@_0BC@HJPMHLJH@Pan?5International?$AA@
	DW	04b4H
	ORG $+2
	DD	FLAT:??_C@_0BG@FGCLJBBL@Cypress?5Semiconductor?$AA@
	DW	04b5H
	ORG $+2
	DD	FLAT:??_C@_0P@POFNKNIM@ROHM?5Co?4?0?5Ltd?4?$AA@
	DW	04b7H
	ORG $+2
	DD	FLAT:??_C@_0BJ@IBBFBLCL@Compal?5Electronics?0?5Inc?4?$AA@
	DW	04b8H
	ORG $+2
	DD	FLAT:??_C@_0BC@LODEJCJJ@Seiko?5Epson?5Corp?4?$AA@
	DW	04bbH
	ORG $+2
	DD	FLAT:??_C@_0BG@NAOBNEME@I?9O?5Data?5Device?0?5Inc?4?$AA@
	DW	04c5H
	ORG $+2
	DD	FLAT:??_C@_0N@MFGIPGKK@Fujitsu?5Ltd?4?$AA@
	DW	04caH
	ORG $+2
	DD	FLAT:??_C@_0BJ@CAOGFALO@Lite?9On?5Technology?5Corp?4?$AA@
	DW	04cbH
	ORG $+2
	DD	FLAT:??_C@_0BF@DGJHAIHG@FUJIFILM?5Corporation?$AA@
	DW	04ccH
	ORG $+2
	DD	FLAT:??_C@_0M@CIDIGMJE@ST?9Ericsson?$AA@
	DW	04d8H
	ORG $+2
	DD	FLAT:??_C@_0BK@GLLPJAAH@Microchip?5Technology?5Inc?4?$AA@
	DW	04d9H
	ORG $+2
	DD	FLAT:??_C@_0BL@BJMPMCDF@Holtek?5Semiconductor?0?5Inc?4?$AA@
	DW	04daH
	ORG $+2
	DD	FLAT:??_C@_0BG@HPBJICLA@Panasonic?5Corporation?$AA@
	DW	04ddH
	ORG $+2
	DD	FLAT:??_C@_0BC@NGIIFMHF@Sharp?5Corporation?$AA@
	DW	04e2H
	ORG $+2
	DD	FLAT:??_C@_0BB@LFOEADKM@Exar?5Corporation?$AA@
	DW	04e6H
	ORG $+2
	DD	FLAT:??_C@_0BB@LGJOJJNH@SCM?5Microsystems?$AA@
	DW	04e8H
	ORG $+2
	DD	FLAT:??_C@_0BO@CGAOADOO@Samsung?5Electronics?5Co?4?0?5Ltd?4?$AA@
	DW	04ebH
	ORG $+2
	DD	FLAT:??_C@_0BI@BJLCCIIK@Northstar?5Systems?5Corp?4?$AA@
	DW	04ecH
	ORG $+2
	DD	FLAT:??_C@_0BO@EFCPDDGG@Tokyo?5Electron?5Device?5Limited?$AA@
	DW	04f2H
	ORG $+2
	DD	FLAT:??_C@_0BO@DEPAFADD@Chicony?5Electronics?5Co?4?0?5Ltd?4?$AA@
	DW	04f7H
	ORG $+2
	DD	FLAT:??_C@_0BI@JIJDPPMO@Newnex?5Technology?5Corp?4?$AA@
	DW	04f9H
	ORG $+2
	DD	FLAT:??_C@_0BJ@LIIOOGBH@Brother?5Industries?0?5Ltd?4?$AA@
	DW	04fcH
	ORG $+2
	DD	FLAT:??_C@_0BN@EENPEENP@SUNPLUS?5TECHNOLOGY?5CO?4?0?5LTD?4?$AA@
	DW	04feH
	ORG $+2
	DD	FLAT:??_C@_0M@LAOEDIBA@PFU?5Limited?$AA@
	DW	0501H
	ORG $+2
	DD	FLAT:??_C@_0N@HPKDLJPE@Fujikura?1DDK?$AA@
	DW	0507H
	ORG $+2
	DD	FLAT:??_C@_0BE@OMIFCFDP@Hosiden?5Corporation?$AA@
	DW	050dH
	ORG $+2
	DD	FLAT:??_C@_0BD@JPLKCFJN@Belkin?5Corporation?$AA@
	DW	0514H
	ORG $+2
	DD	FLAT:??_C@_0BA@MNHCACLA@FCI?5Electronics?$AA@
	DW	0516H
	ORG $+2
	DD	FLAT:??_C@_0CG@MHMGALMF@Longwell?5Electronics?1Longwell?5Co@
	DW	0519H
	ORG $+2
	DD	FLAT:??_C@_0BI@IEJECICL@Star?5Micronics?5Co?4?0?5LTD?$AA@
	DW	051dH
	ORG $+2
	DD	FLAT:??_C@_0BK@CJECLAIC@American?5Power?5Conversion?$AA@
	DW	0520H
	ORG $+2
	DD	FLAT:??_C@_0CH@IKHGDMKC@Taiwan?5Semiconductor?5Manufacturi@
	DW	0522H
	ORG $+2
	DD	FLAT:??_C@_0BP@MPHIFDML@ACON?0?5Advanced?9Connectek?0?5Inc?4?$AA@
	DW	0525H
	ORG $+2
	DD	FLAT:??_C@_0BF@OEIMDHJB@PLX?5Technology?0?5Inc?4?$AA@
	DW	0529H
	ORG $+2
	DD	FLAT:??_C@_0BK@EAHBAECN@Aladdin?5Knowledge?5Systems?$AA@
	DW	0531H
	ORG $+2
	DD	FLAT:??_C@_0BH@OKBFFENA@Wacom?5Technology?5Corp?4?$AA@
	DW	053fH
	ORG $+2
	DD	FLAT:??_C@_0P@JMAENH@Synopsys?0?5Inc?4?$AA@
	DW	054cH
	ORG $+2
	DD	FLAT:??_C@_0BB@FOPBDEC@Sony?5Corporation?$AA@
	DW	0550H
	ORG $+2
	DD	FLAT:??_C@_0BF@BLKLAKEJ@Fuji?5Xerox?5Co?4?0?5Ltd?4?$AA@
	DW	0557H
	ORG $+2
	DD	FLAT:??_C@_0BM@FGPDBDMF@ATEN?5International?5Co?4?5Ltd?4?$AA@
	DW	0559H
	ORG $+2
	DD	FLAT:??_C@_0BN@LLCBPJLE@Cadence?5Design?5Systems?0?5Inc?4?$AA@
	DW	056aH
	ORG $+2
	DD	FLAT:??_C@_0BA@PCAMLHGM@WACOM?5Co?4?0?5Ltd?4?$AA@
	DW	0572H
	ORG $+2
	DD	FLAT:??_C@_0BH@BPNCPPJL@Conexant?5Systems?0?5Inc?4?$AA@
	DW	0573H
	ORG $+2
	DD	FLAT:??_C@_0BC@DJMACOGF@Zoran?5Corporation?$AA@
	DW	0576H
	ORG $+2
	DD	FLAT:??_C@_0CC@JDHIHHMP@BAFO?1Quality?5Computer?5Accessorie@
	DW	057bH
	ORG $+2
	DD	FLAT:??_C@_0P@DLENFJNK@Y?9E?5Data?0?5Inc?4?$AA@
	DW	057cH
	ORG $+2
	DD	FLAT:??_C@_08DBEKGGBP@AVM?5GmbH?$AA@
	DW	0582H
	ORG $+2
	DD	FLAT:??_C@_0BD@CDPILELF@Roland?5Corporation?$AA@
	DW	0584H
	ORG $+2
	DD	FLAT:??_C@_0BE@PNCFOBBM@RATOC?5Systems?0?5Inc?4?$AA@
	DW	058fH
	ORG $+2
	DD	FLAT:??_C@_0BD@CKEFINHN@Alcor?5Micro?0?5Corp?4?$AA@
	DW	0590H
	ORG $+2
	DD	FLAT:??_C@_0BC@LGOLJEOJ@OMRON?5Corporation?$AA@
	DW	059bH
	ORG $+2
	DD	FLAT:??_C@_0BD@DLALOKFF@Iomega?5Corporation?$AA@
	DW	059fH
	ORG $+2
	DD	FLAT:??_C@_05EENIFCCI@LaCie?$AA@
	DW	05a9H
	ORG $+2
	DD	FLAT:??_C@_0BO@PALNNPFJ@OmniVision?5Technologies?0?5Inc?4?$AA@
	DW	05acH
	ORG $+2
	DD	FLAT:??_C@_05EBJDGKGA@Apple?$AA@
	DW	05adH
	ORG $+2
	DD	FLAT:??_C@_0BH@BEKADALE@Y?4C?4?5Cable?5U?4S?4A?4?0?5Inc?$AA@
	DW	03923H
	ORG $+2
	DD	FLAT:??_C@_0BF@DJDIGDEG@National?5Instruments?$AA@
	DW	05beH
	ORG $+2
	DD	FLAT:??_C@_0BB@BDKIEMDH@Tyco?5Electronics?$AA@
	DW	05c1H
	ORG $+2
	DD	FLAT:??_C@_0CA@ILGCAFHO@Kawasaki?5Microelectronics?0?5Inc?4?$AA@
	DW	05c6H
	ORG $+2
	DD	FLAT:??_C@_0O@JJANANCF@Qualcomm?0?5Inc?$AA@
	DW	05c8H
	ORG $+2
	DD	FLAT:??_C@_0CP@IMDHJGED@Foxlink?1Cheng?5Uei?5Precision?5Indu@
	DW	05caH
	ORG $+2
	DD	FLAT:??_C@_0BD@DNOMCPDN@Ricoh?5Company?5Ltd?4?$AA@
	DW	05daH
	ORG $+2
	DD	FLAT:??_C@_0BM@OADDMKLB@Microtek?5International?5Inc?4?$AA@
	DW	05dcH
	ORG $+2
	DD	FLAT:??_C@_0BC@CNOLCDCN@Lexar?5Media?0?5Inc?4?$AA@
	DW	05e0H
	ORG $+2
	DD	FLAT:??_C@_0BE@JPKFBBCH@Symbol?5Technologies?$AA@
	DW	05e3H
	ORG $+2
	DD	FLAT:??_C@_0BE@CKIEML@Genesys?5Logic?0?5Inc?4?$AA@
	DW	05e5H
	ORG $+2
	DD	FLAT:??_C@_0BI@KBGKOOGJ@Fuji?5Electric?5Co?4?0?5Ltd?4?$AA@
	DW	05f5H
	ORG $+2
	DD	FLAT:??_C@_0BI@NBAANMIA@Unixtar?5Technology?5Inc?4?$AA@
	DW	05f9H
	ORG $+2
	DD	FLAT:??_C@_0BJ@IOEIJMCL@Datalogic?5Scanning?0?5Inc?4?$AA@
	DW	05ffH
	ORG $+2
	DD	FLAT:??_C@_0BD@PJDPEADK@LeCroy?5Corporation?$AA@
	DW	0603H
	ORG $+2
	DD	FLAT:??_C@_0BP@HAMNADII@Novatek?5Microelectronics?5Corp?4?$AA@
	DW	0609H
	ORG $+2
	DD	FLAT:??_C@_0BH@LJAJLGJE@SMK?5Manufacturing?5Inc?4?$AA@
	DW	060fH
	ORG $+2
	DD	FLAT:??_C@_0CE@IBGJKEKA@Joinsoon?5Electronics?5Mfg?4?5Co?4?0?5L@
	DW	0611H
	ORG $+2
	DD	FLAT:??_C@_0BK@EHGAEDDA@Totoku?5Electric?5Co?4?0?5LTD?4?$AA@
	DW	0613H
	ORG $+2
	DD	FLAT:??_C@_0CD@BNDJFIFN@TransAct?5Technologies?5Incorporat@
	DW	0619H
	ORG $+2
	DD	FLAT:??_C@_0BH@OFHNPHHH@Seiko?5Instruments?5Inc?4?$AA@
	DW	0623H
	ORG $+2
	DD	FLAT:??_C@_0BB@GCAKJIAA@Littelfuse?0?5Inc?4?$AA@
	DW	062eH
	ORG $+2
	DD	FLAT:??_C@_0CA@POFLHCFC@MAIN?5SUPER?5ENTERPRISES?5CO?4?0LTD?4?$AA@
	DW	0638H
	ORG $+2
	DD	FLAT:??_C@_0O@JBKMBCEI@Avision?0?5Inc?4?$AA@
	DW	0639H
	ORG $+2
	DD	FLAT:??_C@_0P@GAMNDPPF@Chrontel?0?5Inc?4?$AA@
	DW	064bH
	ORG $+2
	DD	FLAT:??_C@_0CH@PMGKCBAF@Analog?5Devices?0?5Inc?4?5Development@
	DW	064cH
	ORG $+2
	DD	FLAT:??_C@_0BL@EBDNAMPI@Ji?9Haw?5Industrial?5Co?4?0?5Ltd?$AA@
	DW	064eH
	ORG $+2
	DD	FLAT:??_C@_0BC@HBOMJHJG@Suyin?5Corporation?$AA@
	DW	064fH
	ORG $+2
	DD	FLAT:??_C@_0BA@BPHBIEFO@WIBU?9Systems?5AG?$AA@
	DW	0655H
	ORG $+2
	DD	FLAT:??_C@_0BP@BBNBDGIM@Space?5Shuttle?5Hi?9Tech?5Co?4?0Ltd?4?$AA@
	DW	0656H
	ORG $+2
	DD	FLAT:??_C@_0BL@JPOIGLAH@Glory?5Mark?5Electronic?5Ltd?4?$AA@
	DW	0657H
	ORG $+2
	DD	FLAT:??_C@_0BJ@HLMOOHDB@Tekcon?5Electronics?5Corp?4?$AA@
	DW	0658H
	ORG $+2
	DD	FLAT:??_C@_0BE@DBNMJIBL@Sigma?5Designs?0?5Inc?4?$AA@
	DW	065fH
	ORG $+2
	DD	FLAT:??_C@_0DD@MJJJJEAM@Good?5Way?5Technology?5Co?4?0?5Ltd?4?5?$CG?5@
	DW	0660H
	ORG $+2
	DD	FLAT:??_C@_0CA@PAFBBAIH@TSAY?9E?5?$CIBVI?$CJ?5International?5Inc?4?$AA@
	DW	0661H
	ORG $+2
	DD	FLAT:??_C@_0BJ@PKNBNCAJ@Hamamatsu?5Photonics?5K?4K?4?$AA@
	DW	066aH
	ORG $+2
	DD	FLAT:??_C@_0BJ@BPDLABPC@Total?5Technologies?0?5Ltd?4?$AA@
	DW	0678H
	ORG $+2
	DD	FLAT:??_C@_0BH@GHMCMJEK@ACARD?5Technology?5Corp?4?$AA@
	DW	067bH
	ORG $+2
	DD	FLAT:??_C@_0BK@PDKHMLGO@Prolific?5Technology?0?5Inc?4?$AA@
	DW	0413cH
	ORG $+2
	DD	FLAT:??_C@_09JOKCKELG@Dell?5Inc?4?$AA@
	DW	0690H
	ORG $+2
	DD	FLAT:??_C@_0BM@LFPCEBHN@Golden?5Bridge?5Electech?5Inc?4?$AA@
	DW	0693H
	ORG $+2
	DD	FLAT:??_C@_0BN@HLLIJJKK@Hagiwara?5Solutions?5Co?4?0?5Ltd?4?$AA@
	DW	0699H
	ORG $+2
	DD	FLAT:??_C@_0BA@EMAGANPI@Tektronix?0?5Inc?4?$AA@
	DW	06a3H
	ORG $+2
	DD	FLAT:??_C@_0BE@KEFLECEP@MadCatz?5Europe?5Ltd?4?$AA@
	DW	06a4H
	ORG $+2
	DD	FLAT:??_C@_0CC@KJLDAPCA@Xiamen?5Doowell?5Electron?5Co?4?0?5Ltd@
	DW	06adH
	ORG $+2
	DD	FLAT:??_C@_0CC@NHGJCBNO@Greatland?5Electronics?5Taiwan?5Ltd@
	DW	06aeH
	ORG $+2
	DD	FLAT:??_C@_0P@DFEICALO@Testronic?5Labs?$AA@
	DW	06b8H
	ORG $+2
	DD	FLAT:??_C@_0BD@MFHNCDAI@Pixela?5Corporation?$AA@
	DW	06bcH
	ORG $+2
	DD	FLAT:??_C@_0BF@KBMIOCIB@Oki?5Data?5Corporation?$AA@
	DW	06bfH
	ORG $+2
	DD	FLAT:??_C@_0BC@PBNHDNIB@Leoco?5Corporation?$AA@
	DW	06c4H
	ORG $+2
	DD	FLAT:??_C@_0BJ@IAMJELKE@Bizlink?5Technology?0?5Inc?4?$AA@
	DW	06c8H
	ORG $+2
	DD	FLAT:??_C@_0L@IGNPDHHH@SIIG?0?5Inc?4?$AA@
	DW	06d3H
	ORG $+2
	DD	FLAT:??_C@_0CA@FPPDHAGC@Mitsubishi?5Electric?5Corporation?$AA@
	DW	06deH
	ORG $+2
	DD	FLAT:??_C@_0BM@MDDCDOBA@Heisei?5Electronics?5Co?4?5Ltd?4?$AA@
	DW	070aH
	ORG $+2
	DD	FLAT:??_C@_0CA@MKILJNBK@Oki?5Electric?5Industry?5Co?4?0?5Ltd?4?$AA@
	DW	070eH
	ORG $+2
	DD	FLAT:??_C@_0CA@HDLCMAHN@Excel?5Cell?5Electronic?5Co?4?0?5Ltd?4?$AA@
	DW	0711H
	ORG $+2
	DD	FLAT:??_C@_0BP@JCFMJDGG@Magic?5Control?5Technology?5Corp?4?$AA@
	DW	0718H
	ORG $+2
	DD	FLAT:??_C@_0O@NNOCEOFA@Imation?5Corp?4?$AA@
	DW	072eH
	ORG $+2
	DD	FLAT:??_C@_0BA@IFGJOCOG@Sunix?5Co?4?0?5Ltd?4?$AA@
	DW	0736H
	ORG $+2
	DD	FLAT:??_C@_0BL@PJBMJABB@Lorom?5Industrial?5Co?4?0?5Ltd?4?$AA@
	DW	0764H
	ORG $+2
	DD	FLAT:??_C@_0BK@PCICHEDF@Cyber?5Power?5Systems?0?5Inc?4?$AA@
	DW	0766H
	ORG $+2
	DD	FLAT:??_C@_0CD@HFGLNKOO@Jess?9Link?5Products?5Co?4?0?5Ltd?4?5?$CIJP@
	DW	076bH
	ORG $+2
	DD	FLAT:??_C@_0BA@FCBANMAL@HID?5Global?5GmbH?$AA@
	DW	0777H
	ORG $+2
	DD	FLAT:??_C@_0CG@IKDDLBBP@Comda?5Advanced?5Technology?5Corpor@
	DW	0779H
	ORG $+2
	DD	FLAT:??_C@_0BI@OBNCJIEM@Fairchild?5Semiconductor?$AA@
	DW	0781H
	ORG $+2
	DD	FLAT:??_C@_0BE@KACIGGGG@SanDisk?5Corporation?$AA@
	DW	0791H
	ORG $+2
	DD	FLAT:??_C@_0CB@LGBOFDFN@Copartner?5Technology?5Corporation@
	DW	07a2H
	ORG $+2
	DD	FLAT:??_C@_0BL@MPFKAMGD@National?5Technical?5Systems?$AA@
	DW	07b3H
	ORG $+2
	DD	FLAT:??_C@_0O@OCMFCBHB@Plustek?0?5Inc?4?$AA@
	DW	07b4H
	ORG $+2
	DD	FLAT:??_C@_0BE@NJLEDFOB@OLYMPUS?5CORPORATION?$AA@
	DW	07b7H
	ORG $+2
	DD	FLAT:??_C@_0BH@MGBHEDBN@TIME?5Interconnect?5Ltd?4?$AA@
	DW	07caH
	ORG $+2
	DD	FLAT:??_C@_0BN@EGFACLDP@AVerMedia?5Technologies?0?5Inc?4?$AA@
	DW	07ccH
	ORG $+2
	DD	FLAT:??_C@_0BL@FNDINGLK@Carry?5Technology?5Co?4?0?5Ltd?4?$AA@
	DW	07cfH
	ORG $+2
	DD	FLAT:??_C@_0BJ@JKHOIPCI@Casio?5Computer?5Co?4?0?5Ltd?4?$AA@
	DW	07daH
	ORG $+2
	DD	FLAT:??_C@_0BJ@ODMCNPPD@Arasan?5Chip?5Systems?5Inc?4?$AA@
	DW	07dfH
	ORG $+2
	DD	FLAT:??_C@_0CA@BNLONGOH@David?5Electronics?5Company?0?5Ltd?4?$AA@
	DW	07f6H
	ORG $+2
	DD	FLAT:??_C@_0BH@NBGJMCGE@Circuit?5Assembly?5Corp?4?$AA@
	DW	07f7H
	ORG $+2
	DD	FLAT:??_C@_0BE@OPFGKFFJ@Century?5Corporation?$AA@
	DW	07f9H
	ORG $+2
	DD	FLAT:??_C@_0BH@FDLEJAIK@Dotop?5Technology?0?5Inc?4?$AA@
	DW	080aH
	ORG $+2
	DD	FLAT:??_C@_0BO@CAINGGKC@Evermuch?5Technology?5Co?4?0?5Ltd?4?$AA@
	DW	0835H
	ORG $+2
	DD	FLAT:??_C@_0CB@POAJBKGF@Action?5Star?5Enterprise?5Co?4?0?5Ltd?4@
	DW	0840H
	ORG $+2
	DD	FLAT:??_C@_0BF@DELPFPOB@Argosy?5Research?5Inc?4?$AA@
	DW	086fH
	ORG $+2
	DD	FLAT:??_C@_0BB@CEKEIHLM@MEC?5IMEX?5INC?1HPT?$AA@
	DW	0874H
	ORG $+2
	DD	FLAT:??_C@_0BG@FKPDHKLP@A?9Tec?5Subsystem?0?5Inc?4?$AA@
	DW	0897H
	ORG $+2
	DD	FLAT:??_C@_0BA@EMBEKEAB@Lauterbach?5GmbH?$AA@
	DW	089dH
	ORG $+2
	DD	FLAT:??_C@_0BP@PNBHHOAN@Icron?5Technologies?5Corporation?$AA@
	DW	08b9H
	ORG $+2
	DD	FLAT:??_C@_0BH@CFIMBAIC@RadioShack?5Corporation?$AA@
	DW	08bbH
	ORG $+2
	DD	FLAT:??_C@_0BI@HFFFIPIB@Texas?5Instruments?5Japan?$AA@
	DW	08c7H
	ORG $+2
	DD	FLAT:??_C@_0BO@JNLBBKDI@TAI?5TWUN?5ENTERPRISE?5CO?4?0?5LTD?4?$AA@
	DW	08e4H
	ORG $+2
	DD	FLAT:??_C@_0BE@PMKDDGDC@Pioneer?5Corporation?$AA@
	DW	08e6H
	ORG $+2
	DD	FLAT:??_C@_0L@NMFIDNE@Gemalto?5SA?$AA@
	DW	08ffH
	ORG $+2
	DD	FLAT:??_C@_0BA@ILLLPBKP@AuthenTec?0?5Inc?4?$AA@
	DW	0906H
	ORG $+2
	DD	FLAT:??_C@_0BJ@DEEADHEC@FARADAY?5Technology?5Corp?4?$AA@
	DW	0909H
	ORG $+2
	DD	FLAT:??_C@_0BF@DGGIOLK@Audio?9Technica?5Corp?4?$AA@
	DW	090cH
	ORG $+2
	DD	FLAT:??_C@_0BO@BNPBHCJB@Silicon?5Motion?0?5Inc?4?5?9?5Taiwan?$AA@
	DW	091eH
	ORG $+2
	DD	FLAT:??_C@_0BF@OCKCLCDJ@Garmin?5International?$AA@
	DW	0922H
	ORG $+2
	DD	FLAT:??_C@_0BB@IJHLMKN@Dymo?5Corporation?$AA@
	DW	0930H
	ORG $+2
	DD	FLAT:??_C@_0BE@JMAMIBAH@Toshiba?5Corporation?$AA@
	DW	093aH
	ORG $+2
	DD	FLAT:??_C@_0BF@FDMCHING@Pixart?5Imaging?0?5Inc?4?$AA@
	DW	093bH
	ORG $+2
	DD	FLAT:??_C@_0M@DPPDGGNF@Plextor?5LLC?$AA@
	DW	093eH
	ORG $+2
	DD	FLAT:??_C@_0BG@PLHGNMC@J?4S?4T?4?5Mfg?4?5Co?4?0?5Ltd?4?$AA@
	DW	0951H
	ORG $+2
	DD	FLAT:??_C@_0BM@LKMMOGNE@Kingston?5Technology?5Company?$AA@
	DW	0955H
	ORG $+2
	DD	FLAT:??_C@_06HLMMPIBG@NVIDIA?$AA@
	DW	0957H
	ORG $+2
	DD	FLAT:??_C@_0BL@KLPBIJLK@Agilent?5Technologies?0?5Inc?4?$AA@
	DW	095bH
	ORG $+2
	DD	FLAT:??_C@_0BH@DIONPOBP@Medialogic?5Corporation?$AA@
	DW	095dH
	ORG $+2
	DD	FLAT:??_C@_0O@LKCCNLNO@Polycom?0?5Inc?4?$AA@
	DW	06000H
	ORG $+2
	DD	FLAT:??_C@_0CF@DOLEFDNC@TRIDENT?5MICROSYSTEMS?5?$CIFar?5East?$CJ?5@
	DW	09a4H
	ORG $+2
	DD	FLAT:??_C@_0BH@NHOGNCFH@Contech?5Research?0?5Inc?4?$AA@
	DW	09a8H
	ORG $+2
	DD	FLAT:??_C@_0CA@NGELPCKK@Lin?5Shiung?5Enterprise?5Co?4?0?5Ltd?4?$AA@
	DW	09abH
	ORG $+2
	DD	FLAT:??_C@_0BN@OHPOFJEM@Japan?5Cash?5Machine?5Co?4?0?5Ltd?4?$AA@
	DW	09c2H
	ORG $+2
	DD	FLAT:??_C@_0BC@JHLIIJEE@NISCA?5Corporation?$AA@
	DW	09ccH
	ORG $+2
	DD	FLAT:??_C@_0BE@OJFDPOOK@Workbit?5Corporation?$AA@
	DW	09cfH
	ORG $+2
	DD	FLAT:??_C@_0CD@HNEJNPKP@Electronics?5Testing?5Center?0?5Taiw@
	DW	09d9H
	ORG $+2
	DD	FLAT:??_C@_05KFMIDCBE@Jungo?$AA@
	DW	09daH
	ORG $+2
	DD	FLAT:??_C@_0BG@LAHNEDCJ@A?9FOUR?5TECH?5CO?4?0?5LTD?4?$AA@
	DW	09e5H
	ORG $+2
	DD	FLAT:??_C@_0BL@MPNFCJBM@Jo?9Dan?5International?0?5Inc?4?$AA@
	DW	0a17H
	ORG $+2
	DD	FLAT:??_C@_0BB@HPCCBBBB@HOYA?5Corporation?$AA@
	DW	0a21H
	ORG $+2
	DD	FLAT:??_C@_0BF@EKKNDOHK@Physio?9Control?0?5Inc?4?$AA@
	DW	0a47H
	ORG $+2
	DD	FLAT:??_C@_0BK@IKEGAKKP@Hirose?5Electric?5Co?4?0?5Ltd?4?$AA@
	DW	0a48H
	ORG $+2
	DD	FLAT:??_C@_0BB@KGGFOALP@I?1O?5Interconnect?$AA@
	DW	0a4cH
	ORG $+2
	DD	FLAT:??_C@_0BD@LHJHCFAG@COMPUTEX?5Co?4?0?5Ltd?4?$AA@
	DW	0a50H
	ORG $+2
	DD	FLAT:??_C@_0BN@FBNECLJJ@Mimaki?5Engineering?5Co?4?0?5Ltd?4?$AA@
	DW	0a5cH
	ORG $+2
	DD	FLAT:??_C@_0P@KBOGHGP@Broadcom?5Corp?4?$AA@
	DW	0a6bH
	ORG $+2
	DD	FLAT:??_C@_0BG@IJFMHNNO@Green?5House?5Co?4?0?5Ltd?4?$AA@
	DW	0a7dH
	ORG $+2
	DD	FLAT:??_C@_0O@HDJGGMBN@Intertek?5NSTL?$AA@
	DW	0a81H
	ORG $+2
	DD	FLAT:??_C@_0BJ@JHAHKIDB@CHESEN?5ELECTRONICS?5CORP?4?$AA@
	DW	0a8eH
	ORG $+2
	DD	FLAT:??_C@_0CP@BLIFGEAH@Japan?5Aviation?5Electronics?5Indus@
	DW	0a8fH
	ORG $+2
	DD	FLAT:??_C@_0BF@BPGMFHBM@Young?5Chang?5Co?4?5Ltd?4?$AA@
	DW	0aa7H
	ORG $+2
	DD	FLAT:??_C@_0BM@KFMMGOHA@Wincor?5Nixdorf?5GmbH?5?$CG?5Co?5KG?$AA@
	DW	0ac3H
	ORG $+2
	DD	FLAT:??_C@_0CC@EIBHCLN@SANYO?5Semiconductor?5Company?5Micr@
	DW	0ac8H
	ORG $+2
	DD	FLAT:??_C@_0BE@HMAJKJ@Vimicro?5Corporation?$AA@
	DW	0ae3H
	ORG $+2
	DD	FLAT:??_C@_0BH@CELKNPMM@Allion?5Test?5Labs?0?5Inc?4?$AA@
	DW	0af0H
	ORG $+2
	DD	FLAT:??_C@_09FMCEBPKI@Option?5NV?$AA@
	DW	0b05H
	ORG $+2
	DD	FLAT:??_C@_0BG@HEOGBEPO@ASUSTek?5Computer?5Inc?4?$AA@
	DW	0b1eH
	ORG $+2
	DD	FLAT:??_C@_0CK@PLBMIBK@Electronic?5Warfare?5Associates?0?5I@
	DW	0b21H
	ORG $+2
	DD	FLAT:??_C@_0BO@KKOFHFLP@Yokogawa?5Electric?5Corporation?$AA@
	DW	0b23H
	ORG $+2
	DD	FLAT:??_C@_0BP@IGDJFEE@Pan?9Asia?5Electronics?5Co?4?0?5Ltd?4?$AA@
	DW	0b3cH
	ORG $+2
	DD	FLAT:??_C@_0P@GFHEPPBN@Olivetti?5S?4p?4A?$AA@
	DW	0b4eH
	ORG $+2
	DD	FLAT:??_C@_0BJ@MJIIIHDL@Musical?5Electronics?5Ltd?4?$AA@
	DW	0b54H
	ORG $+2
	DD	FLAT:??_C@_0BN@IGCLCEEO@Sinbon?5Electronics?5Co?4?0?5Ltd?4?$AA@
	DW	0b6aH
	ORG $+2
	DD	FLAT:??_C@_0BK@DICOBJHO@Maxim?5Integrated?5Products?$AA@
	DW	0b95H
	ORG $+2
	DD	FLAT:??_C@_0BN@DBGBIANO@ASIX?5Electronics?5Corporation?$AA@
	DW	0b97H
	ORG $+2
	DD	FLAT:??_C@_0O@PGGKPFEM@O2Micro?0?5Inc?4?$AA@
	DW	0bb4H
	ORG $+2
	DD	FLAT:??_C@_0BA@BLJMPEH@HTC?5Corporation?$AA@
	DW	0bb5H
	ORG $+2
	DD	FLAT:??_C@_0BP@JGDEFBDO@Murata?5Manufacturing?5Co?4?0?5Ltd?4?$AA@
	DW	0bc2H
	ORG $+2
	DD	FLAT:??_C@_0BH@PKPGHPEE@Seagate?5Technology?5LLC?$AA@
	DW	0bdaH
	ORG $+2
	DD	FLAT:??_C@_0BM@OODBLDMG@Realtek?5Semiconductor?5Corp?4?$AA@
	DW	0bdbH
	ORG $+2
	DD	FLAT:??_C@_0M@PBGCMNLB@Ericsson?5AB?$AA@
	DW	0be4H
	ORG $+2
	DD	FLAT:??_C@_0BI@GAPKJOJF@Elka?5International?5Ltd?4?$AA@
	DW	0beeH
	ORG $+2
	DD	FLAT:??_C@_0BK@EBNIPBJG@LTK?5International?5Limited?$AA@
	DW	0c06H
	ORG $+2
	DD	FLAT:??_C@_0N@BIDPCKE@Hasbro?0?5Inc?4?$AA@
	DW	0c0bH
	ORG $+2
	DD	FLAT:??_C@_0BB@BJDBAEPG@Dura?5Micro?0?5Inc?4?$AA@
	DW	0c24H
	ORG $+2
	DD	FLAT:??_C@_0BG@BDCJOHPC@Taiyo?5Yuden?5Co?4?0?5Ltd?4?$AA@
	DW	0c39H
	ORG $+2
	DD	FLAT:??_C@_08EDJBOCE@Aeroflex?$AA@
	DW	0c45H
	ORG $+2
	DD	FLAT:??_C@_0BL@IIBBHDLP@Sonix?5Technology?5Co?4?0?5Ltd?4?$AA@
	DW	0c56H
	ORG $+2
	DD	FLAT:??_C@_0BH@GADMIKAO@Billion?5Bright?5Limited?$AA@
	DW	0c59H
	ORG $+2
	DD	FLAT:??_C@_0CA@KMAKLJKD@Dong?5Guan?5Shinko?5Wire?5Co?4?0?5Ltd?4?$AA@
	DW	0c62H
	ORG $+2
	DD	FLAT:??_C@_0BH@FHGKBINA@Chant?5Sincere?5Co?4?0?5Ltd?$AA@
	DW	0c68H
	ORG $+2
	DD	FLAT:??_C@_0BN@KANEMGNF@Whanam?5Electronics?5Co?4?0?5Ltd?4?$AA@
	DW	0c76H
	ORG $+2
	DD	FLAT:??_C@_0BN@PNHCHLDH@Solid?5State?5System?5Co?4?0?5Ltd?4?$AA@
	DW	0c89H
	ORG $+2
	DD	FLAT:??_C@_0BN@KPNGPOOH@Honda?5Tsushin?5Kogyo?5Co?4?0?5Ltd?$AA@
	DW	0cadH
	ORG $+2
	DD	FLAT:??_C@_0BD@PCKEPBKO@Motorola?5Solutions?$AA@
	DW	0cb7H
	ORG $+2
	DD	FLAT:??_C@_0BO@DKFGFGHA@Singatron?5Enterprise?5Co?4?5Ltd?4?$AA@
	DW	0cc4H
	ORG $+2
	DD	FLAT:??_C@_0BM@NGPEIKDH@emsys?5Embedded?5Systems?5GmbH?$AA@
	DW	0cd9H
	ORG $+2
	DD	FLAT:??_C@_0BE@DLHFEAFK@Shin?5Din?5Cable?5Ltd?4?$AA@
	DW	08086H
	ORG $+2
	DD	FLAT:??_C@_0BC@ECMAKMHG@Intel?5Corporation?$AA@
	DW	0cdeH
	ORG $+2
	DD	FLAT:??_C@_0L@OACAMJJG@Z?9Com?5INC?4?$AA@
	DW	0cf1H
	ORG $+2
	DD	FLAT:??_C@_0BM@OOCFEMN@e?9CONN?5ELECTRONIC?5CO?4?0?5LTD?4?$AA@
	DW	0cf2H
	ORG $+2
	DD	FLAT:??_C@_0BE@KPNEJJKA@ENE?5Technology?5Inc?4?$AA@
	DW	0cf3H
	ORG $+2
	DD	FLAT:??_C@_0BH@IIKDMMBP@Qualcomm?5Atheros?0?5Inc?4?$AA@
	DW	0d17H
	ORG $+2
	DD	FLAT:??_C@_0N@IDKBGBCG@NALTEC?0?5Inc?4?$AA@
	DW	0d19H
	ORG $+2
	DD	FLAT:??_C@_0CD@IJEJHEOO@Shanghai?5Hank?5Connection?5Co?4?0?5Lt@
	DW	0d4aH
	ORG $+2
	DD	FLAT:??_C@_0P@MAHCGCHE@NF?5Corporation?$AA@
	DW	0d4bH
	ORG $+2
	DD	FLAT:??_C@_0BD@KEPOILEK@Grape?5Systems?5Inc?4?$AA@
	DW	0d51H
	ORG $+2
	DD	FLAT:??_C@_0BF@GHDJEHFK@Volex?5?$CIAsia?$CJ?5Pte?5Ltd?$AA@
	DW	0d61H
	ORG $+2
	DD	FLAT:??_C@_0CH@DILBGHLF@MEILU?5ELECTRONICS?5?$CISHENZHEN?$CJ?5CO?4@
	DW	0d71H
	ORG $+2
	DD	FLAT:??_C@_0BH@JNDMIFOJ@Hirakawa?5Hewtech?5Corp?4?$AA@
	DW	0d7cH
	ORG $+2
	DD	FLAT:??_C@_0CF@DEKDBPDL@Taiwan?5Line?5Tek?5Electronic?5Co?4?0?5@
	DW	0d87H
	ORG $+2
	DD	FLAT:??_C@_0BI@BKFMOADO@Dolby?5Laboratories?5Inc?4?$AA@
	DW	0d8cH
	ORG $+2
	DD	FLAT:??_C@_0BJ@ICKBMN@C?9MEDIA?5ELECTRONICS?5INC?4?$AA@
	DW	0d8fH
	ORG $+2
	DD	FLAT:??_C@_0N@ECGNEKML@Pitney?5Bowes?$AA@
	DW	0d90H
	ORG $+2
	DD	FLAT:??_C@_0CB@CBEHKKIA@Sure?9Fire?5Electrical?5Corporation@
	DW	0da7H
	ORG $+2
	DD	FLAT:??_C@_0N@BBFDLJEL@IOGEAR?0?5Inc?4?$AA@
	DW	0db0H
	ORG $+2
	DD	FLAT:??_C@_0CD@LDGCJJON@Micro?9Star?5International?5Co?4?0?5Lt@
	DW	0dc4H
	ORG $+2
	DD	FLAT:??_C@_0O@PIGMBEOG@inXtron?0?5Inc?4?$AA@
	DW	0dc5H
	ORG $+2
	DD	FLAT:??_C@_0N@BBHIMAGO@SDK?5Co?0?5Ltd?4?$AA@
	DW	0dd1H
	ORG $+2
	DD	FLAT:??_C@_0BN@MEJNGPFO@Contek?5Electronics?5Co?4?0?5Ltd?4?$AA@
	DW	0dd2H
	ORG $+2
	DD	FLAT:??_C@_0CH@HKHHADBM@Power?5Quotient?5International?5Co?4@
	DW	0dd4H
	ORG $+2
	DD	FLAT:??_C@_0BH@JAOPMIJP@Custom?5Engineering?5SPA?$AA@
	DW	0e23H
	ORG $+2
	DD	FLAT:??_C@_0BO@MECAJMAF@Liou?5Yuane?5International?5Ltd?4?$AA@
	DW	0e39H
	ORG $+2
	DD	FLAT:??_C@_0CB@BNIAIBOP@Smart?5Modular?5Technologies?0?5Inc?4@
	DW	0e3aH
	ORG $+2
	DD	FLAT:??_C@_0BN@MDHILMJA@Neostar?5Technology?5Co?4?0?5Ltd?4?$AA@
	DW	0e5bH
	ORG $+2
	DD	FLAT:??_C@_0CN@LHINEDL@Union?5Power?5Information?5Industri@
	DW	0e5dH
	ORG $+2
	DD	FLAT:??_C@_0BN@DKLMDFEK@Neltron?5Industrial?5Co?4?0?5Ltd?4?$AA@
	DW	0e6aH
	ORG $+2
	DD	FLAT:??_C@_0BN@PNJNPPHF@Megawin?5Technology?5Co?4?0?5Ltd?4?$AA@
	DW	0e72H
	ORG $+2
	DD	FLAT:??_C@_0BP@FIEIALAE@Hsi?9Chin?5Electronics?5Co?4?0?5Ltd?4?$AA@
	DW	0e8cH
	ORG $+2
	DD	FLAT:??_C@_0BP@BAFJGBFA@Well?5Force?5Electronic?5Co?4?0?5Ltd?$AA@
	DW	0e8dH
	ORG $+2
	DD	FLAT:??_C@_0O@DBHJNIK@MediaTek?5Inc?4?$AA@
	DW	0e9bH
	ORG $+2
	DD	FLAT:??_C@_0BC@PLHJNEDE@ADTEC?5CORPORATION?$AA@
	DW	0ea0H
	ORG $+2
	DD	FLAT:??_C@_0BF@LFNPLID@Ours?5Technology?5Inc?4?$AA@
	DW	0eb2H
	ORG $+2
	DD	FLAT:??_C@_0BJ@FFOINCNP@Y?9S?5ELECTRONIC?5CO?4?0?5LTD?4?$AA@
	DW	0ec2H
	ORG $+2
	DD	FLAT:??_C@_0BJ@EEJFEJAC@Sweetray?5Industrial?5Ltd?4?$AA@
	DW	0ec3H
	ORG $+2
	DD	FLAT:??_C@_0BC@NLMJJEGP@Axell?5Corporation?$AA@
	DW	0ec6H
	ORG $+2
	DD	FLAT:??_C@_0BO@HGLIFDP@InnoVISION?5Multimedia?5Limited?$AA@
	DW	0ecdH
	ORG $+2
	DD	FLAT:??_C@_0BB@FPOIDBI@Lite?9On?5IT?5Corp?4?$AA@
	DW	0ee4H
	ORG $+2
	DD	FLAT:??_C@_0BP@OLFMJOLO@Sunrich?5Technology?5?$CIH?4K?4?$CJ?5Ltd?4?$AA@
	DW	0f08H
	ORG $+2
	DD	FLAT:??_C@_0CE@LHKAEIDJ@CSL?5Wire?5?$CG?5Plug?5?$CIShen?5Zhen?$CJ?5Comp@
	DW	0f2eH
	ORG $+2
	DD	FLAT:??_C@_0BF@HHKPOBJN@Good?5Man?5Corporation?$AA@
	DW	0f32H
	ORG $+2
	DD	FLAT:??_C@_0CA@JKBEBDIB@YFC?9BonEagle?5Electric?5Co?4?0?5Ltd?4?$AA@
	DW	0f4cH
	ORG $+2
	DD	FLAT:??_C@_0BL@PCHAGLHO@WORLDWIDE?5CABLE?5OPTO?5CORP?4?$AA@
	DW	0f52H
	ORG $+2
	DD	FLAT:??_C@_0BO@NDDFJIHH@WING?5KEI?5ELECTRICAL?5CO?4?0?5LTD?4?$AA@
	DW	0f53H
	ORG $+2
	DD	FLAT:??_C@_0CA@JJBCDJBC@Taiyo?5Cable?5?$CIDongguan?$CJ?5Co?4?5Ltd?4?$AA@
	DW	0f54H
	ORG $+2
	DD	FLAT:??_C@_0CJ@GLJCMOOM@Kawai?5Musical?5Instruments?5Mfg?4?5C@
	DW	0f60H
	ORG $+2
	DD	FLAT:??_C@_0DE@KCDILGEE@GuangZhou?5Chief?5Tech?5Electronic?5@
	DW	0f68H
	ORG $+2
	DD	FLAT:??_C@_0BD@CAOPHLDB@TEPCO?5UQUEST?0?5LTD?4?$AA@
	DW	0f69H
	ORG $+2
	DD	FLAT:??_C@_0BD@HLMPAKPJ@DIONEX?5CORPORATION?$AA@
	DW	0f8bH
	ORG $+2
	DD	FLAT:??_C@_0BD@KEDKNNLF@Yazaki?5Corporation?$AA@
	DW	0f97H
	ORG $+2
	DD	FLAT:??_C@_0BD@NPCAKEK@CviLux?5Corporation?$AA@
	DW	0fb8H
	ORG $+2
	DD	FLAT:??_C@_0BE@DKFGOFCL@Wistron?5Corporation?$AA@
	DW	0fbaH
	ORG $+2
	DD	FLAT:??_C@_0CB@KMPGIMLP@SAN?5SHING?5ELECTRONICS?5CO?4?0?5LTD?4?4@
	DW	0fceH
	ORG $+2
	DD	FLAT:??_C@_0CH@JMIKCMLI@Sony?5Ericsson?5Mobile?5Communicati@
	DW	0ff7H
	ORG $+2
	DD	FLAT:??_C@_0CJ@MNOHKIGC@CHI?5SHING?5COMPUTER?5ACCESSORIES?5C@
	DW	01000H
	ORG $+2
	DD	FLAT:??_C@_0BB@FNNKEBO@Speed?5Tech?5Corp?4?$AA@
	DW	01004H
	ORG $+2
	DD	FLAT:??_C@_0BE@PPCAGGEP@LG?5Electronics?5Inc?4?$AA@
	DW	01026H
	ORG $+2
	DD	FLAT:??_C@_0BC@KLMPEDJE@Newly?5Corporation?$AA@
	DW	0102fH
	ORG $+2
	DD	FLAT:??_C@_0CP@MHAOCCHA@WENZHOU?5YIHUA?5COMMUNICATED?5CONNE@
	DW	01038H
	ORG $+2
	DD	FLAT:??_C@_0BA@PMFKJABH@SteelSeries?5ApS?$AA@
	DW	01048H
	ORG $+2
	DD	FLAT:??_C@_0BL@DIDNCHDM@Targus?5Group?5International?$AA@
	DW	01057H
	ORG $+2
	DD	FLAT:??_C@_0BB@MCAPDOMI@ON?5Semiconductor?$AA@
	DW	01058H
	ORG $+2
	DD	FLAT:??_C@_0CD@OEFJDFLG@Western?5Digital?5Technologies?0?5In@
	DW	01059H
	ORG $+2
	DD	FLAT:??_C@_0BJ@HPGECAIP@Giesecke?5?$CG?5Devrient?5GmbH?$AA@
	DW	0105cH
	ORG $+2
	DD	FLAT:??_C@_0DF@EJNCJCJN@Freeway?5Electronic?5Wire?5?$CG?5Cable?5@
	DW	01083H
	ORG $+2
	DD	FLAT:??_C@_0BH@GGINDOFM@CANON?5ELECTRONICS?5INC?4?$AA@
	DW	01084H
	ORG $+2
	DD	FLAT:??_C@_0BC@JLIOEOBP@PANTECH?5CO?4?0?5LTD?4?$AA@
	DW	0108bH
	ORG $+2
	DD	FLAT:??_C@_0BP@HEECLKMJ@Grand?9tek?5Technology?5Co?4?0?5Ltd?4?$AA@
	DW	0108cH
	ORG $+2
	DD	FLAT:??_C@_0BC@MMEHCLPH@Robert?5Bosch?5GmbH?$AA@
	DW	0108eH
	ORG $+2
	DD	FLAT:??_C@_0BA@JBGEKCBJ@Lotes?5Co?4?0?5Ltd?4?$AA@
	DW	010aaH
	ORG $+2
	DD	FLAT:??_C@_0N@MADBCNBC@Cables?5To?5Go?$AA@
	DW	010abH
	ORG $+2
	DD	FLAT:??_C@_0O@DKGHEGPO@USI?5Co?4?0?5Ltd?4?$AA@
	DW	010aeH
	ORG $+2
	DD	FLAT:??_C@_0BL@GMIJPDAF@Princeton?5Technology?5Corp?4?$AA@
	DW	010bbH
	ORG $+2
	DD	FLAT:??_C@_0BD@BNHNDFDJ@TM?5Technology?5Inc?4?$AA@
	DW	010cdH
	ORG $+2
	DD	FLAT:??_C@_0L@BEMBIFEP@Kycon?5Inc?4?$AA@
	DW	010d6H
	ORG $+2
	DD	FLAT:??_C@_0CA@BFJDJKMK@Actions?5Semiconductor?5Co?4?0?5Ltd?4?$AA@
	DW	01112H
	ORG $+2
	DD	FLAT:??_C@_0DF@NDHMOMGK@Golden?5Bright?5?$CISichuan?$CJ?5Electron@
	DW	01113H
	ORG $+2
	DD	FLAT:??_C@_09JKLIJNKN@Medion?5AG?$AA@
	DW	0111eH
	ORG $+2
	DD	FLAT:??_C@_0BK@DEMMBJPB@VSO?5ELECTRONICS?5CO?4?0?5LTD?4?$AA@
	DW	0112eH
	ORG $+2
	DD	FLAT:??_C@_0CO@HLACDLIC@Master?5Hill?5Electric?5Wire?5and?5Ca@
	DW	01130H
	ORG $+2
	DD	FLAT:??_C@_0BG@JFAAFJPO@Tenx?5Technology?0?5Inc?4?$AA@
	DW	01146H
	ORG $+2
	DD	FLAT:??_C@_0CB@BPPANFMB@Shimane?5SANYO?5Electric?5Co?4?0?5Ltd?4@
	DW	0114dH
	ORG $+2
	DD	FLAT:??_C@_0BP@NKCLDENL@Alpha?5Imaging?5Technology?5Corp?4?$AA@
	DW	0115bH
	ORG $+2
	DD	FLAT:??_C@_0BL@HCIAKFOP@Salix?5Technology?5Co?4?0?5Ltd?4?$AA@
	DW	01175H
	ORG $+2
	DD	FLAT:??_C@_0CB@BGNNABKD@Sheng?5Yih?5Technologies?5Co?4?0?5Ltd?4@
	DW	01199H
	ORG $+2
	DD	FLAT:??_C@_0BF@FDIEEFFD@Sierra?5Wireless?5Inc?4?$AA@
	DW	0119aH
	ORG $+2
	DD	FLAT:??_C@_0CG@JCFADKIE@DONG?5GUAN?5JALINK?5ELECTRONICES?5CO@
	DW	011aaH
	ORG $+2
	DD	FLAT:??_C@_0BH@LNLMLHPJ@GlobalMedia?5Group?0?5LLC?$AA@
	DW	011b0H
	ORG $+2
	DD	FLAT:??_C@_0BH@HFAICOFB@ATECH?5FLASH?5TECHNOLOGY?$AA@
	DW	011e6H
	ORG $+2
	DD	FLAT:??_C@_0BJ@GJMOHKID@K?4I?4?5Technology?5Co?4?5Ltd?4?$AA@
	DW	0120eH
	ORG $+2
	DD	FLAT:??_C@_0BG@MJAIIBOP@HUDSON?5SOFT?5CO?4?0?5LTD?4?$AA@
	DW	01223H
	ORG $+2
	DD	FLAT:??_C@_0BP@DHPBBMCB@SKYCABLE?5ENTERPRISE?4?5CO?4?0?5LTD?4?$AA@
	DW	0124bH
	ORG $+2
	DD	FLAT:??_C@_0BI@KKGDFIOD@NYKO?5Technologies?0?5Inc?4?$AA@
	DW	0125fH
	ORG $+2
	DD	FLAT:??_C@_0BL@FCGNNKPJ@ADATA?5Technology?5Co?4?0?5Ltd?4?$AA@
	DW	01262H
	ORG $+2
	DD	FLAT:??_C@_0BH@CNPFBGCM@MICRO?5VISION?5CO?4?0?5LTD?4?$AA@
	DW	0126cH
	ORG $+2
	DD	FLAT:??_C@_0BI@BANJHMOB@Aristocrat?5Technologies?$AA@
	DW	0126dH
	ORG $+2
	DD	FLAT:??_C@_0M@HPCCHOFJ@Bel?5Stewart?$AA@
	DW	01281H
	ORG $+2
	DD	FLAT:??_C@_0BO@EMLGGAIJ@Gean?5Sen?5Electronic?5Co?4?0?5Ltd?4?$AA@
	DW	01286H
	ORG $+2
	DD	FLAT:??_C@_0BM@FDHCJPEM@MARVELL?5SEMICONDUCTOR?0?5INC?4?$AA@
	DW	01294H
	ORG $+2
	DD	FLAT:??_C@_0BC@CDINJBKA@RISO?5KAGAKU?5CORP?4?$AA@
	DW	012abH
	ORG $+2
	DD	FLAT:??_C@_0CI@LMINHIGA@Honey?5Bee?5Electronic?5Internation@
	DW	012b8H
	ORG $+2
	DD	FLAT:??_C@_0CP@OPCIAOPO@Zhejiang?5Xinya?5Electronic?5Techno@
	DW	012d2H
	ORG $+2
	DD	FLAT:??_C@_0BP@JPNNFCKE@LINE?5TECH?5INDUSTRIAL?5CO?4?0?5LTD?4?$AA@
	DW	012d7H
	ORG $+2
	DD	FLAT:??_C@_0BN@DKNOJINI@Better?5Holdings?5?$CIHK?$CJ?5Limited?$AA@
	DW	0132bH
	ORG $+2
	DD	FLAT:??_C@_0BO@KIELHJB@Konica?5Minolta?5Holdings?0?5Inc?4?$AA@
	DW	01348H
	ORG $+2
	DD	FLAT:??_C@_0BP@ODBMNHOP@Katsuragawa?5Electric?5Co?4?0?5Ltd?4?$AA@
	DW	01370H
	ORG $+2
	DD	FLAT:??_C@_0M@IPAHGEJP@Swissbit?5AG?$AA@
	DW	0137dH
	ORG $+2
	DD	FLAT:??_C@_0BM@DKMEKHIM@Pericom?5Semiconductor?5Corp?4?$AA@
	DW	01390H
	ORG $+2
	DD	FLAT:??_C@_0BK@LJKDAPJK@TomTom?5International?5B?4V?4?$AA@
	DW	013caH
	ORG $+2
	DD	FLAT:??_C@_0CG@BGIJPEKA@JyeTai?5Precision?5Industrial?5Co?4?0@
	DW	013cfH
	ORG $+2
	DD	FLAT:??_C@_0M@DPEOBOCF@Wisair?5Ltd?4?$AA@
	DW	013d3H
	ORG $+2
	DD	FLAT:??_C@_0BN@BNPLLCII@AzureWave?5Technologies?0?5Inc?4?$AA@
	DW	013dcH
	ORG $+2
	DD	FLAT:??_C@_0O@EADKLFFK@ALEREON?0?5INC?4?$AA@
	DW	013fdH
	ORG $+2
	DD	FLAT:??_C@_0BD@MJPGJJIB@Initio?5Corporation?$AA@
	DW	013feH
	ORG $+2
	DD	FLAT:??_C@_0BJ@PODMPDKE@Phison?5Electronics?5Corp?4?$AA@
	DW	0140eH
	ORG $+2
	DD	FLAT:??_C@_0BA@EBAJJPHC@Telechips?0?5Inc?4?$AA@
	DW	01410H
	ORG $+2
	DD	FLAT:??_C@_0BH@BHONNEDH@Novatel?5Wireless?0?5Inc?4?$AA@
	DW	01419H
	ORG $+2
	DD	FLAT:??_C@_0BN@KECIKNAF@ABILITY?5ENTERPRISE?5CO?4?0?5LTD?4?$AA@
	DW	01421H
	ORG $+2
	DD	FLAT:??_C@_0CC@KOGJPFE@Sensor?5Technologies?5America?0?5Inc@
	DW	01429H
	ORG $+2
	DD	FLAT:??_C@_0CL@DCCPGNCP@Vega?5Technologies?5Industrial?5?$CIAu@
	DW	01439H
	ORG $+2
	DD	FLAT:??_C@_0BI@EBFAHIJA@Wind?5River?5Systems?5Inc?4?$AA@
	DW	0143cH
	ORG $+2
	DD	FLAT:??_C@_0BC@OEGADIHN@Altek?5Corporation?$AA@
	DW	0147aH
	ORG $+2
	DD	FLAT:??_C@_0P@OCKHDMGO@Formosa21?5Inc?4?$AA@
	DW	01487H
	ORG $+2
	DD	FLAT:??_C@_0BA@EJBEDMD@DSP?5Group?0?5Ltd?4?$AA@
	DW	0148eH
	ORG $+2
	DD	FLAT:??_C@_0N@JLOFKNJM@EVATRONIX?5SA?$AA@
	DW	014adH
	ORG $+2
	DD	FLAT:??_C@_0BA@GIDLPKMM@CTK?5Corporation?$AA@
	DW	014afH
	ORG $+2
	DD	FLAT:??_C@_0BF@POKLDLPA@ATP?5Electronics?5Inc?4?$AA@
	DW	014b0H
	ORG $+2
	DD	FLAT:??_C@_0BC@LNFIEHCE@StarTech?4com?5Ltd?4?$AA@
	DW	014cdH
	ORG $+2
	DD	FLAT:??_C@_0BN@OBOFFJMJ@MOAI?5ELECTRONICS?5CORPORATION?$AA@
	DW	01500H
	ORG $+2
	DD	FLAT:??_C@_07HKBKGGAL@Ellisys?$AA@
	DW	01516H
	ORG $+2
	DD	FLAT:??_C@_0BE@MEIKBKHJ@Skymedi?5Corporation?$AA@
	DW	0151cH
	ORG $+2
	DD	FLAT:??_C@_0BP@NFMNNPJJ@VeriSilicon?5Holdings?5Co?4?0?5Ltd?4?$AA@
	DW	0152dH
	ORG $+2
	DD	FLAT:??_C@_0BJ@NNBEAIKI@JMicron?5Technology?5Corp?4?$AA@
	DW	0152eH
	ORG $+2
	DD	FLAT:??_C@_0CF@KFFNHPKK@HLDS?5?$CIHitachi?9LG?5Data?5Storage?0?5I@
	DW	01540H
	ORG $+2
	DD	FLAT:??_C@_0BN@PJAMMHJM@Phihong?5Technology?5Co?4?0?5Ltd?4?$AA@
	DW	0154bH
	ORG $+2
	DD	FLAT:??_C@_0BG@FDFFBPKH@PNY?5Technologies?5Inc?4?$AA@
	DW	0154dH
	ORG $+2
	DD	FLAT:??_C@_0CI@PJGLCGBH@Rapid?5Conn?0?5Connect?5County?5Holdi@
	DW	0154eH
	ORG $+2
	DD	FLAT:??_C@_0BF@KCLHJFIN@D?5?$CG?5M?5Holdings?0?5Inc?4?$AA@
	DW	01568H
	ORG $+2
	DD	FLAT:??_C@_0BM@MLLCLJKN@Sunf?5Pu?5Technology?5Co?4?0?5Ltd?$AA@
	DW	01570H
	ORG $+2
	DD	FLAT:??_C@_0BM@PJFBNPPK@ALLTOP?5TECHNOLOGY?5CO?4?0?5LTD?4?$AA@
	DW	0157bH
	ORG $+2
	DD	FLAT:??_C@_0L@HBGIDMAB@Ketron?5SRL?$AA@
	DW	01586H
	ORG $+2
	DD	FLAT:??_C@_0BN@MGGPMLNL@Palconn?5Technology?5Co?4?0?5Ltd?4?$AA@
	DW	01598H
	ORG $+2
	DD	FLAT:??_C@_0CE@PGJPGLLG@Kunshan?5Guoji?5Electronics?5Co?4?0?5L@
	DW	015a2H
	ORG $+2
	DD	FLAT:??_C@_0BO@KPCEMMAE@Freescale?5Semiconductor?0?5Inc?4?$AA@
	DW	015a8H
	ORG $+2
	DD	FLAT:??_C@_0CL@HBACFJJO@Shen?5Zhen?5Teamspower?5Electronics@
	DW	015aaH
	ORG $+2
	DD	FLAT:??_C@_0CI@HNEJDFII@Hong?5Kong?5Gearway?5Electronics?5Co@
	DW	015c9H
	ORG $+2
	DD	FLAT:??_C@_0BD@GIDCGAKL@D?9Box?5Technologies?$AA@
	DW	015e0H
	ORG $+2
	DD	FLAT:??_C@_0BO@FIJNAGLJ@Seong?5Ji?5Industrial?5Co?4?0?5Ltd?4?$AA@
	DW	0160dH
	ORG $+2
	DD	FLAT:??_C@_06DGDFLKMM@Samtec?$AA@
	DW	01612H
	ORG $+2
	DD	FLAT:??_C@_0N@GNFMIBKN@Soft?5DB?5Inc?4?$AA@
	DW	0163eH
	ORG $+2
	DD	FLAT:??_C@_0BO@CCKIBDCK@HongLin?5Electronics?5Co?4?0?5Ltd?4?$AA@
	DW	01660H
	ORG $+2
	DD	FLAT:??_C@_0BH@OFEECAGA@Creatix?5Polymedia?5GmbH?$AA@
	DW	01679H
	ORG $+2
	DD	FLAT:??_C@_0M@OMFDOLIG@Total?5Phase?$AA@
	DW	01682H
	ORG $+2
	DD	FLAT:??_C@_0CD@NDNOFCGN@Maxwise?5Production?5Enterprise?5Lt@
	DW	016a5H
	ORG $+2
	DD	FLAT:??_C@_0CI@LPNLCPKP@Shenzhen?5Zhengerya?5Technology?5Co@
	DW	016acH
	ORG $+2
	DD	FLAT:??_C@_0CK@GHEMOGNO@Dongguan?5ChingLung?5Wire?5?$CG?5Cable?5@
	DW	016ccH
	ORG $+2
	DD	FLAT:??_C@_0BH@EKGKEMKL@silex?5technology?0?5Inc?4?$AA@
	DW	01736H
	ORG $+2
	DD	FLAT:??_C@_0BL@MBCLBNK@CANON?5IMAGING?5SYSTEMS?5INC?4?$AA@
	DW	0173aH
	ORG $+2
	DD	FLAT:??_C@_0BC@LFEKPOAD@Roche?5Diagnostics?$AA@
	DW	01748H
	ORG $+2
	DD	FLAT:??_C@_0BF@BACBMICM@MQP?5Electronics?5Ltd?4?$AA@
	DW	0174cH
	ORG $+2
	DD	FLAT:??_C@_0BI@EFCFBFPB@ASMedia?5Technology?5Inc?4?$AA@
	DW	01759H
	ORG $+2
	DD	FLAT:??_C@_0BL@PGPGIHGN@LucidPort?5Technology?0?5Inc?4?$AA@
	DW	0176eH
	ORG $+2
	DD	FLAT:??_C@_0BE@LLHADAIP@UD?5electronic?5corp?4?$AA@
	DW	01771H
	ORG $+2
	DD	FLAT:??_C@_0CC@KBPLCNPO@Shenzhen?5Alex?5Connector?5Co?4?0?5Ltd@
	DW	01772H
	ORG $+2
	DD	FLAT:??_C@_0BN@MGLGHCII@System?5Level?5Solutions?0?5Inc?4?$AA@
	DW	01782H
	ORG $+2
	DD	FLAT:??_C@_0BP@PDCKJENN@Spreadtrum?5Communications?5Inc?4?$AA@
	DW	01788H
	ORG $+2
	DD	FLAT:??_C@_0CH@GLPFKNO@ShenZhen?5Litkconn?5Technology?5Co?4@
	DW	01796H
	ORG $+2
	DD	FLAT:??_C@_0P@PAIKKKPL@Printrex?0?5Inc?4?$AA@
	DW	017a5H
	ORG $+2
	DD	FLAT:??_C@_0CE@FMNDGFCO@Advanced?5Connection?5Technology?5I@
	DW	017beH
	ORG $+2
	DD	FLAT:??_C@_0DI@IPLEGMCC@Dongguan?5Yangming?5Precision?5of?5P@
	DW	017cfH
	ORG $+2
	DD	FLAT:??_C@_0CA@FKGCAAGK@Hip?5Hing?5Cable?5?$CG?5Plug?5Mfy?4?5Ltd?4?$AA@
	DW	017e1H
	ORG $+2
	DD	FLAT:??_C@_08FCLKDPPD@ORTHOFIX?$AA@
	DW	017e9H
	ORG $+2
	DD	FLAT:??_C@_0BG@PLILAAEO@DisplayLink?5?$CIUK?$CJ?5Ltd?4?$AA@
	DW	017efH
	ORG $+2
	DD	FLAT:??_C@_06EOFPOMJG@Lenovo?$AA@
	DW	017f5H
	ORG $+2
	DD	FLAT:??_C@_0L@IGMLMAAK@K?4K?4?5Rocky?$AA@
	DW	01829H
	ORG $+2
	DD	FLAT:??_C@_0CF@KAKIFJIN@Dongguan?5YuQiu?5Electronics?5Co?4?0?5@
	DW	01831H
	ORG $+2
	DD	FLAT:??_C@_0BO@DPMJHMBK@Gwo?5Jinn?5Industries?5Co?4?0?5Ltd?4?$AA@
	DW	01898H
	ORG $+2
	DD	FLAT:??_C@_0BI@EGKCPMHF@Summit?5Microelectronics?$AA@
	DW	01899H
	ORG $+2
	DD	FLAT:??_C@_0BC@HBKKPCPF@Linkiss?5Co?4?0?5Ltd?4?$AA@
	DW	0189bH
	ORG $+2
	DD	FLAT:??_C@_0BN@LHNKNBIM@Trimax?5Electronics?5Co?4?0?5Ltd?4?$AA@
	DW	018d1H
	ORG $+2
	DD	FLAT:??_C@_0M@INPJKDFM@Google?5Inc?4?$AA@
	DW	018e3H
	ORG $+2
	DD	FLAT:??_C@_0CF@DABKNPLD@Fitilink?5Integrated?5Technology?0?5@
	DW	018faH
	ORG $+2
	DD	FLAT:??_C@_0CI@NCCLCDI@Kuang?5Ying?5Computer?5Equipment?5Co@
	DW	018fdH
	ORG $+2
	DD	FLAT:??_C@_0O@HPIJIONJ@FineArch?5Inc?4?$AA@
	DW	01914H
	ORG $+2
	DD	FLAT:??_C@_0BN@LFCPLAAL@Alco?5Digital?5Devices?5Limited?$AA@
	DW	01915H
	ORG $+2
	DD	FLAT:??_C@_0BJ@FNMFPLIK@Nordic?5Semiconductor?5ASA?$AA@
	DW	0192fH
	ORG $+2
	DD	FLAT:??_C@_0BJ@CDJNPBB@Avago?5Technologies?0?5Pte?4?$AA@
	DW	01930H
	ORG $+2
	DD	FLAT:??_C@_0CF@NLNPHLHC@Shenzhen?5Xianhe?5Technology?5Co?4?0?5@
	DW	01931H
	ORG $+2
	DD	FLAT:??_C@_0CJ@FJMLIAEB@Ningbo?5Broad?5Telecommunication?5C@
	DW	01946H
	ORG $+2
	DD	FLAT:??_C@_0BB@PCAKKDFD@Irisguard?5UK?5Ltd?$AA@
	DW	01949H
	ORG $+2
	DD	FLAT:??_C@_06CHAGPIBB@Lab126?$AA@
	DW	01953H
	ORG $+2
	DD	FLAT:??_C@_0N@PJANIMFN@Ironkey?5Inc?4?$AA@
	DW	01957H
	ORG $+2
	DD	FLAT:??_C@_0BB@PPNLBENA@BIOS?5Corporation?$AA@
	DW	01958H
	ORG $+2
	DD	FLAT:??_C@_0BD@JFCNKMCG@Office?5Depot?0?5Inc?4?$AA@
	DW	01989H
	ORG $+2
	DD	FLAT:??_C@_0BI@EPIBIIDM@Nuconn?5Technology?5Corp?4?$AA@
	DW	0198dH
	ORG $+2
	DD	FLAT:??_C@_0BC@JJOAHPPC@Fairchild?5Imaging?$AA@
	DW	0199cH
	ORG $+2
	DD	FLAT:??_C@_0CF@CFPPMAFK@Richnex?5Microelectronics?5Corpora@
	DW	0199dH
	ORG $+2
	DD	FLAT:??_C@_06FFDCAGEL@Dexxon?$AA@
	DW	019d2H
	ORG $+2
	DD	FLAT:??_C@_0BA@JIPMJPAM@ZTE?5Corporation?$AA@
	DW	019e8H
	ORG $+2
	DD	FLAT:??_C@_0CJ@HAKCLNCA@Industrial?5Technology?5Research?5I@
	DW	019ffH
	ORG $+2
	DD	FLAT:??_C@_08GALBDMNI@Best?5Buy?$AA@
	DW	01a0aH
	ORG $+2
	DD	FLAT:??_C@_0BE@BIONMJOM@USB?9IF?5non?9workshop?$AA@
	DW	01a25H
	ORG $+2
	DD	FLAT:??_C@_0BI@PPNCKFLJ@Amphenol?5East?5Asia?5Ltd?4?$AA@
	DW	01a35H
	ORG $+2
	DD	FLAT:??_C@_0DB@NGACLDBO@Astec?5Power?0?5a?5division?5of?5Emers@
	DW	01a36H
	ORG $+2
	DD	FLAT:??_C@_0BG@DLODCOOG@Biwin?5Technology?5Ltd?4?$AA@
	DW	01a40H
	ORG $+2
	DD	FLAT:??_C@_0BJ@KAKHDDLA@TERMINUS?5TECHNOLOGY?5INC?4?$AA@
	DW	01a4aH
	ORG $+2
	DD	FLAT:??_C@_0O@NGCCHBJG@Silicon?5Image?$AA@
	DW	01a5aH
	ORG $+2
	DD	FLAT:??_C@_0O@IHDBJOFK@Tandberg?5Data?$AA@
	DW	01a6eH
	ORG $+2
	DD	FLAT:??_C@_0BF@IBCFPAGK@Global?5Unichip?5Corp?4?$AA@
	DW	01a79H
	ORG $+2
	DD	FLAT:??_C@_0BG@IOFCBCHK@Bayer?5Health?5Care?5LLC?$AA@
	DW	01a7bH
	ORG $+2
	DD	FLAT:??_C@_0BF@HMENCDPO@Lumberg?5Connect?5GmbH?$AA@
	DW	01a82H
	ORG $+2
	DD	FLAT:??_C@_0BN@GMHKDAOP@Proconn?5Technology?5Co?4?0?5Ltd?4?$AA@
	DW	01a8aH
	ORG $+2
	DD	FLAT:??_C@_0BH@HJFKHBGL@Simula?5Technology?5Inc?4?$AA@
	DW	01a8bH
	ORG $+2
	DD	FLAT:??_C@_0BA@KBMPMKDN@SGS?5Taiwan?5Ltd?4?$AA@
	DW	01aaeH
	ORG $+2
	DD	FLAT:??_C@_0CJ@EENODCNA@Johnson?5Component?5?$CG?5Equipments?5C@
	DW	01acbH
	ORG $+2
	DD	FLAT:??_C@_0M@BNPJBJHO@Salcomp?5Plc?$AA@
	DW	01ad1H
	ORG $+2
	DD	FLAT:??_C@_0BF@FJNJCEIJ@Desan?5Wire?5Co?4?0?5Ltd?4?$AA@
	DW	01aedH
	ORG $+2
	DD	FLAT:??_C@_0CI@ENEIOO@High?5Top?5Precision?5Electronic?5Co@
	DW	01aeeH
	ORG $+2
	DD	FLAT:??_C@_0CD@KCEJLGKF@SHEN?5ZHEN?5REX?5TECHNOLOGY?5CO?4?0?5LT@
	DW	01aefH
	ORG $+2
	DD	FLAT:??_C@_0BI@BAHHJBOM@Octekconn?5Incorporation?$AA@
	DW	01b20H
	ORG $+2
	DD	FLAT:??_C@_0BK@FLEFAHEK@MStar?5Semiconductor?0?5Inc?4?$AA@
	DW	01b36H
	ORG $+2
	DD	FLAT:??_C@_0BD@DPNOIOGL@ViXS?5Systems?0?5Inc?4?$AA@
	DW	01b48H
	ORG $+2
	DD	FLAT:??_C@_0BN@ODKKJGBD@Plastron?5Precision?5Co?4?0?5Ltd?4?$AA@
	DW	01b65H
	ORG $+2
	DD	FLAT:??_C@_0DA@EOOOBNLE@The?5Hong?5Kong?5Standards?5and?5Test@
	DW	01b88H
	ORG $+2
	DD	FLAT:??_C@_0CI@GNFBMNPP@ShenMing?5Electron?5?$CIDong?5Guan?$CJ?5Co@
	DW	01b8eH
	ORG $+2
	DD	FLAT:??_C@_0O@IPLHGMF@Amlogic?0?5Inc?4?$AA@
	DW	01b8fH
	ORG $+2
	DD	FLAT:??_C@_0BO@MCHPBGAI@Super?5Talent?5Technology?0?5Inc?4?$AA@
	DW	01b99H
	ORG $+2
	DD	FLAT:??_C@_0BO@IHCMPCEB@Shenzhen?5Yuanchuan?5Electronic?$AA@
	DW	01bc4H
	ORG $+2
	DD	FLAT:??_C@_0P@JGHIOJAI@Ford?5Motor?5Co?4?$AA@
	DW	01bceH
	ORG $+2
	DD	FLAT:??_C@_0CA@FCJOHAEE@Contac?5Cable?5Industrial?5Limited?$AA@
	DW	01bcfH
	ORG $+2
	DD	FLAT:??_C@_0CD@HFOIMFJ@Sunplus?5Innovation?5Technology?5In@
	DW	01bf6H
	ORG $+2
	DD	FLAT:??_C@_0CH@KIMIGBPK@Orient?5Semiconductor?5Electronics@
	DW	01c10H
	ORG $+2
	DD	FLAT:??_C@_0BO@IHAPHGGJ@Lanterra?5Industrial?5Co?4?0?5Ltd?4?$AA@
	DW	01c27H
	ORG $+2
	DD	FLAT:??_C@_0CA@MAOFGAIM@SHENZHEN?5D?$CGS?5INDUSTRIES?5LIMITED?$AA@
	DW	01c31H
	ORG $+2
	DD	FLAT:??_C@_08PDBDCLGF@LS?5Mtron?$AA@
	DW	01c6bH
	ORG $+2
	DD	FLAT:??_C@_0DA@PPLCBMMB@Philips?5?$CG?5Lite?9ON?5Digital?5Soluti@
	DW	01c77H
	ORG $+2
	DD	FLAT:??_C@_0BM@KDIOKGMF@Kaetat?5Industrial?5Co?4?0?5Ltd?4?$AA@
	DW	01c78H
	ORG $+2
	DD	FLAT:??_C@_0BF@DNKPBOCD@Mindray?5DS?5USA?0?5Inc?4?$AA@
	DW	01c7aH
	ORG $+2
	DD	FLAT:??_C@_0BG@IEKIELLN@Egis?5Technology?0?5Inc?4?$AA@
	DW	01c7bH
	ORG $+2
	DD	FLAT:??_C@_0CP@DAEKMFBI@Shenzhen?5Luxshare?5Precision?5Indu@
	DW	01c8eH
	ORG $+2
	DD	FLAT:??_C@_0BL@NCJEDCIM@ASTRON?5INTERNATIONAL?5CORP?4?$AA@
	DW	01c98H
	ORG $+2
	DD	FLAT:??_C@_0BJ@GEGPHPDK@ALPINE?5ELECTRONICS?0?5INC?4?$AA@
	DW	01cb3H
	ORG $+2
	DD	FLAT:??_C@_0BL@CHCFPHFA@Aces?5Electronics?5Co?4?0?5Ltd?4?$AA@
	DW	01cb4H
	ORG $+2
	DD	FLAT:??_C@_0BB@EIGDHDFJ@OPEX?5CORPORATION?$AA@
	DW	01cbeH
	ORG $+2
	DD	FLAT:??_C@_0BO@JLIFAMG@Texas?5Instruments?5?9?5Stellaris?$AA@
	DW	01cdeH
	ORG $+2
	DD	FLAT:??_C@_0DA@BKKOBFJG@Telecommunications?5Technology?5As@
	DW	01ce1H
	ORG $+2
	DD	FLAT:??_C@_0N@LKKAKDAC@Amphenol?5KAE?$AA@
	DW	01d08H
	ORG $+2
	DD	FLAT:??_C@_0CL@OJLMBANN@NINGBO?5HENTEK?5DRAGON?5ELECTRONICS@
	DW	01d0aH
	ORG $+2
	DD	FLAT:??_C@_0BH@GIIFDIFG@Johnson?5Controls?0?5Inc?4?$AA@
	DW	01d29H
	ORG $+2
	DD	FLAT:??_C@_0CA@GDMPIAIK@Horng?5Tong?5Enterprise?5Co?4?0?5Ltd?4?$AA@
	DW	01d42H
	ORG $+2
	DD	FLAT:??_C@_0BD@JJOGFDJ@DRAGON?5JOY?5LIMITED?$AA@
	DW	01d43H
	ORG $+2
	DD	FLAT:??_C@_0BJ@IKAGMPGB@Montage?5Technology?0?5Inc?4?$AA@
	DW	01d45H
	ORG $+2
	DD	FLAT:??_C@_0BC@KIFIHBOP@Qisda?5Corporation?$AA@
	DW	01d49H
	ORG $+2
	DD	FLAT:??_C@_0CI@PCPBKJFB@SHENZHEN?5LINKCONN?5ELECTRONICS?5CO@
	DW	01d4dH
	ORG $+2
	DD	FLAT:??_C@_0BF@EEHMEIJP@Pegatron?5Corporation?$AA@
	DW	01d5cH
	ORG $+2
	DD	FLAT:??_C@_0BC@HAMMCKPN@Fresco?5Logic?5Inc?4?$AA@
	DW	01d5dH
	ORG $+2
	DD	FLAT:??_C@_0BL@MMCBELAO@QIXING?5INDUSTRIAL?5?$CIHK?$CJ?5CO?4?$AA@
	DW	01d60H
	ORG $+2
	DD	FLAT:??_C@_0BN@EBGBPGPI@ASAP?5International?5Co?4?0?5Ltd?4?$AA@
	DW	01d69H
	ORG $+2
	DD	FLAT:??_C@_0BL@NKBOOFNF@Walta?5Electronic?5Co?4?0?5Ltd?4?$AA@
	DW	01d6bH
	ORG $+2
	DD	FLAT:??_C@_0BF@JDCHKKGB@The?5Linux?5Foundation?$AA@
	DW	01d77H
	ORG $+2
	DD	FLAT:??_C@_0DE@IMGLKMI@Yueqing?5Changling?5Electronic?5Ins@
	DW	01d79H
	ORG $+2
	DD	FLAT:??_C@_0CH@EKHHMHEC@Shenzhen?5My?9Power?5Technology?5Co?4@
	DW	01d80H
	ORG $+2
	DD	FLAT:??_C@_04EOPNHLPE@PLDA?$AA@
	DW	01da0H
	ORG $+2
	DD	FLAT:??_C@_0BK@FNCNBIIF@Parade?5Technologies?0?5Inc?4?$AA@
	DW	01dbeH
	ORG $+2
	DD	FLAT:??_C@_0BD@GCMMCDEJ@S?4R?4N?4?5Corporation?$AA@
	DW	01dccH
	ORG $+2
	DD	FLAT:??_C@_0CE@EGHGGAJG@Document?5Capture?5Technologies?0?5I@
	DW	01dd8H
	ORG $+2
	DD	FLAT:??_C@_0BL@NACGMHGM@BUFFALO?5KOKUYO?5SUPPLY?5INC?4?$AA@
	DW	01ddfH
	ORG $+2
	DD	FLAT:??_C@_0BH@NMLKIBDM@GDA?5Technologies?0?5Inc?4?$AA@
	DW	01df2H
	ORG $+2
	DD	FLAT:??_C@_0CK@INFLCDIC@Telecommunication?5Metrology?5Cent@
	DW	01e08H
	ORG $+2
	DD	FLAT:??_C@_0BA@FHOGIFBC@Inventure?0?5Inc?4?$AA@
	DW	01e10H
	ORG $+2
	DD	FLAT:??_C@_0BJ@FEMBFAJG@Point?5Grey?5Research?5Inc?4?$AA@
	DW	01e33H
	ORG $+2
	DD	FLAT:??_C@_0BD@LIIMMKIN@KOBIAN?5CANADA?5INC?4?$AA@
	DW	01e3aH
	ORG $+2
	DD	FLAT:??_C@_0CE@BIOHJJL@Continental?5Automotive?5Systems?5I@
	DW	01e47H
	ORG $+2
	DD	FLAT:??_C@_0CB@BKOLJNN@HUNG?5TA?5H?4T?4ENTERPRISE?5CO?4?0?5LTD?4@
	DW	01e4eH
	ORG $+2
	DD	FLAT:??_C@_0BH@JAAJJDAF@Etron?5Technology?0?5Inc?4?$AA@
	DW	01e6dH
	ORG $+2
	DD	FLAT:??_C@_0CF@GIBECCII@WAN?5SHIH?5ELECTRONIC?5?$CIH?4K?4?$CJ?5CO?4?0?5@
	DW	01e73H
	ORG $+2
	DD	FLAT:??_C@_0BO@OPAJPFGF@COMLINK?5ELECTRONICS?5CO?4?0?5LTD?4?$AA@
	DW	01e89H
	ORG $+2
	DD	FLAT:??_C@_0DA@GFKEDMJF@Vtion?5Information?5Technology?5?$CIFu@
	DW	01ea3H
	ORG $+2
	DD	FLAT:??_C@_0BL@BINCEHIC@Concraft?5Holding?5Co?4?0?5Ltd?4?$AA@
	DW	01eb7H
	ORG $+2
	DD	FLAT:??_C@_0CH@IFPLLPOK@WIN?5WIN?5PRECISION?5INDUSTRIAL?5CO?4@
	DW	01ec9H
	ORG $+2
	DD	FLAT:??_C@_0BJ@IADLJBAM@MOSER?5BAER?5INDIA?5LIMITED?$AA@
	DW	01ed4H
	ORG $+2
	DD	FLAT:??_C@_0BJ@HDEECJAH@Transwitch?5?$CIIsrael?$CJ?5Ltd?4?$AA@
	DW	01f1dH
	ORG $+2
	DD	FLAT:??_C@_0DC@MLCJGJKA@How?5Weih?5Precision?5Technology?5?$CIS@
	DW	01f20H
	ORG $+2
	DD	FLAT:??_C@_0CG@BIKNKPGD@Shenzhen?5Tenwei?5Electronics?5Co?4?0@
	DW	01f28H
	ORG $+2
	DD	FLAT:??_C@_0CG@LKIHKKAD@Cal?9Comp?5Electronics?5?$CG?5Communica@
	DW	01f29H
	ORG $+2
	DD	FLAT:??_C@_0BN@COMGKDHO@Analogix?5Semiconductor?0?5Inc?4?$AA@
	DW	01f31H
	ORG $+2
	DD	FLAT:??_C@_0BP@DOFDLEGP@SASKEN?5COMMUNICATION?5TECH?5LTD?4?$AA@
	DW	01f3cH
	ORG $+2
	DD	FLAT:??_C@_0CE@MEDMJIF@Chang?5Yang?5Electronics?5Company?5L@
	DW	01f75H
	ORG $+2
	DD	FLAT:??_C@_0BD@GGCBPHPK@Innostor?5Co?4?0?5Ltd?4?$AA@
	DW	01f89H
	ORG $+2
	DD	FLAT:??_C@_0CI@NHHBKKBH@Dongguan?5Goldconn?5Electronics?5Co@
	DW	01f8aH
	ORG $+2
	DD	FLAT:??_C@_0CC@LPIGCLDE@Morning?5Star?5Industrial?5Co?4?0?5Ltd@
	DW	01facH
	ORG $+2
	DD	FLAT:??_C@_0BJ@OBPDBGLK@Franklin?5Technology?5Inc?4?$AA@
	DW	01fadH
	ORG $+2
	DD	FLAT:??_C@_0BH@OKNGIEAK@Cresta?5Technology?5Inc?4?$AA@
	DW	01fb4H
	ORG $+2
	DD	FLAT:??_C@_0CB@EHEKJNGP@Owl?5Computing?5Technologies?0?5Inc?4@
	DW	01fb5H
	ORG $+2
	DD	FLAT:??_C@_0DA@LDONKOKE@Siemens?5Enterprise?5Communication@
	DW	01fc9H
	ORG $+2
	DD	FLAT:??_C@_0BD@GMPBKEIC@NXP?5Semiconductors?$AA@
	DW	01fecH
	ORG $+2
	DD	FLAT:??_C@_0CA@CAPPIABK@NIAN?5YEONG?5ENTERPRISE?5CO?4?0?5LTD?4?$AA@
	DW	01ff5H
	ORG $+2
	DD	FLAT:??_C@_0DB@KONADFN@Changzhou?5Wujin?5BEST?5Electronic?5@
	DW	02001H
	ORG $+2
	DD	FLAT:??_C@_0BD@BJBLIGAM@D?9Link?5Corporation?$AA@
	DW	0200dH
	ORG $+2
	DD	FLAT:??_C@_0CI@GOBPPKNF@Belkin?5Electronic?5?$CIChangzhou?$CJ?5Co@
	DW	0200eH
	ORG $+2
	DD	FLAT:??_C@_0BN@KHNMKBEO@DAIICHI?5PARTS?5?$CIHK?$CJ?5CO?4?0?5LTD?4?$AA@
	DW	0201cH
	ORG $+2
	DD	FLAT:??_C@_0CF@DHGBCKNB@Freeport?5Resources?5Enterprises?5C@
	DW	02028H
	ORG $+2
	DD	FLAT:??_C@_0BG@PIIFGLBL@DETAS?5TECHNOLOGY?5LTD?4?$AA@
	DW	0205cH
	ORG $+2
	DD	FLAT:??_C@_0CI@FBHBCILE@Shenzhen?5Tronixin?5Electronics?5Co@
	DW	02066H
	ORG $+2
	DD	FLAT:??_C@_0CJ@OEPJLPBL@Unicorn?5Electronics?5Components?5C@
	DW	0207dH
	ORG $+2
	DD	FLAT:??_C@_0BK@DJALMDKA@CESI?5Technology?5Co?4?0?5Ltd?4?$AA@
	DW	0208eH
	ORG $+2
	DD	FLAT:??_C@_0N@JJLIGBFN@Luxshare?9ICT?$AA@
	DW	02095H
	ORG $+2
	DD	FLAT:??_C@_0BA@CFCNDLPN@CE?5LINK?5LIMITED?$AA@
	DW	02096H
	ORG $+2
	DD	FLAT:??_C@_0BP@FNHFFJPK@Microconn?5Electronic?5Co?4?0?5Ltd?4?$AA@
	DW	020afH
	ORG $+2
	DD	FLAT:??_C@_0CF@MCDKIGNK@Shenzhen?5CARVE?5Electronics?5Co?4?0?5@
	DW	020c0H
	ORG $+2
	DD	FLAT:??_C@_0BK@EIBNNPGD@FENGHUA?5KINGSUN?5CO?4?0?5LTD?4?$AA@
	DW	020c2H
	ORG $+2
	DD	FLAT:??_C@_0DE@EMOPPBDG@Sumitomo?5Electric?5Ind?4?0?5Ltd?4?0?5Op@
	DW	020f7H
	ORG $+2
	DD	FLAT:??_C@_0BJ@PMOEHKIK@SOFTHARD?5Technology?5Ltd?4?$AA@
	DW	02109H
	ORG $+2
	DD	FLAT:??_C@_0P@GBIKBMAL@VIA?5Labs?0?5Inc?4?$AA@
	DW	02116H
	ORG $+2
	DD	FLAT:??_C@_0N@JLDIPNLJ@KT?5Tech?5Inc?4?$AA@
	DW	0212cH
	ORG $+2
	DD	FLAT:??_C@_0CF@GAGJPPB@Shenzhen?5Linoya?5Electronic?5Co?4?0?5@
	DW	0212eH
	ORG $+2
	DD	FLAT:??_C@_0CJ@CNOJBLBI@Amphenol?5AssembleTech?5?$CIXiamen?$CJ?5C@
	DW	02147H
	ORG $+2
	DD	FLAT:??_C@_0CF@JOALJALB@Chin?9Ban?5Electronics?5?$CIHong?5Kong?$CJ@
	DW	02148H
	ORG $+2
	DD	FLAT:??_C@_0CD@KDAPKLEA@Visteon?5Sistemas?5Automotives?5Ltd@
	DW	0214cH
	ORG $+2
	DD	FLAT:??_C@_0BD@LDDEGFID@Y?5Soft?5Corporation?$AA@
	DW	02166H
	ORG $+2
	DD	FLAT:??_C@_0BI@FBCKNBLM@JVC?5KENWOOD?5Corporation?$AA@
	DW	02173H
	ORG $+2
	DD	FLAT:??_C@_0DH@EJJEPBOI@HUIZHOU?5HUANGJI?5PRECISIONS?5FLEX?5@
	DW	02174H
	ORG $+2
	DD	FLAT:??_C@_0BM@BKHGEKPK@Transcend?5Information?0?5Inc?4?$AA@
	DW	02176H
	ORG $+2
	DD	FLAT:??_C@_0BF@BAPBHHHN@TMC?1Allion?5Test?5Labs?$AA@
	DW	02188H
	ORG $+2
	DD	FLAT:??_C@_08EPBIMIG@CalDigit?$AA@
	DW	021b5H
	ORG $+2
	DD	FLAT:??_C@_0CF@DANJAKAE@SHENZHEN?5JASON?5ELECTRONICS?5CO?4?0?5@
	DW	021c4H
	ORG $+2
	DD	FLAT:??_C@_0BP@PBMDMJMJ@Netcom?5Technology?5?$CIHK?$CJ?5Limited?$AA@
	DW	021d3H
	ORG $+2
	DD	FLAT:??_C@_0BP@FAJGPKNC@Compupack?5Technology?5Co?4?0?5Ltd?4?$AA@
	DW	021e9H
	ORG $+2
	DD	FLAT:??_C@_0CM@MMCEPGGG@Jiafuh?5Metal?5?$CG?5Plastic?5?$CIShenZhen@
	DW	021f7H
	ORG $+2
	DD	FLAT:??_C@_0CG@OHNMOHEM@Wuerth?9Elektronik?5eiSos?5GmbH?5?$CG?5C@
	DW	02205H
	ORG $+2
	DD	FLAT:??_C@_0CB@CHMCCAAM@3eYamaichi?5Electronics?5Co?4?0?5Ltd?4@
	DW	02206H
	ORG $+2
	DD	FLAT:??_C@_0CG@NEPAELKJ@Wiretek?5International?5Investment@
	DW	02250H
	ORG $+2
	DD	FLAT:??_C@_0BP@OIDAFMJB@Evernew?5Wire?5?$CG?5Cable?5Co?4?0?5Ltd?4?$AA@
	DW	02270H
	ORG $+2
	DD	FLAT:??_C@_0CH@BNMEADNA@XiaMen?5GaoLuChang?5Electronics?5Co@
	DW	0227fH
	ORG $+2
	DD	FLAT:??_C@_0BD@PEIOBOIA@Granite?5River?5Labs?$AA@
	DW	02289H
	ORG $+2
	DD	FLAT:??_C@_0CO@GPGEJOEG@Sun?5Fair?5Electric?5Wire?5?$CG?5Cable?5?$CI@
	DW	0228aH
	ORG $+2
	DD	FLAT:??_C@_0CH@JIBHMNOD@Hotron?5Precision?5Electronic?5Ind?4@
	DW	0228bH
	ORG $+2
	DD	FLAT:??_C@_0CO@EAFKPNFN@Shenzhen?5DLK?5Electronics?5Technol@
	DW	02297H
	ORG $+2
	DD	FLAT:??_C@_0CD@FPBFIKDM@Grain?5Media?5Technology?5Corporati@
	DW	022a9H
	ORG $+2
	DD	FLAT:??_C@_0BK@OFJMDPCF@Valor?5Communication?0?5Inc?4?$AA@
	DW	022abH
	ORG $+2
	DD	FLAT:??_C@_0BN@LAOLKJDB@Trigence?5Semiconductor?0?5Inc?4?$AA@
	DW	022b8H
	ORG $+2
	DD	FLAT:??_C@_0BH@JCNJIDNH@Motorola?5Mobility?5Inc?4?$AA@
	DW	022dbH
	ORG $+2
	DD	FLAT:??_C@_0O@PFEHLJC@Phase?5One?5A?1S?$AA@
	DW	022fdH
	ORG $+2
	DD	FLAT:??_C@_0O@LJFFELIC@Miltope?5Corp?4?$AA@
	DW	022ffH
	ORG $+2
	DD	FLAT:??_C@_05CCBNKHPD@Avnet?$AA@
	DW	02313H
	ORG $+2
	DD	FLAT:??_C@_0CF@DNEMFNPO@Kunshan?5Jiahua?5Electronics?5Co?4?0?5@
	DW	02315H
	ORG $+2
	DD	FLAT:??_C@_0BL@CONNOJEO@Avery?5Design?5Systems?0?5Inc?4?$AA@
	DW	02317H
	ORG $+2
	DD	FLAT:??_C@_0BI@LPLOPAA@Huawei?5Device?5Co?4?0?5Ltd?4?$AA@
	DW	02326H
	ORG $+2
	DD	FLAT:??_C@_0BK@MFDKEFFA@CKM?5Electronics?5Co?4?0?5Ltd?4?$AA@
	DW	02330H
	ORG $+2
	DD	FLAT:??_C@_09GCGEMCFF@Tensorcom?$AA@
	DW	02358H
	ORG $+2
	DD	FLAT:??_C@_0BG@JCFEOFFG@Greenconn?5Corporation?$AA@
	DW	02359H
	ORG $+2
	DD	FLAT:??_C@_0CM@MLMJGOMM@Shenzhen?5Autone?9Tronic?5Technolog@
	DW	0235bH
	ORG $+2
	DD	FLAT:??_C@_0BP@GJOKBILK@KangXiang?5Electronic?5Co?4?0?5Ltd?4?$AA@
	DW	023acH
	ORG $+2
	DD	FLAT:??_C@_0BJ@OHNJGPJN@Marunix?5Electron?5Limited?$AA@
	DW	023dcH
	ORG $+2
	DD	FLAT:??_C@_0CD@NDCLAIIH@Phonic?5Ear?0?5Inc?4?5Frontrow?5Divisi@
	DW	023e0H
	ORG $+2
	DD	FLAT:??_C@_0CF@CFJNEAJP@BitifEye?5Digital?5Test?5Solutions?5@
	DW	023f4H
	ORG $+2
	DD	FLAT:??_C@_07CEDODHPO@NXT?5Plc?$AA@
	DW	023f5H
	ORG $+2
	DD	FLAT:??_C@_0BE@BMBKAED@SpeedConn?5Co?4?0?5Ltd?4?$AA@
	DW	023fdH
	ORG $+2
	DD	FLAT:??_C@_0M@MGCPLAOJ@AWare?0?5Inc?4?$AA@
	DW	023feH
	ORG $+2
	DD	FLAT:??_C@_0BE@CNAOMOBO@Express?5Way?5Limited?$AA@
	DW	02400H
	ORG $+2
	DD	FLAT:??_C@_0CN@EJBOGONI@ChuangYi?5Hardware?5Precision?5Moul@
	DW	02406H
	ORG $+2
	DD	FLAT:??_C@_0O@BNIKCMOM@INSIDE?5Secure?$AA@
	DW	02407H
	ORG $+2
	DD	FLAT:??_C@_0BH@KJMMFBKI@Incasolution?5Co?4?0?5Ltd?4?$AA@
	DW	0240fH
	ORG $+2
	DD	FLAT:??_C@_0BO@GNFPHMGK@Trantek?5Electronics?5Co?4?0?5Ltd?4?$AA@
	DW	0241aH
	ORG $+2
	DD	FLAT:??_C@_0BM@GMFHMCEF@The?5Silanna?5Group?5Pty?4?5Ltd?4?$AA@
	DW	0241bH
	ORG $+2
	DD	FLAT:??_C@_0CK@PEDMBLOK@Dongguan?5City?5Qirui?5Electronics?5@
	DW	02438H
	ORG $+2
	DD	FLAT:??_C@_0CB@GILKPBEO@Innopower?5Technology?5Corporation@
	DW	0244cH
	ORG $+2
	DD	FLAT:??_C@_0BC@MIHCGNOI@Minebea?5Co?4?0?5Ltd?4?$AA@
	DW	02452H
	ORG $+2
	DD	FLAT:??_C@_0BO@OPKCBFPL@Speeder?5Electronics?5Co?4?0?5Ltd?4?$AA@
	DW	02453H
	ORG $+2
	DD	FLAT:??_C@_06HHAPBGEJ@BAANTO?$AA@
	DW	02454H
	ORG $+2
	DD	FLAT:??_C@_0BL@LPJGBHEM@Velosti?5Technology?5Limited?$AA@
	DW	02455H
	ORG $+2
	DD	FLAT:??_C@_0BC@FEINIIOM@Anton?1Bauer?0?5Inc?4?$AA@
	DW	0246aH
	ORG $+2
	DD	FLAT:??_C@_0CA@OBJDCDKL@UNH?5Interoperability?5Laboratory?$AA@
	DW	0246bH
	ORG $+2
	DD	FLAT:??_C@_0DI@DKAFDFAC@Perfect?5Fortune?5Electric?5Wire?5?$CG?5@
	DW	02477H
	ORG $+2
	DD	FLAT:??_C@_08PDELGFBH@UbiVelox?$AA@
	DW	0247bH
	ORG $+2
	DD	FLAT:??_C@_0CB@POEOBKIH@Digibras?5Industria?5do?5Brasil?5S?4A@
	DW	0247cH
	ORG $+2
	DD	FLAT:??_C@_0BH@EHAGJFEE@Fullconn?5Industry?5Inc?4?$AA@
	DW	0247dH
	ORG $+2
	DD	FLAT:??_C@_0P@BCJJHJDJ@JARGY?5CO?4?5LTD?4?$AA@
	DW	02488H
	ORG $+2
	DD	FLAT:??_C@_0BB@MDEMAKAA@SuperD?5Co?4?0?5Ltd?4?$AA@
	DW	02489H
	ORG $+2
	DD	FLAT:??_C@_0BL@MHJFMACI@Irvine?5Sensors?5Corporation?$AA@
	DW	0248aH
	ORG $+2
	DD	FLAT:??_C@_0CK@KHHEAIMH@TeLink?5Semiconductor?5?$CIShanghai?$CJ?5@
	DW	0248bH
	ORG $+2
	DD	FLAT:??_C@_0BK@CFHJHDDG@SYNCONN?5INTERCONNECT?5INC?4?$AA@
	DW	02495H
	ORG $+2
	DD	FLAT:??_C@_0BJ@MAPFGIK@Summit?5Semiconductor?5LLC?$AA@
	DW	02496H
	ORG $+2
	DD	FLAT:??_C@_0DA@CGBDOBCP@Dongguan?5DaTang?5Industrial?5Inves@
	DW	02497H
	ORG $+2
	DD	FLAT:??_C@_0BO@GKPDCPNP@HyunWoo?5Electronics?5Co?4?0?5Ltd?4?$AA@
	DW	024a6H
	ORG $+2
	DD	FLAT:??_C@_0CH@IDDOGDKP@Shenzhen?5Pangngai?5Industrial?5Co?4@
	DW	024aeH
	ORG $+2
	DD	FLAT:??_C@_0CE@EAHJMINJ@Shenzhen?5Rapoo?5Technology?5Co?4?0?5L@
	DW	024b5H
	ORG $+2
	DD	FLAT:??_C@_0N@EBDJACPJ@3C?5TEK?5CORP?4?$AA@
	DW	024b6H
	ORG $+2
	DD	FLAT:??_C@_0CK@CLEDKDEL@Shenzhen?5New?9Conn?5International?5@
	DW	024ceH
	ORG $+2
	DD	FLAT:??_C@_0CE@JOMBCIJH@Shenzhen?5Deren?5Electronic?5Co?4?0?5L@
	DW	024cfH
	ORG $+2
	DD	FLAT:??_C@_0M@NMCNEDLC@Lytro?0?5Inc?4?$AA@
	DW	024d0H
	ORG $+2
	DD	FLAT:??_C@_0BL@DEJKGIMK@Smith?5Micro?5Software?0?5Inc?4?$AA@
	DW	024daH
	ORG $+2
	DD	FLAT:??_C@_0BN@HAAHPMIC@KYOCERA?5ELCO?5Korea?5Co?4?0?5Ltd?4?$AA@
	DW	024dbH
	ORG $+2
	DD	FLAT:??_C@_0BB@PGAFDCCK@DDUSB?5Technology?$AA@
	DW	024edH
	ORG $+2
	DD	FLAT:??_C@_0BO@ONHDIMLP@ZEN?5FACTORY?5GROUP?5?$CIASIA?$CJ?5LTD?4?$AA@
	DW	024f7H
	ORG $+2
	DD	FLAT:??_C@_0M@GHCMHPKC@Seneye?5Ltd?4?$AA@
	DW	024fbH
	ORG $+2
	DD	FLAT:??_C@_0BC@HBLEADPM@GTECH?5Corporation?$AA@
	DW	02509H
	ORG $+2
	DD	FLAT:??_C@_0BO@KGBBCJH@Chain?9In?5Electronic?5Co?4?0?5Ltd?4?$AA@
	DW	02529H
	ORG $+2
	DD	FLAT:??_C@_0CO@JCAFCPHA@SUZHOU?5XINYA?5ELECTRIC?5COMMUNICAT@
	DW	0252bH
	ORG $+2
	DD	FLAT:??_C@_0CN@BNJPCKEF@TOP?5Exactitude?5Industry?5?$CIShenZhe@
	DW	02535H
	ORG $+2
	DD	FLAT:??_C@_0DD@CFLDKGBD@Shenzhen?5Hong?5Junde?5Precision?5Te@
	DW	02536H
	ORG $+2
	DD	FLAT:??_C@_0BM@PDILJJBJ@Ubisys?5Technology?5Co?4?0?5Ltd?4?$AA@
	DW	02537H
	ORG $+2
	DD	FLAT:??_C@_0BD@PLHJJNHE@Norel?5Systems?5Ltd?4?$AA@
	DW	02558H
	ORG $+2
	DD	FLAT:??_C@_0BJ@KIEOKLMB@INTECH?5ELECTRONICS?5CORP?4?$AA@
	DW	02567H
	ORG $+2
	DD	FLAT:??_C@_0CG@NMMKCBIB@DongGuan?5LongTao?5Electronic?5Co?4?0@
	DW	02568H
	ORG $+2
	DD	FLAT:??_C@_0CA@CFAALAJE@ALL?5LINK?5CONN?4?5TECHNOLOGY?5CORP?4?$AA@
	DW	02569H
	ORG $+2
	DD	FLAT:??_C@_0CL@DMEHNIKM@DongGuan?5City?5MingJi?5Electronics@
	DW	02574H
	ORG $+2
	DD	FLAT:??_C@_0BG@OBILOFPF@AVer?5Information?5Inc?4?$AA@
	DW	02575H
	ORG $+2
	DD	FLAT:??_C@_0BI@MHBLLANG@Weida?5Hi?9Tech?5Co?4?0?5Ltd?4?$AA@
	DW	02579H
	ORG $+2
	DD	FLAT:??_C@_0CF@JLNODIAF@Dongguan?5Kowell?5Electronic?5Co?4?0?5@
	DW	02587H
	ORG $+2
	DD	FLAT:??_C@_0CE@MEBHAOHC@Ningbo?5Jiatang?5Electronic?5Co?4?0?5L@
	DW	02588H
	ORG $+2
	DD	FLAT:??_C@_0BC@EPMKAPFK@Infinitegra?0?5Inc?4?$AA@
	DW	02591H
	ORG $+2
	DD	FLAT:??_C@_0BL@GPGPDPPI@Optimus?5Semiconductor?5Inc?4?$AA@
	DW	0259bH
	ORG $+2
	DD	FLAT:??_C@_06JAGNIOHH@INUVIO?$AA@
	DW	0259cH
	ORG $+2
	DD	FLAT:??_C@_0BL@PDKHOHKG@Immedia?5Semiconductor?5Inc?4?$AA@
	DW	0259dH
	ORG $+2
	DD	FLAT:??_C@_0BF@GEOEIPEL@RCA?5DA?5AMAZONIA?5LTDA?$AA@
	DW	025a4H
	ORG $+2
	DD	FLAT:??_C@_0P@GGHEMJJH@ALGOLTEK?0?5INC?4?$AA@
	DW	025abH
	ORG $+2
	DD	FLAT:??_C@_0P@KJGACBOE@Carmanah?5Signs?$AA@
	DW	025b2H
	ORG $+2
	DD	FLAT:??_C@_0P@OEFFHHLL@DRS?9RSTA?0?5Inc?4?$AA@
	DW	025b3H
	ORG $+2
	DD	FLAT:??_C@_0CF@LHOCOHOF@DongGuan?5Elinke?5Industrial?5Co?4?0?5@
	DW	025c3H
	ORG $+2
	DD	FLAT:??_C@_06CJJNEMAE@Phorus?$AA@
	DW	025c7H
	ORG $+2
	DD	FLAT:??_C@_0BN@PKAIGMCM@MEGATRON?5Elektronik?5AG?5?$CG?5Co?4?$AA@
	DW	025d3H
	ORG $+2
	DD	FLAT:??_C@_0CI@EJBKCNKI@Zhe?5Jiang?5Huasheng?5Technology?5Co@
	DW	025e1H
	ORG $+2
	DD	FLAT:??_C@_0L@IOINFDHJ@Daimler?5AG?$AA@
	DW	025f2H
	ORG $+2
	DD	FLAT:??_C@_0CG@OAMKINAC@Dongguan?5Jinyue?5Electronics?5Co?4?0@
	DW	025fbH
	ORG $+2
	DD	FLAT:??_C@_0CD@JGKEGNMJ@PENTAX?5RICOH?5IMAGING?5COMPANY?0?5LT@
	DW	025fcH
	ORG $+2
	DD	FLAT:??_C@_0BI@NCIPEGB@RWA?5?$CIHong?5Kong?$CJ?5Limited?$AA@
	DW	0260eH
	ORG $+2
	DD	FLAT:??_C@_0CC@GLDMKJH@DongGuan?5HYX?5Industrial?5Co?4?0?5Ltd@
	DW	02614H
	ORG $+2
	DD	FLAT:??_C@_0BL@MKIOGMIA@VMC?5Consulting?5Corporation?$AA@
	DW	0261aH
	ORG $+2
	DD	FLAT:??_C@_0DD@JFHBCIAC@Shandong?5Synthesis?5Electronic?5Te@
	DW	0261bH
	ORG $+2
	DD	FLAT:??_C@_0BJ@FPNGMFON@INTELLIGENT?5ENERGY?0?5LTD?4?$AA@
	DW	0261cH
	ORG $+2
	DD	FLAT:??_C@_0O@KCHFFECA@EISST?5Limited?$AA@
	DW	0262bH
	ORG $+2
	DD	FLAT:??_C@_0CO@FNFDMCAN@JXT?5Precision?5Electronics?5Techni@
	DW	0707H
	ORG $+2
	DD	FLAT:??_C@_0N@OGJAAGP@Vendor?5x0707?$AA@
	DW	077aH
	ORG $+2
	DD	FLAT:??_C@_06NMEADBLN@Sankio?$AA@
	DW	07c0H
	ORG $+2
	DD	FLAT:??_C@_0N@BHJPEAKB@Vendor?5x07C0?$AA@
	DW	07d1H
	ORG $+2
	DD	FLAT:??_C@_0N@LMLGHGF@Vendor?5x07D1?$AA@
	DW	08a6H
	ORG $+2
	DD	FLAT:??_C@_0M@LKDAPJIF@Toshiba?5TEC?$AA@
	DW	0b8bH
	ORG $+2
	DD	FLAT:??_C@_0N@OEOECLEK@TMD?5Security?$AA@
	DW	0bedH
	ORG $+2
	DD	FLAT:??_C@_0N@EKANAEP@Vendor?5x0BED?$AA@
	DW	0c94H
	ORG $+2
	DD	FLAT:??_C@_0BC@GGOFANFE@SAGEM?5Denmark?5A?1S?$AA@
	DW	01046H
	ORG $+2
	DD	FLAT:??_C@_0O@EDCNNFOI@Hitachi?0?5Ltd?4?$AA@
	DW	01051H
	ORG $+2
	DD	FLAT:??_C@_0BC@GAEDCENO@Star?5Microsystems?$AA@
	DW	01427H
	ORG $+2
	DD	FLAT:??_C@_0N@CCDIFCFP@Vendor?5x1427?$AA@
	DW	01e2cH
	ORG $+2
	DD	FLAT:??_C@_0N@OEOECLEK@TMD?5Security?$AA@
	DW	01d5fH
	ORG $+2
	DD	FLAT:??_C@_08HHHILLLH@VIVOtech?$AA@
	DW	00H
	ORG $+2
	DD	FLAT:??_C@_07NFANNNEC@UNKNOWN?$AA@
?UsbViewIndent@@3PAPADA DD FLAT:??_C@_00CNPNBAHC@?$AA@	; UsbViewIndent
	DD	FLAT:??_C@_02KNHHEEKP@?5?5?$AA@
	DD	FLAT:??_C@_04PFOHOKJK@?5?5?5?5?$AA@
	DD	FLAT:??_C@_06GGLIPOFD@?5?5?5?5?5?5?$AA@
	DD	FLAT:??_C@_08GGFKNFHG@?5?5?5?5?5?5?5?5?$AA@
	DD	FLAT:??_C@_0L@CCBFPMDD@?5?5?5?5?5?5?5?5?5?5?$AA@
; Function compile flags: /Ogtpy
; File c:\program files\microsoft visual studio 9.0\vc\include\vector
;	COMDAT ??A?$vector@V?$basic_string@DU?$char_traits@D@std@@V?$allocator@D@2@@std@@V?$allocator@V?$basic_string@DU?$char_traits@D@std@@V?$allocator@D@2@@std@@@2@@std@@QAEAAV?$basic_string@DU?$char_traits@D@std@@V?$allocator@D@2@@1@I@Z
_TEXT	SEGMENT
??A?$vector@V?$basic_string@DU?$char_traits@D@std@@V?$allocator@D@2@@std@@V?$allocator@V?$basic_string@DU?$char_traits@D@std@@V?$allocator@D@2@@std@@@2@@std@@QAEAAV?$basic_string@DU?$char_traits@D@std@@V?$allocator@D@2@@1@I@Z PROC ; std::vector<std::basic_string<char,std::char_traits<char>,std::allocator<char> >,std::allocator<std::basic_string<char,std::char_traits<char>,std::allocator<char> > > >::operator[], COMDAT
; _this$ = esi
; __Pos$ = edi

; 775  : 
; 776  :  #if _HAS_ITERATOR_DEBUGGING
; 777  : 		if (size() <= _Pos)
; 778  : 			{
; 779  : 			_DEBUG_ERROR("vector subscript out of range");
; 780  : 			_SCL_SECURE_OUT_OF_RANGE;
; 781  : 			}
; 782  :  #endif /* _HAS_ITERATOR_DEBUGGING */
; 783  : 		_SCL_SECURE_VALIDATE_RANGE(_Pos < size());

  00000	8b 4e 10	 mov	 ecx, DWORD PTR [esi+16]
  00003	2b 4e 0c	 sub	 ecx, DWORD PTR [esi+12]
  00006	b8 93 24 49 92	 mov	 eax, -1840700269	; 92492493H
  0000b	f7 e9		 imul	 ecx
  0000d	03 d1		 add	 edx, ecx
  0000f	c1 fa 04	 sar	 edx, 4
  00012	8b c2		 mov	 eax, edx
  00014	c1 e8 1f	 shr	 eax, 31			; 0000001fH
  00017	03 c2		 add	 eax, edx
  00019	3b f8		 cmp	 edi, eax
  0001b	72 05		 jb	 SHORT $LN3@operator@24
  0001d	e8 00 00 00 00	 call	 __invalid_parameter_noinfo
$LN3@operator@24:

; 784  : 
; 785  : 		return (*(_Myfirst + _Pos));

  00022	8b 56 0c	 mov	 edx, DWORD PTR [esi+12]
  00025	8d 0c fd 00 00
	00 00		 lea	 ecx, DWORD PTR [edi*8]
  0002c	2b cf		 sub	 ecx, edi
  0002e	8d 04 8a	 lea	 eax, DWORD PTR [edx+ecx*4]

; 786  : 		}

  00031	c3		 ret	 0
??A?$vector@V?$basic_string@DU?$char_traits@D@std@@V?$allocator@D@2@@std@@V?$allocator@V?$basic_string@DU?$char_traits@D@std@@V?$allocator@D@2@@std@@@2@@std@@QAEAAV?$basic_string@DU?$char_traits@D@std@@V?$allocator@D@2@@1@I@Z ENDP ; std::vector<std::basic_string<char,std::char_traits<char>,std::allocator<char> >,std::allocator<std::basic_string<char,std::char_traits<char>,std::allocator<char> > > >::operator[]
PUBLIC	__$ArrayPad$
PUBLIC	?GetConfigDescriptor@USB@@IAEPAU_USB_DESCRIPTOR_REQUEST@@PAXKE@Z ; USB::GetConfigDescriptor
; Function compile flags: /Ogtpy
; File e:\tools\sysstatus\usb.cpp
;	COMDAT ?GetConfigDescriptor@USB@@IAEPAU_USB_DESCRIPTOR_REQUEST@@PAXKE@Z
_TEXT	SEGMENT
_nBytesReturned$ = -32					; size = 4
_configDescReqBuf$ = -28				; size = 21
__$ArrayPad$ = -4					; size = 4
_ConnectionIndex$ = 8					; size = 4
?GetConfigDescriptor@USB@@IAEPAU_USB_DESCRIPTOR_REQUEST@@PAXKE@Z PROC ; USB::GetConfigDescriptor, COMDAT
; _hHubDevice$ = ebx

; 1329 : {

  00000	83 ec 20	 sub	 esp, 32			; 00000020H
  00003	a1 00 00 00 00	 mov	 eax, DWORD PTR ___security_cookie
  00008	33 c4		 xor	 eax, esp
  0000a	89 44 24 1c	 mov	 DWORD PTR __$ArrayPad$[esp+32], eax
  0000e	55		 push	 ebp
  0000f	8b 6c 24 28	 mov	 ebp, DWORD PTR _ConnectionIndex$[esp+32]
  00013	56		 push	 esi
  00014	57		 push	 edi

; 1330 :     BOOL    success;
; 1331 :     ULONG   nBytes = 0;
; 1332 :     ULONG   nBytesReturned = 0;
; 1333 : 
; 1334 :     UCHAR   configDescReqBuf[sizeof(USB_DESCRIPTOR_REQUEST) + sizeof(USB_CONFIGURATION_DESCRIPTOR)];
; 1335 : 
; 1336 :     PUSB_DESCRIPTOR_REQUEST         configDescReq = NULL;
; 1337 :     PUSB_CONFIGURATION_DESCRIPTOR   configDesc = NULL;
; 1338 : 
; 1339 :     Log(LOG_DEBUG,__LINE__,">> USB.GetCfgDesc");

  00015	68 00 00 00 00	 push	 OFFSET ??_C@_0BC@NBPLLDOB@?$DO?$DO?5USB?4GetCfgDesc?$AA@
  0001a	68 3b 05 00 00	 push	 1339			; 0000053bH
  0001f	6a 10		 push	 16			; 00000010H
  00021	c7 44 24 18 00
	00 00 00	 mov	 DWORD PTR _nBytesReturned$[esp+56], 0
  00029	e8 00 00 00 00	 call	 ?Log@@YAXHHPBDZZ	; Log
  0002e	83 c4 0c	 add	 esp, 12			; 0000000cH

; 1340 : 
; 1341 :     // Request the Configuration Descriptor the first time using our
; 1342 :     // local buffer, which is just big enough for the Cofiguration
; 1343 :     // Descriptor itself.
; 1344 :     //
; 1345 :     nBytes = sizeof(configDescReqBuf);
; 1346 : 
; 1347 :     configDescReq = (PUSB_DESCRIPTOR_REQUEST)configDescReqBuf;
; 1348 :     configDesc = (PUSB_CONFIGURATION_DESCRIPTOR)(configDescReq+1);
; 1349 : 
; 1350 :     // Zero fill the entire request structure
; 1351 :     //
; 1352 :     memset(configDescReq, 0x00, nBytes);

  00031	33 c0		 xor	 eax, eax

; 1353 : 
; 1354 :     // Indicate the port from which the descriptor will be requested
; 1355 :     //
; 1356 :     configDescReq->ConnectionIndex = ConnectionIndex;
; 1357 : 
; 1358 :     //
; 1359 :     // USBHUB uses URB_FUNCTION_GET_DESCRIPTOR_FROM_DEVICE to process this
; 1360 :     // IOCTL_USB_GET_DESCRIPTOR_FROM_NODE_CONNECTION request.
; 1361 :     //
; 1362 :     // USBD will automatically initialize these fields:
; 1363 :     //     bmRequest = 0x80
; 1364 :     //     bRequest  = 0x06
; 1365 :     //
; 1366 :     // We must inititialize these fields:
; 1367 :     //     wValue    = Descriptor Type (high) and Descriptor Index (low byte)
; 1368 :     //     wIndex    = Zero (or Language ID for String Descriptors)
; 1369 :     //     wLength   = Length of descriptor buffer
; 1370 :     //
; 1371 :     configDescReq->SetupPacket.wValue = (USB_CONFIGURATION_DESCRIPTOR_TYPE << 8)
; 1372 :                                         | DescriptorIndex;
; 1373 : 
; 1374 :     configDescReq->SetupPacket.wLength = (USHORT)(nBytes - sizeof(USB_DESCRIPTOR_REQUEST));
; 1375 : 
; 1376 :     // Now issue the get descriptor request.
; 1377 :     //
; 1378 :     success = DeviceIoControl(hHubDevice,
; 1379 :                               IOCTL_USB_GET_DESCRIPTOR_FROM_NODE_CONNECTION,
; 1380 :                               configDescReq,
; 1381 :                               nBytes,
; 1382 :                               configDescReq,
; 1383 :                               nBytes,
; 1384 :                               &nBytesReturned,
; 1385 :                               NULL);

  00033	6a 00		 push	 0
  00035	89 44 24 14	 mov	 DWORD PTR _configDescReqBuf$[esp+48], eax
  00039	89 44 24 18	 mov	 DWORD PTR _configDescReqBuf$[esp+52], eax
  0003d	89 44 24 1c	 mov	 DWORD PTR _configDescReqBuf$[esp+56], eax
  00041	89 44 24 20	 mov	 DWORD PTR _configDescReqBuf$[esp+60], eax
  00045	89 44 24 24	 mov	 DWORD PTR _configDescReqBuf$[esp+64], eax
  00049	88 44 24 28	 mov	 BYTE PTR _configDescReqBuf$[esp+68], al
  0004d	8d 54 24 10	 lea	 edx, DWORD PTR _nBytesReturned$[esp+48]
  00051	52		 push	 edx
  00052	6a 15		 push	 21			; 00000015H
  00054	b8 00 02 00 00	 mov	 eax, 512		; 00000200H
  00059	66 89 44 24 22	 mov	 WORD PTR _configDescReqBuf$[esp+62], ax
  0005e	8d 44 24 1c	 lea	 eax, DWORD PTR _configDescReqBuf$[esp+56]
  00062	50		 push	 eax
  00063	b9 09 00 00 00	 mov	 ecx, 9
  00068	6a 15		 push	 21			; 00000015H
  0006a	66 89 4c 24 2e	 mov	 WORD PTR _configDescReqBuf$[esp+74], cx
  0006f	8b c8		 mov	 ecx, eax
  00071	51		 push	 ecx
  00072	68 10 04 22 00	 push	 2229264			; 00220410H
  00077	53		 push	 ebx
  00078	89 6c 24 30	 mov	 DWORD PTR _configDescReqBuf$[esp+76], ebp
  0007c	ff 15 00 00 00
	00		 call	 DWORD PTR __imp__DeviceIoControl@32

; 1386 :     if (!success)

  00082	85 c0		 test	 eax, eax
  00084	75 2a		 jne	 SHORT $LN8@GetConfigD

; 1387 :     {
; 1388 :         Log(LOG_DEBUG,__LINE__,"<< USB.GetCfgDesc, DeviceIoControl False");

  00086	68 00 00 00 00	 push	 OFFSET ??_C@_0CJ@JPCNJMBL@?$DM?$DM?5USB?4GetCfgDesc?0?5DeviceIoContr@
  0008b	68 6c 05 00 00	 push	 1388			; 0000056cH
  00090	6a 10		 push	 16			; 00000010H
  00092	e8 00 00 00 00	 call	 ?Log@@YAXHHPBDZZ	; Log
  00097	83 c4 0c	 add	 esp, 12			; 0000000cH

; 1389 :         return NULL;

  0009a	33 c0		 xor	 eax, eax

; 1474 :     return configDescReq;
; 1475 : }

  0009c	5f		 pop	 edi
  0009d	5e		 pop	 esi
  0009e	5d		 pop	 ebp
  0009f	8b 4c 24 1c	 mov	 ecx, DWORD PTR __$ArrayPad$[esp+32]
  000a3	33 cc		 xor	 ecx, esp
  000a5	e8 00 00 00 00	 call	 @__security_check_cookie@4
  000aa	83 c4 20	 add	 esp, 32			; 00000020H
  000ad	c2 04 00	 ret	 4
$LN8@GetConfigD:

; 1390 :     }
; 1391 : 
; 1392 :     if (nBytes != nBytesReturned)

  000b0	8b 44 24 0c	 mov	 eax, DWORD PTR _nBytesReturned$[esp+44]
  000b4	83 f8 15	 cmp	 eax, 21			; 00000015H
  000b7	74 2d		 je	 SHORT $LN7@GetConfigD

; 1393 :     {
; 1394 :         Log(LOG_DEBUG,__LINE__,"<< USB.GetCfgDesc, Bytes %u <> BytesRet %u",nBytes,nBytesReturned);

  000b9	50		 push	 eax
  000ba	6a 15		 push	 21			; 00000015H
  000bc	68 00 00 00 00	 push	 OFFSET ??_C@_0CL@CHLLBENA@?$DM?$DM?5USB?4GetCfgDesc?0?5Bytes?5?$CFu?5?$DM?$DO?5B@
  000c1	68 72 05 00 00	 push	 1394			; 00000572H
  000c6	6a 10		 push	 16			; 00000010H
  000c8	e8 00 00 00 00	 call	 ?Log@@YAXHHPBDZZ	; Log
  000cd	83 c4 14	 add	 esp, 20			; 00000014H

; 1395 :         return NULL;

  000d0	33 c0		 xor	 eax, eax

; 1474 :     return configDescReq;
; 1475 : }

  000d2	5f		 pop	 edi
  000d3	5e		 pop	 esi
  000d4	5d		 pop	 ebp
  000d5	8b 4c 24 1c	 mov	 ecx, DWORD PTR __$ArrayPad$[esp+32]
  000d9	33 cc		 xor	 ecx, esp
  000db	e8 00 00 00 00	 call	 @__security_check_cookie@4
  000e0	83 c4 20	 add	 esp, 32			; 00000020H
  000e3	c2 04 00	 ret	 4
$LN7@GetConfigD:

; 1396 :     }
; 1397 : 
; 1398 :     if (configDesc->wTotalLength < sizeof(USB_CONFIGURATION_DESCRIPTOR))

  000e6	66 8b 44 24 1e	 mov	 ax, WORD PTR _configDescReqBuf$[esp+58]
  000eb	66 83 f8 09	 cmp	 ax, 9
  000ef	73 30		 jae	 SHORT $LN6@GetConfigD

; 1399 :     {
; 1400 :         Log(LOG_DEBUG,__LINE__,"<< USB.GetCfgDesc, Total %d < Sz struct %d",configDesc->wTotalLength,sizeof(USB_CONFIGURATION_DESCRIPTOR));

  000f1	6a 09		 push	 9
  000f3	0f b7 d0	 movzx	 edx, ax
  000f6	52		 push	 edx
  000f7	68 00 00 00 00	 push	 OFFSET ??_C@_0CL@LLJEBADN@?$DM?$DM?5USB?4GetCfgDesc?0?5Total?5?$CFd?5?$DM?5Sz@
  000fc	68 78 05 00 00	 push	 1400			; 00000578H
  00101	6a 10		 push	 16			; 00000010H
  00103	e8 00 00 00 00	 call	 ?Log@@YAXHHPBDZZ	; Log
  00108	83 c4 14	 add	 esp, 20			; 00000014H

; 1401 :         return NULL;

  0010b	33 c0		 xor	 eax, eax

; 1474 :     return configDescReq;
; 1475 : }

  0010d	5f		 pop	 edi
  0010e	5e		 pop	 esi
  0010f	5d		 pop	 ebp
  00110	8b 4c 24 1c	 mov	 ecx, DWORD PTR __$ArrayPad$[esp+32]
  00114	33 cc		 xor	 ecx, esp
  00116	e8 00 00 00 00	 call	 @__security_check_cookie@4
  0011b	83 c4 20	 add	 esp, 32			; 00000020H
  0011e	c2 04 00	 ret	 4
$LN6@GetConfigD:

; 1402 :     }
; 1403 : 
; 1404 :     // Now request the entire Configuration Descriptor using a dynamically
; 1405 :     // allocated buffer which is sized big enough to hold the entire descriptor
; 1406 :     //
; 1407 :     nBytes = sizeof(USB_DESCRIPTOR_REQUEST) + configDesc->wTotalLength;

  00121	0f b7 f8	 movzx	 edi, ax
  00124	83 c7 0c	 add	 edi, 12			; 0000000cH

; 1408 : 
; 1409 :     configDescReq = (PUSB_DESCRIPTOR_REQUEST)malloc(nBytes);

  00127	57		 push	 edi
  00128	e8 00 00 00 00	 call	 _malloc
  0012d	83 c4 04	 add	 esp, 4
  00130	8b f0		 mov	 esi, eax

; 1410 :     if(configDescReq)
; 1411 :     {
; 1412 :         memset(configDescReq,0x00,nBytes);

  00132	57		 push	 edi
  00133	85 f6		 test	 esi, esi
  00135	0f 84 bb 00 00
	00		 je	 $LN5@GetConfigD
  0013b	6a 00		 push	 0
  0013d	56		 push	 esi
  0013e	e8 00 00 00 00	 call	 _memset
  00143	83 c4 0c	 add	 esp, 12			; 0000000cH

; 1413 : 
; 1414 :         configDesc = (PUSB_CONFIGURATION_DESCRIPTOR)(configDescReq+1);
; 1415 : 
; 1416 :         // Indicate the port from which the descriptor will be requested
; 1417 :         //
; 1418 :         configDescReq->ConnectionIndex = ConnectionIndex;
; 1419 : 
; 1420 :         //
; 1421 :         // USBHUB uses URB_FUNCTION_GET_DESCRIPTOR_FROM_DEVICE to process this
; 1422 :         // IOCTL_USB_GET_DESCRIPTOR_FROM_NODE_CONNECTION request.
; 1423 :         //
; 1424 :         // USBD will automatically initialize these fields:
; 1425 :         //     bmRequest = 0x80
; 1426 :         //     bRequest  = 0x06
; 1427 :         //
; 1428 :         // We must inititialize these fields:
; 1429 :         //     wValue    = Descriptor Type (high) and Descriptor Index (low byte)
; 1430 :         //     wIndex    = Zero (or Language ID for String Descriptors)
; 1431 :         //     wLength   = Length of descriptor buffer
; 1432 :         //
; 1433 :         configDescReq->SetupPacket.wValue = (USB_CONFIGURATION_DESCRIPTOR_TYPE << 8)
; 1434 :                                             | DescriptorIndex;
; 1435 : 
; 1436 :         configDescReq->SetupPacket.wLength = (USHORT)(nBytes - sizeof(USB_DESCRIPTOR_REQUEST));
; 1437 : 
; 1438 :         // Now issue the get descriptor request.
; 1439 :         //
; 1440 :         success = DeviceIoControl(hHubDevice,
; 1441 :                                   IOCTL_USB_GET_DESCRIPTOR_FROM_NODE_CONNECTION,
; 1442 :                                   configDescReq,
; 1443 :                                   nBytes,
; 1444 :                                   configDescReq,
; 1445 :                                   nBytes,
; 1446 :                                   &nBytesReturned,
; 1447 :                                   NULL);

  00146	6a 00		 push	 0
  00148	8d 54 24 10	 lea	 edx, DWORD PTR _nBytesReturned$[esp+48]
  0014c	52		 push	 edx
  0014d	57		 push	 edi
  0014e	56		 push	 esi
  0014f	57		 push	 edi
  00150	56		 push	 esi
  00151	68 10 04 22 00	 push	 2229264			; 00220410H
  00156	b8 00 02 00 00	 mov	 eax, 512		; 00000200H
  0015b	8d 4f f4	 lea	 ecx, DWORD PTR [edi-12]
  0015e	53		 push	 ebx
  0015f	89 2e		 mov	 DWORD PTR [esi], ebp
  00161	66 89 46 06	 mov	 WORD PTR [esi+6], ax
  00165	66 89 4e 0a	 mov	 WORD PTR [esi+10], cx
  00169	ff 15 00 00 00
	00		 call	 DWORD PTR __imp__DeviceIoControl@32

; 1448 :         if (!success)

  0016f	85 c0		 test	 eax, eax
  00171	75 30		 jne	 SHORT $LN4@GetConfigD

; 1449 :         {
; 1450 :             Log(LOG_DEBUG,__LINE__,"<< USB.GetCfgDesc, Req DeviceIoControl False");

  00173	68 00 00 00 00	 push	 OFFSET ??_C@_0CN@FDNPACDH@?$DM?$DM?5USB?4GetCfgDesc?0?5Req?5DeviceIoC@
  00178	68 aa 05 00 00	 push	 1450			; 000005aaH
  0017d	6a 10		 push	 16			; 00000010H
  0017f	e8 00 00 00 00	 call	 ?Log@@YAXHHPBDZZ	; Log

; 1451 :             free(configDescReq);

  00184	56		 push	 esi
  00185	e8 00 00 00 00	 call	 _free
  0018a	83 c4 10	 add	 esp, 16			; 00000010H

; 1452 :             return NULL;

  0018d	33 c0		 xor	 eax, eax

; 1474 :     return configDescReq;
; 1475 : }

  0018f	5f		 pop	 edi
  00190	5e		 pop	 esi
  00191	5d		 pop	 ebp
  00192	8b 4c 24 1c	 mov	 ecx, DWORD PTR __$ArrayPad$[esp+32]
  00196	33 cc		 xor	 ecx, esp
  00198	e8 00 00 00 00	 call	 @__security_check_cookie@4
  0019d	83 c4 20	 add	 esp, 32			; 00000020H
  001a0	c2 04 00	 ret	 4
$LN4@GetConfigD:

; 1453 :         }
; 1454 : 
; 1455 :         if (nBytes != nBytesReturned)

  001a3	8b 44 24 0c	 mov	 eax, DWORD PTR _nBytesReturned$[esp+44]
  001a7	3b f8		 cmp	 edi, eax
  001a9	74 32		 je	 SHORT $LN3@GetConfigD

; 1456 :         {
; 1457 :             Log(LOG_DEBUG,__LINE__,"<< USB.GetCfgDesc, Req Bytes %u <> BytesRet %u",nBytes,nBytesReturned);

  001ab	50		 push	 eax
  001ac	57		 push	 edi
  001ad	68 00 00 00 00	 push	 OFFSET ??_C@_0CP@JDNANMP@?$DM?$DM?5USB?4GetCfgDesc?0?5Req?5Bytes?5?$CFu?5@
  001b2	68 b1 05 00 00	 push	 1457			; 000005b1H
$LN12@GetConfigD:
  001b7	6a 10		 push	 16			; 00000010H
  001b9	e8 00 00 00 00	 call	 ?Log@@YAXHHPBDZZ	; Log

; 1458 :             free(configDescReq);

  001be	56		 push	 esi
  001bf	e8 00 00 00 00	 call	 _free
  001c4	83 c4 18	 add	 esp, 24			; 00000018H

; 1459 :             return NULL;

  001c7	33 c0		 xor	 eax, eax

; 1474 :     return configDescReq;
; 1475 : }

  001c9	5f		 pop	 edi
  001ca	5e		 pop	 esi
  001cb	5d		 pop	 ebp
  001cc	8b 4c 24 1c	 mov	 ecx, DWORD PTR __$ArrayPad$[esp+32]
  001d0	33 cc		 xor	 ecx, esp
  001d2	e8 00 00 00 00	 call	 @__security_check_cookie@4
  001d7	83 c4 20	 add	 esp, 32			; 00000020H
  001da	c2 04 00	 ret	 4
$LN3@GetConfigD:

; 1460 :         }
; 1461 : 
; 1462 :         if (configDesc->wTotalLength != (nBytes - sizeof(USB_DESCRIPTOR_REQUEST)))

  001dd	0f b7 46 0e	 movzx	 eax, WORD PTR [esi+14]
  001e1	8d 4f f4	 lea	 ecx, DWORD PTR [edi-12]
  001e4	3b c1		 cmp	 eax, ecx
  001e6	74 22		 je	 SHORT $LN1@GetConfigD

; 1463 :         {
; 1464 :             Log(LOG_DEBUG,__LINE__,"<< USB.GetCfgDesc, Req Total %d < Sz %d",configDesc->wTotalLength,(nBytes - sizeof(USB_DESCRIPTOR_REQUEST)));

  001e8	51		 push	 ecx
  001e9	50		 push	 eax
  001ea	68 00 00 00 00	 push	 OFFSET ??_C@_0CI@LMLHDIHD@?$DM?$DM?5USB?4GetCfgDesc?0?5Req?5Total?5?$CFd?5@
  001ef	68 b8 05 00 00	 push	 1464			; 000005b8H

; 1465 :             free(configDescReq);
; 1466 :             return NULL;

  001f4	eb c1		 jmp	 SHORT $LN12@GetConfigD
$LN5@GetConfigD:

; 1467 :         }
; 1468 :     }
; 1469 :     else
; 1470 :     {
; 1471 :         Log(LOG_DEBUG,__LINE__,"-- USB.GetCfgDescriptor, new Buf (%u) null",nBytes);

  001f6	68 00 00 00 00	 push	 OFFSET ??_C@_0CL@LPDCGPEM@?9?9?5USB?4GetCfgDescriptor?0?5new?5Buf@
  001fb	68 bf 05 00 00	 push	 1471			; 000005bfH
  00200	6a 10		 push	 16			; 00000010H
  00202	e8 00 00 00 00	 call	 ?Log@@YAXHHPBDZZ	; Log
  00207	83 c4 10	 add	 esp, 16			; 00000010H
$LN1@GetConfigD:

; 1472 :     }
; 1473 :     Log(LOG_DEBUG,__LINE__,"<< USB.GetCfgDesc, %X",configDescReq);

  0020a	56		 push	 esi
  0020b	68 00 00 00 00	 push	 OFFSET ??_C@_0BG@INDEEKLB@?$DM?$DM?5USB?4GetCfgDesc?0?5?$CFX?$AA@
  00210	68 c1 05 00 00	 push	 1473			; 000005c1H
  00215	6a 10		 push	 16			; 00000010H
  00217	e8 00 00 00 00	 call	 ?Log@@YAXHHPBDZZ	; Log

; 1474 :     return configDescReq;
; 1475 : }

  0021c	8b 4c 24 38	 mov	 ecx, DWORD PTR __$ArrayPad$[esp+60]
  00220	83 c4 10	 add	 esp, 16			; 00000010H
  00223	5f		 pop	 edi
  00224	8b c6		 mov	 eax, esi
  00226	5e		 pop	 esi
  00227	5d		 pop	 ebp
  00228	33 cc		 xor	 ecx, esp
  0022a	e8 00 00 00 00	 call	 @__security_check_cookie@4
  0022f	83 c4 20	 add	 esp, 32			; 00000020H
  00232	c2 04 00	 ret	 4
?GetConfigDescriptor@USB@@IAEPAU_USB_DESCRIPTOR_REQUEST@@PAXKE@Z ENDP ; USB::GetConfigDescriptor
_TEXT	ENDS
PUBLIC	__$ArrayPad$
PUBLIC	?GetHCDDriverKeyName@USB@@IAEPADPAX@Z		; USB::GetHCDDriverKeyName
; Function compile flags: /Ogtpy
;	COMDAT ?GetHCDDriverKeyName@USB@@IAEPADPAX@Z
_TEXT	SEGMENT
_nBytes$ = -16						; size = 4
_driverKeyName$ = -12					; size = 6
__$ArrayPad$ = -4					; size = 4
?GetHCDDriverKeyName@USB@@IAEPADPAX@Z PROC		; USB::GetHCDDriverKeyName, COMDAT
; _HCD$ = edi

; 1243 : {

  00000	83 ec 10	 sub	 esp, 16			; 00000010H
  00003	a1 00 00 00 00	 mov	 eax, DWORD PTR ___security_cookie
  00008	33 c4		 xor	 eax, esp
  0000a	89 44 24 0c	 mov	 DWORD PTR __$ArrayPad$[esp+16], eax
  0000e	53		 push	 ebx
  0000f	55		 push	 ebp
  00010	56		 push	 esi

; 1244 :     BOOL                    success;
; 1245 :     ULONG                   nBytes = 0;
; 1246 :     USB_HCD_DRIVERKEY_NAME  driverKeyName;
; 1247 :     PUSB_HCD_DRIVERKEY_NAME driverKeyNameW = NULL;
; 1248 :     PCHAR                   driverKeyNameA = NULL;
; 1249 : 
; 1250 :     Log(LOG_DEBUG,__LINE__,">> USB.GetHCDDrvKeyName");

  00011	68 00 00 00 00	 push	 OFFSET ??_C@_0BI@LFJMJGOI@?$DO?$DO?5USB?4GetHCDDrvKeyName?$AA@
  00016	68 e2 04 00 00	 push	 1250			; 000004e2H
  0001b	33 ed		 xor	 ebp, ebp
  0001d	6a 10		 push	 16			; 00000010H
  0001f	89 6c 24 18	 mov	 DWORD PTR _nBytes$[esp+40], ebp
  00023	e8 00 00 00 00	 call	 ?Log@@YAXHHPBDZZ	; Log

; 1251 : 
; 1252 :     // Get the length of the name of the driver key of the HCD
; 1253 :     //
; 1254 : 	memset (&driverKeyName, 0, sizeof(driverKeyName));
; 1255 :     success = DeviceIoControl(HCD,
; 1256 :                               IOCTL_GET_HCD_DRIVERKEY_NAME,
; 1257 :                               &driverKeyName,
; 1258 :                               sizeof(driverKeyName),
; 1259 :                               &driverKeyName,
; 1260 :                               sizeof(driverKeyName),
; 1261 :                               &nBytes,
; 1262 :                               NULL);

  00028	8b 1d 00 00 00
	00		 mov	 ebx, DWORD PTR __imp__DeviceIoControl@32
  0002e	83 c4 0c	 add	 esp, 12			; 0000000cH
  00031	55		 push	 ebp
  00032	33 c0		 xor	 eax, eax
  00034	89 44 24 14	 mov	 DWORD PTR _driverKeyName$[esp+32], eax
  00038	66 89 44 24 18	 mov	 WORD PTR _driverKeyName$[esp+36], ax
  0003d	8d 44 24 10	 lea	 eax, DWORD PTR _nBytes$[esp+32]
  00041	50		 push	 eax
  00042	6a 06		 push	 6
  00044	8d 4c 24 1c	 lea	 ecx, DWORD PTR _driverKeyName$[esp+40]
  00048	51		 push	 ecx
  00049	6a 06		 push	 6
  0004b	8b d1		 mov	 edx, ecx
  0004d	52		 push	 edx
  0004e	68 24 04 22 00	 push	 2229284			; 00220424H
  00053	57		 push	 edi
  00054	ff d3		 call	 ebx

; 1263 :     if (success)

  00056	85 c0		 test	 eax, eax
  00058	74 58		 je	 SHORT $LN2@GetHCDDriv

; 1264 :     {
; 1265 : 
; 1266 : 		// Allocate space to hold the driver key name
; 1267 : 		//
; 1268 : 		nBytes = driverKeyName.ActualLength;

  0005a	8b 44 24 10	 mov	 eax, DWORD PTR _driverKeyName$[esp+28]
  0005e	89 44 24 0c	 mov	 DWORD PTR _nBytes$[esp+28], eax

; 1269 : 
; 1270 : 		if (nBytes > sizeof(driverKeyName))

  00062	83 f8 06	 cmp	 eax, 6
  00065	76 4b		 jbe	 SHORT $LN2@GetHCDDriv

; 1271 : 		{
; 1272 : 			driverKeyNameW = (struct _USB_HCD_DRIVERKEY_NAME *)malloc(nBytes);

  00067	50		 push	 eax
  00068	e8 00 00 00 00	 call	 _malloc
  0006d	8b f0		 mov	 esi, eax
  0006f	83 c4 04	 add	 esp, 4

; 1273 :             if(driverKeyNameW)

  00072	3b f5		 cmp	 esi, ebp
  00074	74 3c		 je	 SHORT $LN2@GetHCDDriv

; 1274 :             {
; 1275 :                 memset(driverKeyNameW,0x00,nBytes);

  00076	8b 44 24 0c	 mov	 eax, DWORD PTR _nBytes$[esp+28]
  0007a	50		 push	 eax
  0007b	55		 push	 ebp
  0007c	56		 push	 esi
  0007d	e8 00 00 00 00	 call	 _memset

; 1276 : 
; 1277 : 			    // Get the name of the driver key of the device attached to
; 1278 : 			    // the specified port.
; 1279 : 			    //
; 1280 : 			    success = DeviceIoControl(HCD,
; 1281 : 									      IOCTL_GET_HCD_DRIVERKEY_NAME,
; 1282 : 									      driverKeyNameW,
; 1283 : 									      nBytes,
; 1284 : 									      driverKeyNameW,
; 1285 : 									      nBytes,
; 1286 : 									      &nBytes,
; 1287 : 									      NULL);

  00082	8b 44 24 18	 mov	 eax, DWORD PTR _nBytes$[esp+40]
  00086	83 c4 0c	 add	 esp, 12			; 0000000cH
  00089	55		 push	 ebp
  0008a	8d 4c 24 10	 lea	 ecx, DWORD PTR _nBytes$[esp+32]
  0008e	51		 push	 ecx
  0008f	50		 push	 eax
  00090	56		 push	 esi
  00091	50		 push	 eax
  00092	56		 push	 esi
  00093	68 24 04 22 00	 push	 2229284			; 00220424H
  00098	57		 push	 edi
  00099	ff d3		 call	 ebx

; 1288 : 
; 1289 : 			    if (success)

  0009b	85 c0		 test	 eax, eax
  0009d	74 0a		 je	 SHORT $LN1@GetHCDDriv

; 1290 : 			    {
; 1291 : 				    // Convert the driver key name
; 1292 : 				    //
; 1293 : 				    driverKeyNameA = WideStrToMultiStr(driverKeyNameW->DriverKeyName);

  0009f	8d 5e 04	 lea	 ebx, DWORD PTR [esi+4]
  000a2	e8 00 00 00 00	 call	 ?WideStrToMultiStr@@YAPADPA_W@Z ; WideStrToMultiStr
  000a7	8b e8		 mov	 ebp, eax
$LN1@GetHCDDriv:

; 1294 : 			    }
; 1295 : 			    free(driverKeyNameW);

  000a9	56		 push	 esi
  000aa	e8 00 00 00 00	 call	 _free
  000af	83 c4 04	 add	 esp, 4
$LN2@GetHCDDriv:

; 1296 : 		    }
; 1297 :         }
; 1298 : 	}
; 1299 :     Log(LOG_DEBUG,__LINE__,"<< USB.GetHCDDrvKeyName, DrvKeyName %X",driverKeyNameA);

  000b2	55		 push	 ebp
  000b3	68 00 00 00 00	 push	 OFFSET ??_C@_0CH@BGNGLHKH@?$DM?$DM?5USB?4GetHCDDrvKeyName?0?5DrvKeyN@
  000b8	68 13 05 00 00	 push	 1299			; 00000513H
  000bd	6a 10		 push	 16			; 00000010H
  000bf	e8 00 00 00 00	 call	 ?Log@@YAXHHPBDZZ	; Log

; 1300 : 	return driverKeyNameA;
; 1301 : }

  000c4	8b 4c 24 28	 mov	 ecx, DWORD PTR __$ArrayPad$[esp+44]
  000c8	83 c4 10	 add	 esp, 16			; 00000010H
  000cb	5e		 pop	 esi
  000cc	8b c5		 mov	 eax, ebp
  000ce	5d		 pop	 ebp
  000cf	5b		 pop	 ebx
  000d0	33 cc		 xor	 ecx, esp
  000d2	e8 00 00 00 00	 call	 @__security_check_cookie@4
  000d7	83 c4 10	 add	 esp, 16			; 00000010H
  000da	c3		 ret	 0
?GetHCDDriverKeyName@USB@@IAEPADPAX@Z ENDP		; USB::GetHCDDriverKeyName
_TEXT	ENDS
PUBLIC	__$ArrayPad$
PUBLIC	?GetRootHubName@USB@@IAEPADPAX@Z		; USB::GetRootHubName
; Function compile flags: /Ogtpy
;	COMDAT ?GetRootHubName@USB@@IAEPADPAX@Z
_TEXT	SEGMENT
_nBytes$ = -16						; size = 4
_rootHubName$ = -12					; size = 6
__$ArrayPad$ = -4					; size = 4
?GetRootHubName@USB@@IAEPADPAX@Z PROC			; USB::GetRootHubName, COMDAT
; _HostController$ = esi

; 1185 : {

  00000	83 ec 10	 sub	 esp, 16			; 00000010H
  00003	a1 00 00 00 00	 mov	 eax, DWORD PTR ___security_cookie
  00008	33 c4		 xor	 eax, esp
  0000a	89 44 24 0c	 mov	 DWORD PTR __$ArrayPad$[esp+16], eax
  0000e	53		 push	 ebx
  0000f	55		 push	 ebp
  00010	57		 push	 edi

; 1186 :     BOOL                success;
; 1187 :     ULONG               nBytes = 0;
; 1188 :     USB_ROOT_HUB_NAME   rootHubName;
; 1189 :     PUSB_ROOT_HUB_NAME  rootHubNameW = NULL;
; 1190 :     PCHAR               rootHubNameA = NULL;
; 1191 : 
; 1192 :     Log(LOG_DEBUG,__LINE__,">> USB.GetRootHub");

  00011	68 00 00 00 00	 push	 OFFSET ??_C@_0BC@PGMOMHHM@?$DO?$DO?5USB?4GetRootHub?$AA@
  00016	68 a8 04 00 00	 push	 1192			; 000004a8H
  0001b	33 ed		 xor	 ebp, ebp
  0001d	6a 10		 push	 16			; 00000010H
  0001f	89 6c 24 18	 mov	 DWORD PTR _nBytes$[esp+40], ebp
  00023	e8 00 00 00 00	 call	 ?Log@@YAXHHPBDZZ	; Log

; 1193 : 
; 1194 :     memset(&rootHubName,0x00,sizeof(rootHubName));
; 1195 : 
; 1196 :     // Get the length of the name of the Root Hub attached to the
; 1197 :     // Host Controller
; 1198 :     //
; 1199 :     success = DeviceIoControl(HostController,
; 1200 :                               IOCTL_USB_GET_ROOT_HUB_NAME,
; 1201 :                               0,
; 1202 :                               0,
; 1203 :                               &rootHubName,
; 1204 :                               sizeof(rootHubName),
; 1205 :                               &nBytes,
; 1206 :                               NULL);

  00028	8b 1d 00 00 00
	00		 mov	 ebx, DWORD PTR __imp__DeviceIoControl@32
  0002e	83 c4 0c	 add	 esp, 12			; 0000000cH
  00031	55		 push	 ebp
  00032	33 c0		 xor	 eax, eax
  00034	89 44 24 14	 mov	 DWORD PTR _rootHubName$[esp+32], eax
  00038	66 89 44 24 18	 mov	 WORD PTR _rootHubName$[esp+36], ax
  0003d	8d 44 24 10	 lea	 eax, DWORD PTR _nBytes$[esp+32]
  00041	50		 push	 eax
  00042	6a 06		 push	 6
  00044	8d 4c 24 1c	 lea	 ecx, DWORD PTR _rootHubName$[esp+40]
  00048	51		 push	 ecx
  00049	55		 push	 ebp
  0004a	55		 push	 ebp
  0004b	68 08 04 22 00	 push	 2229256			; 00220408H
  00050	56		 push	 esi
  00051	ff d3		 call	 ebx

; 1207 :     if (success)

  00053	85 c0		 test	 eax, eax
  00055	74 53		 je	 SHORT $LN2@GetRootHub

; 1208 :     {
; 1209 : 		// Allocate space to hold the Root Hub name
; 1210 : 		//
; 1211 : 		nBytes = rootHubName.ActualLength;

  00057	8b 44 24 10	 mov	 eax, DWORD PTR _rootHubName$[esp+28]

; 1212 : 
; 1213 : 		rootHubNameW = (struct _USB_ROOT_HUB_NAME *)malloc(nBytes);

  0005b	50		 push	 eax
  0005c	89 44 24 10	 mov	 DWORD PTR _nBytes$[esp+32], eax
  00060	e8 00 00 00 00	 call	 _malloc
  00065	8b f8		 mov	 edi, eax
  00067	83 c4 04	 add	 esp, 4

; 1214 :         if(rootHubNameW)

  0006a	3b fd		 cmp	 edi, ebp
  0006c	74 3c		 je	 SHORT $LN2@GetRootHub

; 1215 :         {
; 1216 :             memset(rootHubNameW,0x00,nBytes);

  0006e	8b 54 24 0c	 mov	 edx, DWORD PTR _nBytes$[esp+28]
  00072	52		 push	 edx
  00073	55		 push	 ebp
  00074	57		 push	 edi
  00075	e8 00 00 00 00	 call	 _memset

; 1217 : 
; 1218 : 		    // Get the name of the Root Hub attached to the Host Controller
; 1219 : 		    //
; 1220 : 		    success = DeviceIoControl(HostController,
; 1221 : 								      IOCTL_USB_GET_ROOT_HUB_NAME,
; 1222 : 								      NULL,
; 1223 : 								      0,
; 1224 : 								      rootHubNameW,
; 1225 : 								      nBytes,
; 1226 : 								      &nBytes,
; 1227 : 								      NULL);

  0007a	8b 4c 24 18	 mov	 ecx, DWORD PTR _nBytes$[esp+40]
  0007e	83 c4 0c	 add	 esp, 12			; 0000000cH
  00081	55		 push	 ebp
  00082	8d 44 24 10	 lea	 eax, DWORD PTR _nBytes$[esp+32]
  00086	50		 push	 eax
  00087	51		 push	 ecx
  00088	57		 push	 edi
  00089	55		 push	 ebp
  0008a	55		 push	 ebp
  0008b	68 08 04 22 00	 push	 2229256			; 00220408H
  00090	56		 push	 esi
  00091	ff d3		 call	 ebx

; 1228 : 
; 1229 : 		    if (success)

  00093	85 c0		 test	 eax, eax
  00095	74 0a		 je	 SHORT $LN1@GetRootHub

; 1230 : 		    {
; 1231 : 			    // Convert the Root Hub name
; 1232 : 			    //
; 1233 : 			    rootHubNameA = WideStrToMultiStr(rootHubNameW->RootHubName);

  00097	8d 5f 04	 lea	 ebx, DWORD PTR [edi+4]
  0009a	e8 00 00 00 00	 call	 ?WideStrToMultiStr@@YAPADPA_W@Z ; WideStrToMultiStr
  0009f	8b e8		 mov	 ebp, eax
$LN1@GetRootHub:

; 1234 : 		    }
; 1235 : 		    free(rootHubNameW);

  000a1	57		 push	 edi
  000a2	e8 00 00 00 00	 call	 _free
  000a7	83 c4 04	 add	 esp, 4
$LN2@GetRootHub:

; 1236 :         }
; 1237 : 	}
; 1238 :     Log(LOG_DEBUG,__LINE__,"<< USB.GetRootHub, HubName %X",rootHubNameA);

  000aa	55		 push	 ebp
  000ab	68 00 00 00 00	 push	 OFFSET ??_C@_0BO@LDLFLMCA@?$DM?$DM?5USB?4GetRootHub?0?5HubName?5?$CFX?$AA@
  000b0	68 d6 04 00 00	 push	 1238			; 000004d6H
  000b5	6a 10		 push	 16			; 00000010H
  000b7	e8 00 00 00 00	 call	 ?Log@@YAXHHPBDZZ	; Log

; 1239 : 	return rootHubNameA;
; 1240 : }

  000bc	8b 4c 24 28	 mov	 ecx, DWORD PTR __$ArrayPad$[esp+44]
  000c0	83 c4 10	 add	 esp, 16			; 00000010H
  000c3	5f		 pop	 edi
  000c4	8b c5		 mov	 eax, ebp
  000c6	5d		 pop	 ebp
  000c7	5b		 pop	 ebx
  000c8	33 cc		 xor	 ecx, esp
  000ca	e8 00 00 00 00	 call	 @__security_check_cookie@4
  000cf	83 c4 10	 add	 esp, 16			; 00000010H
  000d2	c3		 ret	 0
?GetRootHubName@USB@@IAEPADPAX@Z ENDP			; USB::GetRootHubName
_TEXT	ENDS
PUBLIC	?DriverNameToDeviceDesc@USB@@IAEPADPAD@Z	; USB::DriverNameToDeviceDesc
; Function compile flags: /Ogtpy
;	COMDAT ?DriverNameToDeviceDesc@USB@@IAEPADPAD@Z
_TEXT	SEGMENT
_devInst$ = -12						; size = 4
_devInstNext$ = -8					; size = 4
_len$ = -4						; size = 4
_DriverName$ = 8					; size = 4
?DriverNameToDeviceDesc@USB@@IAEPADPAD@Z PROC		; USB::DriverNameToDeviceDesc, COMDAT
; _this$ = esi

; 954  : {

  00000	83 ec 0c	 sub	 esp, 12			; 0000000cH

; 955  :     DEVINST     devInst = 0;
; 956  :     DEVINST     devInstNext = 0;
; 957  :     CONFIGRET   cr = 0;
; 958  :     ULONG       walkDone = 0;
; 959  :     ULONG       len = 0;
; 960  : 
; 961  :     Log(LOG_DEBUG,__LINE__,">> USB.DrvName2DevDesc, Drv %s",DriverName);

  00003	8b 44 24 10	 mov	 eax, DWORD PTR _DriverName$[esp+8]
  00007	57		 push	 edi
  00008	50		 push	 eax
  00009	68 00 00 00 00	 push	 OFFSET ??_C@_0BP@KMJAGKHH@?$DO?$DO?5USB?4DrvName2DevDesc?0?5Drv?5?$CFs?$AA@
  0000e	68 c1 03 00 00	 push	 961			; 000003c1H
  00013	6a 10		 push	 16			; 00000010H
  00015	c7 44 24 14 00
	00 00 00	 mov	 DWORD PTR _devInst$[esp+32], 0
  0001d	c7 44 24 18 00
	00 00 00	 mov	 DWORD PTR _devInstNext$[esp+32], 0
  00025	c7 44 24 1c 00
	00 00 00	 mov	 DWORD PTR _len$[esp+32], 0
  0002d	e8 00 00 00 00	 call	 ?Log@@YAXHHPBDZZ	; Log

; 962  : 
; 963  :     // Get Root DevNode
; 964  :     //
; 965  :     cr = (*lpfnCM_Locate_DevNodeA)(&devInst,NULL,0);

  00032	8b 96 34 02 00
	00		 mov	 edx, DWORD PTR [esi+564]
  00038	83 c4 10	 add	 esp, 16			; 00000010H
  0003b	6a 00		 push	 0
  0003d	6a 00		 push	 0
  0003f	8d 4c 24 0c	 lea	 ecx, DWORD PTR _devInst$[esp+24]
  00043	51		 push	 ecx
  00044	ff d2		 call	 edx

; 966  :     if (cr != CR_SUCCESS)

  00046	85 c0		 test	 eax, eax
  00048	74 1e		 je	 SHORT $LN22@DriverName

; 967  :     {
; 968  :         Log(LOG_DEBUG,__LINE__,"<< USB.DrvName2DevDesc, LocateDevNote %u",cr);

  0004a	50		 push	 eax
  0004b	68 00 00 00 00	 push	 OFFSET ??_C@_0CJ@PHHANNLH@?$DM?$DM?5USB?4DrvName2DevDesc?0?5LocateDe@
  00050	68 c8 03 00 00	 push	 968			; 000003c8H
  00055	6a 10		 push	 16			; 00000010H
  00057	e8 00 00 00 00	 call	 ?Log@@YAXHHPBDZZ	; Log
  0005c	83 c4 10	 add	 esp, 16			; 00000010H

; 1048 :     return NULL;

  0005f	33 c0		 xor	 eax, eax

; 1049 : }

  00061	5f		 pop	 edi
  00062	83 c4 0c	 add	 esp, 12			; 0000000cH
  00065	c2 04 00	 ret	 4
$LN22@DriverName:

; 969  :         return NULL;

  00068	8b 44 24 04	 mov	 eax, DWORD PTR _devInst$[esp+16]
  0006c	8d 7e 0c	 lea	 edi, DWORD PTR [esi+12]
  0006f	90		 npad	 1
$LL11@DriverName:

; 970  :     }
; 971  : 
; 972  :     // Do a depth first search for the DevNode with a matching
; 973  :     // DriverName value
; 974  :     //
; 975  :     while (!walkDone)
; 976  :     {
; 977  :         // Get the DriverName value
; 978  :         //
; 979  :         len = sizeof(buf);
; 980  :         cr = (*lpfnCM_Get_DevNode_Registry_PropertyA)(devInst,
; 981  :                                               CM_DRP_DRIVER,
; 982  :                                               NULL,
; 983  :                                               buf,
; 984  :                                               &len,
; 985  :                                               0);

  00070	8b 96 30 02 00
	00		 mov	 edx, DWORD PTR [esi+560]
  00076	6a 00		 push	 0
  00078	8d 4c 24 10	 lea	 ecx, DWORD PTR _len$[esp+20]
  0007c	51		 push	 ecx
  0007d	57		 push	 edi
  0007e	6a 00		 push	 0
  00080	6a 0a		 push	 10			; 0000000aH
  00082	50		 push	 eax
  00083	c7 44 24 24 00
	02 00 00	 mov	 DWORD PTR _len$[esp+40], 512 ; 00000200H
  0008b	ff d2		 call	 edx

; 986  : 
; 987  :         // If the DriverName value matches, return the DeviceDescription
; 988  :         //
; 989  :         if (cr == CR_SUCCESS && strcmp(DriverName, buf) == 0)

  0008d	85 c0		 test	 eax, eax
  0008f	75 33		 jne	 SHORT $LN7@DriverName
  00091	8b 44 24 14	 mov	 eax, DWORD PTR _DriverName$[esp+12]
  00095	8b cf		 mov	 ecx, edi
$LL25@DriverName:
  00097	8a 10		 mov	 dl, BYTE PTR [eax]
  00099	3a 11		 cmp	 dl, BYTE PTR [ecx]
  0009b	75 1a		 jne	 SHORT $LN26@DriverName
  0009d	84 d2		 test	 dl, dl
  0009f	74 12		 je	 SHORT $LN27@DriverName
  000a1	8a 50 01	 mov	 dl, BYTE PTR [eax+1]
  000a4	3a 51 01	 cmp	 dl, BYTE PTR [ecx+1]
  000a7	75 0e		 jne	 SHORT $LN26@DriverName
  000a9	83 c0 02	 add	 eax, 2
  000ac	83 c1 02	 add	 ecx, 2
  000af	84 d2		 test	 dl, dl
  000b1	75 e4		 jne	 SHORT $LL25@DriverName
$LN27@DriverName:
  000b3	33 c0		 xor	 eax, eax
  000b5	eb 05		 jmp	 SHORT $LN28@DriverName
$LN26@DriverName:
  000b7	1b c0		 sbb	 eax, eax
  000b9	83 d8 ff	 sbb	 eax, -1
$LN28@DriverName:
  000bc	85 c0		 test	 eax, eax
  000be	0f 84 81 00 00
	00		 je	 $LN19@DriverName
$LN7@DriverName:

; 1007 :                 return NULL;
; 1008 :             }
; 1009 :         }
; 1010 : 
; 1011 :         // This DevNode didn't match, go down a level to the first child.
; 1012 :         //
; 1013 :         cr = (*lpfnCM_Get_Child)(&devInstNext,devInst,0);

  000c4	8b 44 24 04	 mov	 eax, DWORD PTR _devInst$[esp+16]
  000c8	8b 96 2c 02 00
	00		 mov	 edx, DWORD PTR [esi+556]
  000ce	6a 00		 push	 0
  000d0	50		 push	 eax
  000d1	8d 4c 24 10	 lea	 ecx, DWORD PTR _devInstNext$[esp+24]
  000d5	51		 push	 ecx
  000d6	ff d2		 call	 edx

; 1014 :         if (cr == CR_SUCCESS)

  000d8	85 c0		 test	 eax, eax
  000da	75 0a		 jne	 SHORT $LN17@DriverName

; 1015 :         {
; 1016 :             devInst = devInstNext;

  000dc	8b 44 24 08	 mov	 eax, DWORD PTR _devInstNext$[esp+16]
  000e0	89 44 24 04	 mov	 DWORD PTR _devInst$[esp+16], eax

; 1017 :             continue;

  000e4	eb 8a		 jmp	 SHORT $LL11@DriverName
$LN17@DriverName:

; 1018 :         }
; 1019 : 
; 1020 :         // Can't go down any further, go across to the next sibling.  If
; 1021 :         // there are no more siblings, go back up until there is a sibling.
; 1022 :         // If we can't go up any further, we're back at the root and we're
; 1023 :         // done.
; 1024 :         //
; 1025 :         for (;;)
; 1026 :         {
; 1027 :             cr = (*lpfnCM_Get_Sibling)(&devInstNext,devInst,0);

  000e6	8b 44 24 04	 mov	 eax, DWORD PTR _devInst$[esp+16]
  000ea	8b 96 28 02 00
	00		 mov	 edx, DWORD PTR [esi+552]
  000f0	6a 00		 push	 0
  000f2	50		 push	 eax
  000f3	8d 4c 24 10	 lea	 ecx, DWORD PTR _devInstNext$[esp+24]
  000f7	51		 push	 ecx
  000f8	ff d2		 call	 edx

; 1028 :             if (cr == CR_SUCCESS)

  000fa	85 c0		 test	 eax, eax
  000fc	74 3a		 je	 SHORT $LN18@DriverName
  000fe	8b ff		 npad	 2
$LL5@DriverName:

; 1031 :                 break;
; 1032 :             }
; 1033 : 
; 1034 :             cr = (*lpfnCM_Get_Parent)(&devInstNext,devInst,0);

  00100	8b 44 24 04	 mov	 eax, DWORD PTR _devInst$[esp+16]
  00104	8b 96 24 02 00
	00		 mov	 edx, DWORD PTR [esi+548]
  0010a	6a 00		 push	 0
  0010c	50		 push	 eax
  0010d	8d 4c 24 10	 lea	 ecx, DWORD PTR _devInstNext$[esp+24]
  00111	51		 push	 ecx
  00112	ff d2		 call	 edx

; 1035 :             if (cr == CR_SUCCESS)

  00114	85 c0		 test	 eax, eax
  00116	0f 85 8a 00 00
	00		 jne	 $LN10@DriverName

; 1036 :             {
; 1037 :                 devInst = devInstNext;

  0011c	8b 44 24 08	 mov	 eax, DWORD PTR _devInstNext$[esp+16]
  00120	8b 8e 28 02 00
	00		 mov	 ecx, DWORD PTR [esi+552]
  00126	6a 00		 push	 0
  00128	50		 push	 eax
  00129	89 44 24 0c	 mov	 DWORD PTR _devInst$[esp+24], eax
  0012d	8d 44 24 10	 lea	 eax, DWORD PTR _devInstNext$[esp+24]
  00131	50		 push	 eax
  00132	ff d1		 call	 ecx
  00134	85 c0		 test	 eax, eax
  00136	75 c8		 jne	 SHORT $LL5@DriverName
$LN18@DriverName:

; 1029 :             {
; 1030 :                 devInst = devInstNext;

  00138	8b 44 24 08	 mov	 eax, DWORD PTR _devInstNext$[esp+16]
  0013c	89 44 24 04	 mov	 DWORD PTR _devInst$[esp+16], eax
  00140	e9 2b ff ff ff	 jmp	 $LL11@DriverName
$LN19@DriverName:

; 990  :         {
; 991  :             len = sizeof(buf);
; 992  :             cr = (*lpfnCM_Get_DevNode_Registry_PropertyA)(devInst,
; 993  :                                                   CM_DRP_DEVICEDESC,
; 994  :                                                   NULL,
; 995  :                                                   buf,
; 996  :                                                   &len,
; 997  :                                                   0);

  00145	8b 44 24 04	 mov	 eax, DWORD PTR _devInst$[esp+16]
  00149	8b 8e 30 02 00
	00		 mov	 ecx, DWORD PTR [esi+560]
  0014f	6a 00		 push	 0
  00151	8d 54 24 10	 lea	 edx, DWORD PTR _len$[esp+20]
  00155	52		 push	 edx
  00156	57		 push	 edi
  00157	6a 00		 push	 0
  00159	6a 01		 push	 1
  0015b	50		 push	 eax
  0015c	c7 44 24 24 00
	02 00 00	 mov	 DWORD PTR _len$[esp+40], 512 ; 00000200H
  00164	ff d1		 call	 ecx

; 998  : 
; 999  :             if (cr == CR_SUCCESS)

  00166	85 c0		 test	 eax, eax
  00168	75 1e		 jne	 SHORT $LN8@DriverName

; 1000 :             {
; 1001 :                 Log(LOG_DEBUG,__LINE__,"<< USB.DrvName2DevDesc, ret %X",buf);

  0016a	57		 push	 edi
  0016b	68 00 00 00 00	 push	 OFFSET ??_C@_0BP@BAEOHBIH@?$DM?$DM?5USB?4DrvName2DevDesc?0?5ret?5?$CFX?$AA@
  00170	68 e9 03 00 00	 push	 1001			; 000003e9H
  00175	6a 10		 push	 16			; 00000010H
  00177	e8 00 00 00 00	 call	 ?Log@@YAXHHPBDZZ	; Log
  0017c	83 c4 10	 add	 esp, 16			; 00000010H

; 1002 :                 return buf;

  0017f	8b c7		 mov	 eax, edi

; 1049 : }

  00181	5f		 pop	 edi
  00182	83 c4 0c	 add	 esp, 12			; 0000000cH
  00185	c2 04 00	 ret	 4
$LN8@DriverName:

; 1003 :             }
; 1004 :             else
; 1005 :             {
; 1006 :                 Log(LOG_DEBUG,__LINE__,"<< USB.DrvName2DevDesc, GetDevNodeRegProps %u",cr);

  00188	50		 push	 eax
  00189	68 00 00 00 00	 push	 OFFSET ??_C@_0CO@BAPAALJK@?$DM?$DM?5USB?4DrvName2DevDesc?0?5GetDevNo@
  0018e	68 ee 03 00 00	 push	 1006			; 000003eeH
  00193	6a 10		 push	 16			; 00000010H
  00195	e8 00 00 00 00	 call	 ?Log@@YAXHHPBDZZ	; Log
  0019a	83 c4 10	 add	 esp, 16			; 00000010H

; 1048 :     return NULL;

  0019d	33 c0		 xor	 eax, eax

; 1049 : }

  0019f	5f		 pop	 edi
  001a0	83 c4 0c	 add	 esp, 12			; 0000000cH
  001a3	c2 04 00	 ret	 4
$LN10@DriverName:

; 1038 :             }
; 1039 :             else
; 1040 :             {
; 1041 :                 walkDone = 1;
; 1042 :                 break;
; 1043 :             }
; 1044 :         }
; 1045 :     }
; 1046 : 
; 1047 :     Log(LOG_DEBUG,__LINE__,"<< USB.DrvName2DevDesc, Ret Null");

  001a6	68 00 00 00 00	 push	 OFFSET ??_C@_0CB@OFAOPKJL@?$DM?$DM?5USB?4DrvName2DevDesc?0?5Ret?5Null@
  001ab	68 17 04 00 00	 push	 1047			; 00000417H
  001b0	6a 10		 push	 16			; 00000010H
  001b2	e8 00 00 00 00	 call	 ?Log@@YAXHHPBDZZ	; Log
  001b7	83 c4 0c	 add	 esp, 12			; 0000000cH

; 1048 :     return NULL;

  001ba	33 c0		 xor	 eax, eax

; 1049 : }

  001bc	5f		 pop	 edi
  001bd	83 c4 0c	 add	 esp, 12			; 0000000cH
  001c0	c2 04 00	 ret	 4
?DriverNameToDeviceDesc@USB@@IAEPADPAD@Z ENDP		; USB::DriverNameToDeviceDesc
_TEXT	ENDS
PUBLIC	__$ArrayPad$
PUBLIC	?GetExternalHubName@USB@@IAEPADPAXK@Z		; USB::GetExternalHubName
; Function compile flags: /Ogtpy
;	COMDAT ?GetExternalHubName@USB@@IAEPADPAXK@Z
_TEXT	SEGMENT
_nBytes$ = -24						; size = 4
_extHubNameA$ = -20					; size = 4
_extHubName$ = -16					; size = 10
__$ArrayPad$ = -4					; size = 4
?GetExternalHubName@USB@@IAEPADPAXK@Z PROC		; USB::GetExternalHubName, COMDAT
; _Hub$ = edi
; _ConnectionIndex$ = ecx

; 614  : {

  00000	83 ec 18	 sub	 esp, 24			; 00000018H
  00003	a1 00 00 00 00	 mov	 eax, DWORD PTR ___security_cookie
  00008	33 c4		 xor	 eax, esp
  0000a	89 44 24 14	 mov	 DWORD PTR __$ArrayPad$[esp+24], eax
  0000e	53		 push	 ebx
  0000f	55		 push	 ebp
  00010	56		 push	 esi

; 615  :     BOOL                        success;
; 616  :     ULONG                       nBytes = 0;
; 617  :     USB_NODE_CONNECTION_NAME    extHubName;
; 618  :     PUSB_NODE_CONNECTION_NAME   extHubNameW = NULL;
; 619  :     PCHAR                       extHubNameA = NULL;
; 620  : 
; 621  :     Log(LOG_DEBUG,__LINE__,">> USB.GetExternHub");

  00011	68 00 00 00 00	 push	 OFFSET ??_C@_0BE@BDIOPGJF@?$DO?$DO?5USB?4GetExternHub?$AA@
  00016	33 f6		 xor	 esi, esi
  00018	68 6d 02 00 00	 push	 621			; 0000026dH
  0001d	6a 10		 push	 16			; 00000010H
  0001f	8b d9		 mov	 ebx, ecx
  00021	89 74 24 18	 mov	 DWORD PTR _nBytes$[esp+48], esi
  00025	89 74 24 1c	 mov	 DWORD PTR _extHubNameA$[esp+48], esi
  00029	e8 00 00 00 00	 call	 ?Log@@YAXHHPBDZZ	; Log

; 622  : 
; 623  :     // Get the length of the name of the external hub attached to the
; 624  :     // specified port.
; 625  :     //
; 626  : 	memset (&extHubName, 0, sizeof(extHubName));
; 627  :     extHubName.ConnectionIndex = ConnectionIndex;
; 628  : 
; 629  :     success = DeviceIoControl(Hub,
; 630  :                               IOCTL_USB_GET_NODE_CONNECTION_NAME,
; 631  :                               &extHubName,
; 632  :                               sizeof(extHubName),
; 633  :                               &extHubName,
; 634  :                               sizeof(extHubName),
; 635  :                               &nBytes,
; 636  :                               NULL);

  0002e	8b 2d 00 00 00
	00		 mov	 ebp, DWORD PTR __imp__DeviceIoControl@32
  00034	83 c4 0c	 add	 esp, 12			; 0000000cH
  00037	33 c0		 xor	 eax, eax
  00039	56		 push	 esi
  0003a	89 44 24 18	 mov	 DWORD PTR _extHubName$[esp+40], eax
  0003e	89 44 24 1c	 mov	 DWORD PTR _extHubName$[esp+44], eax
  00042	66 89 44 24 20	 mov	 WORD PTR _extHubName$[esp+48], ax
  00047	8d 44 24 10	 lea	 eax, DWORD PTR _nBytes$[esp+40]
  0004b	50		 push	 eax
  0004c	6a 0a		 push	 10			; 0000000aH
  0004e	8d 4c 24 20	 lea	 ecx, DWORD PTR _extHubName$[esp+48]
  00052	51		 push	 ecx
  00053	6a 0a		 push	 10			; 0000000aH
  00055	8b d1		 mov	 edx, ecx
  00057	52		 push	 edx
  00058	68 14 04 22 00	 push	 2229268			; 00220414H
  0005d	57		 push	 edi
  0005e	89 5c 24 34	 mov	 DWORD PTR _extHubName$[esp+68], ebx
  00062	ff d5		 call	 ebp

; 637  : 
; 638  :     if (success)

  00064	85 c0		 test	 eax, eax
  00066	74 79		 je	 SHORT $LN1@GetExterna

; 639  :     {
; 640  : 		// Allocate space to hold the external hub name
; 641  : 		//
; 642  : 		nBytes = extHubName.ActualLength;

  00068	8b 44 24 18	 mov	 eax, DWORD PTR _extHubName$[esp+40]
  0006c	89 44 24 0c	 mov	 DWORD PTR _nBytes$[esp+36], eax

; 643  : 
; 644  : 		if (nBytes > sizeof(extHubName))

  00070	83 f8 0a	 cmp	 eax, 10			; 0000000aH
  00073	76 6c		 jbe	 SHORT $LN1@GetExterna

; 645  : 		{
; 646  : 			extHubNameW = (struct _USB_NODE_CONNECTION_NAME *)malloc(nBytes);

  00075	50		 push	 eax
  00076	e8 00 00 00 00	 call	 _malloc
  0007b	8b f0		 mov	 esi, eax
  0007d	83 c4 04	 add	 esp, 4

; 647  :             if(extHubNameW)

  00080	85 f6		 test	 esi, esi
  00082	74 44		 je	 SHORT $LN3@GetExterna

; 648  :             {
; 649  :                 memset(extHubNameW,0x00,nBytes);

  00084	8b 44 24 0c	 mov	 eax, DWORD PTR _nBytes$[esp+36]
  00088	50		 push	 eax
  00089	6a 00		 push	 0
  0008b	56		 push	 esi
  0008c	e8 00 00 00 00	 call	 _memset
  00091	83 c4 0c	 add	 esp, 12			; 0000000cH

; 650  : 
; 651  : 			    // Get the name of the external hub attached to the specified port
; 652  : 			    //
; 653  : 			    extHubNameW->ConnectionIndex = ConnectionIndex;
; 654  : 
; 655  : 			    success = DeviceIoControl(Hub,
; 656  : 									      IOCTL_USB_GET_NODE_CONNECTION_NAME,
; 657  : 									      extHubNameW,
; 658  : 									      nBytes,
; 659  : 									      extHubNameW,
; 660  : 									      nBytes,
; 661  : 									      &nBytes,
; 662  : 									      NULL);

  00094	6a 00		 push	 0
  00096	8d 4c 24 10	 lea	 ecx, DWORD PTR _nBytes$[esp+40]
  0009a	51		 push	 ecx
  0009b	89 1e		 mov	 DWORD PTR [esi], ebx
  0009d	8b 44 24 14	 mov	 eax, DWORD PTR _nBytes$[esp+44]
  000a1	50		 push	 eax
  000a2	56		 push	 esi
  000a3	50		 push	 eax
  000a4	56		 push	 esi
  000a5	68 14 04 22 00	 push	 2229268			; 00220414H
  000aa	57		 push	 edi
  000ab	ff d5		 call	 ebp

; 663  : 
; 664  : 			    if (success)

  000ad	85 c0		 test	 eax, eax
  000af	74 0c		 je	 SHORT $LN2@GetExterna

; 665  : 			    {
; 666  : 				    // Convert the External Hub name
; 667  : 				    //
; 668  : 				    extHubNameA = WideStrToMultiStr(extHubNameW->NodeName);

  000b1	8d 5e 08	 lea	 ebx, DWORD PTR [esi+8]
  000b4	e8 00 00 00 00	 call	 ?WideStrToMultiStr@@YAPADPA_W@Z ; WideStrToMultiStr
  000b9	89 44 24 10	 mov	 DWORD PTR _extHubNameA$[esp+36], eax
$LN2@GetExterna:

; 669  : 			    }
; 670  : 			    free(extHubNameW);

  000bd	56		 push	 esi
  000be	e8 00 00 00 00	 call	 _free
  000c3	83 c4 04	 add	 esp, 4

; 671  :             }
; 672  :             else

  000c6	eb 19		 jmp	 SHORT $LN1@GetExterna
$LN3@GetExterna:

; 673  :             {
; 674  :                 Log(LOG_DEBUG,__LINE__,"-- USB.GetExtHubName, new extHubNameW (%u) null",nBytes);

  000c8	8b 54 24 0c	 mov	 edx, DWORD PTR _nBytes$[esp+36]
  000cc	52		 push	 edx
  000cd	68 00 00 00 00	 push	 OFFSET ??_C@_0DA@HJNGPFIB@?9?9?5USB?4GetExtHubName?0?5new?5extHub@
  000d2	68 a2 02 00 00	 push	 674			; 000002a2H
  000d7	6a 10		 push	 16			; 00000010H
  000d9	e8 00 00 00 00	 call	 ?Log@@YAXHHPBDZZ	; Log
  000de	83 c4 10	 add	 esp, 16			; 00000010H
$LN1@GetExterna:

; 675  :             }
; 676  : 		}
; 677  : 	}
; 678  :     Log(LOG_DEBUG,__LINE__,"<< USB.GetExternHub, HubName %X",extHubNameA);

  000e1	8b 74 24 10	 mov	 esi, DWORD PTR _extHubNameA$[esp+36]
  000e5	56		 push	 esi
  000e6	68 00 00 00 00	 push	 OFFSET ??_C@_0CA@PKLCHKGO@?$DM?$DM?5USB?4GetExternHub?0?5HubName?5?$CFX?$AA@
  000eb	68 a6 02 00 00	 push	 678			; 000002a6H
  000f0	6a 10		 push	 16			; 00000010H
  000f2	e8 00 00 00 00	 call	 ?Log@@YAXHHPBDZZ	; Log

; 679  : 	return extHubNameA;
; 680  : }

  000f7	8b 4c 24 30	 mov	 ecx, DWORD PTR __$ArrayPad$[esp+52]
  000fb	83 c4 10	 add	 esp, 16			; 00000010H
  000fe	8b c6		 mov	 eax, esi
  00100	5e		 pop	 esi
  00101	5d		 pop	 ebp
  00102	5b		 pop	 ebx
  00103	33 cc		 xor	 ecx, esp
  00105	e8 00 00 00 00	 call	 @__security_check_cookie@4
  0010a	83 c4 18	 add	 esp, 24			; 00000018H
  0010d	c3		 ret	 0
?GetExternalHubName@USB@@IAEPADPAXK@Z ENDP		; USB::GetExternalHubName
_TEXT	ENDS
PUBLIC	__$ArrayPad$
PUBLIC	?GetDriverKeyName@USB@@IAEPADPAXK@Z		; USB::GetDriverKeyName
; Function compile flags: /Ogtpy
;	COMDAT ?GetDriverKeyName@USB@@IAEPADPAXK@Z
_TEXT	SEGMENT
_nBytes$ = -24						; size = 4
_driverKeyNameA$ = -20					; size = 4
_driverKeyName$ = -16					; size = 10
__$ArrayPad$ = -4					; size = 4
?GetDriverKeyName@USB@@IAEPADPAXK@Z PROC		; USB::GetDriverKeyName, COMDAT
; _Hub$ = edi
; _ConnectionIndex$ = ecx

; 544  : {

  00000	83 ec 18	 sub	 esp, 24			; 00000018H
  00003	a1 00 00 00 00	 mov	 eax, DWORD PTR ___security_cookie
  00008	33 c4		 xor	 eax, esp
  0000a	89 44 24 14	 mov	 DWORD PTR __$ArrayPad$[esp+24], eax
  0000e	53		 push	 ebx
  0000f	55		 push	 ebp
  00010	56		 push	 esi

; 545  :     BOOL                                success;
; 546  :     ULONG                               nBytes = 0;
; 547  :     USB_NODE_CONNECTION_DRIVERKEY_NAME  driverKeyName;
; 548  :     PUSB_NODE_CONNECTION_DRIVERKEY_NAME driverKeyNameW = NULL;
; 549  :     PCHAR                               driverKeyNameA = NULL;
; 550  : 
; 551  :     Log(LOG_DEBUG,__LINE__,">> USB.GetDrvKeyName");

  00011	68 00 00 00 00	 push	 OFFSET ??_C@_0BF@GLJHIDAC@?$DO?$DO?5USB?4GetDrvKeyName?$AA@
  00016	33 f6		 xor	 esi, esi
  00018	68 27 02 00 00	 push	 551			; 00000227H
  0001d	6a 10		 push	 16			; 00000010H
  0001f	8b d9		 mov	 ebx, ecx
  00021	89 74 24 18	 mov	 DWORD PTR _nBytes$[esp+48], esi
  00025	89 74 24 1c	 mov	 DWORD PTR _driverKeyNameA$[esp+48], esi
  00029	e8 00 00 00 00	 call	 ?Log@@YAXHHPBDZZ	; Log

; 552  : 
; 553  :     // Get the length of the name of the driver key of the device attached to
; 554  :     // the specified port.
; 555  :     //
; 556  : 	memset (&driverKeyName, 0, sizeof(driverKeyName));
; 557  :     driverKeyName.ConnectionIndex = ConnectionIndex;
; 558  : 
; 559  :     success = DeviceIoControl(Hub,
; 560  :                               IOCTL_USB_GET_NODE_CONNECTION_DRIVERKEY_NAME,
; 561  :                               &driverKeyName,
; 562  :                               sizeof(driverKeyName),
; 563  :                               &driverKeyName,
; 564  :                               sizeof(driverKeyName),
; 565  :                               &nBytes,
; 566  :                               NULL);

  0002e	8b 2d 00 00 00
	00		 mov	 ebp, DWORD PTR __imp__DeviceIoControl@32
  00034	83 c4 0c	 add	 esp, 12			; 0000000cH
  00037	33 c0		 xor	 eax, eax
  00039	56		 push	 esi
  0003a	89 44 24 18	 mov	 DWORD PTR _driverKeyName$[esp+40], eax
  0003e	89 44 24 1c	 mov	 DWORD PTR _driverKeyName$[esp+44], eax
  00042	66 89 44 24 20	 mov	 WORD PTR _driverKeyName$[esp+48], ax
  00047	8d 44 24 10	 lea	 eax, DWORD PTR _nBytes$[esp+40]
  0004b	50		 push	 eax
  0004c	6a 0a		 push	 10			; 0000000aH
  0004e	8d 4c 24 20	 lea	 ecx, DWORD PTR _driverKeyName$[esp+48]
  00052	51		 push	 ecx
  00053	6a 0a		 push	 10			; 0000000aH
  00055	8b d1		 mov	 edx, ecx
  00057	52		 push	 edx
  00058	68 20 04 22 00	 push	 2229280			; 00220420H
  0005d	57		 push	 edi
  0005e	89 5c 24 34	 mov	 DWORD PTR _driverKeyName$[esp+68], ebx
  00062	ff d5		 call	 ebp

; 567  : 
; 568  :     if (success)

  00064	85 c0		 test	 eax, eax
  00066	74 79		 je	 SHORT $LN1@GetDriverK

; 569  :     {
; 570  : 		// Allocate space to hold the driver key name
; 571  : 		//
; 572  : 		nBytes = driverKeyName.ActualLength;

  00068	8b 44 24 18	 mov	 eax, DWORD PTR _driverKeyName$[esp+40]
  0006c	89 44 24 0c	 mov	 DWORD PTR _nBytes$[esp+36], eax

; 573  : 
; 574  : 		if (nBytes > sizeof(driverKeyName))

  00070	83 f8 0a	 cmp	 eax, 10			; 0000000aH
  00073	76 6c		 jbe	 SHORT $LN1@GetDriverK

; 575  : 		{
; 576  : 			driverKeyNameW = (struct _USB_NODE_CONNECTION_DRIVERKEY_NAME *)malloc(nBytes);

  00075	50		 push	 eax
  00076	e8 00 00 00 00	 call	 _malloc
  0007b	8b f0		 mov	 esi, eax
  0007d	83 c4 04	 add	 esp, 4

; 577  :             if(driverKeyNameW)

  00080	85 f6		 test	 esi, esi
  00082	74 44		 je	 SHORT $LN3@GetDriverK

; 578  :             {
; 579  :                 memset(driverKeyNameW,0x00,nBytes);

  00084	8b 44 24 0c	 mov	 eax, DWORD PTR _nBytes$[esp+36]
  00088	50		 push	 eax
  00089	6a 00		 push	 0
  0008b	56		 push	 esi
  0008c	e8 00 00 00 00	 call	 _memset
  00091	83 c4 0c	 add	 esp, 12			; 0000000cH

; 580  : 
; 581  : 			    // Get the name of the driver key of the device attached to
; 582  : 			    // the specified port.
; 583  : 			    //
; 584  : 			    driverKeyNameW->ConnectionIndex = ConnectionIndex;
; 585  : 
; 586  : 			    success = DeviceIoControl(Hub,
; 587  : 									      IOCTL_USB_GET_NODE_CONNECTION_DRIVERKEY_NAME,
; 588  : 									      driverKeyNameW,
; 589  : 									      nBytes,
; 590  : 									      driverKeyNameW,
; 591  : 									      nBytes,
; 592  : 									      &nBytes,
; 593  : 									      NULL);

  00094	6a 00		 push	 0
  00096	8d 4c 24 10	 lea	 ecx, DWORD PTR _nBytes$[esp+40]
  0009a	51		 push	 ecx
  0009b	89 1e		 mov	 DWORD PTR [esi], ebx
  0009d	8b 44 24 14	 mov	 eax, DWORD PTR _nBytes$[esp+44]
  000a1	50		 push	 eax
  000a2	56		 push	 esi
  000a3	50		 push	 eax
  000a4	56		 push	 esi
  000a5	68 20 04 22 00	 push	 2229280			; 00220420H
  000aa	57		 push	 edi
  000ab	ff d5		 call	 ebp

; 594  : 
; 595  : 			    if (success)

  000ad	85 c0		 test	 eax, eax
  000af	74 0c		 je	 SHORT $LN2@GetDriverK

; 596  : 			    {
; 597  : 				    // Convert the driver key name
; 598  : 				    //
; 599  : 				    driverKeyNameA = WideStrToMultiStr(driverKeyNameW->DriverKeyName);

  000b1	8d 5e 08	 lea	 ebx, DWORD PTR [esi+8]
  000b4	e8 00 00 00 00	 call	 ?WideStrToMultiStr@@YAPADPA_W@Z ; WideStrToMultiStr
  000b9	89 44 24 10	 mov	 DWORD PTR _driverKeyNameA$[esp+36], eax
$LN2@GetDriverK:

; 600  : 			    }
; 601  : 			    free(driverKeyNameW);

  000bd	56		 push	 esi
  000be	e8 00 00 00 00	 call	 _free
  000c3	83 c4 04	 add	 esp, 4

; 602  :             }
; 603  :             else

  000c6	eb 19		 jmp	 SHORT $LN1@GetDriverK
$LN3@GetDriverK:

; 604  :             {
; 605  :                 Log(LOG_DEBUG,__LINE__,"-- USB.GetDriverKeyName, new KeyNameW (%u) null",nBytes);

  000c8	8b 54 24 0c	 mov	 edx, DWORD PTR _nBytes$[esp+36]
  000cc	52		 push	 edx
  000cd	68 00 00 00 00	 push	 OFFSET ??_C@_0DA@OGKODAJE@?9?9?5USB?4GetDriverKeyName?0?5new?5Key@
  000d2	68 5d 02 00 00	 push	 605			; 0000025dH
  000d7	6a 10		 push	 16			; 00000010H
  000d9	e8 00 00 00 00	 call	 ?Log@@YAXHHPBDZZ	; Log
  000de	83 c4 10	 add	 esp, 16			; 00000010H
$LN1@GetDriverK:

; 606  :             }
; 607  : 		}
; 608  : 	}
; 609  :     Log(LOG_DEBUG,__LINE__,"<< USB.GetDrvKeyName, AName %X",driverKeyNameA);

  000e1	8b 74 24 10	 mov	 esi, DWORD PTR _driverKeyNameA$[esp+36]
  000e5	56		 push	 esi
  000e6	68 00 00 00 00	 push	 OFFSET ??_C@_0BP@IAFNNICI@?$DM?$DM?5USB?4GetDrvKeyName?0?5AName?5?$CFX?$AA@
  000eb	68 61 02 00 00	 push	 609			; 00000261H
  000f0	6a 10		 push	 16			; 00000010H
  000f2	e8 00 00 00 00	 call	 ?Log@@YAXHHPBDZZ	; Log

; 610  : 	return driverKeyNameA;
; 611  : }

  000f7	8b 4c 24 30	 mov	 ecx, DWORD PTR __$ArrayPad$[esp+52]
  000fb	83 c4 10	 add	 esp, 16			; 00000010H
  000fe	8b c6		 mov	 eax, esi
  00100	5e		 pop	 esi
  00101	5d		 pop	 ebp
  00102	5b		 pop	 ebx
  00103	33 cc		 xor	 ecx, esp
  00105	e8 00 00 00 00	 call	 @__security_check_cookie@4
  0010a	83 c4 18	 add	 esp, 24			; 00000018H
  0010d	c3		 ret	 0
?GetDriverKeyName@USB@@IAEPADPAXK@Z ENDP		; USB::GetDriverKeyName
_TEXT	ENDS
PUBLIC	?AreThereStringDescriptors@USB@@IAEHPAU_USB_DEVICE_DESCRIPTOR@@PAU_USB_CONFIGURATION_DESCRIPTOR@@@Z ; USB::AreThereStringDescriptors
; Function compile flags: /Ogtpy
;	COMDAT ?AreThereStringDescriptors@USB@@IAEHPAU_USB_DEVICE_DESCRIPTOR@@PAU_USB_CONFIGURATION_DESCRIPTOR@@@Z
_TEXT	SEGMENT
?AreThereStringDescriptors@USB@@IAEHPAU_USB_DEVICE_DESCRIPTOR@@PAU_USB_CONFIGURATION_DESCRIPTOR@@@Z PROC ; USB::AreThereStringDescriptors, COMDAT
; _DeviceDesc$ = eax
; _ConfigDesc$ = edi

; 350  : {

  00000	53		 push	 ebx
  00001	56		 push	 esi

; 351  :     PUCHAR descEnd = NULL;
; 352  : //    PUSB_COMMON_DESCRIPTOR commonDesc = NULL;
; 353  :     PUCHAR commonDesc = NULL;
; 354  : 
; 355  :     Log(LOG_DEBUG,__LINE__,">> USB.AreThrStrDesc");

  00002	68 00 00 00 00	 push	 OFFSET ??_C@_0BF@IPAKKGGO@?$DO?$DO?5USB?4AreThrStrDesc?$AA@
  00007	68 63 01 00 00	 push	 355			; 00000163H
  0000c	6a 10		 push	 16			; 00000010H
  0000e	8b f0		 mov	 esi, eax
  00010	e8 00 00 00 00	 call	 ?Log@@YAXHHPBDZZ	; Log

; 356  : 
; 357  :     //
; 358  :     // Check Device Descriptor strings
; 359  :     //
; 360  :     if (DeviceDesc->iManufacturer || DeviceDesc->iProduct || DeviceDesc->iSerialNumber)

  00015	8a 46 0e	 mov	 al, BYTE PTR [esi+14]
  00018	83 c4 0c	 add	 esp, 12			; 0000000cH
  0001b	84 c0		 test	 al, al
  0001d	0f 85 b4 00 00
	00		 jne	 $LN12@AreThereSt
  00023	38 46 0f	 cmp	 BYTE PTR [esi+15], al
  00026	0f 85 ab 00 00
	00		 jne	 $LN12@AreThereSt
  0002c	38 46 10	 cmp	 BYTE PTR [esi+16], al
  0002f	0f 85 a2 00 00
	00		 jne	 $LN12@AreThereSt

; 363  :         return TRUE;
; 364  :     }
; 365  : 
; 366  :     //
; 367  :     // Check the Configuration and Interface Descriptor strings
; 368  :     //
; 369  :     descEnd = (PUCHAR)ConfigDesc + ConfigDesc->wTotalLength;

  00035	0f b7 5f 02	 movzx	 ebx, WORD PTR [edi+2]
  00039	8d 4f 02	 lea	 ecx, DWORD PTR [edi+2]
  0003c	03 df		 add	 ebx, edi

; 370  : 
; 371  : //    (USB_COMMON_DESCRIPTOR far *)commonDesc = (PUSB_COMMON_DESCRIPTOR)ConfigDesc;
; 372  :     commonDesc = (PUCHAR)ConfigDesc;

  0003e	8b c7		 mov	 eax, edi

; 373  : 
; 374  :     while ((PUCHAR)commonDesc + sizeof(USB_COMMON_DESCRIPTOR) < descEnd &&
; 375  :            (PUCHAR)commonDesc + ((PUSB_COMMON_DESCRIPTOR)commonDesc)->bLength <= descEnd)

  00040	3b cb		 cmp	 ecx, ebx
  00042	73 59		 jae	 SHORT $LN10@AreThereSt
$LL11@AreThereSt:
  00044	8a 10		 mov	 dl, BYTE PTR [eax]
  00046	0f b6 ca	 movzx	 ecx, dl
  00049	8d 34 01	 lea	 esi, DWORD PTR [ecx+eax]
  0004c	3b f3		 cmp	 esi, ebx
  0004e	77 4d		 ja	 SHORT $LN10@AreThereSt

; 376  :     {
; 377  :         switch (((PUSB_COMMON_DESCRIPTOR)commonDesc)->bDescriptorType)

  00050	0f b6 48 01	 movzx	 ecx, BYTE PTR [eax+1]
  00054	83 e9 02	 sub	 ecx, 2
  00057	74 30		 je	 SHORT $LN7@AreThereSt
  00059	83 e9 02	 sub	 ecx, 2

; 402  :                     return TRUE;
; 403  :                 }
; 404  :                 (PUCHAR)commonDesc += ((PUSB_COMMON_DESCRIPTOR)commonDesc)->bLength;
; 405  :                 continue;
; 406  : 
; 407  :             default:
; 408  :                 (PUCHAR)commonDesc += ((PUSB_COMMON_DESCRIPTOR)commonDesc)->bLength;
; 409  :                 continue;

  0005c	75 36		 jne	 SHORT $LN24@AreThereSt

; 390  :                 continue;
; 391  : 
; 392  :             case USB_INTERFACE_DESCRIPTOR_TYPE:
; 393  : //                if (commonDesc->bLength != sizeof(USB_INTERFACE_DESCRIPTOR) &&
; 394  : //                    commonDesc->bLength != sizeof(USB_INTERFACE_DESCRIPTOR2))
; 395  :                 if (((PUSB_COMMON_DESCRIPTOR)commonDesc)->bLength != sizeof(USB_INTERFACE_DESCRIPTOR))

  0005e	80 fa 09	 cmp	 dl, 9
  00061	75 3a		 jne	 SHORT $LN10@AreThereSt

; 396  :                 {
; 397  :                     break;
; 398  :                 }
; 399  :                 if (((PUSB_INTERFACE_DESCRIPTOR)commonDesc)->iInterface)

  00063	38 48 08	 cmp	 BYTE PTR [eax+8], cl
  00066	74 2c		 je	 SHORT $LN24@AreThereSt

; 400  :                 {
; 401  :                     Log(LOG_DEBUG,__LINE__,"<< USB.AreThrStrDesc, Interface %d",(int)((PUSB_INTERFACE_DESCRIPTOR)commonDesc)->iInterface);

  00068	0f b6 40 08	 movzx	 eax, BYTE PTR [eax+8]
  0006c	50		 push	 eax
  0006d	68 00 00 00 00	 push	 OFFSET ??_C@_0CD@NAENOJMA@?$DM?$DM?5USB?4AreThrStrDesc?0?5Interface?5@
  00072	68 91 01 00 00	 push	 401			; 00000191H
  00077	6a 10		 push	 16			; 00000010H
  00079	e8 00 00 00 00	 call	 ?Log@@YAXHHPBDZZ	; Log
  0007e	83 c4 10	 add	 esp, 16			; 00000010H
  00081	b8 01 00 00 00	 mov	 eax, 1

; 416  : }

  00086	5e		 pop	 esi
  00087	5b		 pop	 ebx
  00088	c3		 ret	 0
$LN7@AreThereSt:

; 378  :         {
; 379  :             case USB_CONFIGURATION_DESCRIPTOR_TYPE:
; 380  :                 if (((PUSB_COMMON_DESCRIPTOR)commonDesc)->bLength != sizeof(USB_CONFIGURATION_DESCRIPTOR))

  00089	80 fa 09	 cmp	 dl, 9
  0008c	75 0f		 jne	 SHORT $LN10@AreThereSt

; 381  :                 {
; 382  :                     break;
; 383  :                 }
; 384  :                 if (((PUSB_CONFIGURATION_DESCRIPTOR)commonDesc)->iConfiguration)

  0008e	80 78 06 00	 cmp	 BYTE PTR [eax+6], 0
  00092	75 22		 jne	 SHORT $LN22@AreThereSt
$LN24@AreThereSt:

; 387  :                     return TRUE;
; 388  :                 }
; 389  :                 (PUCHAR)commonDesc += ((PUSB_COMMON_DESCRIPTOR)commonDesc)->bLength;

  00094	8b c6		 mov	 eax, esi
  00096	8d 50 02	 lea	 edx, DWORD PTR [eax+2]
  00099	3b d3		 cmp	 edx, ebx
  0009b	72 a7		 jb	 SHORT $LL11@AreThereSt
$LN10@AreThereSt:

; 410  :         }
; 411  :         break;
; 412  :     }
; 413  : 
; 414  :     Log(LOG_DEBUG,__LINE__,"<< USB.AreThrStrDesc, Ret False");

  0009d	68 00 00 00 00	 push	 OFFSET ??_C@_0CA@JFAJNON@?$DM?$DM?5USB?4AreThrStrDesc?0?5Ret?5False?$AA@
  000a2	68 9e 01 00 00	 push	 414			; 0000019eH
  000a7	6a 10		 push	 16			; 00000010H
  000a9	e8 00 00 00 00	 call	 ?Log@@YAXHHPBDZZ	; Log
  000ae	83 c4 0c	 add	 esp, 12			; 0000000cH

; 415  :     return FALSE;

  000b1	33 c0		 xor	 eax, eax

; 416  : }

  000b3	5e		 pop	 esi
  000b4	5b		 pop	 ebx
  000b5	c3		 ret	 0
$LN22@AreThereSt:

; 385  :                 {
; 386  :                     Log(LOG_DEBUG,__LINE__,"<< USB.AreThrStrDesc, Cfg %d",(int)((PUSB_CONFIGURATION_DESCRIPTOR)commonDesc)->iConfiguration);

  000b6	0f b6 48 06	 movzx	 ecx, BYTE PTR [eax+6]
  000ba	51		 push	 ecx
  000bb	68 00 00 00 00	 push	 OFFSET ??_C@_0BN@DEJJKGAD@?$DM?$DM?5USB?4AreThrStrDesc?0?5Cfg?5?$CFd?$AA@
  000c0	68 82 01 00 00	 push	 386			; 00000182H
  000c5	6a 10		 push	 16			; 00000010H
  000c7	e8 00 00 00 00	 call	 ?Log@@YAXHHPBDZZ	; Log
  000cc	83 c4 10	 add	 esp, 16			; 00000010H
  000cf	b8 01 00 00 00	 mov	 eax, 1

; 416  : }

  000d4	5e		 pop	 esi
  000d5	5b		 pop	 ebx
  000d6	c3		 ret	 0
$LN12@AreThereSt:

; 361  :     {
; 362  :         Log(LOG_DEBUG,__LINE__,"<< USB.AreThrStrDesc, Manufact %d, Prod %d, SN %d",(int)DeviceDesc->iManufacturer,(int)DeviceDesc->iProduct,(int)DeviceDesc->iSerialNumber);

  000d7	0f b6 56 10	 movzx	 edx, BYTE PTR [esi+16]
  000db	0f b6 4e 0f	 movzx	 ecx, BYTE PTR [esi+15]
  000df	52		 push	 edx
  000e0	51		 push	 ecx
  000e1	0f b6 d0	 movzx	 edx, al
  000e4	52		 push	 edx
  000e5	68 00 00 00 00	 push	 OFFSET ??_C@_0DC@KIEGOLFL@?$DM?$DM?5USB?4AreThrStrDesc?0?5Manufact?5?$CF@
  000ea	68 6a 01 00 00	 push	 362			; 0000016aH
  000ef	6a 10		 push	 16			; 00000010H
  000f1	e8 00 00 00 00	 call	 ?Log@@YAXHHPBDZZ	; Log
  000f6	83 c4 18	 add	 esp, 24			; 00000018H

; 416  : }

  000f9	5e		 pop	 esi
  000fa	b8 01 00 00 00	 mov	 eax, 1
  000ff	5b		 pop	 ebx
  00100	c3		 ret	 0
?AreThereStringDescriptors@USB@@IAEHPAU_USB_DEVICE_DESCRIPTOR@@PAU_USB_CONFIGURATION_DESCRIPTOR@@@Z ENDP ; USB::AreThereStringDescriptors
_TEXT	ENDS
PUBLIC	__$ArrayPad$
PUBLIC	?GetStringDescriptor@USB@@IAEPAU_STRING_DESCRIPTOR_NODE@@PAXKEG@Z ; USB::GetStringDescriptor
EXTRN	_memcpy:PROC
; Function compile flags: /Ogtpy
;	COMDAT ?GetStringDescriptor@USB@@IAEPAU_STRING_DESCRIPTOR_NODE@@PAXKEG@Z
_TEXT	SEGMENT
_nBytesReturned$ = -1312				; size = 4
_stringDescReqBuf$ = -1308				; size = 267
_szLastError$136249 = -1036				; size = 1024
__$ArrayPad$ = -8					; size = 4
_ConnectionIndex$ = 8					; size = 4
_DescriptorIndex$ = 12					; size = 1
?GetStringDescriptor@USB@@IAEPAU_STRING_DESCRIPTOR_NODE@@PAXKEG@Z PROC ; USB::GetStringDescriptor, COMDAT
; _hHubDevice$ = edx
; _LanguageID$ = ecx

; 210  : {

  00000	81 ec 24 05 00
	00		 sub	 esp, 1316		; 00000524H
  00006	a1 00 00 00 00	 mov	 eax, DWORD PTR ___security_cookie
  0000b	33 c4		 xor	 eax, esp
  0000d	89 84 24 1c 05
	00 00		 mov	 DWORD PTR __$ArrayPad$[esp+1316], eax
  00014	53		 push	 ebx
  00015	55		 push	 ebp
  00016	56		 push	 esi
  00017	57		 push	 edi

; 211  :     BOOL    success;
; 212  :     ULONG   nBytes = 0;
; 213  :     ULONG   nBytesReturned = 0;
; 214  : 
; 215  : 	Log(LOG_DEBUG,__LINE__,">> USB.GetStrDesc");

  00018	68 00 00 00 00	 push	 OFFSET ??_C@_0BC@OBKJMAF@?$DO?$DO?5USB?4GetStrDesc?$AA@
  0001d	68 d7 00 00 00	 push	 215			; 000000d7H
  00022	6a 10		 push	 16			; 00000010H
  00024	66 8b d9	 mov	 bx, cx
  00027	8b f2		 mov	 esi, edx
  00029	c7 44 24 20 00
	00 00 00	 mov	 DWORD PTR _nBytesReturned$[esp+1344], 0
  00031	e8 00 00 00 00	 call	 ?Log@@YAXHHPBDZZ	; Log

; 216  : 
; 217  :     UCHAR   stringDescReqBuf[sizeof(USB_DESCRIPTOR_REQUEST) + MAXIMUM_USB_STRING_LENGTH];
; 218  : 
; 219  :     PUSB_DESCRIPTOR_REQUEST stringDescReq = NULL;
; 220  :     PUSB_STRING_DESCRIPTOR  stringDesc = NULL;
; 221  :     PSTRING_DESCRIPTOR_NODE stringDescNode = NULL;
; 222  : 
; 223  :     nBytes = sizeof(stringDescReqBuf);
; 224  : 
; 225  :     stringDescReq = (PUSB_DESCRIPTOR_REQUEST)stringDescReqBuf;
; 226  :     stringDesc = (PUSB_STRING_DESCRIPTOR)(stringDescReq+1);
; 227  : 
; 228  :     // Zero fill the entire request structure
; 229  :     //
; 230  :     memset(stringDescReq, 0, nBytes);

  00036	68 0b 01 00 00	 push	 267			; 0000010bH
  0003b	8d 44 24 28	 lea	 eax, DWORD PTR _stringDescReqBuf$[esp+1348]
  0003f	6a 00		 push	 0
  00041	50		 push	 eax
  00042	e8 00 00 00 00	 call	 _memset

; 231  : 
; 232  :     // Indicate the port from which the descriptor will be requested
; 233  :     //
; 234  :     stringDescReq->ConnectionIndex = ConnectionIndex;
; 235  : 
; 236  :     //
; 237  :     // USBHUB uses URB_FUNCTION_GET_DESCRIPTOR_FROM_DEVICE to process this
; 238  :     // IOCTL_USB_GET_DESCRIPTOR_FROM_NODE_CONNECTION request.
; 239  :     //
; 240  :     // USBD will automatically initialize these fields:
; 241  :     //     bmRequest = 0x80
; 242  :     //     bRequest  = 0x06
; 243  :     //
; 244  :     // We must inititialize these fields:
; 245  :     //     wValue    = Descriptor Type (high) and Descriptor Index (low byte)
; 246  :     //     wIndex    = Zero (or Language ID for String Descriptors)
; 247  :     //     wLength   = Length of descriptor buffer
; 248  :     //
; 249  :     stringDescReq->SetupPacket.wValue = (USB_STRING_DESCRIPTOR_TYPE << 8)
; 250  :                                         | DescriptorIndex;

  00047	66 0f b6 94 24
	54 05 00 00	 movzx	 dx, BYTE PTR _DescriptorIndex$[esp+1352]
  00050	8b 8c 24 50 05
	00 00		 mov	 ecx, DWORD PTR _ConnectionIndex$[esp+1352]
  00057	83 c4 18	 add	 esp, 24			; 00000018H

; 251  : 
; 252  :     stringDescReq->SetupPacket.wIndex = LanguageID;
; 253  : 
; 254  :     stringDescReq->SetupPacket.wLength = (USHORT)(nBytes - sizeof(USB_DESCRIPTOR_REQUEST));
; 255  : 
; 256  :     // Now issue the get descriptor request.
; 257  :     //
; 258  :     success = DeviceIoControl(hHubDevice,
; 259  :                               IOCTL_USB_GET_DESCRIPTOR_FROM_NODE_CONNECTION,
; 260  :                               stringDescReq,
; 261  :                               nBytes,
; 262  :                               stringDescReq,
; 263  :                               nBytes,
; 264  :                               &nBytesReturned,
; 265  :                               NULL);

  0005a	6a 00		 push	 0
  0005c	b8 00 03 00 00	 mov	 eax, 768		; 00000300H
  00061	66 0b d0	 or	 dx, ax
  00064	66 89 54 24 22	 mov	 WORD PTR _stringDescReqBuf$[esp+1342], dx
  00069	8d 54 24 18	 lea	 edx, DWORD PTR _nBytesReturned$[esp+1336]
  0006d	52		 push	 edx
  0006e	68 0b 01 00 00	 push	 267			; 0000010bH
  00073	89 4c 24 24	 mov	 DWORD PTR _stringDescReqBuf$[esp+1344], ecx
  00077	8d 44 24 24	 lea	 eax, DWORD PTR _stringDescReqBuf$[esp+1344]
  0007b	50		 push	 eax
  0007c	b9 ff 00 00 00	 mov	 ecx, 255		; 000000ffH
  00081	68 0b 01 00 00	 push	 267			; 0000010bH
  00086	66 89 4c 24 36	 mov	 WORD PTR _stringDescReqBuf$[esp+1362], cx
  0008b	8b c8		 mov	 ecx, eax
  0008d	51		 push	 ecx
  0008e	68 10 04 22 00	 push	 2229264			; 00220410H
  00093	56		 push	 esi
  00094	66 89 5c 24 40	 mov	 WORD PTR _stringDescReqBuf$[esp+1372], bx
  00099	ff 15 00 00 00
	00		 call	 DWORD PTR __imp__DeviceIoControl@32

; 266  : 
; 267  :     //
; 268  :     // Do some sanity checks on the return from the get descriptor request.
; 269  :     //
; 270  : 
; 271  :     if (!success)

  0009f	85 c0		 test	 eax, eax
  000a1	75 1b		 jne	 SHORT $LN9@GetStringD

; 272  :     {
; 273  :         Log(LOG_DEBUG,__LINE__,"<< USB.GetStrDesc, DeviceIoControl False");

  000a3	68 00 00 00 00	 push	 OFFSET ??_C@_0CJ@MLNPNNOJ@?$DM?$DM?5USB?4GetStrDesc?0?5DeviceIoContr@
  000a8	68 11 01 00 00	 push	 273			; 00000111H
  000ad	6a 10		 push	 16			; 00000010H
  000af	e8 00 00 00 00	 call	 ?Log@@YAXHHPBDZZ	; Log
  000b4	83 c4 0c	 add	 esp, 12			; 0000000cH

; 274  :         return NULL;

  000b7	33 c0		 xor	 eax, eax
  000b9	e9 c1 01 00 00	 jmp	 $LN10@GetStringD
$LN9@GetStringD:

; 275  :     }
; 276  : 
; 277  :     if (nBytesReturned < 2)

  000be	8b 44 24 14	 mov	 eax, DWORD PTR _nBytesReturned$[esp+1332]
  000c2	83 f8 02	 cmp	 eax, 2
  000c5	73 1c		 jae	 SHORT $LN8@GetStringD

; 278  :     {
; 279  :         Log(LOG_DEBUG,__LINE__,"<< USB.GetStrDesc, Bytes Ret %u",nBytesReturned);

  000c7	50		 push	 eax
  000c8	68 00 00 00 00	 push	 OFFSET ??_C@_0CA@JKPBCDKN@?$DM?$DM?5USB?4GetStrDesc?0?5Bytes?5Ret?5?$CFu?$AA@
  000cd	68 17 01 00 00	 push	 279			; 00000117H
  000d2	6a 10		 push	 16			; 00000010H
  000d4	e8 00 00 00 00	 call	 ?Log@@YAXHHPBDZZ	; Log
  000d9	83 c4 10	 add	 esp, 16			; 00000010H

; 280  :         return NULL;

  000dc	33 c0		 xor	 eax, eax
  000de	e9 9c 01 00 00	 jmp	 $LN10@GetStringD
$LN8@GetStringD:

; 281  :     }
; 282  : 
; 283  :     if (stringDesc->bDescriptorType != USB_STRING_DESCRIPTOR_TYPE)

  000e3	8a 4c 24 25	 mov	 cl, BYTE PTR _stringDescReqBuf$[esp+1345]
  000e7	80 f9 03	 cmp	 cl, 3
  000ea	74 1f		 je	 SHORT $LN7@GetStringD

; 284  :     {
; 285  :         Log(LOG_DEBUG,__LINE__,"<< USB.GetStrDesc, Inv DescriptorTp %d",stringDesc->bDescriptorType);

  000ec	0f b6 d1	 movzx	 edx, cl
  000ef	52		 push	 edx
  000f0	68 00 00 00 00	 push	 OFFSET ??_C@_0CH@ELGGMNKC@?$DM?$DM?5USB?4GetStrDesc?0?5Inv?5Descripto@
  000f5	68 1d 01 00 00	 push	 285			; 0000011dH
  000fa	6a 10		 push	 16			; 00000010H
  000fc	e8 00 00 00 00	 call	 ?Log@@YAXHHPBDZZ	; Log
  00101	83 c4 10	 add	 esp, 16			; 00000010H

; 286  :         return NULL;

  00104	33 c0		 xor	 eax, eax
  00106	e9 74 01 00 00	 jmp	 $LN10@GetStringD
$LN7@GetStringD:

; 287  :     }
; 288  : 
; 289  :     if (stringDesc->bLength != nBytesReturned - sizeof(USB_DESCRIPTOR_REQUEST))

  0010b	8d 48 f4	 lea	 ecx, DWORD PTR [eax-12]
  0010e	0f b6 44 24 24	 movzx	 eax, BYTE PTR _stringDescReqBuf$[esp+1344]
  00113	3b c1		 cmp	 eax, ecx
  00115	74 1d		 je	 SHORT $LN6@GetStringD

; 290  :     {
; 291  :         Log(LOG_DEBUG,__LINE__,"<< USB.GetStrDesc, Inv Sz %d <> %d",(int)stringDesc->bLength,nBytesReturned - sizeof(USB_DESCRIPTOR_REQUEST));

  00117	51		 push	 ecx
  00118	50		 push	 eax
  00119	68 00 00 00 00	 push	 OFFSET ??_C@_0CD@CHKNKAPD@?$DM?$DM?5USB?4GetStrDesc?0?5Inv?5Sz?5?$CFd?5?$DM?$DO?5@
  0011e	68 23 01 00 00	 push	 291			; 00000123H
  00123	6a 10		 push	 16			; 00000010H
  00125	e8 00 00 00 00	 call	 ?Log@@YAXHHPBDZZ	; Log
  0012a	83 c4 14	 add	 esp, 20			; 00000014H

; 292  :         return NULL;

  0012d	33 c0		 xor	 eax, eax
  0012f	e9 4b 01 00 00	 jmp	 $LN10@GetStringD
$LN6@GetStringD:

; 293  :     }
; 294  : 
; 295  :     if (stringDesc->bLength % 2 != 0)

  00134	8b c8		 mov	 ecx, eax
  00136	81 e1 01 00 00
	80		 and	 ecx, -2147483647	; 80000001H
  0013c	79 05		 jns	 SHORT $LN12@GetStringD
  0013e	49		 dec	 ecx
  0013f	83 c9 fe	 or	 ecx, -2			; fffffffeH
  00142	41		 inc	 ecx
$LN12@GetStringD:
  00143	74 1c		 je	 SHORT $LN5@GetStringD

; 296  :     {
; 297  :         Log(LOG_DEBUG,__LINE__,"<< USB.GetStrDesc, Odd Sz %d",(int)stringDesc->bLength);

  00145	50		 push	 eax
  00146	68 00 00 00 00	 push	 OFFSET ??_C@_0BN@ILBIFDNN@?$DM?$DM?5USB?4GetStrDesc?0?5Odd?5Sz?5?$CFd?$AA@
  0014b	68 29 01 00 00	 push	 297			; 00000129H
  00150	6a 10		 push	 16			; 00000010H
  00152	e8 00 00 00 00	 call	 ?Log@@YAXHHPBDZZ	; Log
  00157	83 c4 10	 add	 esp, 16			; 00000010H

; 298  :         return NULL;

  0015a	33 c0		 xor	 eax, eax
  0015c	e9 1e 01 00 00	 jmp	 $LN10@GetStringD
$LN5@GetStringD:

; 299  :     }
; 300  : 
; 301  :     //
; 302  :     // Looks good, allocate some (zero filled) space for the string descriptor
; 303  :     // node and copy the string descriptor to it.
; 304  :     //
; 305  : 
; 306  :     stringDescNode = (PSTRING_DESCRIPTOR_NODE)malloc(sizeof(STRING_DESCRIPTOR_NODE)+stringDesc->bLength);

  00161	83 c0 08	 add	 eax, 8
  00164	50		 push	 eax
  00165	e8 00 00 00 00	 call	 _malloc
  0016a	8b f8		 mov	 edi, eax
  0016c	83 c4 04	 add	 esp, 4

; 307  : 
; 308  :     if (stringDescNode == NULL)

  0016f	85 ff		 test	 edi, edi
  00171	75 1b		 jne	 SHORT $LN4@GetStringD

; 309  :     {
; 310  :         Log(LOG_DEBUG,__LINE__,"<< USB.GetStrDesc, new DescNode null");

  00173	68 00 00 00 00	 push	 OFFSET ??_C@_0CF@BKJLPKEL@?$DM?$DM?5USB?4GetStrDesc?0?5new?5DescNode?5@
  00178	68 36 01 00 00	 push	 310			; 00000136H
  0017d	6a 10		 push	 16			; 00000010H
  0017f	e8 00 00 00 00	 call	 ?Log@@YAXHHPBDZZ	; Log
  00184	83 c4 0c	 add	 esp, 12			; 0000000cH

; 311  :         return NULL;

  00187	33 c0		 xor	 eax, eax
  00189	e9 f1 00 00 00	 jmp	 $LN10@GetStringD
$LN4@GetStringD:

; 312  :     }
; 313  : 
; 314  :     memset(stringDescNode,0x00,sizeof(STRING_DESCRIPTOR_NODE)+stringDesc->bLength);

  0018e	0f b6 54 24 24	 movzx	 edx, BYTE PTR _stringDescReqBuf$[esp+1344]
  00193	83 c2 08	 add	 edx, 8
  00196	52		 push	 edx
  00197	6a 00		 push	 0
  00199	57		 push	 edi
  0019a	e8 00 00 00 00	 call	 _memset

; 315  : 
; 316  :     stringDescNode->DescriptorIndex = DescriptorIndex;

  0019f	8a 84 24 48 05
	00 00		 mov	 al, BYTE PTR _DescriptorIndex$[esp+1340]
  001a6	88 47 04	 mov	 BYTE PTR [edi+4], al

; 317  :     stringDescNode->LanguageID = LanguageID;

  001a9	66 89 5f 06	 mov	 WORD PTR [edi+6], bx

; 318  : 
; 319  :     memcpy(stringDescNode->StringDescriptor,stringDesc,stringDesc->bLength);

  001ad	0f b6 4c 24 30	 movzx	 ecx, BYTE PTR _stringDescReqBuf$[esp+1356]
  001b2	51		 push	 ecx
  001b3	8d 54 24 34	 lea	 edx, DWORD PTR _stringDescReqBuf$[esp+1360]
  001b7	52		 push	 edx
  001b8	8d 6f 08	 lea	 ebp, DWORD PTR [edi+8]
  001bb	55		 push	 ebp
  001bc	e8 00 00 00 00	 call	 _memcpy
  001c1	83 c4 18	 add	 esp, 24			; 00000018H

; 320  : 
; 321  : 	if(LanguageID)

  001c4	66 85 db	 test	 bx, bx
  001c7	0f 84 9b 00 00
	00		 je	 $LN1@GetStringD

; 322  : 	{
; 323  : 		nBytes = WideCharToMultiByte(
; 324  : 					CP_ACP,     // CodePage
; 325  : 					0,          // CodePage
; 326  : 					stringDescNode->StringDescriptor->bString,
; 327  : 					(stringDescNode->StringDescriptor->bLength - 2) / 2,
; 328  : 					(char *)stringDescReqBuf,
; 329  : 					sizeof(USB_DESCRIPTOR_REQUEST) + MAXIMUM_USB_STRING_LENGTH,
; 330  : 					NULL,       // lpDefaultChar
; 331  : 					NULL);      // pUsedDefaultChar

  001cd	6a 00		 push	 0
  001cf	6a 00		 push	 0
  001d1	68 0b 01 00 00	 push	 267			; 0000010bH
  001d6	8d 44 24 24	 lea	 eax, DWORD PTR _stringDescReqBuf$[esp+1344]
  001da	50		 push	 eax
  001db	0f b6 45 00	 movzx	 eax, BYTE PTR [ebp]
  001df	83 e8 02	 sub	 eax, 2
  001e2	99		 cdq
  001e3	2b c2		 sub	 eax, edx
  001e5	d1 f8		 sar	 eax, 1
  001e7	50		 push	 eax
  001e8	8d 77 0a	 lea	 esi, DWORD PTR [edi+10]
  001eb	56		 push	 esi
  001ec	6a 00		 push	 0
  001ee	6a 00		 push	 0
  001f0	ff 15 00 00 00
	00		 call	 DWORD PTR __imp__WideCharToMultiByte@32
  001f6	8b d8		 mov	 ebx, eax

; 332  : 		if (!nBytes)

  001f8	85 db		 test	 ebx, ebx
  001fa	75 4d		 jne	 SHORT $LN2@GetStringD

; 333  :         {
; 334  :             char szLastError[1024] = {0};

  001fc	68 ff 03 00 00	 push	 1023			; 000003ffH
  00201	50		 push	 eax
  00202	8d 8c 24 31 01
	00 00		 lea	 ecx, DWORD PTR _szLastError$136249[esp+1341]
  00209	51		 push	 ecx
  0020a	88 84 24 34 01
	00 00		 mov	 BYTE PTR _szLastError$136249[esp+1344], al
  00211	e8 00 00 00 00	 call	 _memset
  00216	83 c4 0c	 add	 esp, 12			; 0000000cH

; 335  :             DWORD dwLastError = GetLastError();

  00219	ff 15 00 00 00
	00		 call	 DWORD PTR __imp__GetLastError@0
  0021f	8b d8		 mov	 ebx, eax

; 336  :             GetLastErrorMessage(dwLastError,szLastError,sizeof(szLastError));

  00221	68 00 04 00 00	 push	 1024			; 00000400H
  00226	8d b4 24 2c 01
	00 00		 lea	 esi, DWORD PTR _szLastError$136249[esp+1336]
  0022d	e8 00 00 00 00	 call	 ?GetLastErrorMessage@@YAPADKPADK@Z ; GetLastErrorMessage

; 337  :             Log(LOG_DEBUG,__LINE__,"-- USB.GetStrDesc, WideCharToMultiByte failed %u, %s",dwLastError,szLastError);

  00232	8b d6		 mov	 edx, esi
  00234	52		 push	 edx
  00235	53		 push	 ebx
  00236	68 00 00 00 00	 push	 OFFSET ??_C@_0DF@ICOPDODD@?9?9?5USB?4GetStrDesc?0?5WideCharToMul@
  0023b	68 51 01 00 00	 push	 337			; 00000151H
  00240	6a 10		 push	 16			; 00000010H
  00242	e8 00 00 00 00	 call	 ?Log@@YAXHHPBDZZ	; Log

; 338  :         }
; 339  : 		else 

  00247	eb 1c		 jmp	 SHORT $LN13@GetStringD
$LN2@GetStringD:

; 340  : 		{
; 341  : 			memset(stringDescNode->StringDescriptor->bString, 0x00, (stringDescNode->StringDescriptor->bLength - 2));

  00249	0f b6 45 00	 movzx	 eax, BYTE PTR [ebp]
  0024d	83 e8 02	 sub	 eax, 2
  00250	50		 push	 eax
  00251	6a 00		 push	 0
  00253	56		 push	 esi
  00254	e8 00 00 00 00	 call	 _memset

; 342  : 			memcpy(stringDescNode->StringDescriptor->bString, stringDescReqBuf, nBytes);

  00259	53		 push	 ebx
  0025a	8d 4c 24 28	 lea	 ecx, DWORD PTR _stringDescReqBuf$[esp+1348]
  0025e	51		 push	 ecx
  0025f	56		 push	 esi
  00260	e8 00 00 00 00	 call	 _memcpy
$LN13@GetStringD:
  00265	83 c4 18	 add	 esp, 24			; 00000018H
$LN1@GetStringD:

; 343  : 		}
; 344  : 	}
; 345  :     Log(LOG_DEBUG,__LINE__,"<< USB.GetStrDesc, DescNode %X",stringDescNode);

  00268	57		 push	 edi
  00269	68 00 00 00 00	 push	 OFFSET ??_C@_0BP@BCHFPFAE@?$DM?$DM?5USB?4GetStrDesc?0?5DescNode?5?$CFX?$AA@
  0026e	68 59 01 00 00	 push	 345			; 00000159H
  00273	6a 10		 push	 16			; 00000010H
  00275	e8 00 00 00 00	 call	 ?Log@@YAXHHPBDZZ	; Log
  0027a	83 c4 10	 add	 esp, 16			; 00000010H

; 346  :     return stringDescNode;

  0027d	8b c7		 mov	 eax, edi
$LN10@GetStringD:

; 347  : }

  0027f	8b 8c 24 2c 05
	00 00		 mov	 ecx, DWORD PTR __$ArrayPad$[esp+1332]
  00286	5f		 pop	 edi
  00287	5e		 pop	 esi
  00288	5d		 pop	 ebp
  00289	5b		 pop	 ebx
  0028a	33 cc		 xor	 ecx, esp
  0028c	e8 00 00 00 00	 call	 @__security_check_cookie@4
  00291	81 c4 24 05 00
	00		 add	 esp, 1316		; 00000524H
  00297	c2 08 00	 ret	 8
?GetStringDescriptor@USB@@IAEPAU_STRING_DESCRIPTOR_NODE@@PAXKEG@Z ENDP ; USB::GetStringDescriptor
PUBLIC	?GetStringDescriptors@USB@@IAEPAU_STRING_DESCRIPTOR_NODE@@PAXKEKPAGPAU2@@Z ; USB::GetStringDescriptors
; Function compile flags: /Ogtpy
;	COMDAT ?GetStringDescriptors@USB@@IAEPAU_STRING_DESCRIPTOR_NODE@@PAXKEKPAGPAU2@@Z
_TEXT	SEGMENT
_hHubDevice$ = 8					; size = 4
_ConnectionIndex$ = 12					; size = 4
_DescriptorIndex$ = 16					; size = 1
?GetStringDescriptors@USB@@IAEPAU_STRING_DESCRIPTOR_NODE@@PAXKEKPAGPAU2@@Z PROC ; USB::GetStringDescriptors, COMDAT
; _NumLanguageIDs$ = edx
; _LanguageIDs$ = ecx
; _StringDescNodeTail$ = eax

; 1304 : {

  00000	53		 push	 ebx
  00001	55		 push	 ebp
  00002	8b 6c 24 14	 mov	 ebp, DWORD PTR _DescriptorIndex$[esp+4]
  00006	56		 push	 esi
  00007	57		 push	 edi

; 1305 :     ULONG i;
; 1306 : 
; 1307 :     Log(LOG_DEBUG,__LINE__,">> USB.GetStrDescs");

  00008	68 00 00 00 00	 push	 OFFSET ??_C@_0BD@HEHGMECG@?$DO?$DO?5USB?4GetStrDescs?$AA@
  0000d	68 1b 05 00 00	 push	 1307			; 0000051bH
  00012	6a 10		 push	 16			; 00000010H
  00014	8b f8		 mov	 edi, eax
  00016	8b f1		 mov	 esi, ecx
  00018	8b da		 mov	 ebx, edx
  0001a	e8 00 00 00 00	 call	 ?Log@@YAXHHPBDZZ	; Log
  0001f	83 c4 0c	 add	 esp, 12			; 0000000cH

; 1308 : 
; 1309 :     for (i=0; i<NumLanguageIDs; i++)

  00022	85 db		 test	 ebx, ebx
  00024	76 2c		 jbe	 SHORT $LN2@GetStringD@2
  00026	eb 08 8d a4 24
	00 00 00 00 90	 npad	 10
$LL4@GetStringD@2:

; 1310 :     {
; 1311 :         StringDescNodeTail->Next = GetStringDescriptor(hHubDevice,
; 1312 :                                                        ConnectionIndex,
; 1313 :                                                        DescriptorIndex,
; 1314 :                                                        *LanguageIDs);

  00030	8b 44 24 18	 mov	 eax, DWORD PTR _ConnectionIndex$[esp+12]
  00034	66 8b 0e	 mov	 cx, WORD PTR [esi]
  00037	8b 54 24 14	 mov	 edx, DWORD PTR _hHubDevice$[esp+12]
  0003b	55		 push	 ebp
  0003c	50		 push	 eax
  0003d	e8 00 00 00 00	 call	 ?GetStringDescriptor@USB@@IAEPAU_STRING_DESCRIPTOR_NODE@@PAXKEG@Z ; USB::GetStringDescriptor
  00042	89 07		 mov	 DWORD PTR [edi], eax

; 1315 : 
; 1316 :         if (StringDescNodeTail->Next)

  00044	85 c0		 test	 eax, eax
  00046	74 02		 je	 SHORT $LN1@GetStringD@2

; 1317 :         {
; 1318 :             StringDescNodeTail = StringDescNodeTail->Next;

  00048	8b f8		 mov	 edi, eax
$LN1@GetStringD@2:

; 1319 :         }
; 1320 : 
; 1321 :         LanguageIDs++;

  0004a	83 c6 02	 add	 esi, 2
  0004d	83 eb 01	 sub	 ebx, 1
  00050	75 de		 jne	 SHORT $LL4@GetStringD@2
$LN2@GetStringD@2:

; 1322 :     }
; 1323 : 
; 1324 :     Log(LOG_DEBUG,__LINE__,"<< USB.GetStrDescs, StrDescNodeTail %X",StringDescNodeTail);

  00052	57		 push	 edi
  00053	68 00 00 00 00	 push	 OFFSET ??_C@_0CH@BBKGOLN@?$DM?$DM?5USB?4GetStrDescs?0?5StrDescNodeT@
  00058	68 2c 05 00 00	 push	 1324			; 0000052cH
  0005d	6a 10		 push	 16			; 00000010H
  0005f	e8 00 00 00 00	 call	 ?Log@@YAXHHPBDZZ	; Log
  00064	83 c4 10	 add	 esp, 16			; 00000010H

; 1325 :     return StringDescNodeTail;

  00067	8b c7		 mov	 eax, edi

; 1326 : }

  00069	5f		 pop	 edi
  0006a	5e		 pop	 esi
  0006b	5d		 pop	 ebp
  0006c	5b		 pop	 ebx
  0006d	c2 0c 00	 ret	 12			; 0000000cH
?GetStringDescriptors@USB@@IAEPAU_STRING_DESCRIPTOR_NODE@@PAXKEKPAGPAU2@@Z ENDP ; USB::GetStringDescriptors
_TEXT	ENDS
PUBLIC	?GetAllStringDescriptors@USB@@IAEPAU_STRING_DESCRIPTOR_NODE@@PAXKPAU_USB_DEVICE_DESCRIPTOR@@PAU_USB_CONFIGURATION_DESCRIPTOR@@@Z ; USB::GetAllStringDescriptors
; Function compile flags: /Ogtpy
;	COMDAT ?GetAllStringDescriptors@USB@@IAEPAU_STRING_DESCRIPTOR_NODE@@PAXKPAU_USB_DEVICE_DESCRIPTOR@@PAU_USB_CONFIGURATION_DESCRIPTOR@@@Z
_TEXT	SEGMENT
_supportedLanguagesString$ = -4				; size = 4
_hHubDevice$ = 8					; size = 4
tv254 = 12						; size = 4
_ConnectionIndex$ = 12					; size = 4
_descEnd$ = 16						; size = 4
_DeviceDesc$ = 16					; size = 4
_ConfigDesc$ = 20					; size = 4
?GetAllStringDescriptors@USB@@IAEPAU_STRING_DESCRIPTOR_NODE@@PAXKPAU_USB_DEVICE_DESCRIPTOR@@PAU_USB_CONFIGURATION_DESCRIPTOR@@@Z PROC ; USB::GetAllStringDescriptors, COMDAT

; 419  : {

  00000	51		 push	 ecx
  00001	53		 push	 ebx
  00002	55		 push	 ebp
  00003	8b 6c 24 14	 mov	 ebp, DWORD PTR _ConnectionIndex$[esp+8]
  00007	56		 push	 esi
  00008	57		 push	 edi

; 420  :     PSTRING_DESCRIPTOR_NODE supportedLanguagesString = NULL;
; 421  :     PSTRING_DESCRIPTOR_NODE stringDescNodeTail = NULL;
; 422  :     ULONG                   numLanguageIDs = 0;
; 423  :     USHORT                  *languageIDs = NULL;
; 424  : 
; 425  :     PUCHAR                  descEnd = NULL;
; 426  : //    PUSB_COMMON_DESCRIPTOR  commonDesc = NULL;
; 427  :     PUCHAR  commonDesc = NULL;
; 428  : 
; 429  :     Log(LOG_DEBUG,__LINE__,">> USB.GetAllStrDescs");

  00009	68 00 00 00 00	 push	 OFFSET ??_C@_0BG@PLIGAJPI@?$DO?$DO?5USB?4GetAllStrDescs?$AA@
  0000e	68 ad 01 00 00	 push	 429			; 000001adH
  00013	6a 10		 push	 16			; 00000010H
  00015	e8 00 00 00 00	 call	 ?Log@@YAXHHPBDZZ	; Log

; 430  : 
; 431  :     //
; 432  :     // Get the array of supported Language IDs, which is returned
; 433  :     // in String Descriptor 0
; 434  :     //
; 435  :     supportedLanguagesString = GetStringDescriptor(hHubDevice,ConnectionIndex,0,0);

  0001a	8b 54 24 24	 mov	 edx, DWORD PTR _hHubDevice$[esp+28]
  0001e	83 c4 0c	 add	 esp, 12			; 0000000cH
  00021	6a 00		 push	 0
  00023	55		 push	 ebp
  00024	33 c9		 xor	 ecx, ecx
  00026	e8 00 00 00 00	 call	 ?GetStringDescriptor@USB@@IAEPAU_STRING_DESCRIPTOR_NODE@@PAXKEG@Z ; USB::GetStringDescriptor
  0002b	8b f8		 mov	 edi, eax
  0002d	89 7c 24 10	 mov	 DWORD PTR _supportedLanguagesString$[esp+20], edi

; 436  :     if (supportedLanguagesString == NULL)

  00031	85 ff		 test	 edi, edi
  00033	75 1e		 jne	 SHORT $LN15@GetAllStri

; 437  :     {
; 438  :         Log(LOG_DEBUG,__LINE__,"<< USB.GetAllStrDescs, SuppLangsStr null");

  00035	68 00 00 00 00	 push	 OFFSET ??_C@_0CJ@HBMGBPGH@?$DM?$DM?5USB?4GetAllStrDescs?0?5SuppLangs@
  0003a	68 b6 01 00 00	 push	 438			; 000001b6H
  0003f	6a 10		 push	 16			; 00000010H
  00041	e8 00 00 00 00	 call	 ?Log@@YAXHHPBDZZ	; Log
  00046	83 c4 0c	 add	 esp, 12			; 0000000cH

; 439  :         return NULL;

  00049	33 c0		 xor	 eax, eax

; 540  :     return supportedLanguagesString;
; 541  : }

  0004b	5f		 pop	 edi
  0004c	5e		 pop	 esi
  0004d	5d		 pop	 ebp
  0004e	5b		 pop	 ebx
  0004f	59		 pop	 ecx
  00050	c2 10 00	 ret	 16			; 00000010H
$LN15@GetAllStri:

; 440  :     }
; 441  : 
; 442  :     numLanguageIDs = (supportedLanguagesString->StringDescriptor->bLength - 2) / 2;

  00053	0f b6 47 08	 movzx	 eax, BYTE PTR [edi+8]

; 443  : 
; 444  :     languageIDs = (USHORT*)&supportedLanguagesString->StringDescriptor->bString[0];
; 445  : 
; 446  :     stringDescNodeTail = supportedLanguagesString;
; 447  : 
; 448  :     //
; 449  :     // Get the Device Descriptor strings
; 450  :     //
; 451  :     if (DeviceDesc->iManufacturer)

  00057	8b 4c 24 20	 mov	 ecx, DWORD PTR _DeviceDesc$[esp+16]
  0005b	0f b6 49 0e	 movzx	 ecx, BYTE PTR [ecx+14]
  0005f	83 e8 02	 sub	 eax, 2
  00062	99		 cdq
  00063	2b c2		 sub	 eax, edx
  00065	8b f0		 mov	 esi, eax
  00067	d1 fe		 sar	 esi, 1
  00069	8d 5f 0a	 lea	 ebx, DWORD PTR [edi+10]
  0006c	8b c7		 mov	 eax, edi
  0006e	84 c9		 test	 cl, cl
  00070	74 10		 je	 SHORT $LN14@GetAllStri

; 452  :     {
; 453  :         stringDescNodeTail = GetStringDescriptors(hHubDevice,
; 454  :                                                   ConnectionIndex,
; 455  :                                                   DeviceDesc->iManufacturer,
; 456  :                                                   numLanguageIDs,
; 457  :                                                   languageIDs,
; 458  :                                                   stringDescNodeTail);

  00072	8b 54 24 18	 mov	 edx, DWORD PTR _hHubDevice$[esp+16]
  00076	51		 push	 ecx
  00077	55		 push	 ebp
  00078	52		 push	 edx
  00079	8b cb		 mov	 ecx, ebx
  0007b	8b d6		 mov	 edx, esi
  0007d	e8 00 00 00 00	 call	 ?GetStringDescriptors@USB@@IAEPAU_STRING_DESCRIPTOR_NODE@@PAXKEKPAGPAU2@@Z ; USB::GetStringDescriptors
$LN14@GetAllStri:

; 459  :     }
; 460  : 
; 461  :     if (DeviceDesc->iProduct)

  00082	8b 4c 24 20	 mov	 ecx, DWORD PTR _DeviceDesc$[esp+16]
  00086	0f b6 49 0f	 movzx	 ecx, BYTE PTR [ecx+15]
  0008a	84 c9		 test	 cl, cl
  0008c	74 10		 je	 SHORT $LN13@GetAllStri

; 462  :     {
; 463  :         stringDescNodeTail = GetStringDescriptors(hHubDevice,
; 464  :                                                   ConnectionIndex,
; 465  :                                                   DeviceDesc->iProduct,
; 466  :                                                   numLanguageIDs,
; 467  :                                                   languageIDs,
; 468  :                                                   stringDescNodeTail);

  0008e	8b 54 24 18	 mov	 edx, DWORD PTR _hHubDevice$[esp+16]
  00092	51		 push	 ecx
  00093	55		 push	 ebp
  00094	52		 push	 edx
  00095	8b cb		 mov	 ecx, ebx
  00097	8b d6		 mov	 edx, esi
  00099	e8 00 00 00 00	 call	 ?GetStringDescriptors@USB@@IAEPAU_STRING_DESCRIPTOR_NODE@@PAXKEKPAGPAU2@@Z ; USB::GetStringDescriptors
$LN13@GetAllStri:

; 469  :     }
; 470  : 
; 471  :     if (DeviceDesc->iSerialNumber)

  0009e	8b 4c 24 20	 mov	 ecx, DWORD PTR _DeviceDesc$[esp+16]
  000a2	0f b6 49 10	 movzx	 ecx, BYTE PTR [ecx+16]
  000a6	84 c9		 test	 cl, cl
  000a8	74 10		 je	 SHORT $LN12@GetAllStri

; 472  :     {
; 473  :         stringDescNodeTail = GetStringDescriptors(hHubDevice,
; 474  :                                                   ConnectionIndex,
; 475  :                                                   DeviceDesc->iSerialNumber,
; 476  :                                                   numLanguageIDs,
; 477  :                                                   languageIDs,
; 478  :                                                   stringDescNodeTail);

  000aa	8b 54 24 18	 mov	 edx, DWORD PTR _hHubDevice$[esp+16]
  000ae	51		 push	 ecx
  000af	55		 push	 ebp
  000b0	52		 push	 edx
  000b1	8b cb		 mov	 ecx, ebx
  000b3	8b d6		 mov	 edx, esi
  000b5	e8 00 00 00 00	 call	 ?GetStringDescriptors@USB@@IAEPAU_STRING_DESCRIPTOR_NODE@@PAXKEKPAGPAU2@@Z ; USB::GetStringDescriptors
$LN12@GetAllStri:

; 479  :     }
; 480  : 
; 481  : 
; 482  :     //
; 483  :     // Get the Configuration and Interface Descriptor strings
; 484  :     //
; 485  :     descEnd = (PUCHAR)ConfigDesc + ConfigDesc->wTotalLength;

  000ba	8b 7c 24 24	 mov	 edi, DWORD PTR _ConfigDesc$[esp+16]
  000be	0f b7 4f 02	 movzx	 ecx, WORD PTR [edi+2]
  000c2	8d 57 02	 lea	 edx, DWORD PTR [edi+2]
  000c5	03 cf		 add	 ecx, edi
  000c7	89 4c 24 20	 mov	 DWORD PTR _descEnd$[esp+16], ecx

; 486  : //    commonDesc = (PUSB_COMMON_DESCRIPTOR)ConfigDesc;
; 487  :     commonDesc = (PUCHAR)ConfigDesc;
; 488  : 
; 489  :     while ((DWORD)((PUCHAR)commonDesc + sizeof(USB_COMMON_DESCRIPTOR)) < (DWORD)descEnd &&
; 490  :            (DWORD)((PUCHAR)commonDesc + ((PUSB_COMMON_DESCRIPTOR)commonDesc)->bLength) <= (DWORD)descEnd)

  000cb	3b d1		 cmp	 edx, ecx
  000cd	73 5c		 jae	 SHORT $LN21@GetAllStri
  000cf	90		 npad	 1
$LL11@GetAllStri:
  000d0	8a 17		 mov	 dl, BYTE PTR [edi]
  000d2	0f b6 ca	 movzx	 ecx, dl
  000d5	03 cf		 add	 ecx, edi
  000d7	89 4c 24 1c	 mov	 DWORD PTR tv254[esp+16], ecx
  000db	3b 4c 24 20	 cmp	 ecx, DWORD PTR _descEnd$[esp+16]
  000df	77 4a		 ja	 SHORT $LN21@GetAllStri

; 491  :     {
; 492  :         switch (((PUSB_COMMON_DESCRIPTOR)commonDesc)->bDescriptorType)

  000e1	0f b6 4f 01	 movzx	 ecx, BYTE PTR [edi+1]
  000e5	83 e9 02	 sub	 ecx, 2
  000e8	74 16		 je	 SHORT $LN7@GetAllStri
  000ea	83 e9 02	 sub	 ecx, 2
  000ed	74 06		 je	 SHORT $LN4@GetAllStri

; 531  : 
; 532  :             default:
; 533  :                 (PUCHAR)commonDesc += ((PUSB_COMMON_DESCRIPTOR)commonDesc)->bLength;

  000ef	8b 7c 24 1c	 mov	 edi, DWORD PTR tv254[esp+16]

; 534  :                 continue;

  000f3	eb 2d		 jmp	 SHORT $LN23@GetAllStri
$LN4@GetAllStri:

; 510  :                 continue;
; 511  : 
; 512  :             case USB_INTERFACE_DESCRIPTOR_TYPE:
; 513  : //                if (commonDesc->bLength != sizeof(USB_INTERFACE_DESCRIPTOR) &&
; 514  : //                    commonDesc->bLength != sizeof(USB_INTERFACE_DESCRIPTOR2))
; 515  :                 if (((PUSB_COMMON_DESCRIPTOR)commonDesc)->bLength != sizeof(USB_INTERFACE_DESCRIPTOR))

  000f5	80 fa 09	 cmp	 dl, 9
  000f8	75 31		 jne	 SHORT $LN21@GetAllStri

; 516  :                 {
; 517  :                     break;
; 518  :                 }
; 519  :                 if (((PUSB_INTERFACE_DESCRIPTOR)commonDesc)->iInterface)

  000fa	0f b6 4f 08	 movzx	 ecx, BYTE PTR [edi+8]

; 520  :                 {
; 521  :                     stringDescNodeTail = GetStringDescriptors(
; 522  :                                              hHubDevice,
; 523  :                                              ConnectionIndex,
; 524  :                                              ((PUSB_INTERFACE_DESCRIPTOR)commonDesc)->iInterface,
; 525  :                                              numLanguageIDs,
; 526  :                                              languageIDs,
; 527  :                                              stringDescNodeTail);
; 528  :                 }
; 529  :                 (PUCHAR)commonDesc += ((PUSB_COMMON_DESCRIPTOR)commonDesc)->bLength;
; 530  :                 continue;

  000fe	eb 09		 jmp	 SHORT $LN28@GetAllStri
$LN7@GetAllStri:

; 493  :         {
; 494  :             case USB_CONFIGURATION_DESCRIPTOR_TYPE:
; 495  :                 if (((PUSB_COMMON_DESCRIPTOR)commonDesc)->bLength != sizeof(USB_CONFIGURATION_DESCRIPTOR))

  00100	80 fa 09	 cmp	 dl, 9
  00103	75 26		 jne	 SHORT $LN21@GetAllStri

; 496  :                 {
; 497  :                     break;
; 498  :                 }
; 499  :                 if (((PUSB_CONFIGURATION_DESCRIPTOR)commonDesc)->iConfiguration)

  00105	0f b6 4f 06	 movzx	 ecx, BYTE PTR [edi+6]
$LN28@GetAllStri:
  00109	84 c9		 test	 cl, cl
  0010b	74 10		 je	 SHORT $LN5@GetAllStri

; 500  :                 {
; 501  :                     stringDescNodeTail = GetStringDescriptors(
; 502  :                                              hHubDevice,
; 503  :                                              ConnectionIndex,
; 504  :                                              ((PUSB_CONFIGURATION_DESCRIPTOR)commonDesc)->iConfiguration,
; 505  :                                              numLanguageIDs,
; 506  :                                              languageIDs,
; 507  :                                              stringDescNodeTail);

  0010d	8b 54 24 18	 mov	 edx, DWORD PTR _hHubDevice$[esp+16]
  00111	51		 push	 ecx
  00112	55		 push	 ebp
  00113	52		 push	 edx
  00114	8b cb		 mov	 ecx, ebx
  00116	8b d6		 mov	 edx, esi
  00118	e8 00 00 00 00	 call	 ?GetStringDescriptors@USB@@IAEPAU_STRING_DESCRIPTOR_NODE@@PAXKEKPAGPAU2@@Z ; USB::GetStringDescriptors
$LN5@GetAllStri:

; 508  :                 }
; 509  :                 (PUCHAR)commonDesc += ((PUSB_COMMON_DESCRIPTOR)commonDesc)->bLength;

  0011d	0f b6 0f	 movzx	 ecx, BYTE PTR [edi]
  00120	03 f9		 add	 edi, ecx
$LN23@GetAllStri:
  00122	8d 57 02	 lea	 edx, DWORD PTR [edi+2]
  00125	3b 54 24 20	 cmp	 edx, DWORD PTR _descEnd$[esp+16]
  00129	72 a5		 jb	 SHORT $LL11@GetAllStri
$LN21@GetAllStri:

; 535  :         }
; 536  :         break;
; 537  :     }
; 538  : 
; 539  :     Log(LOG_DEBUG,__LINE__,"<< USB.GetAllStrDescs, SuppLangsStr %X",supportedLanguagesString);

  0012b	8b 74 24 10	 mov	 esi, DWORD PTR _supportedLanguagesString$[esp+20]
  0012f	56		 push	 esi
  00130	68 00 00 00 00	 push	 OFFSET ??_C@_0CH@IFDPMHNA@?$DM?$DM?5USB?4GetAllStrDescs?0?5SuppLangs@
  00135	68 1b 02 00 00	 push	 539			; 0000021bH
  0013a	6a 10		 push	 16			; 00000010H
  0013c	e8 00 00 00 00	 call	 ?Log@@YAXHHPBDZZ	; Log
  00141	83 c4 10	 add	 esp, 16			; 00000010H

; 540  :     return supportedLanguagesString;
; 541  : }

  00144	5f		 pop	 edi
  00145	8b c6		 mov	 eax, esi
  00147	5e		 pop	 esi
  00148	5d		 pop	 ebp
  00149	5b		 pop	 ebx
  0014a	59		 pop	 ecx
  0014b	c2 10 00	 ret	 16			; 00000010H
?GetAllStringDescriptors@USB@@IAEPAU_STRING_DESCRIPTOR_NODE@@PAXKPAU_USB_DEVICE_DESCRIPTOR@@PAU_USB_CONFIGURATION_DESCRIPTOR@@@Z ENDP ; USB::GetAllStringDescriptors
_TEXT	ENDS
PUBLIC	?USBDevicesDetails@USB@@QAEXXZ			; USB::USBDevicesDetails
; Function compile flags: /Ogtpy
;	COMDAT ?USBDevicesDetails@USB@@QAEXXZ
_TEXT	SEGMENT
_seconds$191853 = -20					; size = 4
_timeElapsed$191852 = -16				; size = 4
_tickStart$ = -16					; size = 8
_tickEnd$191851 = -8					; size = 8
?USBDevicesDetails@USB@@QAEXXZ PROC			; USB::USBDevicesDetails, COMDAT
; _this$ = eax

; 187  : {

  00000	55		 push	 ebp
  00001	8b ec		 mov	 ebp, esp
  00003	83 e4 c0	 and	 esp, -64		; ffffffc0H
  00006	83 ec 34	 sub	 esp, 52			; 00000034H
  00009	53		 push	 ebx
  0000a	56		 push	 esi
  0000b	57		 push	 edi

; 188  : 	Log(LOG_DEBUG,__LINE__,">> USB.DevsDets");

  0000c	68 00 00 00 00	 push	 OFFSET ??_C@_0BA@EBIECMOG@?$DO?$DO?5USB?4DevsDets?$AA@
  00011	68 bc 00 00 00	 push	 188			; 000000bcH
  00016	6a 10		 push	 16			; 00000010H
  00018	8b f0		 mov	 esi, eax
  0001a	e8 00 00 00 00	 call	 ?Log@@YAXHHPBDZZ	; Log
  0001f	83 c4 0c	 add	 esp, 12			; 0000000cH

; 189  : 
; 190  :     unsigned __int64 tickStart = SysTick;

  00022	ff 15 00 00 00
	00		 call	 DWORD PTR __imp__GetTickCount@0

; 191  : 
; 192  :     Log(LOG_HEADER,__LINE__,"USB Device Details");

  00028	68 00 00 00 00	 push	 OFFSET ??_C@_0BD@HNIJLKOP@USB?5Device?5Details?$AA@
  0002d	68 c0 00 00 00	 push	 192			; 000000c0H
  00032	6a 02		 push	 2
  00034	89 44 24 3c	 mov	 DWORD PTR _tickStart$[esp+76], eax
  00038	e8 00 00 00 00	 call	 ?Log@@YAXHHPBDZZ	; Log

; 193  : 
; 194  :     for(unsigned int x=0;x<usbDevDetails.size();x++)

  0003d	8b 8e 1c 02 00
	00		 mov	 ecx, DWORD PTR [esi+540]
  00043	2b 8e 18 02 00
	00		 sub	 ecx, DWORD PTR [esi+536]
  00049	b8 93 24 49 92	 mov	 eax, -1840700269	; 92492493H
  0004e	f7 e9		 imul	 ecx
  00050	03 d1		 add	 edx, ecx
  00052	c1 fa 04	 sar	 edx, 4
  00055	8b c2		 mov	 eax, edx
  00057	c1 e8 1f	 shr	 eax, 31			; 0000001fH
  0005a	83 c4 0c	 add	 esp, 12			; 0000000cH
  0005d	33 ff		 xor	 edi, edi
  0005f	03 c2		 add	 eax, edx
  00061	0f 84 83 00 00
	00		 je	 $LN1@USBDevices

; 188  : 	Log(LOG_DEBUG,__LINE__,">> USB.DevsDets");

  00067	33 db		 xor	 ebx, ebx
  00069	8d a4 24 00 00
	00 00		 npad	 7
$LL3@USBDevices:

; 195  :     {
; 196  :         Log(LOG_MESSAGE,__LINE__,"%s",usbDevDetails[x].c_str());

  00070	8b 8e 1c 02 00
	00		 mov	 ecx, DWORD PTR [esi+540]
  00076	2b 8e 18 02 00
	00		 sub	 ecx, DWORD PTR [esi+536]
  0007c	b8 93 24 49 92	 mov	 eax, -1840700269	; 92492493H
  00081	f7 e9		 imul	 ecx
  00083	03 d1		 add	 edx, ecx
  00085	c1 fa 04	 sar	 edx, 4
  00088	8b ca		 mov	 ecx, edx
  0008a	c1 e9 1f	 shr	 ecx, 31			; 0000001fH
  0008d	03 ca		 add	 ecx, edx
  0008f	3b f9		 cmp	 edi, ecx
  00091	72 05		 jb	 SHORT $LN10@USBDevices
  00093	e8 00 00 00 00	 call	 __invalid_parameter_noinfo
$LN10@USBDevices:
  00098	8b 86 18 02 00
	00		 mov	 eax, DWORD PTR [esi+536]
  0009e	03 c3		 add	 eax, ebx
  000a0	83 78 18 10	 cmp	 DWORD PTR [eax+24], 16	; 00000010H
  000a4	72 05		 jb	 SHORT $LN20@USBDevices
  000a6	8b 40 04	 mov	 eax, DWORD PTR [eax+4]
  000a9	eb 03		 jmp	 SHORT $LN21@USBDevices
$LN20@USBDevices:
  000ab	83 c0 04	 add	 eax, 4
$LN21@USBDevices:
  000ae	50		 push	 eax
  000af	68 00 00 00 00	 push	 OFFSET ??_C@_02DKCKIIND@?$CFs?$AA@
  000b4	68 c4 00 00 00	 push	 196			; 000000c4H
  000b9	6a 01		 push	 1
  000bb	e8 00 00 00 00	 call	 ?Log@@YAXHHPBDZZ	; Log
  000c0	8b 8e 1c 02 00
	00		 mov	 ecx, DWORD PTR [esi+540]
  000c6	2b 8e 18 02 00
	00		 sub	 ecx, DWORD PTR [esi+536]
  000cc	b8 93 24 49 92	 mov	 eax, -1840700269	; 92492493H
  000d1	f7 e9		 imul	 ecx
  000d3	03 d1		 add	 edx, ecx
  000d5	c1 fa 04	 sar	 edx, 4
  000d8	8b c2		 mov	 eax, edx
  000da	c1 e8 1f	 shr	 eax, 31			; 0000001fH
  000dd	47		 inc	 edi
  000de	03 c2		 add	 eax, edx
  000e0	83 c4 10	 add	 esp, 16			; 00000010H
  000e3	83 c3 1c	 add	 ebx, 28			; 0000001cH
  000e6	3b f8		 cmp	 edi, eax
  000e8	72 86		 jb	 SHORT $LL3@USBDevices
$LN1@USBDevices:

; 197  :     }
; 198  : 
; 199  :     LogElapsedTime(__LINE__,tickStart);

  000ea	8d 4c 24 2c	 lea	 ecx, DWORD PTR _seconds$191853[esp+64]
  000ee	51		 push	 ecx
  000ef	8d 54 24 34	 lea	 edx, DWORD PTR _timeElapsed$191852[esp+68]
  000f3	52		 push	 edx
  000f4	33 c0		 xor	 eax, eax
  000f6	50		 push	 eax
  000f7	8b 44 24 3c	 mov	 eax, DWORD PTR _tickStart$[esp+76]
  000fb	50		 push	 eax
  000fc	8d 74 24 48	 lea	 esi, DWORD PTR _tickEnd$191851[esp+80]
  00100	e8 00 00 00 00	 call	 ?CalcElapsedTime@@YAX_KAA_KAAMAAK@Z ; CalcElapsedTime
  00105	d9 44 24 40	 fld	 DWORD PTR _timeElapsed$191852[esp+80]
  00109	8b 4c 24 3c	 mov	 ecx, DWORD PTR _seconds$191853[esp+80]
  0010d	dd 5c 24 08	 fstp	 QWORD PTR [esp+8]
  00111	b8 c5 b3 a2 91	 mov	 eax, -1851608123	; 91a2b3c5H
  00116	f7 e1		 mul	 ecx
  00118	8b f2		 mov	 esi, edx
  0011a	b8 89 88 88 88	 mov	 eax, -2004318071	; 88888889H
  0011f	f7 e1		 mul	 ecx
  00121	c1 ea 05	 shr	 edx, 5
  00124	8b c2		 mov	 eax, edx
  00126	c1 e0 04	 shl	 eax, 4
  00129	2b c2		 sub	 eax, edx
  0012b	03 c0		 add	 eax, eax
  0012d	03 c0		 add	 eax, eax
  0012f	8b d1		 mov	 edx, ecx
  00131	2b d0		 sub	 edx, eax
  00133	c1 ee 0b	 shr	 esi, 11			; 0000000bH
  00136	8b c6		 mov	 eax, esi
  00138	69 c0 10 0e 00
	00		 imul	 eax, 3600		; 00000e10H
  0013e	83 c4 08	 add	 esp, 8
  00141	52		 push	 edx
  00142	2b c8		 sub	 ecx, eax
  00144	b8 89 88 88 88	 mov	 eax, -2004318071	; 88888889H
  00149	f7 e1		 mul	 ecx
  0014b	c1 ea 05	 shr	 edx, 5
  0014e	52		 push	 edx
  0014f	56		 push	 esi
  00150	68 00 00 00 00	 push	 OFFSET ??_C@_0BF@MMBEHPNG@?$CF02d?3?$CF02d?3?$CF02d?0?5?$CFf?5s?$AA@
  00155	68 c7 00 00 00	 push	 199			; 000000c7H
  0015a	6a 01		 push	 1
  0015c	e8 00 00 00 00	 call	 ?Log@@YAXHHPBDZZ	; Log

; 200  : 
; 201  : 	Log(LOG_DEBUG,__LINE__,"<< USB.DevsDets");

  00161	68 00 00 00 00	 push	 OFFSET ??_C@_0BA@GOKCLIBE@?$DM?$DM?5USB?4DevsDets?$AA@
  00166	68 c9 00 00 00	 push	 201			; 000000c9H
  0016b	6a 10		 push	 16			; 00000010H
  0016d	e8 00 00 00 00	 call	 ?Log@@YAXHHPBDZZ	; Log
  00172	83 c4 2c	 add	 esp, 44			; 0000002cH

; 202  : }

  00175	5f		 pop	 edi
  00176	5e		 pop	 esi
  00177	5b		 pop	 ebx
  00178	8b e5		 mov	 esp, ebp
  0017a	5d		 pop	 ebp
  0017b	c3		 ret	 0
?USBDevicesDetails@USB@@QAEXXZ ENDP			; USB::USBDevicesDetails
;	COMDAT xdata$x
; File c:\program files\microsoft visual studio 9.0\vc\include\iosfwd
xdata$x	SEGMENT
__unwindtable$?PushBackDetails@USB@@IAEXV?$basic_string@DU?$char_traits@D@std@@V?$allocator@D@2@@std@@@Z DD 0ffffffffH
	DD	FLAT:__unwindfunclet$?PushBackDetails@USB@@IAEXV?$basic_string@DU?$char_traits@D@std@@V?$allocator@D@2@@std@@@Z$0
__ehfuncinfo$?PushBackDetails@USB@@IAEXV?$basic_string@DU?$char_traits@D@std@@V?$allocator@D@2@@std@@@Z DD 019930522H
	DD	01H
	DD	FLAT:__unwindtable$?PushBackDetails@USB@@IAEXV?$basic_string@DU?$char_traits@D@std@@V?$allocator@D@2@@std@@@Z
	DD	2 DUP(00H)
	DD	2 DUP(00H)
	DD	00H
	DD	00H
; Function compile flags: /Ogtpy
; File e:\tools\sysstatus\usb.h
xdata$x	ENDS
;	COMDAT ?PushBackDetails@USB@@IAEXV?$basic_string@DU?$char_traits@D@std@@V?$allocator@D@2@@std@@@Z
_TEXT	SEGMENT
__$EHRec$ = -12						; size = 12
_detail$ = 8						; size = 28
?PushBackDetails@USB@@IAEXV?$basic_string@DU?$char_traits@D@std@@V?$allocator@D@2@@std@@@Z PROC ; USB::PushBackDetails, COMDAT
; _this$ = esi

; 104  :     void PushBackDetails(string detail) {

  00000	6a ff		 push	 -1
  00002	68 00 00 00 00	 push	 __ehhandler$?PushBackDetails@USB@@IAEXV?$basic_string@DU?$char_traits@D@std@@V?$allocator@D@2@@std@@@Z
  00007	64 a1 00 00 00
	00		 mov	 eax, DWORD PTR fs:0
  0000d	50		 push	 eax
  0000e	51		 push	 ecx
  0000f	53		 push	 ebx
  00010	a1 00 00 00 00	 mov	 eax, DWORD PTR ___security_cookie
  00015	33 c4		 xor	 eax, esp
  00017	50		 push	 eax
  00018	8d 44 24 0c	 lea	 eax, DWORD PTR __$EHRec$[esp+24]
  0001c	64 a3 00 00 00
	00		 mov	 DWORD PTR fs:0, eax
  00022	c7 44 24 14 00
	00 00 00	 mov	 DWORD PTR __$EHRec$[esp+32], 0

; 105  :         Log(LOG_DEBUG,__LINE__,"-- USB.PushBackDets, %s",detail.c_str());

  0002a	83 7c 24 34 10	 cmp	 DWORD PTR _detail$[esp+44], 16 ; 00000010H
  0002f	8b 44 24 20	 mov	 eax, DWORD PTR _detail$[esp+24]
  00033	73 04		 jae	 SHORT $LN9@PushBackDe
  00035	8d 44 24 20	 lea	 eax, DWORD PTR _detail$[esp+24]
$LN9@PushBackDe:
  00039	50		 push	 eax
  0003a	68 00 00 00 00	 push	 OFFSET ??_C@_0BI@GFKFEIAL@?9?9?5USB?4PushBackDets?0?5?$CFs?$AA@
  0003f	6a 69		 push	 105			; 00000069H
  00041	6a 10		 push	 16			; 00000010H
  00043	e8 00 00 00 00	 call	 ?Log@@YAXHHPBDZZ	; Log
  00048	83 c4 10	 add	 esp, 16			; 00000010H

; 106  :         usbDevDetails.push_back(detail);

  0004b	8d 44 24 1c	 lea	 eax, DWORD PTR _detail$[esp+20]
  0004f	50		 push	 eax
  00050	8d 9e 0c 02 00
	00		 lea	 ebx, DWORD PTR [esi+524]
  00056	e8 00 00 00 00	 call	 ?push_back@?$vector@V?$basic_string@DU?$char_traits@D@std@@V?$allocator@D@2@@std@@V?$allocator@V?$basic_string@DU?$char_traits@D@std@@V?$allocator@D@2@@std@@@2@@std@@QAEXABV?$basic_string@DU?$char_traits@D@std@@V?$allocator@D@2@@2@@Z ; std::vector<std::basic_string<char,std::char_traits<char>,std::allocator<char> >,std::allocator<std::basic_string<char,std::char_traits<char>,std::allocator<char> > > >::push_back

; 107  :     }

  0005b	c7 44 24 14 ff
	ff ff ff	 mov	 DWORD PTR __$EHRec$[esp+32], -1
  00063	83 7c 24 34 10	 cmp	 DWORD PTR _detail$[esp+44], 16 ; 00000010H
  00068	72 0d		 jb	 SHORT $LN26@PushBackDe
  0006a	8b 4c 24 20	 mov	 ecx, DWORD PTR _detail$[esp+24]
  0006e	51		 push	 ecx
  0006f	e8 00 00 00 00	 call	 ??3@YAXPAX@Z		; operator delete
  00074	83 c4 04	 add	 esp, 4
$LN26@PushBackDe:
  00077	33 c0		 xor	 eax, eax
  00079	c7 44 24 34 0f
	00 00 00	 mov	 DWORD PTR _detail$[esp+44], 15 ; 0000000fH
  00081	89 44 24 30	 mov	 DWORD PTR _detail$[esp+40], eax
  00085	88 44 24 20	 mov	 BYTE PTR _detail$[esp+24], al
  00089	8b 4c 24 0c	 mov	 ecx, DWORD PTR __$EHRec$[esp+24]
  0008d	64 89 0d 00 00
	00 00		 mov	 DWORD PTR fs:0, ecx
  00094	59		 pop	 ecx
  00095	5b		 pop	 ebx
  00096	83 c4 10	 add	 esp, 16			; 00000010H
  00099	c2 1c 00	 ret	 28			; 0000001cH
_TEXT	ENDS
;	COMDAT text$x
text$x	SEGMENT
__unwindfunclet$?PushBackDetails@USB@@IAEXV?$basic_string@DU?$char_traits@D@std@@V?$allocator@D@2@@std@@@Z$0:
  00000	8d 4d 04	 lea	 ecx, DWORD PTR _detail$[ebp-4]
  00003	e9 00 00 00 00	 jmp	 ??1?$basic_string@DU?$char_traits@D@std@@V?$allocator@D@2@@std@@QAE@XZ ; std::basic_string<char,std::char_traits<char>,std::allocator<char> >::~basic_string<char,std::char_traits<char>,std::allocator<char> >
__ehhandler$?PushBackDetails@USB@@IAEXV?$basic_string@DU?$char_traits@D@std@@V?$allocator@D@2@@std@@@Z:
  00008	8b 54 24 08	 mov	 edx, DWORD PTR [esp+8]
  0000c	8d 42 f8	 lea	 eax, DWORD PTR [edx-8]
  0000f	8b 4a f4	 mov	 ecx, DWORD PTR [edx-12]
  00012	33 c8		 xor	 ecx, eax
  00014	e8 00 00 00 00	 call	 @__security_check_cookie@4
  00019	b8 00 00 00 00	 mov	 eax, OFFSET __ehfuncinfo$?PushBackDetails@USB@@IAEXV?$basic_string@DU?$char_traits@D@std@@V?$allocator@D@2@@std@@@Z
  0001e	e9 00 00 00 00	 jmp	 ___CxxFrameHandler3
text$x	ENDS
?PushBackDetails@USB@@IAEXV?$basic_string@DU?$char_traits@D@std@@V?$allocator@D@2@@std@@@Z ENDP ; USB::PushBackDetails
PUBLIC	__$ArrayPad$
PUBLIC	?UnknownDescriptor@USB@@IAEXPAU_USB_COMMON_DESCRIPTOR@@@Z ; USB::UnknownDescriptor
;	COMDAT xdata$x
; File c:\program files\microsoft visual studio 9.0\vc\include\iosfwd
xdata$x	SEGMENT
__unwindtable$?UnknownDescriptor@USB@@IAEXPAU_USB_COMMON_DESCRIPTOR@@@Z DD 0ffffffffH
	DD	FLAT:__unwindfunclet$?UnknownDescriptor@USB@@IAEXPAU_USB_COMMON_DESCRIPTOR@@@Z$0
	DD	0ffffffffH
	DD	FLAT:__unwindfunclet$?UnknownDescriptor@USB@@IAEXPAU_USB_COMMON_DESCRIPTOR@@@Z$1
	DD	0ffffffffH
	DD	FLAT:__unwindfunclet$?UnknownDescriptor@USB@@IAEXPAU_USB_COMMON_DESCRIPTOR@@@Z$2
	DD	0ffffffffH
	DD	FLAT:__unwindfunclet$?UnknownDescriptor@USB@@IAEXPAU_USB_COMMON_DESCRIPTOR@@@Z$3
	DD	0ffffffffH
	DD	FLAT:__unwindfunclet$?UnknownDescriptor@USB@@IAEXPAU_USB_COMMON_DESCRIPTOR@@@Z$4
__ehfuncinfo$?UnknownDescriptor@USB@@IAEXPAU_USB_COMMON_DESCRIPTOR@@@Z DD 019930522H
	DD	05H
	DD	FLAT:__unwindtable$?UnknownDescriptor@USB@@IAEXPAU_USB_COMMON_DESCRIPTOR@@@Z
	DD	2 DUP(00H)
	DD	2 DUP(00H)
	DD	00H
	DD	00H
; Function compile flags: /Ogtpy
; File e:\tools\sysstatus\usb.cpp
xdata$x	ENDS
;	COMDAT ?UnknownDescriptor@USB@@IAEXPAU_USB_COMMON_DESCRIPTOR@@@Z
_TEXT	SEGMENT
_i$ = -1049						; size = 1
$T223137 = -1048					; size = 4
$T223136 = -1048					; size = 4
$T223135 = -1048					; size = 4
$T223134 = -1048					; size = 4
$T223133 = -1048					; size = 4
_format$ = -1044					; size = 1024
__$ArrayPad$ = -20					; size = 4
__$EHRec$ = -12						; size = 12
_this$ = 8						; size = 4
?UnknownDescriptor@USB@@IAEXPAU_USB_COMMON_DESCRIPTOR@@@Z PROC ; USB::UnknownDescriptor, COMDAT
; _CommonDesc$ = edi

; 2101 : {

  00000	6a ff		 push	 -1
  00002	68 00 00 00 00	 push	 __ehhandler$?UnknownDescriptor@USB@@IAEXPAU_USB_COMMON_DESCRIPTOR@@@Z
  00007	64 a1 00 00 00
	00		 mov	 eax, DWORD PTR fs:0
  0000d	50		 push	 eax
  0000e	81 ec 14 04 00
	00		 sub	 esp, 1044		; 00000414H
  00014	a1 00 00 00 00	 mov	 eax, DWORD PTR ___security_cookie
  00019	33 c4		 xor	 eax, esp
  0001b	89 84 24 0c 04
	00 00		 mov	 DWORD PTR __$ArrayPad$[esp+1056], eax
  00022	53		 push	 ebx
  00023	55		 push	 ebp
  00024	56		 push	 esi
  00025	a1 00 00 00 00	 mov	 eax, DWORD PTR ___security_cookie
  0002a	33 c4		 xor	 eax, esp
  0002c	50		 push	 eax
  0002d	8d 84 24 24 04
	00 00		 lea	 eax, DWORD PTR __$EHRec$[esp+1072]
  00034	64 a3 00 00 00
	00		 mov	 DWORD PTR fs:0, eax
  0003a	8b ac 24 34 04
	00 00		 mov	 ebp, DWORD PTR _this$[esp+1068]

; 2102 :     char format[1024] = {0};

  00041	33 db		 xor	 ebx, ebx
  00043	68 ff 03 00 00	 push	 1023			; 000003ffH
  00048	8d 44 24 21	 lea	 eax, DWORD PTR _format$[esp+1077]
  0004c	53		 push	 ebx
  0004d	50		 push	 eax
  0004e	88 5c 24 28	 mov	 BYTE PTR _format$[esp+1084], bl
  00052	e8 00 00 00 00	 call	 _memset
  00057	83 c4 0c	 add	 esp, 12			; 0000000cH

; 2103 :     UCHAR   i;
; 2104 : 
; 2105 :     Log(LOG_DEBUG,__LINE__,">> USB.UnknownDesc");

  0005a	68 00 00 00 00	 push	 OFFSET ??_C@_0BD@LEEGFGLN@?$DO?$DO?5USB?4UnknownDesc?$AA@
  0005f	68 39 08 00 00	 push	 2105			; 00000839H
  00064	6a 10		 push	 16			; 00000010H
  00066	e8 00 00 00 00	 call	 ?Log@@YAXHHPBDZZ	; Log

; 2106 : 
; 2107 :     PushBackDetails("> Unknown Descriptor:");

  0006b	83 ec 10	 sub	 esp, 16			; 00000010H
  0006e	8b cc		 mov	 ecx, esp
  00070	89 64 24 34	 mov	 DWORD PTR $T223133[esp+1100], esp
  00074	6a 15		 push	 21			; 00000015H
  00076	c7 41 18 0f 00
	00 00		 mov	 DWORD PTR [ecx+24], 15	; 0000000fH
  0007d	89 59 14	 mov	 DWORD PTR [ecx+20], ebx
  00080	68 00 00 00 00	 push	 OFFSET ??_C@_0BG@FBFGEGLK@?$DO?5Unknown?5Descriptor?3?$AA@
  00085	88 59 04	 mov	 BYTE PTR [ecx+4], bl
  00088	e8 00 00 00 00	 call	 ?assign@?$basic_string@DU?$char_traits@D@std@@V?$allocator@D@2@@std@@QAEAAV12@PBDI@Z ; std::basic_string<char,std::char_traits<char>,std::allocator<char> >::assign
  0008d	89 9c 24 48 04
	00 00		 mov	 DWORD PTR __$EHRec$[esp+1108], ebx
  00094	c7 84 24 48 04
	00 00 ff ff ff
	ff		 mov	 DWORD PTR __$EHRec$[esp+1108], -1
  0009f	8b f5		 mov	 esi, ebp
  000a1	e8 00 00 00 00	 call	 ?PushBackDetails@USB@@IAEXV?$basic_string@DU?$char_traits@D@std@@V?$allocator@D@2@@std@@@Z ; USB::PushBackDetails

; 2108 : 
; 2109 :     _snprintf(format,sizeof(format)-1,">   bDescriptorType: 0x%02X",CommonDesc->bDescriptorType);

  000a6	0f b6 4f 01	 movzx	 ecx, BYTE PTR [edi+1]
  000aa	51		 push	 ecx
  000ab	68 00 00 00 00	 push	 OFFSET ??_C@_0BM@HOMJLHIG@?$DO?5?5?5bDescriptorType?3?50x?$CF02X?$AA@
  000b0	8d 54 24 24	 lea	 edx, DWORD PTR _format$[esp+1080]
  000b4	68 ff 03 00 00	 push	 1023			; 000003ffH
  000b9	52		 push	 edx
  000ba	e8 00 00 00 00	 call	 __snprintf

; 2110 :     PushBackDetails(format);

  000bf	83 ec 0c	 sub	 esp, 12			; 0000000cH
  000c2	8b cc		 mov	 ecx, esp
  000c4	8d 44 24 38	 lea	 eax, DWORD PTR _format$[esp+1100]
  000c8	c7 41 18 0f 00
	00 00		 mov	 DWORD PTR [ecx+24], 15	; 0000000fH
  000cf	89 59 14	 mov	 DWORD PTR [ecx+20], ebx
  000d2	89 64 24 34	 mov	 DWORD PTR $T223134[esp+1100], esp
  000d6	88 59 04	 mov	 BYTE PTR [ecx+4], bl
  000d9	8d 70 01	 lea	 esi, DWORD PTR [eax+1]
  000dc	8d 64 24 00	 npad	 4
$LL195@UnknownDes:
  000e0	8a 10		 mov	 dl, BYTE PTR [eax]
  000e2	40		 inc	 eax
  000e3	3a d3		 cmp	 dl, bl
  000e5	75 f9		 jne	 SHORT $LL195@UnknownDes
  000e7	2b c6		 sub	 eax, esi
  000e9	50		 push	 eax
  000ea	8d 44 24 3c	 lea	 eax, DWORD PTR _format$[esp+1104]
  000ee	50		 push	 eax
  000ef	e8 00 00 00 00	 call	 ?assign@?$basic_string@DU?$char_traits@D@std@@V?$allocator@D@2@@std@@QAEAAV12@PBDI@Z ; std::basic_string<char,std::char_traits<char>,std::allocator<char> >::assign
  000f4	c7 84 24 48 04
	00 00 01 00 00
	00		 mov	 DWORD PTR __$EHRec$[esp+1108], 1
  000ff	c7 84 24 48 04
	00 00 ff ff ff
	ff		 mov	 DWORD PTR __$EHRec$[esp+1108], -1
  0010a	8b f5		 mov	 esi, ebp
  0010c	e8 00 00 00 00	 call	 ?PushBackDetails@USB@@IAEXV?$basic_string@DU?$char_traits@D@std@@V?$allocator@D@2@@std@@@Z ; USB::PushBackDetails

; 2111 :     memset(format,0x00,sizeof(format));

  00111	68 00 04 00 00	 push	 1024			; 00000400H
  00116	8d 4c 24 20	 lea	 ecx, DWORD PTR _format$[esp+1076]
  0011a	53		 push	 ebx
  0011b	51		 push	 ecx
  0011c	e8 00 00 00 00	 call	 _memset

; 2112 : 
; 2113 :     _snprintf(format,sizeof(format)-1,">   bLength: 0x%02X",CommonDesc->bLength);

  00121	0f b6 17	 movzx	 edx, BYTE PTR [edi]
  00124	83 c4 0c	 add	 esp, 12			; 0000000cH
  00127	52		 push	 edx
  00128	68 00 00 00 00	 push	 OFFSET ??_C@_0BE@PKPADJND@?$DO?5?5?5bLength?3?50x?$CF02X?$AA@
  0012d	8d 44 24 24	 lea	 eax, DWORD PTR _format$[esp+1080]
  00131	68 ff 03 00 00	 push	 1023			; 000003ffH
  00136	50		 push	 eax
  00137	e8 00 00 00 00	 call	 __snprintf

; 2114 :     PushBackDetails(format);

  0013c	83 ec 0c	 sub	 esp, 12			; 0000000cH
  0013f	8b cc		 mov	 ecx, esp
  00141	8d 44 24 38	 lea	 eax, DWORD PTR _format$[esp+1100]
  00145	c7 41 18 0f 00
	00 00		 mov	 DWORD PTR [ecx+24], 15	; 0000000fH
  0014c	89 59 14	 mov	 DWORD PTR [ecx+20], ebx
  0014f	89 64 24 34	 mov	 DWORD PTR $T223135[esp+1100], esp
  00153	88 59 04	 mov	 BYTE PTR [ecx+4], bl
  00156	8d 70 01	 lea	 esi, DWORD PTR [eax+1]
  00159	8d a4 24 00 00
	00 00		 npad	 7
$LL196@UnknownDes:
  00160	8a 10		 mov	 dl, BYTE PTR [eax]
  00162	40		 inc	 eax
  00163	3a d3		 cmp	 dl, bl
  00165	75 f9		 jne	 SHORT $LL196@UnknownDes
  00167	2b c6		 sub	 eax, esi
  00169	50		 push	 eax
  0016a	8d 54 24 3c	 lea	 edx, DWORD PTR _format$[esp+1104]
  0016e	52		 push	 edx
  0016f	e8 00 00 00 00	 call	 ?assign@?$basic_string@DU?$char_traits@D@std@@V?$allocator@D@2@@std@@QAEAAV12@PBDI@Z ; std::basic_string<char,std::char_traits<char>,std::allocator<char> >::assign
  00174	c7 84 24 48 04
	00 00 02 00 00
	00		 mov	 DWORD PTR __$EHRec$[esp+1108], 2
  0017f	c7 84 24 48 04
	00 00 ff ff ff
	ff		 mov	 DWORD PTR __$EHRec$[esp+1108], -1
  0018a	8b f5		 mov	 esi, ebp
  0018c	e8 00 00 00 00	 call	 ?PushBackDetails@USB@@IAEXV?$basic_string@DU?$char_traits@D@std@@V?$allocator@D@2@@std@@@Z ; USB::PushBackDetails

; 2115 :     memset(format,0x00,sizeof(format));

  00191	68 00 04 00 00	 push	 1024			; 00000400H
  00196	8d 44 24 20	 lea	 eax, DWORD PTR _format$[esp+1076]
  0019a	53		 push	 ebx
  0019b	50		 push	 eax
  0019c	e8 00 00 00 00	 call	 _memset
  001a1	83 c4 0c	 add	 esp, 12			; 0000000cH

; 2116 : 
; 2117 :     _snprintf(format,sizeof(format)-1,">   ");

  001a4	68 00 00 00 00	 push	 OFFSET ??_C@_04CKDHMDHJ@?$DO?5?5?5?$AA@
  001a9	8d 4c 24 20	 lea	 ecx, DWORD PTR _format$[esp+1076]
  001ad	68 ff 03 00 00	 push	 1023			; 000003ffH
  001b2	51		 push	 ecx
  001b3	e8 00 00 00 00	 call	 __snprintf
  001b8	83 c4 0c	 add	 esp, 12			; 0000000cH

; 2118 :     for (i = 0; i < CommonDesc->bLength; i++)

  001bb	88 5c 24 17	 mov	 BYTE PTR _i$[esp+1072], bl
  001bf	38 1f		 cmp	 BYTE PTR [edi], bl
  001c1	0f 86 bc 00 00
	00		 jbe	 $LN3@UnknownDes
$LN5@UnknownDes:

; 2119 :     {
; 2120 :         _snprintf(format,sizeof(format)-1,"%s.%02X",format,((PUCHAR)CommonDesc)[i]);

  001c7	0f b6 74 24 17	 movzx	 esi, BYTE PTR _i$[esp+1072]
  001cc	0f b6 14 3e	 movzx	 edx, BYTE PTR [esi+edi]
  001d0	52		 push	 edx
  001d1	8d 44 24 20	 lea	 eax, DWORD PTR _format$[esp+1076]
  001d5	50		 push	 eax
  001d6	68 00 00 00 00	 push	 OFFSET ??_C@_07GHOKFMCD@?$CFs?4?$CF02X?$AA@
  001db	8b c8		 mov	 ecx, eax
  001dd	68 ff 03 00 00	 push	 1023			; 000003ffH
  001e2	51		 push	 ecx
  001e3	e8 00 00 00 00	 call	 __snprintf
  001e8	83 c4 14	 add	 esp, 20			; 00000014H

; 2121 : 
; 2122 :         if (i % 16 == 15)

  001eb	81 e6 0f 00 00
	80		 and	 esi, -2147483633	; 8000000fH
  001f1	79 05		 jns	 SHORT $LN201@UnknownDes
  001f3	4e		 dec	 esi
  001f4	83 ce f0	 or	 esi, -16		; fffffff0H
  001f7	46		 inc	 esi
$LN201@UnknownDes:
  001f8	83 fe 0f	 cmp	 esi, 15			; 0000000fH
  001fb	75 74		 jne	 SHORT $LN4@UnknownDes

; 2123 :         {
; 2124 :             PushBackDetails(format);

  001fd	83 ec 1c	 sub	 esp, 28			; 0000001cH
  00200	8b cc		 mov	 ecx, esp
  00202	89 71 18	 mov	 DWORD PTR [ecx+24], esi
  00205	8d 44 24 38	 lea	 eax, DWORD PTR _format$[esp+1100]
  00209	89 59 14	 mov	 DWORD PTR [ecx+20], ebx
  0020c	89 64 24 34	 mov	 DWORD PTR $T223136[esp+1100], esp
  00210	88 59 04	 mov	 BYTE PTR [ecx+4], bl
  00213	8d 70 01	 lea	 esi, DWORD PTR [eax+1]
$LL197@UnknownDes:
  00216	8a 10		 mov	 dl, BYTE PTR [eax]
  00218	40		 inc	 eax
  00219	3a d3		 cmp	 dl, bl
  0021b	75 f9		 jne	 SHORT $LL197@UnknownDes
  0021d	2b c6		 sub	 eax, esi
  0021f	50		 push	 eax
  00220	8d 54 24 3c	 lea	 edx, DWORD PTR _format$[esp+1104]
  00224	52		 push	 edx
  00225	e8 00 00 00 00	 call	 ?assign@?$basic_string@DU?$char_traits@D@std@@V?$allocator@D@2@@std@@QAEAAV12@PBDI@Z ; std::basic_string<char,std::char_traits<char>,std::allocator<char> >::assign
  0022a	c7 84 24 48 04
	00 00 03 00 00
	00		 mov	 DWORD PTR __$EHRec$[esp+1108], 3
  00235	c7 84 24 48 04
	00 00 ff ff ff
	ff		 mov	 DWORD PTR __$EHRec$[esp+1108], -1
  00240	8b f5		 mov	 esi, ebp
  00242	e8 00 00 00 00	 call	 ?PushBackDetails@USB@@IAEXV?$basic_string@DU?$char_traits@D@std@@V?$allocator@D@2@@std@@@Z ; USB::PushBackDetails

; 2125 :             memset(format,0x00,sizeof(format));

  00247	68 00 04 00 00	 push	 1024			; 00000400H
  0024c	8d 44 24 20	 lea	 eax, DWORD PTR _format$[esp+1076]
  00250	53		 push	 ebx
  00251	50		 push	 eax
  00252	e8 00 00 00 00	 call	 _memset
  00257	83 c4 0c	 add	 esp, 12			; 0000000cH

; 2126 :             _snprintf(format,sizeof(format)-1,">   ");

  0025a	68 00 00 00 00	 push	 OFFSET ??_C@_04CKDHMDHJ@?$DO?5?5?5?$AA@
  0025f	8d 4c 24 20	 lea	 ecx, DWORD PTR _format$[esp+1076]
  00263	68 ff 03 00 00	 push	 1023			; 000003ffH
  00268	51		 push	 ecx
  00269	e8 00 00 00 00	 call	 __snprintf
  0026e	83 c4 0c	 add	 esp, 12			; 0000000cH
$LN4@UnknownDes:
  00271	8a 44 24 17	 mov	 al, BYTE PTR _i$[esp+1072]
  00275	fe c0		 inc	 al
  00277	88 44 24 17	 mov	 BYTE PTR _i$[esp+1072], al
  0027b	3a 07		 cmp	 al, BYTE PTR [edi]
  0027d	0f 82 44 ff ff
	ff		 jb	 $LN5@UnknownDes
$LN3@UnknownDes:

; 2127 :         }
; 2128 :     }
; 2129 : 
; 2130 :     if (i % 16 != 0)

  00283	0f b6 54 24 17	 movzx	 edx, BYTE PTR _i$[esp+1072]
  00288	81 e2 0f 00 00
	80		 and	 edx, -2147483633	; 8000000fH
  0028e	79 05		 jns	 SHORT $LN202@UnknownDes
  00290	4a		 dec	 edx
  00291	83 ca f0	 or	 edx, -16		; fffffff0H
  00294	42		 inc	 edx
$LN202@UnknownDes:
  00295	74 50		 je	 SHORT $LN1@UnknownDes

; 2131 :     {
; 2132 :         PushBackDetails(format);

  00297	83 ec 1c	 sub	 esp, 28			; 0000001cH
  0029a	8b f4		 mov	 esi, esp
  0029c	8d 44 24 38	 lea	 eax, DWORD PTR _format$[esp+1100]
  002a0	c7 46 18 0f 00
	00 00		 mov	 DWORD PTR [esi+24], 15	; 0000000fH
  002a7	89 5e 14	 mov	 DWORD PTR [esi+20], ebx
  002aa	89 64 24 34	 mov	 DWORD PTR $T223137[esp+1100], esp
  002ae	88 5e 04	 mov	 BYTE PTR [esi+4], bl
  002b1	8d 50 01	 lea	 edx, DWORD PTR [eax+1]
$LL198@UnknownDes:
  002b4	8a 08		 mov	 cl, BYTE PTR [eax]
  002b6	40		 inc	 eax
  002b7	3a cb		 cmp	 cl, bl
  002b9	75 f9		 jne	 SHORT $LL198@UnknownDes
  002bb	2b c2		 sub	 eax, edx
  002bd	50		 push	 eax
  002be	8d 44 24 3c	 lea	 eax, DWORD PTR _format$[esp+1104]
  002c2	50		 push	 eax
  002c3	8b ce		 mov	 ecx, esi
  002c5	e8 00 00 00 00	 call	 ?assign@?$basic_string@DU?$char_traits@D@std@@V?$allocator@D@2@@std@@QAEAAV12@PBDI@Z ; std::basic_string<char,std::char_traits<char>,std::allocator<char> >::assign
  002ca	c7 84 24 48 04
	00 00 04 00 00
	00		 mov	 DWORD PTR __$EHRec$[esp+1108], 4
  002d5	c7 84 24 48 04
	00 00 ff ff ff
	ff		 mov	 DWORD PTR __$EHRec$[esp+1108], -1
  002e0	8b f5		 mov	 esi, ebp
  002e2	e8 00 00 00 00	 call	 ?PushBackDetails@USB@@IAEXV?$basic_string@DU?$char_traits@D@std@@V?$allocator@D@2@@std@@@Z ; USB::PushBackDetails
$LN1@UnknownDes:

; 2133 :     }
; 2134 : 
; 2135 :     Log(LOG_DEBUG,__LINE__,"<< USB.UnknownDesc");

  002e7	68 00 00 00 00	 push	 OFFSET ??_C@_0BD@MFCGDLMP@?$DM?$DM?5USB?4UnknownDesc?$AA@
  002ec	68 57 08 00 00	 push	 2135			; 00000857H
  002f1	6a 10		 push	 16			; 00000010H
  002f3	e8 00 00 00 00	 call	 ?Log@@YAXHHPBDZZ	; Log
  002f8	83 c4 0c	 add	 esp, 12			; 0000000cH

; 2136 : }

  002fb	8b 8c 24 24 04
	00 00		 mov	 ecx, DWORD PTR __$EHRec$[esp+1072]
  00302	64 89 0d 00 00
	00 00		 mov	 DWORD PTR fs:0, ecx
  00309	59		 pop	 ecx
  0030a	5e		 pop	 esi
  0030b	5d		 pop	 ebp
  0030c	5b		 pop	 ebx
  0030d	8b 8c 24 0c 04
	00 00		 mov	 ecx, DWORD PTR __$ArrayPad$[esp+1056]
  00314	33 cc		 xor	 ecx, esp
  00316	e8 00 00 00 00	 call	 @__security_check_cookie@4
  0031b	81 c4 20 04 00
	00		 add	 esp, 1056		; 00000420H
  00321	c2 04 00	 ret	 4
_TEXT	ENDS
;	COMDAT text$x
text$x	SEGMENT
__unwindfunclet$?UnknownDescriptor@USB@@IAEXPAU_USB_COMMON_DESCRIPTOR@@@Z$0:
  00000	8b 8d e8 fb ff
	ff		 mov	 ecx, DWORD PTR $T223133[ebp]
  00006	e9 00 00 00 00	 jmp	 ??1?$basic_string@DU?$char_traits@D@std@@V?$allocator@D@2@@std@@QAE@XZ ; std::basic_string<char,std::char_traits<char>,std::allocator<char> >::~basic_string<char,std::char_traits<char>,std::allocator<char> >
__unwindfunclet$?UnknownDescriptor@USB@@IAEXPAU_USB_COMMON_DESCRIPTOR@@@Z$1:
  0000b	8b 8d e8 fb ff
	ff		 mov	 ecx, DWORD PTR $T223134[ebp]
  00011	e9 00 00 00 00	 jmp	 ??1?$basic_string@DU?$char_traits@D@std@@V?$allocator@D@2@@std@@QAE@XZ ; std::basic_string<char,std::char_traits<char>,std::allocator<char> >::~basic_string<char,std::char_traits<char>,std::allocator<char> >
__unwindfunclet$?UnknownDescriptor@USB@@IAEXPAU_USB_COMMON_DESCRIPTOR@@@Z$2:
  00016	8b 8d e8 fb ff
	ff		 mov	 ecx, DWORD PTR $T223135[ebp]
  0001c	e9 00 00 00 00	 jmp	 ??1?$basic_string@DU?$char_traits@D@std@@V?$allocator@D@2@@std@@QAE@XZ ; std::basic_string<char,std::char_traits<char>,std::allocator<char> >::~basic_string<char,std::char_traits<char>,std::allocator<char> >
__unwindfunclet$?UnknownDescriptor@USB@@IAEXPAU_USB_COMMON_DESCRIPTOR@@@Z$3:
  00021	8b 8d e8 fb ff
	ff		 mov	 ecx, DWORD PTR $T223136[ebp]
  00027	e9 00 00 00 00	 jmp	 ??1?$basic_string@DU?$char_traits@D@std@@V?$allocator@D@2@@std@@QAE@XZ ; std::basic_string<char,std::char_traits<char>,std::allocator<char> >::~basic_string<char,std::char_traits<char>,std::allocator<char> >
__unwindfunclet$?UnknownDescriptor@USB@@IAEXPAU_USB_COMMON_DESCRIPTOR@@@Z$4:
  0002c	8b 8d e8 fb ff
	ff		 mov	 ecx, DWORD PTR $T223137[ebp]
  00032	e9 00 00 00 00	 jmp	 ??1?$basic_string@DU?$char_traits@D@std@@V?$allocator@D@2@@std@@QAE@XZ ; std::basic_string<char,std::char_traits<char>,std::allocator<char> >::~basic_string<char,std::char_traits<char>,std::allocator<char> >
__ehhandler$?UnknownDescriptor@USB@@IAEXPAU_USB_COMMON_DESCRIPTOR@@@Z:
  00037	8b 54 24 08	 mov	 edx, DWORD PTR [esp+8]
  0003b	8d 82 e0 fb ff
	ff		 lea	 eax, DWORD PTR [edx-1056]
  00041	8b 8a dc fb ff
	ff		 mov	 ecx, DWORD PTR [edx-1060]
  00047	33 c8		 xor	 ecx, eax
  00049	e8 00 00 00 00	 call	 @__security_check_cookie@4
  0004e	83 c0 0c	 add	 eax, 12			; 0000000cH
  00051	8b 4a f8	 mov	 ecx, DWORD PTR [edx-8]
  00054	33 c8		 xor	 ecx, eax
  00056	e8 00 00 00 00	 call	 @__security_check_cookie@4
  0005b	b8 00 00 00 00	 mov	 eax, OFFSET __ehfuncinfo$?UnknownDescriptor@USB@@IAEXPAU_USB_COMMON_DESCRIPTOR@@@Z
  00060	e9 00 00 00 00	 jmp	 ___CxxFrameHandler3
text$x	ENDS
?UnknownDescriptor@USB@@IAEXPAU_USB_COMMON_DESCRIPTOR@@@Z ENDP ; USB::UnknownDescriptor
PUBLIC	__$ArrayPad$
PUBLIC	?StringDescriptor@USB@@IAEXEPAU_STRING_DESCRIPTOR_NODE@@@Z ; USB::StringDescriptor
;	COMDAT xdata$x
; File c:\program files\microsoft visual studio 9.0\vc\include\iosfwd
xdata$x	SEGMENT
__unwindtable$?StringDescriptor@USB@@IAEXEPAU_STRING_DESCRIPTOR_NODE@@@Z DD 0ffffffffH
	DD	FLAT:__unwindfunclet$?StringDescriptor@USB@@IAEXEPAU_STRING_DESCRIPTOR_NODE@@@Z$0
__ehfuncinfo$?StringDescriptor@USB@@IAEXEPAU_STRING_DESCRIPTOR_NODE@@@Z DD 019930522H
	DD	01H
	DD	FLAT:__unwindtable$?StringDescriptor@USB@@IAEXEPAU_STRING_DESCRIPTOR_NODE@@@Z
	DD	2 DUP(00H)
	DD	2 DUP(00H)
	DD	00H
	DD	00H
; Function compile flags: /Ogtpy
; File e:\tools\sysstatus\usb.cpp
xdata$x	ENDS
;	COMDAT ?StringDescriptor@USB@@IAEXEPAU_STRING_DESCRIPTOR_NODE@@@Z
_TEXT	SEGMENT
$T223883 = -10020					; size = 4
_format$ = -10016					; size = 10000
__$ArrayPad$ = -16					; size = 4
__$EHRec$ = -12						; size = 12
_this$ = 8						; size = 4
_Index$ = 12						; size = 1
?StringDescriptor@USB@@IAEXEPAU_STRING_DESCRIPTOR_NODE@@@Z PROC ; USB::StringDescriptor, COMDAT
; _StringDescs$ = ecx

; 2059 : {

  00000	6a ff		 push	 -1
  00002	68 00 00 00 00	 push	 __ehhandler$?StringDescriptor@USB@@IAEXEPAU_STRING_DESCRIPTOR_NODE@@@Z
  00007	64 a1 00 00 00
	00		 mov	 eax, DWORD PTR fs:0
  0000d	50		 push	 eax
  0000e	b8 1c 27 00 00	 mov	 eax, 10012		; 0000271cH
  00013	e8 00 00 00 00	 call	 __chkstk
  00018	a1 00 00 00 00	 mov	 eax, DWORD PTR ___security_cookie
  0001d	33 c4		 xor	 eax, esp
  0001f	89 84 24 18 27
	00 00		 mov	 DWORD PTR __$ArrayPad$[esp+10024], eax
  00026	53		 push	 ebx
  00027	56		 push	 esi
  00028	a1 00 00 00 00	 mov	 eax, DWORD PTR ___security_cookie
  0002d	33 c4		 xor	 eax, esp
  0002f	50		 push	 eax
  00030	8d 84 24 28 27
	00 00		 lea	 eax, DWORD PTR __$EHRec$[esp+10036]
  00037	64 a3 00 00 00
	00		 mov	 DWORD PTR fs:0, eax

; 2060 :     char format[10000] = {0};

  0003d	33 db		 xor	 ebx, ebx
  0003f	68 0f 27 00 00	 push	 9999			; 0000270fH
  00044	8d 44 24 19	 lea	 eax, DWORD PTR _format$[esp+10041]
  00048	53		 push	 ebx
  00049	50		 push	 eax
  0004a	8b f1		 mov	 esi, ecx
  0004c	88 5c 24 20	 mov	 BYTE PTR _format$[esp+10048], bl
  00050	e8 00 00 00 00	 call	 _memset

; 2061 : 
; 2062 :     Log(LOG_DEBUG,__LINE__,">> USB.StrDesc, Idx %d",(int)Index);

  00055	0f b6 8c 24 48
	27 00 00	 movzx	 ecx, BYTE PTR _Index$[esp+10044]
  0005d	83 c4 0c	 add	 esp, 12			; 0000000cH
  00060	51		 push	 ecx
  00061	68 00 00 00 00	 push	 OFFSET ??_C@_0BH@LCHICFEL@?$DO?$DO?5USB?4StrDesc?0?5Idx?5?$CFd?$AA@
  00066	68 0e 08 00 00	 push	 2062			; 0000080eH
  0006b	6a 10		 push	 16			; 00000010H
  0006d	e8 00 00 00 00	 call	 ?Log@@YAXHHPBDZZ	; Log
  00072	83 c4 10	 add	 esp, 16			; 00000010H

; 2063 : 
; 2064 :     // Use an actual "int" here because it's passed as a printf * precision
; 2065 :     int descChars = 0;
; 2066 : 
; 2067 :     while (StringDescs)

  00075	3b f3		 cmp	 esi, ebx
  00077	0f 84 99 00 00
	00		 je	 $LN2@StringDesc@2
  0007d	8d 49 00	 npad	 3
$LL3@StringDesc@2:

; 2068 :     {
; 2069 :         if (StringDescs->DescriptorIndex == Index)

  00080	8a 94 24 3c 27
	00 00		 mov	 dl, BYTE PTR _Index$[esp+10032]
  00087	38 56 04	 cmp	 BYTE PTR [esi+4], dl
  0008a	74 0b		 je	 SHORT $LN44@StringDesc@2

; 2090 :             break;
; 2091 :         }
; 2092 : 
; 2093 :         StringDescs = StringDescs->Next;

  0008c	8b 36		 mov	 esi, DWORD PTR [esi]
  0008e	3b f3		 cmp	 esi, ebx
  00090	75 ee		 jne	 SHORT $LL3@StringDesc@2

; 2068 :     {
; 2069 :         if (StringDescs->DescriptorIndex == Index)

  00092	e9 7f 00 00 00	 jmp	 $LN2@StringDesc@2
$LN44@StringDesc@2:

; 2070 :         {
; 2071 :             //
; 2072 :             // bString from USB_STRING_DESCRIPTOR isn't NULL-terminated, so 
; 2073 :             // calculate the number of characters.  
; 2074 :             // 
; 2075 :             // bLength is the length of the whole structure, not just the string.  
; 2076 :             // 
; 2077 :             // bLength is bytes, bString is WCHARs
; 2078 :             // 
; 2079 :             descChars = 
; 2080 :                 ( (int) StringDescs->StringDescriptor->bLength - 
; 2081 :                 offsetof(USB_STRING_DESCRIPTOR, bString) ) /
; 2082 :                 sizeof(WCHAR);
; 2083 :             //
; 2084 :             // Use the * precision and pass the number of characters just caculated.
; 2085 :             // bString is always WCHAR so specify widestring regardless of what TCHAR resolves to
; 2086 :             // 
; 2087 :             _snprintf(format,sizeof(format)-1,">   0x%04X: %s",StringDescs->LanguageID,(char const* )StringDescs->StringDescriptor->bString);

  00097	0f b7 4e 06	 movzx	 ecx, WORD PTR [esi+6]
  0009b	8d 46 0a	 lea	 eax, DWORD PTR [esi+10]
  0009e	50		 push	 eax
  0009f	51		 push	 ecx
  000a0	68 00 00 00 00	 push	 OFFSET ??_C@_0P@CCEKBNHE@?$DO?5?5?50x?$CF04X?3?5?$CFs?$AA@
  000a5	8d 54 24 20	 lea	 edx, DWORD PTR _format$[esp+10048]
  000a9	68 0f 27 00 00	 push	 9999			; 0000270fH
  000ae	52		 push	 edx
  000af	e8 00 00 00 00	 call	 __snprintf

; 2088 :             PushBackDetails(format);

  000b4	83 ec 08	 sub	 esp, 8
  000b7	8b cc		 mov	 ecx, esp
  000b9	8d 44 24 30	 lea	 eax, DWORD PTR _format$[esp+10064]
  000bd	c7 41 18 0f 00
	00 00		 mov	 DWORD PTR [ecx+24], 15	; 0000000fH
  000c4	89 59 14	 mov	 DWORD PTR [ecx+20], ebx
  000c7	89 64 24 2c	 mov	 DWORD PTR $T223883[esp+10064], esp
  000cb	88 59 04	 mov	 BYTE PTR [ecx+4], bl
  000ce	8d 70 01	 lea	 esi, DWORD PTR [eax+1]
$LL46@StringDesc@2:
  000d1	8a 10		 mov	 dl, BYTE PTR [eax]
  000d3	40		 inc	 eax
  000d4	3a d3		 cmp	 dl, bl
  000d6	75 f9		 jne	 SHORT $LL46@StringDesc@2
  000d8	2b c6		 sub	 eax, esi
  000da	50		 push	 eax
  000db	8d 44 24 34	 lea	 eax, DWORD PTR _format$[esp+10068]
  000df	50		 push	 eax
  000e0	e8 00 00 00 00	 call	 ?assign@?$basic_string@DU?$char_traits@D@std@@V?$allocator@D@2@@std@@QAEAAV12@PBDI@Z ; std::basic_string<char,std::char_traits<char>,std::allocator<char> >::assign
  000e5	89 9c 24 4c 27
	00 00		 mov	 DWORD PTR __$EHRec$[esp+10072], ebx
  000ec	c7 84 24 4c 27
	00 00 ff ff ff
	ff		 mov	 DWORD PTR __$EHRec$[esp+10072], -1
  000f7	8b b4 24 54 27
	00 00		 mov	 esi, DWORD PTR _this$[esp+10060]
  000fe	e8 00 00 00 00	 call	 ?PushBackDetails@USB@@IAEXV?$basic_string@DU?$char_traits@D@std@@V?$allocator@D@2@@std@@@Z ; USB::PushBackDetails

; 2089 :             memset(format,0x00,sizeof(format));

  00103	68 10 27 00 00	 push	 10000			; 00002710H
  00108	8d 4c 24 18	 lea	 ecx, DWORD PTR _format$[esp+10040]
  0010c	53		 push	 ebx
  0010d	51		 push	 ecx
  0010e	e8 00 00 00 00	 call	 _memset
  00113	83 c4 0c	 add	 esp, 12			; 0000000cH
$LN2@StringDesc@2:

; 2094 :     }
; 2095 : 
; 2096 :     Log(LOG_DEBUG,__LINE__,"<< USB.StrDesc");

  00116	68 00 00 00 00	 push	 OFFSET ??_C@_0P@DKFDMJNG@?$DM?$DM?5USB?4StrDesc?$AA@
  0011b	68 30 08 00 00	 push	 2096			; 00000830H
  00120	6a 10		 push	 16			; 00000010H
  00122	e8 00 00 00 00	 call	 ?Log@@YAXHHPBDZZ	; Log
  00127	83 c4 0c	 add	 esp, 12			; 0000000cH

; 2097 : }

  0012a	8b 8c 24 28 27
	00 00		 mov	 ecx, DWORD PTR __$EHRec$[esp+10036]
  00131	64 89 0d 00 00
	00 00		 mov	 DWORD PTR fs:0, ecx
  00138	59		 pop	 ecx
  00139	5e		 pop	 esi
  0013a	5b		 pop	 ebx
  0013b	8b 8c 24 18 27
	00 00		 mov	 ecx, DWORD PTR __$ArrayPad$[esp+10024]
  00142	33 cc		 xor	 ecx, esp
  00144	e8 00 00 00 00	 call	 @__security_check_cookie@4
  00149	81 c4 28 27 00
	00		 add	 esp, 10024		; 00002728H
  0014f	c2 08 00	 ret	 8
_TEXT	ENDS
;	COMDAT text$x
text$x	SEGMENT
__unwindfunclet$?StringDescriptor@USB@@IAEXEPAU_STRING_DESCRIPTOR_NODE@@@Z$0:
  00000	8b 8d dc d8 ff
	ff		 mov	 ecx, DWORD PTR $T223883[ebp]
  00006	e9 00 00 00 00	 jmp	 ??1?$basic_string@DU?$char_traits@D@std@@V?$allocator@D@2@@std@@QAE@XZ ; std::basic_string<char,std::char_traits<char>,std::allocator<char> >::~basic_string<char,std::char_traits<char>,std::allocator<char> >
__ehhandler$?StringDescriptor@USB@@IAEXEPAU_STRING_DESCRIPTOR_NODE@@@Z:
  0000b	8b 54 24 08	 mov	 edx, DWORD PTR [esp+8]
  0000f	8d 82 dc d8 ff
	ff		 lea	 eax, DWORD PTR [edx-10020]
  00015	8b 8a d8 d8 ff
	ff		 mov	 ecx, DWORD PTR [edx-10024]
