; Listing generated by Microsoft (R) Optimizing Compiler Version 15.00.30729.01 

	TITLE	e:\Tools\SysStatus\WMI.cpp
	.686P
	.XMM
	include listing.inc
	.model	flat

INCLUDELIB OLDNAMES

PUBLIC	?_Same_container@_Iterator_base_secure@std@@QBE_NABV12@@Z ; std::_Iterator_base_secure::_Same_container
PUBLIC	?_Has_container@_Iterator_base_secure@std@@QBE_NXZ ; std::_Iterator_base_secure::_Has_container
PUBLIC	??G?$_String_const_iterator@DU?$char_traits@D@std@@V?$allocator@D@2@@std@@QBEHABV01@@Z ; std::_String_const_iterator<char,std::char_traits<char>,std::allocator<char> >::operator-
PUBLIC	?_Pdif@?$basic_string@DU?$char_traits@D@std@@V?$allocator@D@2@@std@@KAIV?$_String_const_iterator@DU?$char_traits@D@std@@V?$allocator@D@2@@2@0@Z ; std::basic_string<char,std::char_traits<char>,std::allocator<char> >::_Pdif
PUBLIC	?erase@?$basic_string@DU?$char_traits@D@std@@V?$allocator@D@2@@std@@QAE?AV?$_String_iterator@DU?$char_traits@D@std@@V?$allocator@D@2@@2@V?$_String_const_iterator@DU?$char_traits@D@std@@V?$allocator@D@2@@2@0@Z ; std::basic_string<char,std::char_traits<char>,std::allocator<char> >::erase
PUBLIC	?begin@?$basic_string@DU?$char_traits@D@std@@V?$allocator@D@2@@std@@QAE?AV?$_String_iterator@DU?$char_traits@D@std@@V?$allocator@D@2@@2@XZ ; std::basic_string<char,std::char_traits<char>,std::allocator<char> >::begin
PUBLIC	??0_Iterator_base_secure@std@@QAE@XZ		; std::_Iterator_base_secure::_Iterator_base_secure
PUBLIC	??0?$_Ranit_base@DHPBDABDV_Iterator_base_secure@std@@@std@@QAE@XZ ; std::_Ranit_base<char,int,char const *,char const &,std::_Iterator_base_secure>::_Ranit_base<char,int,char const *,char const &,std::_Iterator_base_secure>
PUBLIC	??0?$_String_const_iterator@DU?$char_traits@D@std@@V?$allocator@D@2@@std@@QAE@PBDPBV_Container_base_secure@1@@Z ; std::_String_const_iterator<char,std::char_traits<char>,std::allocator<char> >::_String_const_iterator<char,std::char_traits<char>,std::allocator<char> >
PUBLIC	??0?$_String_iterator@DU?$char_traits@D@std@@V?$allocator@D@2@@std@@QAE@PADPBV_Container_base_secure@1@@Z ; std::_String_iterator<char,std::char_traits<char>,std::allocator<char> >::_String_iterator<char,std::char_traits<char>,std::allocator<char> >
PUBLIC	?end@?$basic_string@DU?$char_traits@D@std@@V?$allocator@D@2@@std@@QAE?AV?$_String_iterator@DU?$char_traits@D@std@@V?$allocator@D@2@@2@XZ ; std::basic_string<char,std::char_traits<char>,std::allocator<char> >::end
PUBLIC	?clear@?$basic_string@DU?$char_traits@D@std@@V?$allocator@D@2@@std@@QAEXXZ ; std::basic_string<char,std::char_traits<char>,std::allocator<char> >::clear
PUBLIC	??0Data_t@_bstr_t@@QAE@PBD@Z			; _bstr_t::Data_t::Data_t
PUBLIC	??0_bstr_t@@QAE@PBD@Z				; _bstr_t::_bstr_t
PUBLIC	??0Data_t@_bstr_t@@QAE@PB_W@Z			; _bstr_t::Data_t::Data_t
PUBLIC	??2Data_t@_bstr_t@@SAPAXI@Z			; _bstr_t::Data_t::operator new
PUBLIC	??0_bstr_t@@QAE@PB_W@Z				; _bstr_t::_bstr_t
PUBLIC	?_Free@Data_t@_bstr_t@@AAEXXZ			; _bstr_t::Data_t::_Free
PUBLIC	??1Data_t@_bstr_t@@AAE@XZ			; _bstr_t::Data_t::~Data_t
PUBLIC	??_GData_t@_bstr_t@@AAEPAXI@Z			; _bstr_t::Data_t::`scalar deleting destructor'
PUBLIC	?Release@Data_t@_bstr_t@@QAEKXZ			; _bstr_t::Data_t::Release
PUBLIC	?_Free@_bstr_t@@AAEXXZ				; _bstr_t::_Free
PUBLIC	??1_bstr_t@@QAE@XZ				; _bstr_t::~_bstr_t
PUBLIC	?GetWString@Data_t@_bstr_t@@QAEAAPA_WXZ		; _bstr_t::Data_t::GetWString
PUBLIC	??B_bstr_t@@QBEPA_WXZ				; _bstr_t::operator wchar_t *
PUBLIC	??0?$allocator@E@std@@QAE@XZ			; std::allocator<unsigned char>::allocator<unsigned char>
PUBLIC	??$?0E@?$allocator@V_Aux_cont@std@@@std@@QAE@ABV?$allocator@E@1@@Z ; std::allocator<std::_Aux_cont>::allocator<std::_Aux_cont><unsigned char>
PUBLIC	??0?$_Container_base_aux_alloc_real@V?$allocator@E@std@@@std@@IAE@V?$allocator@E@1@@Z ; std::_Container_base_aux_alloc_real<std::allocator<unsigned char> >::_Container_base_aux_alloc_real<std::allocator<unsigned char> >
PUBLIC	??0?$allocator@E@std@@QAE@ABV01@@Z		; std::allocator<unsigned char>::allocator<unsigned char>
PUBLIC	??0?$_Vector_val@EV?$allocator@E@std@@@std@@IAE@V?$allocator@E@1@@Z ; std::_Vector_val<unsigned char,std::allocator<unsigned char> >::_Vector_val<unsigned char,std::allocator<unsigned char> >
PUBLIC	?_Buy@?$vector@EV?$allocator@E@std@@@std@@IAE_NI@Z ; std::vector<unsigned char,std::allocator<unsigned char> >::_Buy
PUBLIC	??0?$vector@EV?$allocator@E@std@@@std@@QAE@XZ	; std::vector<unsigned char,std::allocator<unsigned char> >::vector<unsigned char,std::allocator<unsigned char> >
PUBLIC	??1?$_Container_base_aux_alloc_real@V?$allocator@E@std@@@std@@IAE@XZ ; std::_Container_base_aux_alloc_real<std::allocator<unsigned char> >::~_Container_base_aux_alloc_real<std::allocator<unsigned char> >
PUBLIC	??1?$_Vector_val@EV?$allocator@E@std@@@std@@QAE@XZ ; std::_Vector_val<unsigned char,std::allocator<unsigned char> >::~_Vector_val<unsigned char,std::allocator<unsigned char> >
PUBLIC	?_Tidy@?$vector@EV?$allocator@E@std@@@std@@IAEXXZ ; std::vector<unsigned char,std::allocator<unsigned char> >::_Tidy
PUBLIC	??1?$vector@EV?$allocator@E@std@@@std@@QAE@XZ	; std::vector<unsigned char,std::allocator<unsigned char> >::~vector<unsigned char,std::allocator<unsigned char> >
PUBLIC	?clear@?$vector@EV?$allocator@E@std@@@std@@QAEXXZ ; std::vector<unsigned char,std::allocator<unsigned char> >::clear
PUBLIC	?begin@?$vector@EV?$allocator@E@std@@@std@@QAE?AV?$_Vector_iterator@EV?$allocator@E@std@@@2@XZ ; std::vector<unsigned char,std::allocator<unsigned char> >::begin
PUBLIC	?end@?$vector@EV?$allocator@E@std@@@std@@QAE?AV?$_Vector_iterator@EV?$allocator@E@std@@@2@XZ ; std::vector<unsigned char,std::allocator<unsigned char> >::end
PUBLIC	??0?$_Iterator_with_base@Urandom_access_iterator_tag@std@@EHPBEABEV_Iterator_base_aux@2@@std@@QAE@XZ ; std::_Iterator_with_base<std::random_access_iterator_tag,unsigned char,int,unsigned char const *,unsigned char const &,std::_Iterator_base_aux>::_Iterator_with_base<std::random_access_iterator_tag,unsigned char,int,unsigned char const *,unsigned char const &,std::_Iterator_base_aux>
PUBLIC	??0?$_Ranit@EHPBEABE@std@@QAE@XZ		; std::_Ranit<unsigned char,int,unsigned char const *,unsigned char const &>::_Ranit<unsigned char,int,unsigned char const *,unsigned char const &>
PUBLIC	??0?$_Vector_const_iterator@EV?$allocator@E@std@@@std@@QAE@PAEPBV_Container_base_aux@1@@Z ; std::_Vector_const_iterator<unsigned char,std::allocator<unsigned char> >::_Vector_const_iterator<unsigned char,std::allocator<unsigned char> >
PUBLIC	??0?$_Vector_iterator@EV?$allocator@E@std@@@std@@QAE@PAEPBV_Container_base_aux@1@@Z ; std::_Vector_iterator<unsigned char,std::allocator<unsigned char> >::_Vector_iterator<unsigned char,std::allocator<unsigned char> >
PUBLIC	?_Make_iter@?$vector@EV?$allocator@E@std@@@std@@QBE?AV?$_Vector_iterator@EV?$allocator@E@std@@@2@V?$_Vector_const_iterator@EV?$allocator@E@std@@@2@@Z ; std::vector<unsigned char,std::allocator<unsigned char> >::_Make_iter
PUBLIC	??8?$_Vector_const_iterator@EV?$allocator@E@std@@@std@@QBE_NABV01@@Z ; std::_Vector_const_iterator<unsigned char,std::allocator<unsigned char> >::operator==
PUBLIC	??9?$_Vector_const_iterator@EV?$allocator@E@std@@@std@@QBE_NABV01@@Z ; std::_Vector_const_iterator<unsigned char,std::allocator<unsigned char> >::operator!=
PUBLIC	??$_Copy_opt@PAEPAEUrandom_access_iterator_tag@std@@@std@@YAPAEPAE00Urandom_access_iterator_tag@0@U_Scalar_ptr_iterator_tag@0@U_Range_checked_iterator_tag@0@@Z ; std::_Copy_opt<unsigned char *,unsigned char *,std::random_access_iterator_tag>
PUBLIC	??$unchecked_copy@PAEPAE@stdext@@YAPAEPAE00@Z	; stdext::unchecked_copy<unsigned char *,unsigned char *>
PUBLIC	?erase@?$vector@EV?$allocator@E@std@@@std@@QAE?AV?$_Vector_iterator@EV?$allocator@E@std@@@2@V?$_Vector_const_iterator@EV?$allocator@E@std@@@2@0@Z ; std::vector<unsigned char,std::allocator<unsigned char> >::erase
PUBLIC	?deallocate@?$allocator@E@std@@QAEXPAEI@Z	; std::allocator<unsigned char>::deallocate
PUBLIC	??$_Allocate@E@std@@YAPAEIPAE@Z			; std::_Allocate<unsigned char>
PUBLIC	?allocate@?$allocator@E@std@@QAEPAEI@Z		; std::allocator<unsigned char>::allocate
PUBLIC	?capacity@?$vector@EV?$allocator@E@std@@@std@@QBEIXZ ; std::vector<unsigned char,std::allocator<unsigned char> >::capacity
PUBLIC	?max_size@?$allocator@E@std@@QBEIXZ		; std::allocator<unsigned char>::max_size
PUBLIC	?max_size@?$vector@EV?$allocator@E@std@@@std@@QBEIXZ ; std::vector<unsigned char,std::allocator<unsigned char> >::max_size
PUBLIC	??$_Destroy_range@V?$allocator@E@std@@@std@@YAXPAE0AAV?$allocator@E@0@U_Scalar_ptr_iterator_tag@0@@Z ; std::_Destroy_range<std::allocator<unsigned char> >
PUBLIC	??$_Destroy_range@V?$allocator@E@std@@@std@@YAXPAE0AAV?$allocator@E@0@@Z ; std::_Destroy_range<std::allocator<unsigned char> >
PUBLIC	?_Destroy@?$vector@EV?$allocator@E@std@@@std@@IAEXPAE0@Z ; std::vector<unsigned char,std::allocator<unsigned char> >::_Destroy
PUBLIC	??$_Iter_cat@PAE@std@@YA?AUrandom_access_iterator_tag@0@ABQAE@Z ; std::_Iter_cat<unsigned char *>
PUBLIC	??$_Fill_n@PAEIE@std@@YAXPAEIABEU_Range_checked_iterator_tag@0@@Z ; std::_Fill_n<unsigned char *,unsigned int,unsigned char>
PUBLIC	??$_Fill_n@PAEIE@std@@YAXPAEIABEUrandom_access_iterator_tag@0@U_Range_checked_iterator_tag@0@@Z ; std::_Fill_n<unsigned char *,unsigned int,unsigned char>
PUBLIC	??$unchecked_fill_n@PAEIE@stdext@@YAXPAEIABE@Z	; stdext::unchecked_fill_n<unsigned char *,unsigned int,unsigned char>
PUBLIC	??$_Uninit_fill_n@PAEIEV?$allocator@E@std@@@std@@YAXPAEIABEAAV?$allocator@E@0@U_Scalar_ptr_iterator_tag@0@U_Range_checked_iterator_tag@0@@Z ; std::_Uninit_fill_n<unsigned char *,unsigned int,unsigned char,std::allocator<unsigned char> >
PUBLIC	??$unchecked_uninitialized_fill_n@PAEIEV?$allocator@E@std@@@stdext@@YAXPAEIABEAAV?$allocator@E@std@@@Z ; stdext::unchecked_uninitialized_fill_n<unsigned char *,unsigned int,unsigned char,std::allocator<unsigned char> >
PUBLIC	?_Ufill@?$vector@EV?$allocator@E@std@@@std@@IAEPAEPAEIABE@Z ; std::vector<unsigned char,std::allocator<unsigned char> >::_Ufill
PUBLIC	?_Xlen@?$vector@EV?$allocator@E@std@@@std@@KAXXZ ; std::vector<unsigned char,std::allocator<unsigned char> >::_Xlen
PUBLIC	??$_Uninit_copy@PAEPAEV?$allocator@E@std@@@std@@YAPAEPAE00AAV?$allocator@E@0@U_Scalar_ptr_iterator_tag@0@U_Range_checked_iterator_tag@0@@Z ; std::_Uninit_copy<unsigned char *,unsigned char *,std::allocator<unsigned char> >
PUBLIC	??$unchecked_uninitialized_copy@PAEPAEV?$allocator@E@std@@@stdext@@YAPAEPAE00AAV?$allocator@E@std@@@Z ; stdext::unchecked_uninitialized_copy<unsigned char *,unsigned char *,std::allocator<unsigned char> >
PUBLIC	??$_Uninit_move@PAEPAEV?$allocator@E@std@@U_Undefined_move_tag@2@@std@@YAPAEPAE00AAV?$allocator@E@0@U_Undefined_move_tag@0@U_Range_checked_iterator_tag@0@@Z ; std::_Uninit_move<unsigned char *,unsigned char *,std::allocator<unsigned char>,std::_Undefined_move_tag>
PUBLIC	??$_Unchecked_uninitialized_move@PAEPAEV?$allocator@E@std@@@stdext@@YAPAEPAE00AAV?$allocator@E@std@@@Z ; stdext::_Unchecked_uninitialized_move<unsigned char *,unsigned char *,std::allocator<unsigned char> >
PUBLIC	??$_Umove@PAE@?$vector@EV?$allocator@E@std@@@std@@IAEPAEPAE00@Z ; std::vector<unsigned char,std::allocator<unsigned char> >::_Umove<unsigned char *>
PUBLIC	??$_Fill@PAEE@std@@YAXPAE0ABE@Z			; std::_Fill<unsigned char *,unsigned char>
PUBLIC	??$fill@PAEE@std@@YAXPAE0ABE@Z			; std::fill<unsigned char *,unsigned char>
PUBLIC	??$_Checked_base@PAE@std@@YAPAEAAPAEU_Unchanged_checked_iterator_base_type_tag@0@@Z ; std::_Checked_base<unsigned char *>
PUBLIC	??$_Checked_base@PAE@std@@YAPAEAAPAE@Z		; std::_Checked_base<unsigned char *>
PUBLIC	??$_Iter_random@PAEPAE@std@@YA?AUrandom_access_iterator_tag@0@ABQAE0@Z ; std::_Iter_random<unsigned char *,unsigned char *>
PUBLIC	??$_Move_cat@PAE@std@@YA?AU_Undefined_move_tag@0@ABQAE@Z ; std::_Move_cat<unsigned char *>
PUBLIC	??$_Ptr_cat@PAEPAE@std@@YA?AU_Scalar_ptr_iterator_tag@0@AAPAE0@Z ; std::_Ptr_cat<unsigned char *,unsigned char *>
PUBLIC	??$_Copy_backward_opt@PAEPAEUrandom_access_iterator_tag@std@@@std@@YAPAEPAE00Urandom_access_iterator_tag@0@U_Scalar_ptr_iterator_tag@0@U_Range_checked_iterator_tag@0@@Z ; std::_Copy_backward_opt<unsigned char *,unsigned char *,std::random_access_iterator_tag>
PUBLIC	??$_Move_backward_opt@PAEPAEUrandom_access_iterator_tag@std@@U_Undefined_move_tag@2@@std@@YAPAEPAE00Urandom_access_iterator_tag@0@U_Undefined_move_tag@0@U_Range_checked_iterator_tag@0@@Z ; std::_Move_backward_opt<unsigned char *,unsigned char *,std::random_access_iterator_tag,std::_Undefined_move_tag>
PUBLIC	??$_Unchecked_move_backward@PAEPAE@stdext@@YAPAEPAE00@Z ; stdext::_Unchecked_move_backward<unsigned char *,unsigned char *>
PUBLIC	?_Insert_n@?$vector@EV?$allocator@E@std@@@std@@IAEXV?$_Vector_const_iterator@EV?$allocator@E@std@@@2@IABE@Z ; std::vector<unsigned char,std::allocator<unsigned char> >::_Insert_n
PUBLIC	??Y?$_Vector_const_iterator@EV?$allocator@E@std@@@std@@QAEAAV01@H@Z ; std::_Vector_const_iterator<unsigned char,std::allocator<unsigned char> >::operator+=
PUBLIC	??Y?$_Vector_iterator@EV?$allocator@E@std@@@std@@QAEAAV01@H@Z ; std::_Vector_iterator<unsigned char,std::allocator<unsigned char> >::operator+=
PUBLIC	??H?$_Vector_iterator@EV?$allocator@E@std@@@std@@QBE?AV01@H@Z ; std::_Vector_iterator<unsigned char,std::allocator<unsigned char> >::operator+
PUBLIC	?resize@?$vector@EV?$allocator@E@std@@@std@@QAEXIE@Z ; std::vector<unsigned char,std::allocator<unsigned char> >::resize
PUBLIC	?resize@?$vector@EV?$allocator@E@std@@@std@@QAEXI@Z ; std::vector<unsigned char,std::allocator<unsigned char> >::resize
PUBLIC	?size@?$vector@EV?$allocator@E@std@@@std@@QBEIXZ ; std::vector<unsigned char,std::allocator<unsigned char> >::size
PUBLIC	??A?$vector@EV?$allocator@E@std@@@std@@QAEAAEI@Z ; std::vector<unsigned char,std::allocator<unsigned char> >::operator[]
PUBLIC	??0?$CComSafeArray@E$0BB@@ATL@@QAE@XZ		; ATL::CComSafeArray<unsigned char,17>::CComSafeArray<unsigned char,17>
PUBLIC	??1?$CComSafeArray@E$0BB@@ATL@@QAE@XZ		; ATL::CComSafeArray<unsigned char,17>::~CComSafeArray<unsigned char,17>
PUBLIC	?GetType@?$CComSafeArray@E$0BB@@ATL@@QBEGXZ	; ATL::CComSafeArray<unsigned char,17>::GetType
PUBLIC	?Unlock@?$CComSafeArray@E$0BB@@ATL@@IAEJXZ	; ATL::CComSafeArray<unsigned char,17>::Unlock
PUBLIC	?Destroy@?$CComSafeArray@E$0BB@@ATL@@QAEJXZ	; ATL::CComSafeArray<unsigned char,17>::Destroy
PUBLIC	?Lock@?$CComSafeArray@E$0BB@@ATL@@IAEJXZ	; ATL::CComSafeArray<unsigned char,17>::Lock
PUBLIC	?Attach@?$CComSafeArray@E$0BB@@ATL@@QAEJPBUtagSAFEARRAY@@@Z ; ATL::CComSafeArray<unsigned char,17>::Attach
PUBLIC	?GetCount@?$CComSafeArray@E$0BB@@ATL@@QBEKI@Z	; ATL::CComSafeArray<unsigned char,17>::GetCount
PUBLIC	?GetLowerBound@?$CComSafeArray@E$0BB@@ATL@@QBEJI@Z ; ATL::CComSafeArray<unsigned char,17>::GetLowerBound
PUBLIC	?GetUpperBound@?$CComSafeArray@E$0BB@@ATL@@QBEJI@Z ; ATL::CComSafeArray<unsigned char,17>::GetUpperBound
PUBLIC	?GetAt@?$CComSafeArray@E$0BB@@ATL@@QAEAAEJ@Z	; ATL::CComSafeArray<unsigned char,17>::GetAt
PUBLIC	??$FromVariant@E@@YAXUtagVARIANT@@AAV?$vector@EV?$allocator@E@std@@@std@@@Z ; FromVariant<unsigned char>
PUBLIC	??0?$allocator@G@std@@QAE@XZ			; std::allocator<unsigned short>::allocator<unsigned short>
PUBLIC	??$?0G@?$allocator@V_Aux_cont@std@@@std@@QAE@ABV?$allocator@G@1@@Z ; std::allocator<std::_Aux_cont>::allocator<std::_Aux_cont><unsigned short>
PUBLIC	??0?$_Container_base_aux_alloc_real@V?$allocator@G@std@@@std@@IAE@V?$allocator@G@1@@Z ; std::_Container_base_aux_alloc_real<std::allocator<unsigned short> >::_Container_base_aux_alloc_real<std::allocator<unsigned short> >
PUBLIC	??0?$allocator@G@std@@QAE@ABV01@@Z		; std::allocator<unsigned short>::allocator<unsigned short>
PUBLIC	??0?$_Vector_val@GV?$allocator@G@std@@@std@@IAE@V?$allocator@G@1@@Z ; std::_Vector_val<unsigned short,std::allocator<unsigned short> >::_Vector_val<unsigned short,std::allocator<unsigned short> >
PUBLIC	?_Buy@?$vector@GV?$allocator@G@std@@@std@@IAE_NI@Z ; std::vector<unsigned short,std::allocator<unsigned short> >::_Buy
PUBLIC	??0?$vector@GV?$allocator@G@std@@@std@@QAE@XZ	; std::vector<unsigned short,std::allocator<unsigned short> >::vector<unsigned short,std::allocator<unsigned short> >
PUBLIC	??1?$_Container_base_aux_alloc_real@V?$allocator@G@std@@@std@@IAE@XZ ; std::_Container_base_aux_alloc_real<std::allocator<unsigned short> >::~_Container_base_aux_alloc_real<std::allocator<unsigned short> >
PUBLIC	??1?$_Vector_val@GV?$allocator@G@std@@@std@@QAE@XZ ; std::_Vector_val<unsigned short,std::allocator<unsigned short> >::~_Vector_val<unsigned short,std::allocator<unsigned short> >
PUBLIC	?_Tidy@?$vector@GV?$allocator@G@std@@@std@@IAEXXZ ; std::vector<unsigned short,std::allocator<unsigned short> >::_Tidy
PUBLIC	??1?$vector@GV?$allocator@G@std@@@std@@QAE@XZ	; std::vector<unsigned short,std::allocator<unsigned short> >::~vector<unsigned short,std::allocator<unsigned short> >
PUBLIC	?clear@?$vector@GV?$allocator@G@std@@@std@@QAEXXZ ; std::vector<unsigned short,std::allocator<unsigned short> >::clear
PUBLIC	?begin@?$vector@GV?$allocator@G@std@@@std@@QAE?AV?$_Vector_iterator@GV?$allocator@G@std@@@2@XZ ; std::vector<unsigned short,std::allocator<unsigned short> >::begin
PUBLIC	?end@?$vector@GV?$allocator@G@std@@@std@@QAE?AV?$_Vector_iterator@GV?$allocator@G@std@@@2@XZ ; std::vector<unsigned short,std::allocator<unsigned short> >::end
PUBLIC	??0?$_Iterator_with_base@Urandom_access_iterator_tag@std@@GHPBGABGV_Iterator_base_aux@2@@std@@QAE@XZ ; std::_Iterator_with_base<std::random_access_iterator_tag,unsigned short,int,unsigned short const *,unsigned short const &,std::_Iterator_base_aux>::_Iterator_with_base<std::random_access_iterator_tag,unsigned short,int,unsigned short const *,unsigned short const &,std::_Iterator_base_aux>
PUBLIC	??0?$_Ranit@GHPBGABG@std@@QAE@XZ		; std::_Ranit<unsigned short,int,unsigned short const *,unsigned short const &>::_Ranit<unsigned short,int,unsigned short const *,unsigned short const &>
PUBLIC	??0?$_Vector_const_iterator@GV?$allocator@G@std@@@std@@QAE@PAGPBV_Container_base_aux@1@@Z ; std::_Vector_const_iterator<unsigned short,std::allocator<unsigned short> >::_Vector_const_iterator<unsigned short,std::allocator<unsigned short> >
PUBLIC	??0?$_Vector_iterator@GV?$allocator@G@std@@@std@@QAE@PAGPBV_Container_base_aux@1@@Z ; std::_Vector_iterator<unsigned short,std::allocator<unsigned short> >::_Vector_iterator<unsigned short,std::allocator<unsigned short> >
PUBLIC	?_Make_iter@?$vector@GV?$allocator@G@std@@@std@@QBE?AV?$_Vector_iterator@GV?$allocator@G@std@@@2@V?$_Vector_const_iterator@GV?$allocator@G@std@@@2@@Z ; std::vector<unsigned short,std::allocator<unsigned short> >::_Make_iter
PUBLIC	??8?$_Vector_const_iterator@GV?$allocator@G@std@@@std@@QBE_NABV01@@Z ; std::_Vector_const_iterator<unsigned short,std::allocator<unsigned short> >::operator==
PUBLIC	??9?$_Vector_const_iterator@GV?$allocator@G@std@@@std@@QBE_NABV01@@Z ; std::_Vector_const_iterator<unsigned short,std::allocator<unsigned short> >::operator!=
PUBLIC	??$_Copy_opt@PAGPAGUrandom_access_iterator_tag@std@@@std@@YAPAGPAG00Urandom_access_iterator_tag@0@U_Scalar_ptr_iterator_tag@0@U_Range_checked_iterator_tag@0@@Z ; std::_Copy_opt<unsigned short *,unsigned short *,std::random_access_iterator_tag>
PUBLIC	??$unchecked_copy@PAGPAG@stdext@@YAPAGPAG00@Z	; stdext::unchecked_copy<unsigned short *,unsigned short *>
PUBLIC	?erase@?$vector@GV?$allocator@G@std@@@std@@QAE?AV?$_Vector_iterator@GV?$allocator@G@std@@@2@V?$_Vector_const_iterator@GV?$allocator@G@std@@@2@0@Z ; std::vector<unsigned short,std::allocator<unsigned short> >::erase
PUBLIC	?deallocate@?$allocator@G@std@@QAEXPAGI@Z	; std::allocator<unsigned short>::deallocate
PUBLIC	??$_Allocate@G@std@@YAPAGIPAG@Z			; std::_Allocate<unsigned short>
PUBLIC	?allocate@?$allocator@G@std@@QAEPAGI@Z		; std::allocator<unsigned short>::allocate
PUBLIC	?capacity@?$vector@GV?$allocator@G@std@@@std@@QBEIXZ ; std::vector<unsigned short,std::allocator<unsigned short> >::capacity
PUBLIC	?max_size@?$allocator@G@std@@QBEIXZ		; std::allocator<unsigned short>::max_size
PUBLIC	?max_size@?$vector@GV?$allocator@G@std@@@std@@QBEIXZ ; std::vector<unsigned short,std::allocator<unsigned short> >::max_size
PUBLIC	??$_Destroy_range@V?$allocator@G@std@@@std@@YAXPAG0AAV?$allocator@G@0@U_Scalar_ptr_iterator_tag@0@@Z ; std::_Destroy_range<std::allocator<unsigned short> >
PUBLIC	??$_Destroy_range@V?$allocator@G@std@@@std@@YAXPAG0AAV?$allocator@G@0@@Z ; std::_Destroy_range<std::allocator<unsigned short> >
PUBLIC	?_Destroy@?$vector@GV?$allocator@G@std@@@std@@IAEXPAG0@Z ; std::vector<unsigned short,std::allocator<unsigned short> >::_Destroy
PUBLIC	??$_Iter_cat@PAG@std@@YA?AUrandom_access_iterator_tag@0@ABQAG@Z ; std::_Iter_cat<unsigned short *>
PUBLIC	??$_Fill_n@PAGIG@std@@YAXPAGIABGU_Range_checked_iterator_tag@0@@Z ; std::_Fill_n<unsigned short *,unsigned int,unsigned short>
PUBLIC	??$_Fill_n@PAGIG@std@@YAXPAGIABGUrandom_access_iterator_tag@0@U_Range_checked_iterator_tag@0@@Z ; std::_Fill_n<unsigned short *,unsigned int,unsigned short>
PUBLIC	??$unchecked_fill_n@PAGIG@stdext@@YAXPAGIABG@Z	; stdext::unchecked_fill_n<unsigned short *,unsigned int,unsigned short>
PUBLIC	??$_Uninit_fill_n@PAGIGV?$allocator@G@std@@@std@@YAXPAGIABGAAV?$allocator@G@0@U_Scalar_ptr_iterator_tag@0@U_Range_checked_iterator_tag@0@@Z ; std::_Uninit_fill_n<unsigned short *,unsigned int,unsigned short,std::allocator<unsigned short> >
PUBLIC	??$unchecked_uninitialized_fill_n@PAGIGV?$allocator@G@std@@@stdext@@YAXPAGIABGAAV?$allocator@G@std@@@Z ; stdext::unchecked_uninitialized_fill_n<unsigned short *,unsigned int,unsigned short,std::allocator<unsigned short> >
PUBLIC	?_Ufill@?$vector@GV?$allocator@G@std@@@std@@IAEPAGPAGIABG@Z ; std::vector<unsigned short,std::allocator<unsigned short> >::_Ufill
PUBLIC	?_Xlen@?$vector@GV?$allocator@G@std@@@std@@KAXXZ ; std::vector<unsigned short,std::allocator<unsigned short> >::_Xlen
PUBLIC	??$_Uninit_copy@PAGPAGV?$allocator@G@std@@@std@@YAPAGPAG00AAV?$allocator@G@0@U_Scalar_ptr_iterator_tag@0@U_Range_checked_iterator_tag@0@@Z ; std::_Uninit_copy<unsigned short *,unsigned short *,std::allocator<unsigned short> >
PUBLIC	??$unchecked_uninitialized_copy@PAGPAGV?$allocator@G@std@@@stdext@@YAPAGPAG00AAV?$allocator@G@std@@@Z ; stdext::unchecked_uninitialized_copy<unsigned short *,unsigned short *,std::allocator<unsigned short> >
PUBLIC	??$_Uninit_move@PAGPAGV?$allocator@G@std@@U_Undefined_move_tag@2@@std@@YAPAGPAG00AAV?$allocator@G@0@U_Undefined_move_tag@0@U_Range_checked_iterator_tag@0@@Z ; std::_Uninit_move<unsigned short *,unsigned short *,std::allocator<unsigned short>,std::_Undefined_move_tag>
PUBLIC	??$_Unchecked_uninitialized_move@PAGPAGV?$allocator@G@std@@@stdext@@YAPAGPAG00AAV?$allocator@G@std@@@Z ; stdext::_Unchecked_uninitialized_move<unsigned short *,unsigned short *,std::allocator<unsigned short> >
PUBLIC	??$_Umove@PAG@?$vector@GV?$allocator@G@std@@@std@@IAEPAGPAG00@Z ; std::vector<unsigned short,std::allocator<unsigned short> >::_Umove<unsigned short *>
PUBLIC	??$_Fill@PAGG@std@@YAXPAG0ABG@Z			; std::_Fill<unsigned short *,unsigned short>
PUBLIC	??$fill@PAGG@std@@YAXPAG0ABG@Z			; std::fill<unsigned short *,unsigned short>
PUBLIC	??$_Checked_base@PAG@std@@YAPAGAAPAGU_Unchanged_checked_iterator_base_type_tag@0@@Z ; std::_Checked_base<unsigned short *>
PUBLIC	??$_Checked_base@PAG@std@@YAPAGAAPAG@Z		; std::_Checked_base<unsigned short *>
PUBLIC	??$_Iter_random@PAGPAG@std@@YA?AUrandom_access_iterator_tag@0@ABQAG0@Z ; std::_Iter_random<unsigned short *,unsigned short *>
PUBLIC	??$_Move_cat@PAG@std@@YA?AU_Undefined_move_tag@0@ABQAG@Z ; std::_Move_cat<unsigned short *>
PUBLIC	??$_Ptr_cat@PAGPAG@std@@YA?AU_Scalar_ptr_iterator_tag@0@AAPAG0@Z ; std::_Ptr_cat<unsigned short *,unsigned short *>
PUBLIC	??$_Copy_backward_opt@PAGPAGUrandom_access_iterator_tag@std@@@std@@YAPAGPAG00Urandom_access_iterator_tag@0@U_Scalar_ptr_iterator_tag@0@U_Range_checked_iterator_tag@0@@Z ; std::_Copy_backward_opt<unsigned short *,unsigned short *,std::random_access_iterator_tag>
PUBLIC	??$_Move_backward_opt@PAGPAGUrandom_access_iterator_tag@std@@U_Undefined_move_tag@2@@std@@YAPAGPAG00Urandom_access_iterator_tag@0@U_Undefined_move_tag@0@U_Range_checked_iterator_tag@0@@Z ; std::_Move_backward_opt<unsigned short *,unsigned short *,std::random_access_iterator_tag,std::_Undefined_move_tag>
PUBLIC	??$_Unchecked_move_backward@PAGPAG@stdext@@YAPAGPAG00@Z ; stdext::_Unchecked_move_backward<unsigned short *,unsigned short *>
PUBLIC	?_Insert_n@?$vector@GV?$allocator@G@std@@@std@@IAEXV?$_Vector_const_iterator@GV?$allocator@G@std@@@2@IABG@Z ; std::vector<unsigned short,std::allocator<unsigned short> >::_Insert_n
PUBLIC	??Y?$_Vector_const_iterator@GV?$allocator@G@std@@@std@@QAEAAV01@H@Z ; std::_Vector_const_iterator<unsigned short,std::allocator<unsigned short> >::operator+=
PUBLIC	??Y?$_Vector_iterator@GV?$allocator@G@std@@@std@@QAEAAV01@H@Z ; std::_Vector_iterator<unsigned short,std::allocator<unsigned short> >::operator+=
PUBLIC	??H?$_Vector_iterator@GV?$allocator@G@std@@@std@@QBE?AV01@H@Z ; std::_Vector_iterator<unsigned short,std::allocator<unsigned short> >::operator+
PUBLIC	?resize@?$vector@GV?$allocator@G@std@@@std@@QAEXIG@Z ; std::vector<unsigned short,std::allocator<unsigned short> >::resize
PUBLIC	?resize@?$vector@GV?$allocator@G@std@@@std@@QAEXI@Z ; std::vector<unsigned short,std::allocator<unsigned short> >::resize
PUBLIC	?size@?$vector@GV?$allocator@G@std@@@std@@QBEIXZ ; std::vector<unsigned short,std::allocator<unsigned short> >::size
PUBLIC	??A?$vector@GV?$allocator@G@std@@@std@@QAEAAGI@Z ; std::vector<unsigned short,std::allocator<unsigned short> >::operator[]
PUBLIC	??0?$CComSafeArray@G$0BC@@ATL@@QAE@XZ		; ATL::CComSafeArray<unsigned short,18>::CComSafeArray<unsigned short,18>
PUBLIC	??1?$CComSafeArray@G$0BC@@ATL@@QAE@XZ		; ATL::CComSafeArray<unsigned short,18>::~CComSafeArray<unsigned short,18>
PUBLIC	?GetType@?$CComSafeArray@G$0BC@@ATL@@QBEGXZ	; ATL::CComSafeArray<unsigned short,18>::GetType
PUBLIC	?Unlock@?$CComSafeArray@G$0BC@@ATL@@IAEJXZ	; ATL::CComSafeArray<unsigned short,18>::Unlock
PUBLIC	?Destroy@?$CComSafeArray@G$0BC@@ATL@@QAEJXZ	; ATL::CComSafeArray<unsigned short,18>::Destroy
PUBLIC	?Lock@?$CComSafeArray@G$0BC@@ATL@@IAEJXZ	; ATL::CComSafeArray<unsigned short,18>::Lock
PUBLIC	?Attach@?$CComSafeArray@G$0BC@@ATL@@QAEJPBUtagSAFEARRAY@@@Z ; ATL::CComSafeArray<unsigned short,18>::Attach
PUBLIC	?GetCount@?$CComSafeArray@G$0BC@@ATL@@QBEKI@Z	; ATL::CComSafeArray<unsigned short,18>::GetCount
PUBLIC	?GetLowerBound@?$CComSafeArray@G$0BC@@ATL@@QBEJI@Z ; ATL::CComSafeArray<unsigned short,18>::GetLowerBound
PUBLIC	?GetUpperBound@?$CComSafeArray@G$0BC@@ATL@@QBEJI@Z ; ATL::CComSafeArray<unsigned short,18>::GetUpperBound
PUBLIC	?GetAt@?$CComSafeArray@G$0BC@@ATL@@QAEAAGJ@Z	; ATL::CComSafeArray<unsigned short,18>::GetAt
PUBLIC	??$FromVariant@G@@YAXUtagVARIANT@@AAV?$vector@GV?$allocator@G@std@@@std@@@Z ; FromVariant<unsigned short>
PUBLIC	??0?$allocator@K@std@@QAE@XZ			; std::allocator<unsigned long>::allocator<unsigned long>
PUBLIC	??$?0K@?$allocator@V_Aux_cont@std@@@std@@QAE@ABV?$allocator@K@1@@Z ; std::allocator<std::_Aux_cont>::allocator<std::_Aux_cont><unsigned long>
PUBLIC	??0?$_Container_base_aux_alloc_real@V?$allocator@K@std@@@std@@IAE@V?$allocator@K@1@@Z ; std::_Container_base_aux_alloc_real<std::allocator<unsigned long> >::_Container_base_aux_alloc_real<std::allocator<unsigned long> >
PUBLIC	??0?$allocator@K@std@@QAE@ABV01@@Z		; std::allocator<unsigned long>::allocator<unsigned long>
PUBLIC	??0?$_Vector_val@KV?$allocator@K@std@@@std@@IAE@V?$allocator@K@1@@Z ; std::_Vector_val<unsigned long,std::allocator<unsigned long> >::_Vector_val<unsigned long,std::allocator<unsigned long> >
PUBLIC	?_Buy@?$vector@KV?$allocator@K@std@@@std@@IAE_NI@Z ; std::vector<unsigned long,std::allocator<unsigned long> >::_Buy
PUBLIC	??0?$vector@KV?$allocator@K@std@@@std@@QAE@XZ	; std::vector<unsigned long,std::allocator<unsigned long> >::vector<unsigned long,std::allocator<unsigned long> >
PUBLIC	??1?$_Container_base_aux_alloc_real@V?$allocator@K@std@@@std@@IAE@XZ ; std::_Container_base_aux_alloc_real<std::allocator<unsigned long> >::~_Container_base_aux_alloc_real<std::allocator<unsigned long> >
PUBLIC	??1?$_Vector_val@KV?$allocator@K@std@@@std@@QAE@XZ ; std::_Vector_val<unsigned long,std::allocator<unsigned long> >::~_Vector_val<unsigned long,std::allocator<unsigned long> >
PUBLIC	?_Tidy@?$vector@KV?$allocator@K@std@@@std@@IAEXXZ ; std::vector<unsigned long,std::allocator<unsigned long> >::_Tidy
PUBLIC	??1?$vector@KV?$allocator@K@std@@@std@@QAE@XZ	; std::vector<unsigned long,std::allocator<unsigned long> >::~vector<unsigned long,std::allocator<unsigned long> >
PUBLIC	?clear@?$vector@KV?$allocator@K@std@@@std@@QAEXXZ ; std::vector<unsigned long,std::allocator<unsigned long> >::clear
PUBLIC	?begin@?$vector@KV?$allocator@K@std@@@std@@QAE?AV?$_Vector_iterator@KV?$allocator@K@std@@@2@XZ ; std::vector<unsigned long,std::allocator<unsigned long> >::begin
PUBLIC	?end@?$vector@KV?$allocator@K@std@@@std@@QAE?AV?$_Vector_iterator@KV?$allocator@K@std@@@2@XZ ; std::vector<unsigned long,std::allocator<unsigned long> >::end
PUBLIC	??0?$_Iterator_with_base@Urandom_access_iterator_tag@std@@KHPBKABKV_Iterator_base_aux@2@@std@@QAE@XZ ; std::_Iterator_with_base<std::random_access_iterator_tag,unsigned long,int,unsigned long const *,unsigned long const &,std::_Iterator_base_aux>::_Iterator_with_base<std::random_access_iterator_tag,unsigned long,int,unsigned long const *,unsigned long const &,std::_Iterator_base_aux>
PUBLIC	??0?$_Ranit@KHPBKABK@std@@QAE@XZ		; std::_Ranit<unsigned long,int,unsigned long const *,unsigned long const &>::_Ranit<unsigned long,int,unsigned long const *,unsigned long const &>
PUBLIC	??0?$_Vector_const_iterator@KV?$allocator@K@std@@@std@@QAE@PAKPBV_Container_base_aux@1@@Z ; std::_Vector_const_iterator<unsigned long,std::allocator<unsigned long> >::_Vector_const_iterator<unsigned long,std::allocator<unsigned long> >
PUBLIC	??0?$_Vector_iterator@KV?$allocator@K@std@@@std@@QAE@PAKPBV_Container_base_aux@1@@Z ; std::_Vector_iterator<unsigned long,std::allocator<unsigned long> >::_Vector_iterator<unsigned long,std::allocator<unsigned long> >
PUBLIC	?_Make_iter@?$vector@KV?$allocator@K@std@@@std@@QBE?AV?$_Vector_iterator@KV?$allocator@K@std@@@2@V?$_Vector_const_iterator@KV?$allocator@K@std@@@2@@Z ; std::vector<unsigned long,std::allocator<unsigned long> >::_Make_iter
PUBLIC	??8?$_Vector_const_iterator@KV?$allocator@K@std@@@std@@QBE_NABV01@@Z ; std::_Vector_const_iterator<unsigned long,std::allocator<unsigned long> >::operator==
PUBLIC	??9?$_Vector_const_iterator@KV?$allocator@K@std@@@std@@QBE_NABV01@@Z ; std::_Vector_const_iterator<unsigned long,std::allocator<unsigned long> >::operator!=
PUBLIC	??$_Copy_opt@PAKPAKUrandom_access_iterator_tag@std@@@std@@YAPAKPAK00Urandom_access_iterator_tag@0@U_Scalar_ptr_iterator_tag@0@U_Range_checked_iterator_tag@0@@Z ; std::_Copy_opt<unsigned long *,unsigned long *,std::random_access_iterator_tag>
PUBLIC	??$unchecked_copy@PAKPAK@stdext@@YAPAKPAK00@Z	; stdext::unchecked_copy<unsigned long *,unsigned long *>
PUBLIC	?erase@?$vector@KV?$allocator@K@std@@@std@@QAE?AV?$_Vector_iterator@KV?$allocator@K@std@@@2@V?$_Vector_const_iterator@KV?$allocator@K@std@@@2@0@Z ; std::vector<unsigned long,std::allocator<unsigned long> >::erase
PUBLIC	?deallocate@?$allocator@K@std@@QAEXPAKI@Z	; std::allocator<unsigned long>::deallocate
PUBLIC	??$_Allocate@K@std@@YAPAKIPAK@Z			; std::_Allocate<unsigned long>
PUBLIC	?allocate@?$allocator@K@std@@QAEPAKI@Z		; std::allocator<unsigned long>::allocate
PUBLIC	?capacity@?$vector@KV?$allocator@K@std@@@std@@QBEIXZ ; std::vector<unsigned long,std::allocator<unsigned long> >::capacity
PUBLIC	?max_size@?$allocator@K@std@@QBEIXZ		; std::allocator<unsigned long>::max_size
PUBLIC	?max_size@?$vector@KV?$allocator@K@std@@@std@@QBEIXZ ; std::vector<unsigned long,std::allocator<unsigned long> >::max_size
PUBLIC	??$_Destroy_range@V?$allocator@K@std@@@std@@YAXPAK0AAV?$allocator@K@0@U_Scalar_ptr_iterator_tag@0@@Z ; std::_Destroy_range<std::allocator<unsigned long> >
PUBLIC	??$_Destroy_range@V?$allocator@K@std@@@std@@YAXPAK0AAV?$allocator@K@0@@Z ; std::_Destroy_range<std::allocator<unsigned long> >
PUBLIC	?_Destroy@?$vector@KV?$allocator@K@std@@@std@@IAEXPAK0@Z ; std::vector<unsigned long,std::allocator<unsigned long> >::_Destroy
PUBLIC	??$_Iter_cat@PAK@std@@YA?AUrandom_access_iterator_tag@0@ABQAK@Z ; std::_Iter_cat<unsigned long *>
PUBLIC	??$_Fill_n@PAKIK@std@@YAXPAKIABKU_Range_checked_iterator_tag@0@@Z ; std::_Fill_n<unsigned long *,unsigned int,unsigned long>
PUBLIC	??$_Fill_n@PAKIK@std@@YAXPAKIABKUrandom_access_iterator_tag@0@U_Range_checked_iterator_tag@0@@Z ; std::_Fill_n<unsigned long *,unsigned int,unsigned long>
PUBLIC	??$unchecked_fill_n@PAKIK@stdext@@YAXPAKIABK@Z	; stdext::unchecked_fill_n<unsigned long *,unsigned int,unsigned long>
PUBLIC	??$_Uninit_fill_n@PAKIKV?$allocator@K@std@@@std@@YAXPAKIABKAAV?$allocator@K@0@U_Scalar_ptr_iterator_tag@0@U_Range_checked_iterator_tag@0@@Z ; std::_Uninit_fill_n<unsigned long *,unsigned int,unsigned long,std::allocator<unsigned long> >
PUBLIC	??$unchecked_uninitialized_fill_n@PAKIKV?$allocator@K@std@@@stdext@@YAXPAKIABKAAV?$allocator@K@std@@@Z ; stdext::unchecked_uninitialized_fill_n<unsigned long *,unsigned int,unsigned long,std::allocator<unsigned long> >
PUBLIC	?_Ufill@?$vector@KV?$allocator@K@std@@@std@@IAEPAKPAKIABK@Z ; std::vector<unsigned long,std::allocator<unsigned long> >::_Ufill
PUBLIC	?_Xlen@?$vector@KV?$allocator@K@std@@@std@@KAXXZ ; std::vector<unsigned long,std::allocator<unsigned long> >::_Xlen
PUBLIC	??$_Uninit_copy@PAKPAKV?$allocator@K@std@@@std@@YAPAKPAK00AAV?$allocator@K@0@U_Scalar_ptr_iterator_tag@0@U_Range_checked_iterator_tag@0@@Z ; std::_Uninit_copy<unsigned long *,unsigned long *,std::allocator<unsigned long> >
PUBLIC	??$unchecked_uninitialized_copy@PAKPAKV?$allocator@K@std@@@stdext@@YAPAKPAK00AAV?$allocator@K@std@@@Z ; stdext::unchecked_uninitialized_copy<unsigned long *,unsigned long *,std::allocator<unsigned long> >
PUBLIC	??$_Uninit_move@PAKPAKV?$allocator@K@std@@U_Undefined_move_tag@2@@std@@YAPAKPAK00AAV?$allocator@K@0@U_Undefined_move_tag@0@U_Range_checked_iterator_tag@0@@Z ; std::_Uninit_move<unsigned long *,unsigned long *,std::allocator<unsigned long>,std::_Undefined_move_tag>
PUBLIC	??$_Unchecked_uninitialized_move@PAKPAKV?$allocator@K@std@@@stdext@@YAPAKPAK00AAV?$allocator@K@std@@@Z ; stdext::_Unchecked_uninitialized_move<unsigned long *,unsigned long *,std::allocator<unsigned long> >
PUBLIC	??$_Umove@PAK@?$vector@KV?$allocator@K@std@@@std@@IAEPAKPAK00@Z ; std::vector<unsigned long,std::allocator<unsigned long> >::_Umove<unsigned long *>
PUBLIC	??$_Fill@PAKK@std@@YAXPAK0ABK@Z			; std::_Fill<unsigned long *,unsigned long>
PUBLIC	??$fill@PAKK@std@@YAXPAK0ABK@Z			; std::fill<unsigned long *,unsigned long>
PUBLIC	??$_Checked_base@PAK@std@@YAPAKAAPAKU_Unchanged_checked_iterator_base_type_tag@0@@Z ; std::_Checked_base<unsigned long *>
PUBLIC	??$_Checked_base@PAK@std@@YAPAKAAPAK@Z		; std::_Checked_base<unsigned long *>
PUBLIC	??$_Iter_random@PAKPAK@std@@YA?AUrandom_access_iterator_tag@0@ABQAK0@Z ; std::_Iter_random<unsigned long *,unsigned long *>
PUBLIC	??$_Move_cat@PAK@std@@YA?AU_Undefined_move_tag@0@ABQAK@Z ; std::_Move_cat<unsigned long *>
PUBLIC	??$_Ptr_cat@PAKPAK@std@@YA?AU_Scalar_ptr_iterator_tag@0@AAPAK0@Z ; std::_Ptr_cat<unsigned long *,unsigned long *>
PUBLIC	??$_Copy_backward_opt@PAKPAKUrandom_access_iterator_tag@std@@@std@@YAPAKPAK00Urandom_access_iterator_tag@0@U_Scalar_ptr_iterator_tag@0@U_Range_checked_iterator_tag@0@@Z ; std::_Copy_backward_opt<unsigned long *,unsigned long *,std::random_access_iterator_tag>
PUBLIC	??$_Move_backward_opt@PAKPAKUrandom_access_iterator_tag@std@@U_Undefined_move_tag@2@@std@@YAPAKPAK00Urandom_access_iterator_tag@0@U_Undefined_move_tag@0@U_Range_checked_iterator_tag@0@@Z ; std::_Move_backward_opt<unsigned long *,unsigned long *,std::random_access_iterator_tag,std::_Undefined_move_tag>
PUBLIC	??$_Unchecked_move_backward@PAKPAK@stdext@@YAPAKPAK00@Z ; stdext::_Unchecked_move_backward<unsigned long *,unsigned long *>
PUBLIC	?_Insert_n@?$vector@KV?$allocator@K@std@@@std@@IAEXV?$_Vector_const_iterator@KV?$allocator@K@std@@@2@IABK@Z ; std::vector<unsigned long,std::allocator<unsigned long> >::_Insert_n
PUBLIC	??Y?$_Vector_const_iterator@KV?$allocator@K@std@@@std@@QAEAAV01@H@Z ; std::_Vector_const_iterator<unsigned long,std::allocator<unsigned long> >::operator+=
PUBLIC	??Y?$_Vector_iterator@KV?$allocator@K@std@@@std@@QAEAAV01@H@Z ; std::_Vector_iterator<unsigned long,std::allocator<unsigned long> >::operator+=
PUBLIC	??H?$_Vector_iterator@KV?$allocator@K@std@@@std@@QBE?AV01@H@Z ; std::_Vector_iterator<unsigned long,std::allocator<unsigned long> >::operator+
PUBLIC	?resize@?$vector@KV?$allocator@K@std@@@std@@QAEXIK@Z ; std::vector<unsigned long,std::allocator<unsigned long> >::resize
PUBLIC	?resize@?$vector@KV?$allocator@K@std@@@std@@QAEXI@Z ; std::vector<unsigned long,std::allocator<unsigned long> >::resize
PUBLIC	?size@?$vector@KV?$allocator@K@std@@@std@@QBEIXZ ; std::vector<unsigned long,std::allocator<unsigned long> >::size
PUBLIC	??A?$vector@KV?$allocator@K@std@@@std@@QAEAAKI@Z ; std::vector<unsigned long,std::allocator<unsigned long> >::operator[]
PUBLIC	??0?$CComSafeArray@K$0BD@@ATL@@QAE@XZ		; ATL::CComSafeArray<unsigned long,19>::CComSafeArray<unsigned long,19>
PUBLIC	??1?$CComSafeArray@K$0BD@@ATL@@QAE@XZ		; ATL::CComSafeArray<unsigned long,19>::~CComSafeArray<unsigned long,19>
PUBLIC	?GetType@?$CComSafeArray@K$0BD@@ATL@@QBEGXZ	; ATL::CComSafeArray<unsigned long,19>::GetType
PUBLIC	?Unlock@?$CComSafeArray@K$0BD@@ATL@@IAEJXZ	; ATL::CComSafeArray<unsigned long,19>::Unlock
PUBLIC	?Destroy@?$CComSafeArray@K$0BD@@ATL@@QAEJXZ	; ATL::CComSafeArray<unsigned long,19>::Destroy
PUBLIC	?Lock@?$CComSafeArray@K$0BD@@ATL@@IAEJXZ	; ATL::CComSafeArray<unsigned long,19>::Lock
PUBLIC	?Attach@?$CComSafeArray@K$0BD@@ATL@@QAEJPBUtagSAFEARRAY@@@Z ; ATL::CComSafeArray<unsigned long,19>::Attach
PUBLIC	?GetCount@?$CComSafeArray@K$0BD@@ATL@@QBEKI@Z	; ATL::CComSafeArray<unsigned long,19>::GetCount
PUBLIC	?GetLowerBound@?$CComSafeArray@K$0BD@@ATL@@QBEJI@Z ; ATL::CComSafeArray<unsigned long,19>::GetLowerBound
PUBLIC	?GetUpperBound@?$CComSafeArray@K$0BD@@ATL@@QBEJI@Z ; ATL::CComSafeArray<unsigned long,19>::GetUpperBound
PUBLIC	?GetAt@?$CComSafeArray@K$0BD@@ATL@@QAEAAKJ@Z	; ATL::CComSafeArray<unsigned long,19>::GetAt
PUBLIC	??$FromVariant@K@@YAXUtagVARIANT@@AAV?$vector@KV?$allocator@K@std@@@std@@@Z ; FromVariant<unsigned long>
PUBLIC	??0?$allocator@_K@std@@QAE@XZ			; std::allocator<unsigned __int64>::allocator<unsigned __int64>
PUBLIC	??$?0_K@?$allocator@V_Aux_cont@std@@@std@@QAE@ABV?$allocator@_K@1@@Z ; std::allocator<std::_Aux_cont>::allocator<std::_Aux_cont><unsigned __int64>
PUBLIC	??0?$_Container_base_aux_alloc_real@V?$allocator@_K@std@@@std@@IAE@V?$allocator@_K@1@@Z ; std::_Container_base_aux_alloc_real<std::allocator<unsigned __int64> >::_Container_base_aux_alloc_real<std::allocator<unsigned __int64> >
PUBLIC	??0?$allocator@_K@std@@QAE@ABV01@@Z		; std::allocator<unsigned __int64>::allocator<unsigned __int64>
PUBLIC	??0?$_Vector_val@_KV?$allocator@_K@std@@@std@@IAE@V?$allocator@_K@1@@Z ; std::_Vector_val<unsigned __int64,std::allocator<unsigned __int64> >::_Vector_val<unsigned __int64,std::allocator<unsigned __int64> >
PUBLIC	?_Buy@?$vector@_KV?$allocator@_K@std@@@std@@IAE_NI@Z ; std::vector<unsigned __int64,std::allocator<unsigned __int64> >::_Buy
PUBLIC	??0?$vector@_KV?$allocator@_K@std@@@std@@QAE@XZ	; std::vector<unsigned __int64,std::allocator<unsigned __int64> >::vector<unsigned __int64,std::allocator<unsigned __int64> >
PUBLIC	??1?$_Container_base_aux_alloc_real@V?$allocator@_K@std@@@std@@IAE@XZ ; std::_Container_base_aux_alloc_real<std::allocator<unsigned __int64> >::~_Container_base_aux_alloc_real<std::allocator<unsigned __int64> >
PUBLIC	??1?$_Vector_val@_KV?$allocator@_K@std@@@std@@QAE@XZ ; std::_Vector_val<unsigned __int64,std::allocator<unsigned __int64> >::~_Vector_val<unsigned __int64,std::allocator<unsigned __int64> >
PUBLIC	?_Tidy@?$vector@_KV?$allocator@_K@std@@@std@@IAEXXZ ; std::vector<unsigned __int64,std::allocator<unsigned __int64> >::_Tidy
PUBLIC	??1?$vector@_KV?$allocator@_K@std@@@std@@QAE@XZ	; std::vector<unsigned __int64,std::allocator<unsigned __int64> >::~vector<unsigned __int64,std::allocator<unsigned __int64> >
PUBLIC	?clear@?$vector@_KV?$allocator@_K@std@@@std@@QAEXXZ ; std::vector<unsigned __int64,std::allocator<unsigned __int64> >::clear
PUBLIC	?begin@?$vector@_KV?$allocator@_K@std@@@std@@QAE?AV?$_Vector_iterator@_KV?$allocator@_K@std@@@2@XZ ; std::vector<unsigned __int64,std::allocator<unsigned __int64> >::begin
PUBLIC	?end@?$vector@_KV?$allocator@_K@std@@@std@@QAE?AV?$_Vector_iterator@_KV?$allocator@_K@std@@@2@XZ ; std::vector<unsigned __int64,std::allocator<unsigned __int64> >::end
PUBLIC	??0?$_Iterator_with_base@Urandom_access_iterator_tag@std@@_KHPB_KAB_KV_Iterator_base_aux@2@@std@@QAE@XZ ; std::_Iterator_with_base<std::random_access_iterator_tag,unsigned __int64,int,unsigned __int64 const *,unsigned __int64 const &,std::_Iterator_base_aux>::_Iterator_with_base<std::random_access_iterator_tag,unsigned __int64,int,unsigned __int64 const *,unsigned __int64 const &,std::_Iterator_base_aux>
PUBLIC	??0?$_Ranit@_KHPB_KAB_K@std@@QAE@XZ		; std::_Ranit<unsigned __int64,int,unsigned __int64 const *,unsigned __int64 const &>::_Ranit<unsigned __int64,int,unsigned __int64 const *,unsigned __int64 const &>
PUBLIC	??0?$_Vector_const_iterator@_KV?$allocator@_K@std@@@std@@QAE@PA_KPBV_Container_base_aux@1@@Z ; std::_Vector_const_iterator<unsigned __int64,std::allocator<unsigned __int64> >::_Vector_const_iterator<unsigned __int64,std::allocator<unsigned __int64> >
PUBLIC	??0?$_Vector_iterator@_KV?$allocator@_K@std@@@std@@QAE@PA_KPBV_Container_base_aux@1@@Z ; std::_Vector_iterator<unsigned __int64,std::allocator<unsigned __int64> >::_Vector_iterator<unsigned __int64,std::allocator<unsigned __int64> >
PUBLIC	?_Make_iter@?$vector@_KV?$allocator@_K@std@@@std@@QBE?AV?$_Vector_iterator@_KV?$allocator@_K@std@@@2@V?$_Vector_const_iterator@_KV?$allocator@_K@std@@@2@@Z ; std::vector<unsigned __int64,std::allocator<unsigned __int64> >::_Make_iter
PUBLIC	??8?$_Vector_const_iterator@_KV?$allocator@_K@std@@@std@@QBE_NABV01@@Z ; std::_Vector_const_iterator<unsigned __int64,std::allocator<unsigned __int64> >::operator==
PUBLIC	??9?$_Vector_const_iterator@_KV?$allocator@_K@std@@@std@@QBE_NABV01@@Z ; std::_Vector_const_iterator<unsigned __int64,std::allocator<unsigned __int64> >::operator!=
PUBLIC	??$_Copy_opt@PA_KPA_KUrandom_access_iterator_tag@std@@@std@@YAPA_KPA_K00Urandom_access_iterator_tag@0@U_Scalar_ptr_iterator_tag@0@U_Range_checked_iterator_tag@0@@Z ; std::_Copy_opt<unsigned __int64 *,unsigned __int64 *,std::random_access_iterator_tag>
PUBLIC	??$unchecked_copy@PA_KPA_K@stdext@@YAPA_KPA_K00@Z ; stdext::unchecked_copy<unsigned __int64 *,unsigned __int64 *>
PUBLIC	?erase@?$vector@_KV?$allocator@_K@std@@@std@@QAE?AV?$_Vector_iterator@_KV?$allocator@_K@std@@@2@V?$_Vector_const_iterator@_KV?$allocator@_K@std@@@2@0@Z ; std::vector<unsigned __int64,std::allocator<unsigned __int64> >::erase
PUBLIC	?deallocate@?$allocator@_K@std@@QAEXPA_KI@Z	; std::allocator<unsigned __int64>::deallocate
PUBLIC	??$_Allocate@_K@std@@YAPA_KIPA_K@Z		; std::_Allocate<unsigned __int64>
PUBLIC	?allocate@?$allocator@_K@std@@QAEPA_KI@Z	; std::allocator<unsigned __int64>::allocate
PUBLIC	?capacity@?$vector@_KV?$allocator@_K@std@@@std@@QBEIXZ ; std::vector<unsigned __int64,std::allocator<unsigned __int64> >::capacity
PUBLIC	?max_size@?$allocator@_K@std@@QBEIXZ		; std::allocator<unsigned __int64>::max_size
PUBLIC	?max_size@?$vector@_KV?$allocator@_K@std@@@std@@QBEIXZ ; std::vector<unsigned __int64,std::allocator<unsigned __int64> >::max_size
PUBLIC	??$_Destroy_range@V?$allocator@_K@std@@@std@@YAXPA_K0AAV?$allocator@_K@0@U_Scalar_ptr_iterator_tag@0@@Z ; std::_Destroy_range<std::allocator<unsigned __int64> >
PUBLIC	??$_Destroy_range@V?$allocator@_K@std@@@std@@YAXPA_K0AAV?$allocator@_K@0@@Z ; std::_Destroy_range<std::allocator<unsigned __int64> >
PUBLIC	?_Destroy@?$vector@_KV?$allocator@_K@std@@@std@@IAEXPA_K0@Z ; std::vector<unsigned __int64,std::allocator<unsigned __int64> >::_Destroy
PUBLIC	??$_Iter_cat@PA_K@std@@YA?AUrandom_access_iterator_tag@0@ABQA_K@Z ; std::_Iter_cat<unsigned __int64 *>
PUBLIC	??$_Fill_n@PA_KI_K@std@@YAXPA_KIAB_KU_Range_checked_iterator_tag@0@@Z ; std::_Fill_n<unsigned __int64 *,unsigned int,unsigned __int64>
PUBLIC	??$_Fill_n@PA_KI_K@std@@YAXPA_KIAB_KUrandom_access_iterator_tag@0@U_Range_checked_iterator_tag@0@@Z ; std::_Fill_n<unsigned __int64 *,unsigned int,unsigned __int64>
PUBLIC	??$unchecked_fill_n@PA_KI_K@stdext@@YAXPA_KIAB_K@Z ; stdext::unchecked_fill_n<unsigned __int64 *,unsigned int,unsigned __int64>
PUBLIC	??$_Uninit_fill_n@PA_KI_KV?$allocator@_K@std@@@std@@YAXPA_KIAB_KAAV?$allocator@_K@0@U_Scalar_ptr_iterator_tag@0@U_Range_checked_iterator_tag@0@@Z ; std::_Uninit_fill_n<unsigned __int64 *,unsigned int,unsigned __int64,std::allocator<unsigned __int64> >
PUBLIC	??$unchecked_uninitialized_fill_n@PA_KI_KV?$allocator@_K@std@@@stdext@@YAXPA_KIAB_KAAV?$allocator@_K@std@@@Z ; stdext::unchecked_uninitialized_fill_n<unsigned __int64 *,unsigned int,unsigned __int64,std::allocator<unsigned __int64> >
PUBLIC	?_Ufill@?$vector@_KV?$allocator@_K@std@@@std@@IAEPA_KPA_KIAB_K@Z ; std::vector<unsigned __int64,std::allocator<unsigned __int64> >::_Ufill
PUBLIC	?_Xlen@?$vector@_KV?$allocator@_K@std@@@std@@KAXXZ ; std::vector<unsigned __int64,std::allocator<unsigned __int64> >::_Xlen
PUBLIC	??$_Uninit_copy@PA_KPA_KV?$allocator@_K@std@@@std@@YAPA_KPA_K00AAV?$allocator@_K@0@U_Scalar_ptr_iterator_tag@0@U_Range_checked_iterator_tag@0@@Z ; std::_Uninit_copy<unsigned __int64 *,unsigned __int64 *,std::allocator<unsigned __int64> >
PUBLIC	??$unchecked_uninitialized_copy@PA_KPA_KV?$allocator@_K@std@@@stdext@@YAPA_KPA_K00AAV?$allocator@_K@std@@@Z ; stdext::unchecked_uninitialized_copy<unsigned __int64 *,unsigned __int64 *,std::allocator<unsigned __int64> >
PUBLIC	??$_Uninit_move@PA_KPA_KV?$allocator@_K@std@@U_Undefined_move_tag@2@@std@@YAPA_KPA_K00AAV?$allocator@_K@0@U_Undefined_move_tag@0@U_Range_checked_iterator_tag@0@@Z ; std::_Uninit_move<unsigned __int64 *,unsigned __int64 *,std::allocator<unsigned __int64>,std::_Undefined_move_tag>
PUBLIC	??$_Unchecked_uninitialized_move@PA_KPA_KV?$allocator@_K@std@@@stdext@@YAPA_KPA_K00AAV?$allocator@_K@std@@@Z ; stdext::_Unchecked_uninitialized_move<unsigned __int64 *,unsigned __int64 *,std::allocator<unsigned __int64> >
PUBLIC	??$_Umove@PA_K@?$vector@_KV?$allocator@_K@std@@@std@@IAEPA_KPA_K00@Z ; std::vector<unsigned __int64,std::allocator<unsigned __int64> >::_Umove<unsigned __int64 *>
PUBLIC	??$_Fill@PA_K_K@std@@YAXPA_K0AB_K@Z		; std::_Fill<unsigned __int64 *,unsigned __int64>
PUBLIC	??$fill@PA_K_K@std@@YAXPA_K0AB_K@Z		; std::fill<unsigned __int64 *,unsigned __int64>
PUBLIC	??$_Checked_base@PA_K@std@@YAPA_KAAPA_KU_Unchanged_checked_iterator_base_type_tag@0@@Z ; std::_Checked_base<unsigned __int64 *>
PUBLIC	??$_Checked_base@PA_K@std@@YAPA_KAAPA_K@Z	; std::_Checked_base<unsigned __int64 *>
PUBLIC	??$_Iter_random@PA_KPA_K@std@@YA?AUrandom_access_iterator_tag@0@ABQA_K0@Z ; std::_Iter_random<unsigned __int64 *,unsigned __int64 *>
PUBLIC	??$_Move_cat@PA_K@std@@YA?AU_Undefined_move_tag@0@ABQA_K@Z ; std::_Move_cat<unsigned __int64 *>
PUBLIC	??$_Ptr_cat@PA_KPA_K@std@@YA?AU_Scalar_ptr_iterator_tag@0@AAPA_K0@Z ; std::_Ptr_cat<unsigned __int64 *,unsigned __int64 *>
PUBLIC	??$_Copy_backward_opt@PA_KPA_KUrandom_access_iterator_tag@std@@@std@@YAPA_KPA_K00Urandom_access_iterator_tag@0@U_Scalar_ptr_iterator_tag@0@U_Range_checked_iterator_tag@0@@Z ; std::_Copy_backward_opt<unsigned __int64 *,unsigned __int64 *,std::random_access_iterator_tag>
PUBLIC	??$_Move_backward_opt@PA_KPA_KUrandom_access_iterator_tag@std@@U_Undefined_move_tag@2@@std@@YAPA_KPA_K00Urandom_access_iterator_tag@0@U_Undefined_move_tag@0@U_Range_checked_iterator_tag@0@@Z ; std::_Move_backward_opt<unsigned __int64 *,unsigned __int64 *,std::random_access_iterator_tag,std::_Undefined_move_tag>
PUBLIC	??$_Unchecked_move_backward@PA_KPA_K@stdext@@YAPA_KPA_K00@Z ; stdext::_Unchecked_move_backward<unsigned __int64 *,unsigned __int64 *>
PUBLIC	?_Insert_n@?$vector@_KV?$allocator@_K@std@@@std@@IAEXV?$_Vector_const_iterator@_KV?$allocator@_K@std@@@2@IAB_K@Z ; std::vector<unsigned __int64,std::allocator<unsigned __int64> >::_Insert_n
PUBLIC	??Y?$_Vector_const_iterator@_KV?$allocator@_K@std@@@std@@QAEAAV01@H@Z ; std::_Vector_const_iterator<unsigned __int64,std::allocator<unsigned __int64> >::operator+=
PUBLIC	??Y?$_Vector_iterator@_KV?$allocator@_K@std@@@std@@QAEAAV01@H@Z ; std::_Vector_iterator<unsigned __int64,std::allocator<unsigned __int64> >::operator+=
PUBLIC	??H?$_Vector_iterator@_KV?$allocator@_K@std@@@std@@QBE?AV01@H@Z ; std::_Vector_iterator<unsigned __int64,std::allocator<unsigned __int64> >::operator+
PUBLIC	?resize@?$vector@_KV?$allocator@_K@std@@@std@@QAEXI_K@Z ; std::vector<unsigned __int64,std::allocator<unsigned __int64> >::resize
PUBLIC	?resize@?$vector@_KV?$allocator@_K@std@@@std@@QAEXI@Z ; std::vector<unsigned __int64,std::allocator<unsigned __int64> >::resize
PUBLIC	?size@?$vector@_KV?$allocator@_K@std@@@std@@QBEIXZ ; std::vector<unsigned __int64,std::allocator<unsigned __int64> >::size
PUBLIC	??A?$vector@_KV?$allocator@_K@std@@@std@@QAEAA_KI@Z ; std::vector<unsigned __int64,std::allocator<unsigned __int64> >::operator[]
PUBLIC	??0?$CComSafeArray@_K$0BF@@ATL@@QAE@XZ		; ATL::CComSafeArray<unsigned __int64,21>::CComSafeArray<unsigned __int64,21>
PUBLIC	??1?$CComSafeArray@_K$0BF@@ATL@@QAE@XZ		; ATL::CComSafeArray<unsigned __int64,21>::~CComSafeArray<unsigned __int64,21>
PUBLIC	?GetType@?$CComSafeArray@_K$0BF@@ATL@@QBEGXZ	; ATL::CComSafeArray<unsigned __int64,21>::GetType
PUBLIC	?Unlock@?$CComSafeArray@_K$0BF@@ATL@@IAEJXZ	; ATL::CComSafeArray<unsigned __int64,21>::Unlock
PUBLIC	?Destroy@?$CComSafeArray@_K$0BF@@ATL@@QAEJXZ	; ATL::CComSafeArray<unsigned __int64,21>::Destroy
PUBLIC	?Lock@?$CComSafeArray@_K$0BF@@ATL@@IAEJXZ	; ATL::CComSafeArray<unsigned __int64,21>::Lock
PUBLIC	?Attach@?$CComSafeArray@_K$0BF@@ATL@@QAEJPBUtagSAFEARRAY@@@Z ; ATL::CComSafeArray<unsigned __int64,21>::Attach
PUBLIC	?GetCount@?$CComSafeArray@_K$0BF@@ATL@@QBEKI@Z	; ATL::CComSafeArray<unsigned __int64,21>::GetCount
PUBLIC	?GetLowerBound@?$CComSafeArray@_K$0BF@@ATL@@QBEJI@Z ; ATL::CComSafeArray<unsigned __int64,21>::GetLowerBound
PUBLIC	?GetUpperBound@?$CComSafeArray@_K$0BF@@ATL@@QBEJI@Z ; ATL::CComSafeArray<unsigned __int64,21>::GetUpperBound
PUBLIC	?GetAt@?$CComSafeArray@_K$0BF@@ATL@@QAEAA_KJ@Z	; ATL::CComSafeArray<unsigned __int64,21>::GetAt
PUBLIC	??$FromVariant@_K@@YAXUtagVARIANT@@AAV?$vector@_KV?$allocator@_K@std@@@std@@@Z ; FromVariant<unsigned __int64>
PUBLIC	??0?$allocator@M@std@@QAE@XZ			; std::allocator<float>::allocator<float>
PUBLIC	??$?0M@?$allocator@V_Aux_cont@std@@@std@@QAE@ABV?$allocator@M@1@@Z ; std::allocator<std::_Aux_cont>::allocator<std::_Aux_cont><float>
PUBLIC	??0?$_Container_base_aux_alloc_real@V?$allocator@M@std@@@std@@IAE@V?$allocator@M@1@@Z ; std::_Container_base_aux_alloc_real<std::allocator<float> >::_Container_base_aux_alloc_real<std::allocator<float> >
PUBLIC	??0?$allocator@M@std@@QAE@ABV01@@Z		; std::allocator<float>::allocator<float>
PUBLIC	??0?$_Vector_val@MV?$allocator@M@std@@@std@@IAE@V?$allocator@M@1@@Z ; std::_Vector_val<float,std::allocator<float> >::_Vector_val<float,std::allocator<float> >
PUBLIC	?_Buy@?$vector@MV?$allocator@M@std@@@std@@IAE_NI@Z ; std::vector<float,std::allocator<float> >::_Buy
PUBLIC	??0?$vector@MV?$allocator@M@std@@@std@@QAE@XZ	; std::vector<float,std::allocator<float> >::vector<float,std::allocator<float> >
PUBLIC	??1?$_Container_base_aux_alloc_real@V?$allocator@M@std@@@std@@IAE@XZ ; std::_Container_base_aux_alloc_real<std::allocator<float> >::~_Container_base_aux_alloc_real<std::allocator<float> >
PUBLIC	??1?$_Vector_val@MV?$allocator@M@std@@@std@@QAE@XZ ; std::_Vector_val<float,std::allocator<float> >::~_Vector_val<float,std::allocator<float> >
PUBLIC	?_Tidy@?$vector@MV?$allocator@M@std@@@std@@IAEXXZ ; std::vector<float,std::allocator<float> >::_Tidy
PUBLIC	??1?$vector@MV?$allocator@M@std@@@std@@QAE@XZ	; std::vector<float,std::allocator<float> >::~vector<float,std::allocator<float> >
PUBLIC	?clear@?$vector@MV?$allocator@M@std@@@std@@QAEXXZ ; std::vector<float,std::allocator<float> >::clear
PUBLIC	?begin@?$vector@MV?$allocator@M@std@@@std@@QAE?AV?$_Vector_iterator@MV?$allocator@M@std@@@2@XZ ; std::vector<float,std::allocator<float> >::begin
PUBLIC	?end@?$vector@MV?$allocator@M@std@@@std@@QAE?AV?$_Vector_iterator@MV?$allocator@M@std@@@2@XZ ; std::vector<float,std::allocator<float> >::end
PUBLIC	??0?$_Iterator_with_base@Urandom_access_iterator_tag@std@@MHPBMABMV_Iterator_base_aux@2@@std@@QAE@XZ ; std::_Iterator_with_base<std::random_access_iterator_tag,float,int,float const *,float const &,std::_Iterator_base_aux>::_Iterator_with_base<std::random_access_iterator_tag,float,int,float const *,float const &,std::_Iterator_base_aux>
PUBLIC	??0?$_Ranit@MHPBMABM@std@@QAE@XZ		; std::_Ranit<float,int,float const *,float const &>::_Ranit<float,int,float const *,float const &>
PUBLIC	??0?$_Vector_const_iterator@MV?$allocator@M@std@@@std@@QAE@PAMPBV_Container_base_aux@1@@Z ; std::_Vector_const_iterator<float,std::allocator<float> >::_Vector_const_iterator<float,std::allocator<float> >
PUBLIC	??0?$_Vector_iterator@MV?$allocator@M@std@@@std@@QAE@PAMPBV_Container_base_aux@1@@Z ; std::_Vector_iterator<float,std::allocator<float> >::_Vector_iterator<float,std::allocator<float> >
PUBLIC	?_Make_iter@?$vector@MV?$allocator@M@std@@@std@@QBE?AV?$_Vector_iterator@MV?$allocator@M@std@@@2@V?$_Vector_const_iterator@MV?$allocator@M@std@@@2@@Z ; std::vector<float,std::allocator<float> >::_Make_iter
PUBLIC	??8?$_Vector_const_iterator@MV?$allocator@M@std@@@std@@QBE_NABV01@@Z ; std::_Vector_const_iterator<float,std::allocator<float> >::operator==
PUBLIC	??9?$_Vector_const_iterator@MV?$allocator@M@std@@@std@@QBE_NABV01@@Z ; std::_Vector_const_iterator<float,std::allocator<float> >::operator!=
PUBLIC	??$_Copy_opt@PAMPAMUrandom_access_iterator_tag@std@@@std@@YAPAMPAM00Urandom_access_iterator_tag@0@U_Scalar_ptr_iterator_tag@0@U_Range_checked_iterator_tag@0@@Z ; std::_Copy_opt<float *,float *,std::random_access_iterator_tag>
PUBLIC	??$unchecked_copy@PAMPAM@stdext@@YAPAMPAM00@Z	; stdext::unchecked_copy<float *,float *>
PUBLIC	?erase@?$vector@MV?$allocator@M@std@@@std@@QAE?AV?$_Vector_iterator@MV?$allocator@M@std@@@2@V?$_Vector_const_iterator@MV?$allocator@M@std@@@2@0@Z ; std::vector<float,std::allocator<float> >::erase
PUBLIC	?deallocate@?$allocator@M@std@@QAEXPAMI@Z	; std::allocator<float>::deallocate
PUBLIC	??$_Allocate@M@std@@YAPAMIPAM@Z			; std::_Allocate<float>
PUBLIC	?allocate@?$allocator@M@std@@QAEPAMI@Z		; std::allocator<float>::allocate
PUBLIC	?capacity@?$vector@MV?$allocator@M@std@@@std@@QBEIXZ ; std::vector<float,std::allocator<float> >::capacity
PUBLIC	?max_size@?$allocator@M@std@@QBEIXZ		; std::allocator<float>::max_size
PUBLIC	?max_size@?$vector@MV?$allocator@M@std@@@std@@QBEIXZ ; std::vector<float,std::allocator<float> >::max_size
PUBLIC	??$_Destroy_range@V?$allocator@M@std@@@std@@YAXPAM0AAV?$allocator@M@0@U_Scalar_ptr_iterator_tag@0@@Z ; std::_Destroy_range<std::allocator<float> >
PUBLIC	??$_Destroy_range@V?$allocator@M@std@@@std@@YAXPAM0AAV?$allocator@M@0@@Z ; std::_Destroy_range<std::allocator<float> >
PUBLIC	?_Destroy@?$vector@MV?$allocator@M@std@@@std@@IAEXPAM0@Z ; std::vector<float,std::allocator<float> >::_Destroy
PUBLIC	??$_Iter_cat@PAM@std@@YA?AUrandom_access_iterator_tag@0@ABQAM@Z ; std::_Iter_cat<float *>
PUBLIC	??$_Fill_n@PAMIM@std@@YAXPAMIABMU_Range_checked_iterator_tag@0@@Z ; std::_Fill_n<float *,unsigned int,float>
PUBLIC	??$_Fill_n@PAMIM@std@@YAXPAMIABMUrandom_access_iterator_tag@0@U_Range_checked_iterator_tag@0@@Z ; std::_Fill_n<float *,unsigned int,float>
PUBLIC	??$unchecked_fill_n@PAMIM@stdext@@YAXPAMIABM@Z	; stdext::unchecked_fill_n<float *,unsigned int,float>
PUBLIC	??$_Uninit_fill_n@PAMIMV?$allocator@M@std@@@std@@YAXPAMIABMAAV?$allocator@M@0@U_Scalar_ptr_iterator_tag@0@U_Range_checked_iterator_tag@0@@Z ; std::_Uninit_fill_n<float *,unsigned int,float,std::allocator<float> >
PUBLIC	??$unchecked_uninitialized_fill_n@PAMIMV?$allocator@M@std@@@stdext@@YAXPAMIABMAAV?$allocator@M@std@@@Z ; stdext::unchecked_uninitialized_fill_n<float *,unsigned int,float,std::allocator<float> >
PUBLIC	?_Ufill@?$vector@MV?$allocator@M@std@@@std@@IAEPAMPAMIABM@Z ; std::vector<float,std::allocator<float> >::_Ufill
PUBLIC	?_Xlen@?$vector@MV?$allocator@M@std@@@std@@KAXXZ ; std::vector<float,std::allocator<float> >::_Xlen
PUBLIC	??$_Uninit_copy@PAMPAMV?$allocator@M@std@@@std@@YAPAMPAM00AAV?$allocator@M@0@U_Scalar_ptr_iterator_tag@0@U_Range_checked_iterator_tag@0@@Z ; std::_Uninit_copy<float *,float *,std::allocator<float> >
PUBLIC	??$unchecked_uninitialized_copy@PAMPAMV?$allocator@M@std@@@stdext@@YAPAMPAM00AAV?$allocator@M@std@@@Z ; stdext::unchecked_uninitialized_copy<float *,float *,std::allocator<float> >
PUBLIC	??$_Uninit_move@PAMPAMV?$allocator@M@std@@U_Undefined_move_tag@2@@std@@YAPAMPAM00AAV?$allocator@M@0@U_Undefined_move_tag@0@U_Range_checked_iterator_tag@0@@Z ; std::_Uninit_move<float *,float *,std::allocator<float>,std::_Undefined_move_tag>
PUBLIC	??$_Unchecked_uninitialized_move@PAMPAMV?$allocator@M@std@@@stdext@@YAPAMPAM00AAV?$allocator@M@std@@@Z ; stdext::_Unchecked_uninitialized_move<float *,float *,std::allocator<float> >
PUBLIC	??$_Umove@PAM@?$vector@MV?$allocator@M@std@@@std@@IAEPAMPAM00@Z ; std::vector<float,std::allocator<float> >::_Umove<float *>
PUBLIC	??$_Fill@PAMM@std@@YAXPAM0ABM@Z			; std::_Fill<float *,float>
PUBLIC	??$fill@PAMM@std@@YAXPAM0ABM@Z			; std::fill<float *,float>
PUBLIC	??$_Checked_base@PAM@std@@YAPAMAAPAMU_Unchanged_checked_iterator_base_type_tag@0@@Z ; std::_Checked_base<float *>
PUBLIC	??$_Checked_base@PAM@std@@YAPAMAAPAM@Z		; std::_Checked_base<float *>
PUBLIC	??$_Iter_random@PAMPAM@std@@YA?AUrandom_access_iterator_tag@0@ABQAM0@Z ; std::_Iter_random<float *,float *>
PUBLIC	??$_Move_cat@PAM@std@@YA?AU_Undefined_move_tag@0@ABQAM@Z ; std::_Move_cat<float *>
PUBLIC	??$_Ptr_cat@PAMPAM@std@@YA?AU_Scalar_ptr_iterator_tag@0@AAPAM0@Z ; std::_Ptr_cat<float *,float *>
PUBLIC	??$_Copy_backward_opt@PAMPAMUrandom_access_iterator_tag@std@@@std@@YAPAMPAM00Urandom_access_iterator_tag@0@U_Scalar_ptr_iterator_tag@0@U_Range_checked_iterator_tag@0@@Z ; std::_Copy_backward_opt<float *,float *,std::random_access_iterator_tag>
PUBLIC	??$_Move_backward_opt@PAMPAMUrandom_access_iterator_tag@std@@U_Undefined_move_tag@2@@std@@YAPAMPAM00Urandom_access_iterator_tag@0@U_Undefined_move_tag@0@U_Range_checked_iterator_tag@0@@Z ; std::_Move_backward_opt<float *,float *,std::random_access_iterator_tag,std::_Undefined_move_tag>
PUBLIC	??$_Unchecked_move_backward@PAMPAM@stdext@@YAPAMPAM00@Z ; stdext::_Unchecked_move_backward<float *,float *>
PUBLIC	?_Insert_n@?$vector@MV?$allocator@M@std@@@std@@IAEXV?$_Vector_const_iterator@MV?$allocator@M@std@@@2@IABM@Z ; std::vector<float,std::allocator<float> >::_Insert_n
PUBLIC	??Y?$_Vector_const_iterator@MV?$allocator@M@std@@@std@@QAEAAV01@H@Z ; std::_Vector_const_iterator<float,std::allocator<float> >::operator+=
PUBLIC	??Y?$_Vector_iterator@MV?$allocator@M@std@@@std@@QAEAAV01@H@Z ; std::_Vector_iterator<float,std::allocator<float> >::operator+=
PUBLIC	??H?$_Vector_iterator@MV?$allocator@M@std@@@std@@QBE?AV01@H@Z ; std::_Vector_iterator<float,std::allocator<float> >::operator+
PUBLIC	?resize@?$vector@MV?$allocator@M@std@@@std@@QAEXIM@Z ; std::vector<float,std::allocator<float> >::resize
PUBLIC	?resize@?$vector@MV?$allocator@M@std@@@std@@QAEXI@Z ; std::vector<float,std::allocator<float> >::resize
PUBLIC	?size@?$vector@MV?$allocator@M@std@@@std@@QBEIXZ ; std::vector<float,std::allocator<float> >::size
PUBLIC	??A?$vector@MV?$allocator@M@std@@@std@@QAEAAMI@Z ; std::vector<float,std::allocator<float> >::operator[]
PUBLIC	??0?$CComSafeArray@M$03@ATL@@QAE@XZ		; ATL::CComSafeArray<float,4>::CComSafeArray<float,4>
PUBLIC	??1?$CComSafeArray@M$03@ATL@@QAE@XZ		; ATL::CComSafeArray<float,4>::~CComSafeArray<float,4>
PUBLIC	?GetType@?$CComSafeArray@M$03@ATL@@QBEGXZ	; ATL::CComSafeArray<float,4>::GetType
PUBLIC	?Unlock@?$CComSafeArray@M$03@ATL@@IAEJXZ	; ATL::CComSafeArray<float,4>::Unlock
PUBLIC	?Destroy@?$CComSafeArray@M$03@ATL@@QAEJXZ	; ATL::CComSafeArray<float,4>::Destroy
PUBLIC	?Lock@?$CComSafeArray@M$03@ATL@@IAEJXZ		; ATL::CComSafeArray<float,4>::Lock
PUBLIC	?Attach@?$CComSafeArray@M$03@ATL@@QAEJPBUtagSAFEARRAY@@@Z ; ATL::CComSafeArray<float,4>::Attach
PUBLIC	?GetCount@?$CComSafeArray@M$03@ATL@@QBEKI@Z	; ATL::CComSafeArray<float,4>::GetCount
PUBLIC	?GetLowerBound@?$CComSafeArray@M$03@ATL@@QBEJI@Z ; ATL::CComSafeArray<float,4>::GetLowerBound
PUBLIC	?GetUpperBound@?$CComSafeArray@M$03@ATL@@QBEJI@Z ; ATL::CComSafeArray<float,4>::GetUpperBound
PUBLIC	?GetAt@?$CComSafeArray@M$03@ATL@@QAEAAMJ@Z	; ATL::CComSafeArray<float,4>::GetAt
PUBLIC	??$FromVariant@M@@YAXUtagVARIANT@@AAV?$vector@MV?$allocator@M@std@@@std@@@Z ; FromVariant<float>
PUBLIC	??0?$allocator@N@std@@QAE@XZ			; std::allocator<double>::allocator<double>
PUBLIC	??$?0N@?$allocator@V_Aux_cont@std@@@std@@QAE@ABV?$allocator@N@1@@Z ; std::allocator<std::_Aux_cont>::allocator<std::_Aux_cont><double>
PUBLIC	??0?$_Container_base_aux_alloc_real@V?$allocator@N@std@@@std@@IAE@V?$allocator@N@1@@Z ; std::_Container_base_aux_alloc_real<std::allocator<double> >::_Container_base_aux_alloc_real<std::allocator<double> >
PUBLIC	??0?$allocator@N@std@@QAE@ABV01@@Z		; std::allocator<double>::allocator<double>
PUBLIC	??0?$_Vector_val@NV?$allocator@N@std@@@std@@IAE@V?$allocator@N@1@@Z ; std::_Vector_val<double,std::allocator<double> >::_Vector_val<double,std::allocator<double> >
PUBLIC	?_Buy@?$vector@NV?$allocator@N@std@@@std@@IAE_NI@Z ; std::vector<double,std::allocator<double> >::_Buy
PUBLIC	??0?$vector@NV?$allocator@N@std@@@std@@QAE@XZ	; std::vector<double,std::allocator<double> >::vector<double,std::allocator<double> >
PUBLIC	??1?$_Container_base_aux_alloc_real@V?$allocator@N@std@@@std@@IAE@XZ ; std::_Container_base_aux_alloc_real<std::allocator<double> >::~_Container_base_aux_alloc_real<std::allocator<double> >
PUBLIC	??1?$_Vector_val@NV?$allocator@N@std@@@std@@QAE@XZ ; std::_Vector_val<double,std::allocator<double> >::~_Vector_val<double,std::allocator<double> >
PUBLIC	?_Tidy@?$vector@NV?$allocator@N@std@@@std@@IAEXXZ ; std::vector<double,std::allocator<double> >::_Tidy
PUBLIC	??1?$vector@NV?$allocator@N@std@@@std@@QAE@XZ	; std::vector<double,std::allocator<double> >::~vector<double,std::allocator<double> >
PUBLIC	?clear@?$vector@NV?$allocator@N@std@@@std@@QAEXXZ ; std::vector<double,std::allocator<double> >::clear
PUBLIC	?begin@?$vector@NV?$allocator@N@std@@@std@@QAE?AV?$_Vector_iterator@NV?$allocator@N@std@@@2@XZ ; std::vector<double,std::allocator<double> >::begin
PUBLIC	?end@?$vector@NV?$allocator@N@std@@@std@@QAE?AV?$_Vector_iterator@NV?$allocator@N@std@@@2@XZ ; std::vector<double,std::allocator<double> >::end
PUBLIC	??0?$_Iterator_with_base@Urandom_access_iterator_tag@std@@NHPBNABNV_Iterator_base_aux@2@@std@@QAE@XZ ; std::_Iterator_with_base<std::random_access_iterator_tag,double,int,double const *,double const &,std::_Iterator_base_aux>::_Iterator_with_base<std::random_access_iterator_tag,double,int,double const *,double const &,std::_Iterator_base_aux>
PUBLIC	??0?$_Ranit@NHPBNABN@std@@QAE@XZ		; std::_Ranit<double,int,double const *,double const &>::_Ranit<double,int,double const *,double const &>
PUBLIC	??0?$_Vector_const_iterator@NV?$allocator@N@std@@@std@@QAE@PANPBV_Container_base_aux@1@@Z ; std::_Vector_const_iterator<double,std::allocator<double> >::_Vector_const_iterator<double,std::allocator<double> >
PUBLIC	??0?$_Vector_iterator@NV?$allocator@N@std@@@std@@QAE@PANPBV_Container_base_aux@1@@Z ; std::_Vector_iterator<double,std::allocator<double> >::_Vector_iterator<double,std::allocator<double> >
PUBLIC	?_Make_iter@?$vector@NV?$allocator@N@std@@@std@@QBE?AV?$_Vector_iterator@NV?$allocator@N@std@@@2@V?$_Vector_const_iterator@NV?$allocator@N@std@@@2@@Z ; std::vector<double,std::allocator<double> >::_Make_iter
PUBLIC	??8?$_Vector_const_iterator@NV?$allocator@N@std@@@std@@QBE_NABV01@@Z ; std::_Vector_const_iterator<double,std::allocator<double> >::operator==
PUBLIC	??9?$_Vector_const_iterator@NV?$allocator@N@std@@@std@@QBE_NABV01@@Z ; std::_Vector_const_iterator<double,std::allocator<double> >::operator!=
PUBLIC	??$_Copy_opt@PANPANUrandom_access_iterator_tag@std@@@std@@YAPANPAN00Urandom_access_iterator_tag@0@U_Scalar_ptr_iterator_tag@0@U_Range_checked_iterator_tag@0@@Z ; std::_Copy_opt<double *,double *,std::random_access_iterator_tag>
PUBLIC	??$unchecked_copy@PANPAN@stdext@@YAPANPAN00@Z	; stdext::unchecked_copy<double *,double *>
PUBLIC	?erase@?$vector@NV?$allocator@N@std@@@std@@QAE?AV?$_Vector_iterator@NV?$allocator@N@std@@@2@V?$_Vector_const_iterator@NV?$allocator@N@std@@@2@0@Z ; std::vector<double,std::allocator<double> >::erase
PUBLIC	?deallocate@?$allocator@N@std@@QAEXPANI@Z	; std::allocator<double>::deallocate
PUBLIC	??$_Allocate@N@std@@YAPANIPAN@Z			; std::_Allocate<double>
PUBLIC	?allocate@?$allocator@N@std@@QAEPANI@Z		; std::allocator<double>::allocate
PUBLIC	?capacity@?$vector@NV?$allocator@N@std@@@std@@QBEIXZ ; std::vector<double,std::allocator<double> >::capacity
PUBLIC	?max_size@?$allocator@N@std@@QBEIXZ		; std::allocator<double>::max_size
PUBLIC	?max_size@?$vector@NV?$allocator@N@std@@@std@@QBEIXZ ; std::vector<double,std::allocator<double> >::max_size
PUBLIC	??$_Destroy_range@V?$allocator@N@std@@@std@@YAXPAN0AAV?$allocator@N@0@U_Scalar_ptr_iterator_tag@0@@Z ; std::_Destroy_range<std::allocator<double> >
PUBLIC	??$_Destroy_range@V?$allocator@N@std@@@std@@YAXPAN0AAV?$allocator@N@0@@Z ; std::_Destroy_range<std::allocator<double> >
PUBLIC	?_Destroy@?$vector@NV?$allocator@N@std@@@std@@IAEXPAN0@Z ; std::vector<double,std::allocator<double> >::_Destroy
PUBLIC	??$_Iter_cat@PAN@std@@YA?AUrandom_access_iterator_tag@0@ABQAN@Z ; std::_Iter_cat<double *>
PUBLIC	??$_Fill_n@PANIN@std@@YAXPANIABNU_Range_checked_iterator_tag@0@@Z ; std::_Fill_n<double *,unsigned int,double>
PUBLIC	??$_Fill_n@PANIN@std@@YAXPANIABNUrandom_access_iterator_tag@0@U_Range_checked_iterator_tag@0@@Z ; std::_Fill_n<double *,unsigned int,double>
PUBLIC	??$unchecked_fill_n@PANIN@stdext@@YAXPANIABN@Z	; stdext::unchecked_fill_n<double *,unsigned int,double>
PUBLIC	??$_Uninit_fill_n@PANINV?$allocator@N@std@@@std@@YAXPANIABNAAV?$allocator@N@0@U_Scalar_ptr_iterator_tag@0@U_Range_checked_iterator_tag@0@@Z ; std::_Uninit_fill_n<double *,unsigned int,double,std::allocator<double> >
PUBLIC	??$unchecked_uninitialized_fill_n@PANINV?$allocator@N@std@@@stdext@@YAXPANIABNAAV?$allocator@N@std@@@Z ; stdext::unchecked_uninitialized_fill_n<double *,unsigned int,double,std::allocator<double> >
PUBLIC	?_Ufill@?$vector@NV?$allocator@N@std@@@std@@IAEPANPANIABN@Z ; std::vector<double,std::allocator<double> >::_Ufill
PUBLIC	?_Xlen@?$vector@NV?$allocator@N@std@@@std@@KAXXZ ; std::vector<double,std::allocator<double> >::_Xlen
PUBLIC	??$_Uninit_copy@PANPANV?$allocator@N@std@@@std@@YAPANPAN00AAV?$allocator@N@0@U_Scalar_ptr_iterator_tag@0@U_Range_checked_iterator_tag@0@@Z ; std::_Uninit_copy<double *,double *,std::allocator<double> >
PUBLIC	??$unchecked_uninitialized_copy@PANPANV?$allocator@N@std@@@stdext@@YAPANPAN00AAV?$allocator@N@std@@@Z ; stdext::unchecked_uninitialized_copy<double *,double *,std::allocator<double> >
PUBLIC	??$_Uninit_move@PANPANV?$allocator@N@std@@U_Undefined_move_tag@2@@std@@YAPANPAN00AAV?$allocator@N@0@U_Undefined_move_tag@0@U_Range_checked_iterator_tag@0@@Z ; std::_Uninit_move<double *,double *,std::allocator<double>,std::_Undefined_move_tag>
PUBLIC	??$_Unchecked_uninitialized_move@PANPANV?$allocator@N@std@@@stdext@@YAPANPAN00AAV?$allocator@N@std@@@Z ; stdext::_Unchecked_uninitialized_move<double *,double *,std::allocator<double> >
PUBLIC	??$_Umove@PAN@?$vector@NV?$allocator@N@std@@@std@@IAEPANPAN00@Z ; std::vector<double,std::allocator<double> >::_Umove<double *>
PUBLIC	??$_Fill@PANN@std@@YAXPAN0ABN@Z			; std::_Fill<double *,double>
PUBLIC	??$fill@PANN@std@@YAXPAN0ABN@Z			; std::fill<double *,double>
PUBLIC	??$_Checked_base@PAN@std@@YAPANAAPANU_Unchanged_checked_iterator_base_type_tag@0@@Z ; std::_Checked_base<double *>
PUBLIC	??$_Checked_base@PAN@std@@YAPANAAPAN@Z		; std::_Checked_base<double *>
PUBLIC	??$_Iter_random@PANPAN@std@@YA?AUrandom_access_iterator_tag@0@ABQAN0@Z ; std::_Iter_random<double *,double *>
PUBLIC	??$_Move_cat@PAN@std@@YA?AU_Undefined_move_tag@0@ABQAN@Z ; std::_Move_cat<double *>
PUBLIC	??$_Ptr_cat@PANPAN@std@@YA?AU_Scalar_ptr_iterator_tag@0@AAPAN0@Z ; std::_Ptr_cat<double *,double *>
PUBLIC	??$_Copy_backward_opt@PANPANUrandom_access_iterator_tag@std@@@std@@YAPANPAN00Urandom_access_iterator_tag@0@U_Scalar_ptr_iterator_tag@0@U_Range_checked_iterator_tag@0@@Z ; std::_Copy_backward_opt<double *,double *,std::random_access_iterator_tag>
PUBLIC	??$_Move_backward_opt@PANPANUrandom_access_iterator_tag@std@@U_Undefined_move_tag@2@@std@@YAPANPAN00Urandom_access_iterator_tag@0@U_Undefined_move_tag@0@U_Range_checked_iterator_tag@0@@Z ; std::_Move_backward_opt<double *,double *,std::random_access_iterator_tag,std::_Undefined_move_tag>
PUBLIC	??$_Unchecked_move_backward@PANPAN@stdext@@YAPANPAN00@Z ; stdext::_Unchecked_move_backward<double *,double *>
PUBLIC	?_Insert_n@?$vector@NV?$allocator@N@std@@@std@@IAEXV?$_Vector_const_iterator@NV?$allocator@N@std@@@2@IABN@Z ; std::vector<double,std::allocator<double> >::_Insert_n
PUBLIC	??Y?$_Vector_const_iterator@NV?$allocator@N@std@@@std@@QAEAAV01@H@Z ; std::_Vector_const_iterator<double,std::allocator<double> >::operator+=
PUBLIC	??Y?$_Vector_iterator@NV?$allocator@N@std@@@std@@QAEAAV01@H@Z ; std::_Vector_iterator<double,std::allocator<double> >::operator+=
PUBLIC	??H?$_Vector_iterator@NV?$allocator@N@std@@@std@@QBE?AV01@H@Z ; std::_Vector_iterator<double,std::allocator<double> >::operator+
PUBLIC	?resize@?$vector@NV?$allocator@N@std@@@std@@QAEXIN@Z ; std::vector<double,std::allocator<double> >::resize
PUBLIC	?resize@?$vector@NV?$allocator@N@std@@@std@@QAEXI@Z ; std::vector<double,std::allocator<double> >::resize
PUBLIC	?size@?$vector@NV?$allocator@N@std@@@std@@QBEIXZ ; std::vector<double,std::allocator<double> >::size
PUBLIC	??A?$vector@NV?$allocator@N@std@@@std@@QAEAANI@Z ; std::vector<double,std::allocator<double> >::operator[]
PUBLIC	??0?$CComSafeArray@N$04@ATL@@QAE@XZ		; ATL::CComSafeArray<double,5>::CComSafeArray<double,5>
PUBLIC	??1?$CComSafeArray@N$04@ATL@@QAE@XZ		; ATL::CComSafeArray<double,5>::~CComSafeArray<double,5>
PUBLIC	?GetType@?$CComSafeArray@N$04@ATL@@QBEGXZ	; ATL::CComSafeArray<double,5>::GetType
PUBLIC	?Unlock@?$CComSafeArray@N$04@ATL@@IAEJXZ	; ATL::CComSafeArray<double,5>::Unlock
PUBLIC	?Destroy@?$CComSafeArray@N$04@ATL@@QAEJXZ	; ATL::CComSafeArray<double,5>::Destroy
PUBLIC	?Lock@?$CComSafeArray@N$04@ATL@@IAEJXZ		; ATL::CComSafeArray<double,5>::Lock
PUBLIC	?Attach@?$CComSafeArray@N$04@ATL@@QAEJPBUtagSAFEARRAY@@@Z ; ATL::CComSafeArray<double,5>::Attach
PUBLIC	?GetCount@?$CComSafeArray@N$04@ATL@@QBEKI@Z	; ATL::CComSafeArray<double,5>::GetCount
PUBLIC	?GetLowerBound@?$CComSafeArray@N$04@ATL@@QBEJI@Z ; ATL::CComSafeArray<double,5>::GetLowerBound
PUBLIC	?GetUpperBound@?$CComSafeArray@N$04@ATL@@QBEJI@Z ; ATL::CComSafeArray<double,5>::GetUpperBound
PUBLIC	?GetAt@?$CComSafeArray@N$04@ATL@@QAEAANJ@Z	; ATL::CComSafeArray<double,5>::GetAt
PUBLIC	??$FromVariant@N@@YAXUtagVARIANT@@AAV?$vector@NV?$allocator@N@std@@@std@@@Z ; FromVariant<double>
PUBLIC	??0?$allocator@PA_W@std@@QAE@XZ			; std::allocator<wchar_t *>::allocator<wchar_t *>
PUBLIC	??$?0PA_W@?$allocator@V_Aux_cont@std@@@std@@QAE@ABV?$allocator@PA_W@1@@Z ; std::allocator<std::_Aux_cont>::allocator<std::_Aux_cont><wchar_t *>
PUBLIC	??0?$_Container_base_aux_alloc_real@V?$allocator@PA_W@std@@@std@@IAE@V?$allocator@PA_W@1@@Z ; std::_Container_base_aux_alloc_real<std::allocator<wchar_t *> >::_Container_base_aux_alloc_real<std::allocator<wchar_t *> >
PUBLIC	??0?$allocator@PA_W@std@@QAE@ABV01@@Z		; std::allocator<wchar_t *>::allocator<wchar_t *>
PUBLIC	??0?$_Vector_val@PA_WV?$allocator@PA_W@std@@@std@@IAE@V?$allocator@PA_W@1@@Z ; std::_Vector_val<wchar_t *,std::allocator<wchar_t *> >::_Vector_val<wchar_t *,std::allocator<wchar_t *> >
PUBLIC	?_Buy@?$vector@PA_WV?$allocator@PA_W@std@@@std@@IAE_NI@Z ; std::vector<wchar_t *,std::allocator<wchar_t *> >::_Buy
PUBLIC	??0?$vector@PA_WV?$allocator@PA_W@std@@@std@@QAE@XZ ; std::vector<wchar_t *,std::allocator<wchar_t *> >::vector<wchar_t *,std::allocator<wchar_t *> >
PUBLIC	??1?$_Container_base_aux_alloc_real@V?$allocator@PA_W@std@@@std@@IAE@XZ ; std::_Container_base_aux_alloc_real<std::allocator<wchar_t *> >::~_Container_base_aux_alloc_real<std::allocator<wchar_t *> >
PUBLIC	??1?$_Vector_val@PA_WV?$allocator@PA_W@std@@@std@@QAE@XZ ; std::_Vector_val<wchar_t *,std::allocator<wchar_t *> >::~_Vector_val<wchar_t *,std::allocator<wchar_t *> >
PUBLIC	?_Tidy@?$vector@PA_WV?$allocator@PA_W@std@@@std@@IAEXXZ ; std::vector<wchar_t *,std::allocator<wchar_t *> >::_Tidy
PUBLIC	??1?$vector@PA_WV?$allocator@PA_W@std@@@std@@QAE@XZ ; std::vector<wchar_t *,std::allocator<wchar_t *> >::~vector<wchar_t *,std::allocator<wchar_t *> >
PUBLIC	?clear@?$vector@PA_WV?$allocator@PA_W@std@@@std@@QAEXXZ ; std::vector<wchar_t *,std::allocator<wchar_t *> >::clear
PUBLIC	??BCComBSTR@ATL@@QBEPA_WXZ			; ATL::CComBSTR::operator wchar_t *
PUBLIC	??0?$CComSafeArray@PA_W$07@ATL@@QAE@XZ		; ATL::CComSafeArray<wchar_t *,8>::CComSafeArray<wchar_t *,8>
PUBLIC	??1?$CComSafeArray@PA_W$07@ATL@@QAE@XZ		; ATL::CComSafeArray<wchar_t *,8>::~CComSafeArray<wchar_t *,8>
PUBLIC	?AtlSafeArrayGetActualVartype@ATL@@YAJPAUtagSAFEARRAY@@PAG@Z ; ATL::AtlSafeArrayGetActualVartype
PUBLIC	?GetType@?$CComSafeArray@PA_W$07@ATL@@QBEGXZ	; ATL::CComSafeArray<wchar_t *,8>::GetType
PUBLIC	?Unlock@?$CComSafeArray@PA_W$07@ATL@@IAEJXZ	; ATL::CComSafeArray<wchar_t *,8>::Unlock
PUBLIC	?Destroy@?$CComSafeArray@PA_W$07@ATL@@QAEJXZ	; ATL::CComSafeArray<wchar_t *,8>::Destroy
PUBLIC	?Lock@?$CComSafeArray@PA_W$07@ATL@@IAEJXZ	; ATL::CComSafeArray<wchar_t *,8>::Lock
PUBLIC	?Attach@?$CComSafeArray@PA_W$07@ATL@@QAEJPBUtagSAFEARRAY@@@Z ; ATL::CComSafeArray<wchar_t *,8>::Attach
PUBLIC	?GetCount@?$CComSafeArray@PA_W$07@ATL@@QBEKI@Z	; ATL::CComSafeArray<wchar_t *,8>::GetCount
PUBLIC	?GetLowerBound@?$CComSafeArray@PA_W$07@ATL@@QBEJI@Z ; ATL::CComSafeArray<wchar_t *,8>::GetLowerBound
PUBLIC	??0CAtlException@ATL@@QAE@J@Z			; ATL::CAtlException::CAtlException
PUBLIC	?AtlThrowImpl@ATL@@YGXJ@Z			; ATL::AtlThrowImpl
PUBLIC	?GetUpperBound@?$CComSafeArray@PA_W$07@ATL@@QBEJI@Z ; ATL::CComSafeArray<wchar_t *,8>::GetUpperBound
PUBLIC	?GetAt@?$CComSafeArray@PA_W$07@ATL@@QAEAAVCComBSTR@2@J@Z ; ATL::CComSafeArray<wchar_t *,8>::GetAt
PUBLIC	?begin@?$vector@PA_WV?$allocator@PA_W@std@@@std@@QAE?AV?$_Vector_iterator@PA_WV?$allocator@PA_W@std@@@2@XZ ; std::vector<wchar_t *,std::allocator<wchar_t *> >::begin
PUBLIC	?end@?$vector@PA_WV?$allocator@PA_W@std@@@std@@QAE?AV?$_Vector_iterator@PA_WV?$allocator@PA_W@std@@@2@XZ ; std::vector<wchar_t *,std::allocator<wchar_t *> >::end
PUBLIC	??0?$_Iterator_with_base@Urandom_access_iterator_tag@std@@PA_WHPBQA_WABQA_WV_Iterator_base_aux@2@@std@@QAE@XZ ; std::_Iterator_with_base<std::random_access_iterator_tag,wchar_t *,int,wchar_t * const *,wchar_t * const &,std::_Iterator_base_aux>::_Iterator_with_base<std::random_access_iterator_tag,wchar_t *,int,wchar_t * const *,wchar_t * const &,std::_Iterator_base_aux>
PUBLIC	??0?$_Ranit@PA_WHPBQA_WABQA_W@std@@QAE@XZ	; std::_Ranit<wchar_t *,int,wchar_t * const *,wchar_t * const &>::_Ranit<wchar_t *,int,wchar_t * const *,wchar_t * const &>
PUBLIC	??0?$_Vector_const_iterator@PA_WV?$allocator@PA_W@std@@@std@@QAE@PAPA_WPBV_Container_base_aux@1@@Z ; std::_Vector_const_iterator<wchar_t *,std::allocator<wchar_t *> >::_Vector_const_iterator<wchar_t *,std::allocator<wchar_t *> >
PUBLIC	??0?$_Vector_iterator@PA_WV?$allocator@PA_W@std@@@std@@QAE@PAPA_WPBV_Container_base_aux@1@@Z ; std::_Vector_iterator<wchar_t *,std::allocator<wchar_t *> >::_Vector_iterator<wchar_t *,std::allocator<wchar_t *> >
PUBLIC	?_Make_iter@?$vector@PA_WV?$allocator@PA_W@std@@@std@@QBE?AV?$_Vector_iterator@PA_WV?$allocator@PA_W@std@@@2@V?$_Vector_const_iterator@PA_WV?$allocator@PA_W@std@@@2@@Z ; std::vector<wchar_t *,std::allocator<wchar_t *> >::_Make_iter
PUBLIC	??8?$_Vector_const_iterator@PA_WV?$allocator@PA_W@std@@@std@@QBE_NABV01@@Z ; std::_Vector_const_iterator<wchar_t *,std::allocator<wchar_t *> >::operator==
PUBLIC	??9?$_Vector_const_iterator@PA_WV?$allocator@PA_W@std@@@std@@QBE_NABV01@@Z ; std::_Vector_const_iterator<wchar_t *,std::allocator<wchar_t *> >::operator!=
PUBLIC	??$_Copy_opt@PAPA_WPAPA_WUrandom_access_iterator_tag@std@@@std@@YAPAPA_WPAPA_W00Urandom_access_iterator_tag@0@U_Scalar_ptr_iterator_tag@0@U_Range_checked_iterator_tag@0@@Z ; std::_Copy_opt<wchar_t * *,wchar_t * *,std::random_access_iterator_tag>
PUBLIC	??$unchecked_copy@PAPA_WPAPA_W@stdext@@YAPAPA_WPAPA_W00@Z ; stdext::unchecked_copy<wchar_t * *,wchar_t * *>
PUBLIC	?erase@?$vector@PA_WV?$allocator@PA_W@std@@@std@@QAE?AV?$_Vector_iterator@PA_WV?$allocator@PA_W@std@@@2@V?$_Vector_const_iterator@PA_WV?$allocator@PA_W@std@@@2@0@Z ; std::vector<wchar_t *,std::allocator<wchar_t *> >::erase
PUBLIC	?deallocate@?$allocator@PA_W@std@@QAEXPAPA_WI@Z	; std::allocator<wchar_t *>::deallocate
PUBLIC	??$_Allocate@PA_W@std@@YAPAPA_WIPAPA_W@Z	; std::_Allocate<wchar_t *>
PUBLIC	?allocate@?$allocator@PA_W@std@@QAEPAPA_WI@Z	; std::allocator<wchar_t *>::allocate
PUBLIC	?capacity@?$vector@PA_WV?$allocator@PA_W@std@@@std@@QBEIXZ ; std::vector<wchar_t *,std::allocator<wchar_t *> >::capacity
PUBLIC	?max_size@?$allocator@PA_W@std@@QBEIXZ		; std::allocator<wchar_t *>::max_size
PUBLIC	?max_size@?$vector@PA_WV?$allocator@PA_W@std@@@std@@QBEIXZ ; std::vector<wchar_t *,std::allocator<wchar_t *> >::max_size
PUBLIC	??$_Destroy_range@V?$allocator@PA_W@std@@@std@@YAXPAPA_W0AAV?$allocator@PA_W@0@U_Scalar_ptr_iterator_tag@0@@Z ; std::_Destroy_range<std::allocator<wchar_t *> >
PUBLIC	??$_Destroy_range@V?$allocator@PA_W@std@@@std@@YAXPAPA_W0AAV?$allocator@PA_W@0@@Z ; std::_Destroy_range<std::allocator<wchar_t *> >
PUBLIC	?_Destroy@?$vector@PA_WV?$allocator@PA_W@std@@@std@@IAEXPAPA_W0@Z ; std::vector<wchar_t *,std::allocator<wchar_t *> >::_Destroy
PUBLIC	??$_Iter_cat@PAPA_W@std@@YA?AUrandom_access_iterator_tag@0@ABQAPA_W@Z ; std::_Iter_cat<wchar_t * *>
PUBLIC	??$_Fill_n@PAPA_WIPA_W@std@@YAXPAPA_WIABQA_WU_Range_checked_iterator_tag@0@@Z ; std::_Fill_n<wchar_t * *,unsigned int,wchar_t *>
PUBLIC	??$_Fill_n@PAPA_WIPA_W@std@@YAXPAPA_WIABQA_WUrandom_access_iterator_tag@0@U_Range_checked_iterator_tag@0@@Z ; std::_Fill_n<wchar_t * *,unsigned int,wchar_t *>
PUBLIC	??$unchecked_fill_n@PAPA_WIPA_W@stdext@@YAXPAPA_WIABQA_W@Z ; stdext::unchecked_fill_n<wchar_t * *,unsigned int,wchar_t *>
PUBLIC	??$_Uninit_fill_n@PAPA_WIPA_WV?$allocator@PA_W@std@@@std@@YAXPAPA_WIABQA_WAAV?$allocator@PA_W@0@U_Scalar_ptr_iterator_tag@0@U_Range_checked_iterator_tag@0@@Z ; std::_Uninit_fill_n<wchar_t * *,unsigned int,wchar_t *,std::allocator<wchar_t *> >
PUBLIC	??$unchecked_uninitialized_fill_n@PAPA_WIPA_WV?$allocator@PA_W@std@@@stdext@@YAXPAPA_WIABQA_WAAV?$allocator@PA_W@std@@@Z ; stdext::unchecked_uninitialized_fill_n<wchar_t * *,unsigned int,wchar_t *,std::allocator<wchar_t *> >
PUBLIC	?_Ufill@?$vector@PA_WV?$allocator@PA_W@std@@@std@@IAEPAPA_WPAPA_WIABQA_W@Z ; std::vector<wchar_t *,std::allocator<wchar_t *> >::_Ufill
PUBLIC	?_Xlen@?$vector@PA_WV?$allocator@PA_W@std@@@std@@KAXXZ ; std::vector<wchar_t *,std::allocator<wchar_t *> >::_Xlen
PUBLIC	??$_Uninit_copy@PAPA_WPAPA_WV?$allocator@PA_W@std@@@std@@YAPAPA_WPAPA_W00AAV?$allocator@PA_W@0@U_Scalar_ptr_iterator_tag@0@U_Range_checked_iterator_tag@0@@Z ; std::_Uninit_copy<wchar_t * *,wchar_t * *,std::allocator<wchar_t *> >
PUBLIC	??$unchecked_uninitialized_copy@PAPA_WPAPA_WV?$allocator@PA_W@std@@@stdext@@YAPAPA_WPAPA_W00AAV?$allocator@PA_W@std@@@Z ; stdext::unchecked_uninitialized_copy<wchar_t * *,wchar_t * *,std::allocator<wchar_t *> >
PUBLIC	??$_Uninit_move@PAPA_WPAPA_WV?$allocator@PA_W@std@@U_Undefined_move_tag@2@@std@@YAPAPA_WPAPA_W00AAV?$allocator@PA_W@0@U_Undefined_move_tag@0@U_Range_checked_iterator_tag@0@@Z ; std::_Uninit_move<wchar_t * *,wchar_t * *,std::allocator<wchar_t *>,std::_Undefined_move_tag>
PUBLIC	??$_Unchecked_uninitialized_move@PAPA_WPAPA_WV?$allocator@PA_W@std@@@stdext@@YAPAPA_WPAPA_W00AAV?$allocator@PA_W@std@@@Z ; stdext::_Unchecked_uninitialized_move<wchar_t * *,wchar_t * *,std::allocator<wchar_t *> >
PUBLIC	??$_Umove@PAPA_W@?$vector@PA_WV?$allocator@PA_W@std@@@std@@IAEPAPA_WPAPA_W00@Z ; std::vector<wchar_t *,std::allocator<wchar_t *> >::_Umove<wchar_t * *>
PUBLIC	??$_Fill@PAPA_WPA_W@std@@YAXPAPA_W0ABQA_W@Z	; std::_Fill<wchar_t * *,wchar_t *>
PUBLIC	??$fill@PAPA_WPA_W@std@@YAXPAPA_W0ABQA_W@Z	; std::fill<wchar_t * *,wchar_t *>
PUBLIC	??$_Checked_base@PAPA_W@std@@YAPAPA_WAAPAPA_WU_Unchanged_checked_iterator_base_type_tag@0@@Z ; std::_Checked_base<wchar_t * *>
PUBLIC	??$_Checked_base@PAPA_W@std@@YAPAPA_WAAPAPA_W@Z	; std::_Checked_base<wchar_t * *>
PUBLIC	??$_Iter_random@PAPA_WPAPA_W@std@@YA?AUrandom_access_iterator_tag@0@ABQAPA_W0@Z ; std::_Iter_random<wchar_t * *,wchar_t * *>
PUBLIC	??$_Move_cat@PAPA_W@std@@YA?AU_Undefined_move_tag@0@ABQAPA_W@Z ; std::_Move_cat<wchar_t * *>
PUBLIC	??$_Ptr_cat@PAPA_WPAPA_W@std@@YA?AU_Scalar_ptr_iterator_tag@0@AAPAPA_W0@Z ; std::_Ptr_cat<wchar_t * *,wchar_t * *>
PUBLIC	??$_Copy_backward_opt@PAPA_WPAPA_WUrandom_access_iterator_tag@std@@@std@@YAPAPA_WPAPA_W00Urandom_access_iterator_tag@0@U_Scalar_ptr_iterator_tag@0@U_Range_checked_iterator_tag@0@@Z ; std::_Copy_backward_opt<wchar_t * *,wchar_t * *,std::random_access_iterator_tag>
PUBLIC	??$_Move_backward_opt@PAPA_WPAPA_WUrandom_access_iterator_tag@std@@U_Undefined_move_tag@2@@std@@YAPAPA_WPAPA_W00Urandom_access_iterator_tag@0@U_Undefined_move_tag@0@U_Range_checked_iterator_tag@0@@Z ; std::_Move_backward_opt<wchar_t * *,wchar_t * *,std::random_access_iterator_tag,std::_Undefined_move_tag>
PUBLIC	??$_Unchecked_move_backward@PAPA_WPAPA_W@stdext@@YAPAPA_WPAPA_W00@Z ; stdext::_Unchecked_move_backward<wchar_t * *,wchar_t * *>
PUBLIC	?_Insert_n@?$vector@PA_WV?$allocator@PA_W@std@@@std@@IAEXV?$_Vector_const_iterator@PA_WV?$allocator@PA_W@std@@@2@IABQA_W@Z ; std::vector<wchar_t *,std::allocator<wchar_t *> >::_Insert_n
PUBLIC	??Y?$_Vector_const_iterator@PA_WV?$allocator@PA_W@std@@@std@@QAEAAV01@H@Z ; std::_Vector_const_iterator<wchar_t *,std::allocator<wchar_t *> >::operator+=
PUBLIC	??Y?$_Vector_iterator@PA_WV?$allocator@PA_W@std@@@std@@QAEAAV01@H@Z ; std::_Vector_iterator<wchar_t *,std::allocator<wchar_t *> >::operator+=
PUBLIC	??H?$_Vector_iterator@PA_WV?$allocator@PA_W@std@@@std@@QBE?AV01@H@Z ; std::_Vector_iterator<wchar_t *,std::allocator<wchar_t *> >::operator+
PUBLIC	?resize@?$vector@PA_WV?$allocator@PA_W@std@@@std@@QAEXIPA_W@Z ; std::vector<wchar_t *,std::allocator<wchar_t *> >::resize
PUBLIC	?resize@?$vector@PA_WV?$allocator@PA_W@std@@@std@@QAEXI@Z ; std::vector<wchar_t *,std::allocator<wchar_t *> >::resize
PUBLIC	?size@?$vector@PA_WV?$allocator@PA_W@std@@@std@@QBEIXZ ; std::vector<wchar_t *,std::allocator<wchar_t *> >::size
PUBLIC	??A?$vector@PA_WV?$allocator@PA_W@std@@@std@@QAEAAPA_WI@Z ; std::vector<wchar_t *,std::allocator<wchar_t *> >::operator[]
PUBLIC	??$FromVariant@PA_W@@YAXUtagVARIANT@@AAV?$vector@PA_WV?$allocator@PA_W@std@@@std@@@Z ; FromVariant<wchar_t *>
PUBLIC	??_Gxmlwriter@@QAEPAXI@Z			; xmlwriter::`scalar deleting destructor'
PUBLIC	??4?$basic_string@DU?$char_traits@D@std@@V?$allocator@D@2@@std@@QAEAAV01@PBD@Z ; std::basic_string<char,std::char_traits<char>,std::allocator<char> >::operator=
PUBLIC	?_Construct_n@?$vector@V?$basic_string@DU?$char_traits@D@std@@V?$allocator@D@2@@std@@V?$allocator@V?$basic_string@DU?$char_traits@D@std@@V?$allocator@D@2@@std@@@2@@std@@QAEXIABV?$basic_string@DU?$char_traits@D@std@@V?$allocator@D@2@@2@@Z ; std::vector<std::basic_string<char,std::char_traits<char>,std::allocator<char> >,std::allocator<std::basic_string<char,std::char_traits<char>,std::allocator<char> > > >::_Construct_n
PUBLIC	??0?$vector@V?$basic_string@DU?$char_traits@D@std@@V?$allocator@D@2@@std@@V?$allocator@V?$basic_string@DU?$char_traits@D@std@@V?$allocator@D@2@@std@@@2@@std@@QAE@I@Z ; std::vector<std::basic_string<char,std::char_traits<char>,std::allocator<char> >,std::allocator<std::basic_string<char,std::char_traits<char>,std::allocator<char> > > >::vector<std::basic_string<char,std::char_traits<char>,std::allocator<char> >,std::allocator<std::basic_string<char,std::char_traits<char>,std::allocator<char> > > >
PUBLIC	??_R0?AVCAtlException@ATL@@@8			; ATL::CAtlException `RTTI Type Descriptor'
PUBLIC	__CT??_R0?AVCAtlException@ATL@@@84
PUBLIC	__CTA1?AVCAtlException@ATL@@
PUBLIC	__TI1?AVCAtlException@ATL@@
PUBLIC	??_C@_0L@NGFAGIOG@?$DO?$DO?5WMI?0?5?$CFs?$AA@	; `string'
PUBLIC	??_C@_0BH@MIMIOLHO@?$DM?$DM?5WMI?0?5Inv?5class?5name?$AA@ ; `string'
PUBLIC	??_C@_0BE@FCECJKPH@SysStatus_WMI_Mutex?$AA@	; `string'
PUBLIC	??_C@_0BJ@CAANICIM@?$DM?$DM?5WMI?0?5?$CFs?5Mutex?5timeout?$AA@ ; `string'
PUBLIC	??_C@_0DB@MKNIEHI@?$DM?$DM?5WMI?0?5Failed?5to?5initialize?5COM@ ; `string'
PUBLIC	??_C@_0CO@MICKHOIN@?$DM?$DM?5WMI?0?5Failed?5to?5initialize?5sec@ ; `string'
PUBLIC	??_C@_0DE@HCGLOFPJ@?$DM?$DM?5WMI?0?5Failed?5to?5create?5IWbemLo@ ; `string'
PUBLIC	??_C@_1BG@BJADHBOD@?$AAR?$AAO?$AAO?$AAT?$AA?2?$AAC?$AAI?$AAM?$AAV?$AA2?$AA?$AA@ ; `string'
PUBLIC	??_C@_0CC@BGNNPBKC@?$DM?$DM?5WMI?0?5Could?5not?5connect?0?50x?$CF?48@ ; `string'
PUBLIC	??_C@_0CO@HCPFANAN@?9?9?5WMI?0?5Connected?5to?5ROOT?2CIMV2?5@ ; `string'
PUBLIC	??_C@_0CM@PEEMIANH@?$DM?$DM?5WMI?0?5Could?5not?5set?5proxy?5blan@ ; `string'
PUBLIC	??_C@_0BB@MNPFNNGI@SELECT?5?$CK?5FROM?5?$CFs?$AA@ ; `string'
PUBLIC	??_C@_0CD@LDAAPKBB@?9?9?5WMI?0?5Querying?5properties?5for?5@ ; `string'
PUBLIC	??_C@_03LJNDFDHG@WQL?$AA@			; `string'
PUBLIC	??_C@_0CE@EKEEEJHG@?9?9?5WMI?0?5Query?5for?5?$CFs?5failed?0?50x?$CF@ ; `string'
PUBLIC	??_C@_0CD@FEICJBGP@?9?9?5WMI?0?5Processing?5?$CF?45u?5?$CFs?5?$CI?$CFi?$CJ?5@ ; `string'
PUBLIC	??_C@_06DBMAJEKE@0x?$CF?42X?$AA@		; `string'
PUBLIC	??_C@_0M@FJHOFDKM@?$CFs?5?$DN?50x?$CF?42X?$AA@	; `string'
PUBLIC	??_C@_06DFENOIBG@0x?$CF?44X?$AA@		; `string'
PUBLIC	??_C@_0M@FNPDCPBO@?$CFs?5?$DN?50x?$CF?44X?$AA@	; `string'
PUBLIC	??_C@_06DMFHBBHC@0x?$CF?48X?$AA@		; `string'
PUBLIC	??_C@_0M@FEOJNGHK@?$CFs?5?$DN?50x?$CF?48X?$AA@	; `string'
PUBLIC	??_C@_07PDBEDJPN@0x?$CF?416X?$AA@		; `string'
PUBLIC	??_C@_0N@PNKHAPAI@?$CFs?5?$DN?50x?$CF?416X?$AA@	; `string'
PUBLIC	??_C@_02NJPGOMH@?$CFf?$AA@			; `string'
PUBLIC	??_C@_07FMFBIAH@?$CFs?5?$DN?5?$CFf?$AA@		; `string'
PUBLIC	??_C@_02CGLCDNAE@?$CFe?$AA@			; `string'
PUBLIC	??_C@_07COOIELME@?$CFs?5?$DN?5?$CFe?$AA@	; `string'
PUBLIC	??_C@_07DCHAPOBD@?$CFs?5?$DN?5?$CFs?$AA@	; `string'
PUBLIC	??_C@_02GMHACPFF@?$CFu?$AA@			; `string'
PUBLIC	??_C@_07GECKFJJF@?$CFs?5?$DN?5?$CFu?$AA@	; `string'
PUBLIC	??_C@_04EHEKGOB@?$CF?43u?$AA@			; `string'
PUBLIC	??_C@_09MDIAGEEM@?$CFs?40x?$CF?42X?$AA@		; `string'
PUBLIC	??_C@_09MHANBIPO@?$CFs?40x?$CF?44X?$AA@		; `string'
PUBLIC	??_C@_09MOBHOBJK@?$CFs?40x?$CF?48X?$AA@		; `string'
PUBLIC	??_C@_0L@FNDHBDEH@?$CFs?40x?$CF?416X?$AA@	; `string'
PUBLIC	??_C@_05OKOCMAOB@?$CFs?4?$CFf?$AA@		; `string'
PUBLIC	??_C@_05MBMPJDCC@?$CFs?4?$CFe?$AA@		; `string'
PUBLIC	??_C@_07LKPPIONC@?$CFs?0?5?$CFd?3?$AA@		; `string'
PUBLIC	??_C@_0L@EBBAMLMD@?7?$DO?5?$CF?43d?5?$CFs?$AA@	; `string'
PUBLIC	??_C@_07DHPDHKIF@?$CFs?5?$DN?5?$CFd?$AA@	; `string'
PUBLIC	??_C@_0DD@MNMANIEP@?9?9?5WMI?0?5Catch?5unhndld?5excpetion?5@ ; `string'
PUBLIC	??_C@_0BI@NBKPEDCE@No?5properties?5processed?$AA@ ; `string'
PUBLIC	??_C@_0BI@GPOLMEPO@?$CFu?5properties?5processed?$AA@ ; `string'
PUBLIC	??_C@_0CD@BNKPFHB@Elapsed?5Time?3?5?$CF02d?3?$CF02d?3?$CF02d?0?5?$CFf@ ; `string'
PUBLIC	??_C@_0BB@INLDOGMP@?$DM?$DM?5WMI?0?5ret?5True?$AA@ ; `string'
PUBLIC	??_C@_0BC@BBPNDDPO@?$DO?$DO?5ThrdWMICls?0?5?$CFX?$AA@ ; `string'
PUBLIC	??_C@_0BK@MEBHLELC@?$DM?$DM?5ThrdWMICls?0?5Input?5null?$AA@ ; `string'
PUBLIC	??_C@_0BG@PNOFHJNO@SysStatus_?$CFs_?$CF?41d?4xml?$AA@ ; `string'
PUBLIC	??_C@_0BL@NMIGBPMF@ThrdWMICls?0?5Trying?5opng?5?$CFs?$AA@ ; `string'
PUBLIC	??_C@_0CB@MFKPEIAE@?9?9?5ThrdWMICls?0?5Last?5file?5fnd?3?5?$CFs@ ; `string'
PUBLIC	??_C@_0CJ@FDBGIAB@?9?9?5ThrdWMICls?0?5Removing?5?$CFs?5?9?5old@ ; `string'
PUBLIC	??_C@_0CB@FAJHAFKJ@?9?9?5ThrdWMICls?0?5Renaming?5?$CFs?5?9?$DO?5?$CFs@ ; `string'
PUBLIC	??_C@_0BD@CJNFHACM@SysStatus_?$CFs_0?4xml?$AA@	; `string'
PUBLIC	??_C@_0BB@PKMMABCD@SysStatus_?$CFs?4xml?$AA@	; `string'
PUBLIC	??_C@_0CB@FDOJEIA@?9?9?5ThrdWMICls?0?5Remaning?5?$CFs?5?9?$DO?5?$CFs@ ; `string'
PUBLIC	??_C@_0CM@DGGGCCBN@?$DM?$DM?5ThrdWMICls?0?5New?5XmlWriter?$CI?$CFs?$CJ@ ; `string'
PUBLIC	??_C@_0CI@IKNGLCAL@?$DM?$DM?5ThrdWMICls?0?5?$CFs?0?5?$CF02d?3?$CF02d?3?$CF02@ ; `string'
PUBLIC	??_C@_0P@IOMMKEOB@?$DO?$DO?5ThrdWMI?0?5In?$AA@	; `string'
PUBLIC	??_C@_0N@FBNILPME@HardwareInfo?$AA@		; `string'
PUBLIC	??_C@_0BF@MGDJDLAD@Hardware?5Information?$AA@	; `string'
PUBLIC	??_C@_0M@PNBJJAPO@DataStorage?$AA@		; `string'
PUBLIC	??_C@_0CA@BNLNLMID@Disk?5and?5Partitions?5Information?$AA@ ; `string'
PUBLIC	??_C@_06LEBJIAPJ@Memory?$AA@			; `string'
PUBLIC	??_C@_0BD@BGPGMIME@Memory?5Information?$AA@	; `string'
PUBLIC	??_C@_0L@NDINDOCK@SystemInfo?$AA@		; `string'
PUBLIC	??_C@_0BD@OJGHJHKA@System?5Information?$AA@	; `string'
PUBLIC	??_C@_07BGDMAJAE@Network?$AA@			; `string'
PUBLIC	??_C@_0BE@KDFOEONK@Network?5Information?$AA@	; `string'
PUBLIC	??_C@_0BH@IAHFOAM@UserAccountAndSecurity?$AA@	; `string'
PUBLIC	??_C@_0CG@BJFGJGFN@User?5Account?5and?5Security?5Inform@ ; `string'
PUBLIC	??_C@_09HCBPJCHD@Developer?$AA@			; `string'
PUBLIC	??_C@_0BG@KMFPDIMK@Developer?5Information?$AA@	; `string'
PUBLIC	??_C@_07HCOFHGI@Utility?$AA@			; `string'
PUBLIC	??_C@_0BE@DMCOJOJG@Utility?5Information?$AA@	; `string'
PUBLIC	??_C@_0BH@PEBHJHOI@ThrdWMI?0?5Waitg?5?$CFu?5thrs?$AA@ ; `string'
PUBLIC	??_C@_0CD@KILGIJLE@ThrdWMI?0?5Out?0?5?$CF02d?3?$CF02d?3?$CF02d?0?5?$CFf@ ; `string'
PUBLIC	??_C@_0O@FNHBIHHN@?$DO?$DO?5WMISysVols?$AA@	; `string'
PUBLIC	??_C@_0O@NMEDPGJL@?$DM?$DM?5WMISysVols?$AA@	; `string'
PUBLIC	??_C@_0O@JMIBPKNH@?$DO?$DO?5WMISysPerf?$AA@	; `string'
PUBLIC	??_C@_0O@BNLDILDB@?$DM?$DM?5WMISysPerf?$AA@	; `string'
PUBLIC	??_C@_0N@LKGAGMLJ@?$DO?$DO?5WMIHwSnsr?$AA@	; `string'
PUBLIC	??_C@_0N@DGAHEHGN@?$DM?$DM?5WMIHwSnsr?$AA@	; `string'
EXTRN	__imp__MultiByteToWideChar@24:PROC
EXTRN	__imp__CoUninitialize@0:PROC
EXTRN	__imp__CoInitializeEx@8:PROC
EXTRN	__imp__CoInitializeSecurity@36:PROC
EXTRN	__imp__CoSetProxyBlanket@32:PROC
EXTRN	__imp__CoCreateInstance@20:PROC
EXTRN	__imp__VariantClear@4:PROC
EXTRN	?ConvertStringToBSTR@_com_util@@YGPA_WPBD@Z:PROC ; _com_util::ConvertStringToBSTR
EXTRN	__imp__SysAllocString@4:PROC
EXTRN	?_com_issue_error@@YGXJ@Z:PROC			; _com_issue_error
EXTRN	__imp__InterlockedDecrement@4:PROC
EXTRN	__imp__SysFreeString@4:PROC
EXTRN	_IID_IWbemLocator:BYTE
EXTRN	_CLSID_WbemLocator:BYTE
EXTRN	__imp__SafeArrayGetVartype@8:PROC
EXTRN	__imp__SafeArrayDestroy@4:PROC
EXTRN	__imp__SafeArrayUnlock@4:PROC
EXTRN	__imp__SafeArrayLock@4:PROC
EXTRN	__imp__SafeArrayGetLBound@12:PROC
EXTRN	__imp__SafeArrayGetUBound@12:PROC
EXTRN	__imp__WaitForMultipleObjects@16:PROC
;	COMDAT ??_C@_0N@DGAHEHGN@?$DM?$DM?5WMIHwSnsr?$AA@
CONST	SEGMENT
??_C@_0N@DGAHEHGN@?$DM?$DM?5WMIHwSnsr?$AA@ DB '<< WMIHwSnsr', 00H ; `string'
CONST	ENDS
;	COMDAT ??_C@_0N@LKGAGMLJ@?$DO?$DO?5WMIHwSnsr?$AA@
CONST	SEGMENT
??_C@_0N@LKGAGMLJ@?$DO?$DO?5WMIHwSnsr?$AA@ DB '>> WMIHwSnsr', 00H ; `string'
CONST	ENDS
;	COMDAT ?VoltageProbe@?1??WMIHardwareSensor@@YAXXZ@4KA
_DATA	SEGMENT
?VoltageProbe@?1??WMIHardwareSensor@@YAXXZ@4KA DD 0ffffffffH ; `WMIHardwareSensor'::`2'::VoltageProbe
_DATA	ENDS
;	COMDAT ?TemperatureProbe@?1??WMIHardwareSensor@@YAXXZ@4KA
_DATA	SEGMENT
?TemperatureProbe@?1??WMIHardwareSensor@@YAXXZ@4KA DD 0ffffffffH ; `WMIHardwareSensor'::`2'::TemperatureProbe
_DATA	ENDS
;	COMDAT ?PortableBattery@?1??WMIHardwareSensor@@YAXXZ@4KA
_DATA	SEGMENT
?PortableBattery@?1??WMIHardwareSensor@@YAXXZ@4KA DD 0ffffffffH ; `WMIHardwareSensor'::`2'::PortableBattery
_DATA	ENDS
;	COMDAT ?CurrentProbe@?1??WMIHardwareSensor@@YAXXZ@4KA
_DATA	SEGMENT
?CurrentProbe@?1??WMIHardwareSensor@@YAXXZ@4KA DD 0ffffffffH ; `WMIHardwareSensor'::`2'::CurrentProbe
_DATA	ENDS
;	COMDAT ??_C@_0O@BNLDILDB@?$DM?$DM?5WMISysPerf?$AA@
CONST	SEGMENT
??_C@_0O@BNLDILDB@?$DM?$DM?5WMISysPerf?$AA@ DB '<< WMISysPerf', 00H ; `string'
CONST	ENDS
;	COMDAT ??_C@_0O@JMIBPKNH@?$DO?$DO?5WMISysPerf?$AA@
CONST	SEGMENT
??_C@_0O@JMIBPKNH@?$DO?$DO?5WMISysPerf?$AA@ DB '>> WMISysPerf', 00H ; `string'
CONST	ENDS
;	COMDAT ?PerfRawData_PerfOS_System@?1??WMISystemPerformance@@YAXXZ@4KA
_DATA	SEGMENT
?PerfRawData_PerfOS_System@?1??WMISystemPerformance@@YAXXZ@4KA DD 0ffffffffH ; `WMISystemPerformance'::`2'::PerfRawData_PerfOS_System
_DATA	ENDS
;	COMDAT ?PerfRawData_PerfOS_Processor@?1??WMISystemPerformance@@YAXXZ@4KA
_DATA	SEGMENT
?PerfRawData_PerfOS_Processor@?1??WMISystemPerformance@@YAXXZ@4KA DD 0ffffffffH ; `WMISystemPerformance'::`2'::PerfRawData_PerfOS_Processor
_DATA	ENDS
;	COMDAT ?PerfRawData_PerfOS_PagingFile@?1??WMISystemPerformance@@YAXXZ@4KA
_DATA	SEGMENT
?PerfRawData_PerfOS_PagingFile@?1??WMISystemPerformance@@YAXXZ@4KA DD 0ffffffffH ; `WMISystemPerformance'::`2'::PerfRawData_PerfOS_PagingFile
_DATA	ENDS
;	COMDAT ?PerfRawData_PerfOS_Objects@?1??WMISystemPerformance@@YAXXZ@4KA
_DATA	SEGMENT
?PerfRawData_PerfOS_Objects@?1??WMISystemPerformance@@YAXXZ@4KA DD 0ffffffffH ; `WMISystemPerformance'::`2'::PerfRawData_PerfOS_Objects
_DATA	ENDS
;	COMDAT ?PerfRawData_PerfOS_Memory@?1??WMISystemPerformance@@YAXXZ@4KA
_DATA	SEGMENT
?PerfRawData_PerfOS_Memory@?1??WMISystemPerformance@@YAXXZ@4KA DD 0ffffffffH ; `WMISystemPerformance'::`2'::PerfRawData_PerfOS_Memory
_DATA	ENDS
;	COMDAT ?PerfRawData_PerfOS_Cache@?1??WMISystemPerformance@@YAXXZ@4KA
_DATA	SEGMENT
?PerfRawData_PerfOS_Cache@?1??WMISystemPerformance@@YAXXZ@4KA DD 0ffffffffH ; `WMISystemPerformance'::`2'::PerfRawData_PerfOS_Cache
_DATA	ENDS
;	COMDAT ?PerfRawData_PerfNet_Redirector@?1??WMISystemPerformance@@YAXXZ@4KA
_DATA	SEGMENT
?PerfRawData_PerfNet_Redirector@?1??WMISystemPerformance@@YAXXZ@4KA DD 0ffffffffH ; `WMISystemPerformance'::`2'::PerfRawData_PerfNet_Redirector
_DATA	ENDS
;	COMDAT ?PerfRawData_PerfDisk_PhysicalDisk@?1??WMISystemPerformance@@YAXXZ@4KA
_DATA	SEGMENT
?PerfRawData_PerfDisk_PhysicalDisk@?1??WMISystemPerformance@@YAXXZ@4KA DD 0ffffffffH ; `WMISystemPerformance'::`2'::PerfRawData_PerfDisk_PhysicalDisk
_DATA	ENDS
;	COMDAT ??_C@_0O@NMEDPGJL@?$DM?$DM?5WMISysVols?$AA@
CONST	SEGMENT
??_C@_0O@NMEDPGJL@?$DM?$DM?5WMISysVols?$AA@ DB '<< WMISysVols', 00H ; `string'
CONST	ENDS
;	COMDAT ??_C@_0O@FNHBIHHN@?$DO?$DO?5WMISysVols?$AA@
CONST	SEGMENT
??_C@_0O@FNHBIHHN@?$DO?$DO?5WMISysVols?$AA@ DB '>> WMISysVols', 00H ; `string'
CONST	ENDS
;	COMDAT ?Volume@?1??WMISystemVolumes@@YAXXZ@4KA
_DATA	SEGMENT
?Volume@?1??WMISystemVolumes@@YAXXZ@4KA DD 0ffffffffH	; `WMISystemVolumes'::`2'::Volume
_DATA	ENDS
;	COMDAT ??_C@_0CD@KILGIJLE@ThrdWMI?0?5Out?0?5?$CF02d?3?$CF02d?3?$CF02d?0?5?$CFf@
CONST	SEGMENT
??_C@_0CD@KILGIJLE@ThrdWMI?0?5Out?0?5?$CF02d?3?$CF02d?3?$CF02d?0?5?$CFf@ DB 'T'
	DB	'hrdWMI, Out, %02d:%02d:%02d, %f s', 00H	; `string'
CONST	ENDS
;	COMDAT ??_C@_0BH@PEBHJHOI@ThrdWMI?0?5Waitg?5?$CFu?5thrs?$AA@
CONST	SEGMENT
??_C@_0BH@PEBHJHOI@ThrdWMI?0?5Waitg?5?$CFu?5thrs?$AA@ DB 'ThrdWMI, Waitg '
	DB	'%u thrs', 00H				; `string'
CONST	ENDS
;	COMDAT ??_C@_0BE@DMCOJOJG@Utility?5Information?$AA@
CONST	SEGMENT
??_C@_0BE@DMCOJOJG@Utility?5Information?$AA@ DB 'Utility Information', 00H ; `string'
CONST	ENDS
;	COMDAT ??_C@_07HCOFHGI@Utility?$AA@
CONST	SEGMENT
??_C@_07HCOFHGI@Utility?$AA@ DB 'Utility', 00H		; `string'
CONST	ENDS
;	COMDAT ??_C@_0BG@KMFPDIMK@Developer?5Information?$AA@
CONST	SEGMENT
??_C@_0BG@KMFPDIMK@Developer?5Information?$AA@ DB 'Developer Information', 00H ; `string'
CONST	ENDS
;	COMDAT ??_C@_09HCBPJCHD@Developer?$AA@
CONST	SEGMENT
??_C@_09HCBPJCHD@Developer?$AA@ DB 'Developer', 00H	; `string'
CONST	ENDS
;	COMDAT ??_C@_0CG@BJFGJGFN@User?5Account?5and?5Security?5Inform@
CONST	SEGMENT
??_C@_0CG@BJFGJGFN@User?5Account?5and?5Security?5Inform@ DB 'User Account'
	DB	' and Security Information', 00H		; `string'
CONST	ENDS
;	COMDAT ??_C@_0BH@IAHFOAM@UserAccountAndSecurity?$AA@
CONST	SEGMENT
??_C@_0BH@IAHFOAM@UserAccountAndSecurity?$AA@ DB 'UserAccountAndSecurity', 00H ; `string'
CONST	ENDS
;	COMDAT ??_C@_0BE@KDFOEONK@Network?5Information?$AA@
CONST	SEGMENT
??_C@_0BE@KDFOEONK@Network?5Information?$AA@ DB 'Network Information', 00H ; `string'
CONST	ENDS
;	COMDAT ??_C@_07BGDMAJAE@Network?$AA@
CONST	SEGMENT
??_C@_07BGDMAJAE@Network?$AA@ DB 'Network', 00H		; `string'
CONST	ENDS
;	COMDAT ??_C@_0BD@OJGHJHKA@System?5Information?$AA@
CONST	SEGMENT
??_C@_0BD@OJGHJHKA@System?5Information?$AA@ DB 'System Information', 00H ; `string'
CONST	ENDS
;	COMDAT ??_C@_0L@NDINDOCK@SystemInfo?$AA@
CONST	SEGMENT
??_C@_0L@NDINDOCK@SystemInfo?$AA@ DB 'SystemInfo', 00H	; `string'
CONST	ENDS
;	COMDAT ??_C@_0BD@BGPGMIME@Memory?5Information?$AA@
CONST	SEGMENT
??_C@_0BD@BGPGMIME@Memory?5Information?$AA@ DB 'Memory Information', 00H ; `string'
CONST	ENDS
;	COMDAT ??_C@_06LEBJIAPJ@Memory?$AA@
CONST	SEGMENT
??_C@_06LEBJIAPJ@Memory?$AA@ DB 'Memory', 00H		; `string'
CONST	ENDS
;	COMDAT ??_C@_0CA@BNLNLMID@Disk?5and?5Partitions?5Information?$AA@
CONST	SEGMENT
??_C@_0CA@BNLNLMID@Disk?5and?5Partitions?5Information?$AA@ DB 'Disk and P'
	DB	'artitions Information', 00H			; `string'
CONST	ENDS
;	COMDAT ??_C@_0M@PNBJJAPO@DataStorage?$AA@
CONST	SEGMENT
??_C@_0M@PNBJJAPO@DataStorage?$AA@ DB 'DataStorage', 00H ; `string'
CONST	ENDS
;	COMDAT ??_C@_0BF@MGDJDLAD@Hardware?5Information?$AA@
CONST	SEGMENT
??_C@_0BF@MGDJDLAD@Hardware?5Information?$AA@ DB 'Hardware Information', 00H ; `string'
CONST	ENDS
;	COMDAT ??_C@_0N@FBNILPME@HardwareInfo?$AA@
CONST	SEGMENT
??_C@_0N@FBNILPME@HardwareInfo?$AA@ DB 'HardwareInfo', 00H ; `string'
CONST	ENDS
;	COMDAT ??_C@_0P@IOMMKEOB@?$DO?$DO?5ThrdWMI?0?5In?$AA@
CONST	SEGMENT
??_C@_0P@IOMMKEOB@?$DO?$DO?5ThrdWMI?0?5In?$AA@ DB '>> ThrdWMI, In', 00H ; `string'
CONST	ENDS
;	COMDAT ??_C@_0CI@IKNGLCAL@?$DM?$DM?5ThrdWMICls?0?5?$CFs?0?5?$CF02d?3?$CF02d?3?$CF02@
CONST	SEGMENT
??_C@_0CI@IKNGLCAL@?$DM?$DM?5ThrdWMICls?0?5?$CFs?0?5?$CF02d?3?$CF02d?3?$CF02@ DB '<'
	DB	'< ThrdWMICls, %s, %02d:%02d:%02d, %f s', 00H ; `string'
CONST	ENDS
;	COMDAT ??_C@_0CM@DGGGCCBN@?$DM?$DM?5ThrdWMICls?0?5New?5XmlWriter?$CI?$CFs?$CJ@
CONST	SEGMENT
??_C@_0CM@DGGGCCBN@?$DM?$DM?5ThrdWMICls?0?5New?5XmlWriter?$CI?$CFs?$CJ@ DB '<'
	DB	'< ThrdWMICls, New XmlWriter(%s) class null', 00H ; `string'
CONST	ENDS
;	COMDAT ??_C@_0CB@FDOJEIA@?9?9?5ThrdWMICls?0?5Remaning?5?$CFs?5?9?$DO?5?$CFs@
CONST	SEGMENT
??_C@_0CB@FDOJEIA@?9?9?5ThrdWMICls?0?5Remaning?5?$CFs?5?9?$DO?5?$CFs@ DB '-'
	DB	'- ThrdWMICls, Remaning %s -> %s', 00H	; `string'
CONST	ENDS
;	COMDAT ??_C@_0BB@PKMMABCD@SysStatus_?$CFs?4xml?$AA@
CONST	SEGMENT
??_C@_0BB@PKMMABCD@SysStatus_?$CFs?4xml?$AA@ DB 'SysStatus_%s.xml', 00H ; `string'
CONST	ENDS
;	COMDAT ??_C@_0BD@CJNFHACM@SysStatus_?$CFs_0?4xml?$AA@
CONST	SEGMENT
??_C@_0BD@CJNFHACM@SysStatus_?$CFs_0?4xml?$AA@ DB 'SysStatus_%s_0.xml', 00H ; `string'
CONST	ENDS
;	COMDAT ??_C@_0CB@FAJHAFKJ@?9?9?5ThrdWMICls?0?5Renaming?5?$CFs?5?9?$DO?5?$CFs@
CONST	SEGMENT
??_C@_0CB@FAJHAFKJ@?9?9?5ThrdWMICls?0?5Renaming?5?$CFs?5?9?$DO?5?$CFs@ DB '-'
	DB	'- ThrdWMICls, Renaming %s -> %s', 00H	; `string'
CONST	ENDS
;	COMDAT ??_C@_0CJ@FDBGIAB@?9?9?5ThrdWMICls?0?5Removing?5?$CFs?5?9?5old@
CONST	SEGMENT
??_C@_0CJ@FDBGIAB@?9?9?5ThrdWMICls?0?5Removing?5?$CFs?5?9?5old@ DB '-- Th'
	DB	'rdWMICls, Removing %s - oldest file', 00H	; `string'
CONST	ENDS
;	COMDAT ??_C@_0CB@MFKPEIAE@?9?9?5ThrdWMICls?0?5Last?5file?5fnd?3?5?$CFs@
CONST	SEGMENT
??_C@_0CB@MFKPEIAE@?9?9?5ThrdWMICls?0?5Last?5file?5fnd?3?5?$CFs@ DB '-- T'
	DB	'hrdWMICls, Last file fnd: %s', 00H		; `string'
CONST	ENDS
;	COMDAT ??_C@_0BL@NMIGBPMF@ThrdWMICls?0?5Trying?5opng?5?$CFs?$AA@
CONST	SEGMENT
??_C@_0BL@NMIGBPMF@ThrdWMICls?0?5Trying?5opng?5?$CFs?$AA@ DB 'ThrdWMICls,'
	DB	' Trying opng %s', 00H			; `string'
CONST	ENDS
;	COMDAT ??_C@_0BG@PNOFHJNO@SysStatus_?$CFs_?$CF?41d?4xml?$AA@
CONST	SEGMENT
??_C@_0BG@PNOFHJNO@SysStatus_?$CFs_?$CF?41d?4xml?$AA@ DB 'SysStatus_%s_%.'
	DB	'1d.xml', 00H				; `string'
CONST	ENDS
;	COMDAT ??_C@_0BK@MEBHLELC@?$DM?$DM?5ThrdWMICls?0?5Input?5null?$AA@
CONST	SEGMENT
??_C@_0BK@MEBHLELC@?$DM?$DM?5ThrdWMICls?0?5Input?5null?$AA@ DB '<< ThrdWM'
	DB	'ICls, Input null', 00H			; `string'
CONST	ENDS
;	COMDAT ??_C@_0BC@BBPNDDPO@?$DO?$DO?5ThrdWMICls?0?5?$CFX?$AA@
CONST	SEGMENT
??_C@_0BC@BBPNDDPO@?$DO?$DO?5ThrdWMICls?0?5?$CFX?$AA@ DB '>> ThrdWMICls, '
	DB	'%X', 00H					; `string'
CONST	ENDS
;	COMDAT ??_C@_0BB@INLDOGMP@?$DM?$DM?5WMI?0?5ret?5True?$AA@
CONST	SEGMENT
??_C@_0BB@INLDOGMP@?$DM?$DM?5WMI?0?5ret?5True?$AA@ DB '<< WMI, ret True', 00H ; `string'
CONST	ENDS
;	COMDAT ??_C@_0CD@BNKPFHB@Elapsed?5Time?3?5?$CF02d?3?$CF02d?3?$CF02d?0?5?$CFf@
CONST	SEGMENT
??_C@_0CD@BNKPFHB@Elapsed?5Time?3?5?$CF02d?3?$CF02d?3?$CF02d?0?5?$CFf@ DB 'E'
	DB	'lapsed Time: %02d:%02d:%02d, %f s', 00H	; `string'
CONST	ENDS
;	COMDAT ??_C@_0BI@GPOLMEPO@?$CFu?5properties?5processed?$AA@
CONST	SEGMENT
??_C@_0BI@GPOLMEPO@?$CFu?5properties?5processed?$AA@ DB '%u properties pr'
	DB	'ocessed', 00H				; `string'
CONST	ENDS
;	COMDAT ??_C@_0BI@NBKPEDCE@No?5properties?5processed?$AA@
CONST	SEGMENT
??_C@_0BI@NBKPEDCE@No?5properties?5processed?$AA@ DB 'No properties proce'
	DB	'ssed', 00H					; `string'
CONST	ENDS
;	COMDAT ??_C@_0DD@MNMANIEP@?9?9?5WMI?0?5Catch?5unhndld?5excpetion?5@
CONST	SEGMENT
??_C@_0DD@MNMANIEP@?9?9?5WMI?0?5Catch?5unhndld?5excpetion?5@ DB '-- WMI, '
	DB	'Catch unhndld excpetion on %.5u %s (%i) %s', 00H ; `string'
CONST	ENDS
;	COMDAT ??_C@_07DHPDHKIF@?$CFs?5?$DN?5?$CFd?$AA@
CONST	SEGMENT
??_C@_07DHPDHKIF@?$CFs?5?$DN?5?$CFd?$AA@ DB '%s = %d', 00H ; `string'
CONST	ENDS
;	COMDAT ??_C@_0L@EBBAMLMD@?7?$DO?5?$CF?43d?5?$CFs?$AA@
CONST	SEGMENT
??_C@_0L@EBBAMLMD@?7?$DO?5?$CF?43d?5?$CFs?$AA@ DB 09H, '> %.3d %s', 00H ; `string'
CONST	ENDS
;	COMDAT ??_C@_07LKPPIONC@?$CFs?0?5?$CFd?3?$AA@
CONST	SEGMENT
??_C@_07LKPPIONC@?$CFs?0?5?$CFd?3?$AA@ DB '%s, %d:', 00H ; `string'
CONST	ENDS
;	COMDAT ??_C@_05MBMPJDCC@?$CFs?4?$CFe?$AA@
CONST	SEGMENT
??_C@_05MBMPJDCC@?$CFs?4?$CFe?$AA@ DB '%s.%e', 00H	; `string'
CONST	ENDS
;	COMDAT ??_C@_05OKOCMAOB@?$CFs?4?$CFf?$AA@
CONST	SEGMENT
??_C@_05OKOCMAOB@?$CFs?4?$CFf?$AA@ DB '%s.%f', 00H	; `string'
CONST	ENDS
;	COMDAT ??_C@_0L@FNDHBDEH@?$CFs?40x?$CF?416X?$AA@
CONST	SEGMENT
??_C@_0L@FNDHBDEH@?$CFs?40x?$CF?416X?$AA@ DB '%s.0x%.16X', 00H ; `string'
CONST	ENDS
;	COMDAT ??_C@_09MOBHOBJK@?$CFs?40x?$CF?48X?$AA@
CONST	SEGMENT
??_C@_09MOBHOBJK@?$CFs?40x?$CF?48X?$AA@ DB '%s.0x%.8X', 00H ; `string'
CONST	ENDS
;	COMDAT ??_C@_09MHANBIPO@?$CFs?40x?$CF?44X?$AA@
CONST	SEGMENT
??_C@_09MHANBIPO@?$CFs?40x?$CF?44X?$AA@ DB '%s.0x%.4X', 00H ; `string'
CONST	ENDS
;	COMDAT ??_C@_09MDIAGEEM@?$CFs?40x?$CF?42X?$AA@
CONST	SEGMENT
??_C@_09MDIAGEEM@?$CFs?40x?$CF?42X?$AA@ DB '%s.0x%.2X', 00H ; `string'
CONST	ENDS
;	COMDAT ??_C@_04EHEKGOB@?$CF?43u?$AA@
CONST	SEGMENT
??_C@_04EHEKGOB@?$CF?43u?$AA@ DB '%.3u', 00H		; `string'
CONST	ENDS
;	COMDAT ??_C@_07GECKFJJF@?$CFs?5?$DN?5?$CFu?$AA@
CONST	SEGMENT
??_C@_07GECKFJJF@?$CFs?5?$DN?5?$CFu?$AA@ DB '%s = %u', 00H ; `string'
CONST	ENDS
;	COMDAT ??_C@_02GMHACPFF@?$CFu?$AA@
CONST	SEGMENT
??_C@_02GMHACPFF@?$CFu?$AA@ DB '%u', 00H		; `string'
CONST	ENDS
;	COMDAT ??_C@_07DCHAPOBD@?$CFs?5?$DN?5?$CFs?$AA@
CONST	SEGMENT
??_C@_07DCHAPOBD@?$CFs?5?$DN?5?$CFs?$AA@ DB '%s = %s', 00H ; `string'
CONST	ENDS
;	COMDAT ??_C@_07COOIELME@?$CFs?5?$DN?5?$CFe?$AA@
CONST	SEGMENT
??_C@_07COOIELME@?$CFs?5?$DN?5?$CFe?$AA@ DB '%s = %e', 00H ; `string'
CONST	ENDS
;	COMDAT ??_C@_02CGLCDNAE@?$CFe?$AA@
CONST	SEGMENT
??_C@_02CGLCDNAE@?$CFe?$AA@ DB '%e', 00H		; `string'
CONST	ENDS
;	COMDAT ??_C@_07FMFBIAH@?$CFs?5?$DN?5?$CFf?$AA@
CONST	SEGMENT
??_C@_07FMFBIAH@?$CFs?5?$DN?5?$CFf?$AA@ DB '%s = %f', 00H ; `string'
CONST	ENDS
;	COMDAT ??_C@_02NJPGOMH@?$CFf?$AA@
CONST	SEGMENT
??_C@_02NJPGOMH@?$CFf?$AA@ DB '%f', 00H			; `string'
CONST	ENDS
;	COMDAT ??_C@_0N@PNKHAPAI@?$CFs?5?$DN?50x?$CF?416X?$AA@
CONST	SEGMENT
??_C@_0N@PNKHAPAI@?$CFs?5?$DN?50x?$CF?416X?$AA@ DB '%s = 0x%.16X', 00H ; `string'
CONST	ENDS
;	COMDAT ??_C@_07PDBEDJPN@0x?$CF?416X?$AA@
CONST	SEGMENT
??_C@_07PDBEDJPN@0x?$CF?416X?$AA@ DB '0x%.16X', 00H	; `string'
CONST	ENDS
;	COMDAT ??_C@_0M@FEOJNGHK@?$CFs?5?$DN?50x?$CF?48X?$AA@
CONST	SEGMENT
??_C@_0M@FEOJNGHK@?$CFs?5?$DN?50x?$CF?48X?$AA@ DB '%s = 0x%.8X', 00H ; `string'
CONST	ENDS
;	COMDAT ??_C@_06DMFHBBHC@0x?$CF?48X?$AA@
CONST	SEGMENT
??_C@_06DMFHBBHC@0x?$CF?48X?$AA@ DB '0x%.8X', 00H	; `string'
CONST	ENDS
;	COMDAT ??_C@_0M@FNPDCPBO@?$CFs?5?$DN?50x?$CF?44X?$AA@
CONST	SEGMENT
??_C@_0M@FNPDCPBO@?$CFs?5?$DN?50x?$CF?44X?$AA@ DB '%s = 0x%.4X', 00H ; `string'
CONST	ENDS
;	COMDAT ??_C@_06DFENOIBG@0x?$CF?44X?$AA@
CONST	SEGMENT
??_C@_06DFENOIBG@0x?$CF?44X?$AA@ DB '0x%.4X', 00H	; `string'
CONST	ENDS
;	COMDAT ??_C@_0M@FJHOFDKM@?$CFs?5?$DN?50x?$CF?42X?$AA@
CONST	SEGMENT
??_C@_0M@FJHOFDKM@?$CFs?5?$DN?50x?$CF?42X?$AA@ DB '%s = 0x%.2X', 00H ; `string'
CONST	ENDS
;	COMDAT ??_C@_06DBMAJEKE@0x?$CF?42X?$AA@
CONST	SEGMENT
??_C@_06DBMAJEKE@0x?$CF?42X?$AA@ DB '0x%.2X', 00H	; `string'
CONST	ENDS
;	COMDAT ??_C@_0CD@FEICJBGP@?9?9?5WMI?0?5Processing?5?$CF?45u?5?$CFs?5?$CI?$CFi?$CJ?5@
CONST	SEGMENT
??_C@_0CD@FEICJBGP@?9?9?5WMI?0?5Processing?5?$CF?45u?5?$CFs?5?$CI?$CFi?$CJ?5@ DB '-'
	DB	'- WMI, Processing %.5u %s (%i) %s', 00H	; `string'
CONST	ENDS
;	COMDAT ??_C@_0CE@EKEEEJHG@?9?9?5WMI?0?5Query?5for?5?$CFs?5failed?0?50x?$CF@
CONST	SEGMENT
??_C@_0CE@EKEEEJHG@?9?9?5WMI?0?5Query?5for?5?$CFs?5failed?0?50x?$CF@ DB '-'
	DB	'- WMI, Query for %s failed, 0x%.8x', 00H	; `string'
CONST	ENDS
;	COMDAT ??_C@_03LJNDFDHG@WQL?$AA@
CONST	SEGMENT
??_C@_03LJNDFDHG@WQL?$AA@ DB 'WQL', 00H			; `string'
CONST	ENDS
;	COMDAT ??_C@_0CD@LDAAPKBB@?9?9?5WMI?0?5Querying?5properties?5for?5@
CONST	SEGMENT
??_C@_0CD@LDAAPKBB@?9?9?5WMI?0?5Querying?5properties?5for?5@ DB '-- WMI, '
	DB	'Querying properties for %s', 00H		; `string'
CONST	ENDS
;	COMDAT ??_C@_0BB@MNPFNNGI@SELECT?5?$CK?5FROM?5?$CFs?$AA@
CONST	SEGMENT
??_C@_0BB@MNPFNNGI@SELECT?5?$CK?5FROM?5?$CFs?$AA@ DB 'SELECT * FROM %s', 00H ; `string'
CONST	ENDS
;	COMDAT ??_C@_0CM@PEEMIANH@?$DM?$DM?5WMI?0?5Could?5not?5set?5proxy?5blan@
CONST	SEGMENT
??_C@_0CM@PEEMIANH@?$DM?$DM?5WMI?0?5Could?5not?5set?5proxy?5blan@ DB '<< '
	DB	'WMI, Could not set proxy blanket, 0x%.8x', 00H ; `string'
CONST	ENDS
;	COMDAT ??_C@_0CO@HCPFANAN@?9?9?5WMI?0?5Connected?5to?5ROOT?2CIMV2?5@
CONST	SEGMENT
??_C@_0CO@HCPFANAN@?9?9?5WMI?0?5Connected?5to?5ROOT?2CIMV2?5@ DB '-- WMI,'
	DB	' Connected to ROOT\CIMV2 WMI namespace', 00H ; `string'
CONST	ENDS
;	COMDAT ??_C@_0CC@BGNNPBKC@?$DM?$DM?5WMI?0?5Could?5not?5connect?0?50x?$CF?48@
CONST	SEGMENT
??_C@_0CC@BGNNPBKC@?$DM?$DM?5WMI?0?5Could?5not?5connect?0?50x?$CF?48@ DB '<'
	DB	'< WMI, Could not connect, 0x%.8x', 00H	; `string'
CONST	ENDS
;	COMDAT ??_C@_1BG@BJADHBOD@?$AAR?$AAO?$AAO?$AAT?$AA?2?$AAC?$AAI?$AAM?$AAV?$AA2?$AA?$AA@
CONST	SEGMENT
??_C@_1BG@BJADHBOD@?$AAR?$AAO?$AAO?$AAT?$AA?2?$AAC?$AAI?$AAM?$AAV?$AA2?$AA?$AA@ DB 'R'
	DB	00H, 'O', 00H, 'O', 00H, 'T', 00H, '\', 00H, 'C', 00H, 'I', 00H
	DB	'M', 00H, 'V', 00H, '2', 00H, 00H, 00H	; `string'
CONST	ENDS
;	COMDAT ??_C@_0DE@HCGLOFPJ@?$DM?$DM?5WMI?0?5Failed?5to?5create?5IWbemLo@
CONST	SEGMENT
??_C@_0DE@HCGLOFPJ@?$DM?$DM?5WMI?0?5Failed?5to?5create?5IWbemLo@ DB '<< W'
	DB	'MI, Failed to create IWbemLocator object,0x%.8x', 00H ; `string'
CONST	ENDS
;	COMDAT ??_C@_0CO@MICKHOIN@?$DM?$DM?5WMI?0?5Failed?5to?5initialize?5sec@
CONST	SEGMENT
??_C@_0CO@MICKHOIN@?$DM?$DM?5WMI?0?5Failed?5to?5initialize?5sec@ DB '<< W'
	DB	'MI, Failed to initialize security, 0x%.8x', 00H ; `string'
CONST	ENDS
;	COMDAT ??_C@_0DB@MKNIEHI@?$DM?$DM?5WMI?0?5Failed?5to?5initialize?5COM@
CONST	SEGMENT
??_C@_0DB@MKNIEHI@?$DM?$DM?5WMI?0?5Failed?5to?5initialize?5COM@ DB '<< WM'
	DB	'I, Failed to initialize COM library, 0x%.8X', 00H ; `string'
CONST	ENDS
;	COMDAT ??_C@_0BJ@CAANICIM@?$DM?$DM?5WMI?0?5?$CFs?5Mutex?5timeout?$AA@
CONST	SEGMENT
??_C@_0BJ@CAANICIM@?$DM?$DM?5WMI?0?5?$CFs?5Mutex?5timeout?$AA@ DB '<< WMI'
	DB	', %s Mutex timeout', 00H			; `string'
CONST	ENDS
;	COMDAT ??_C@_0BE@FCECJKPH@SysStatus_WMI_Mutex?$AA@
CONST	SEGMENT
??_C@_0BE@FCECJKPH@SysStatus_WMI_Mutex?$AA@ DB 'SysStatus_WMI_Mutex', 00H ; `string'
CONST	ENDS
;	COMDAT ??_C@_0BH@MIMIOLHO@?$DM?$DM?5WMI?0?5Inv?5class?5name?$AA@
CONST	SEGMENT
??_C@_0BH@MIMIOLHO@?$DM?$DM?5WMI?0?5Inv?5class?5name?$AA@ DB '<< WMI, Inv'
	DB	' class name', 00H				; `string'
CONST	ENDS
;	COMDAT ??_C@_0L@NGFAGIOG@?$DO?$DO?5WMI?0?5?$CFs?$AA@
CONST	SEGMENT
??_C@_0L@NGFAGIOG@?$DO?$DO?5WMI?0?5?$CFs?$AA@ DB '>> WMI, %s', 00H ; `string'
CONST	ENDS
;	COMDAT __TI1?AVCAtlException@ATL@@
xdata$x	SEGMENT
__TI1?AVCAtlException@ATL@@ DD 00H
	DD	00H
	DD	00H
	DD	FLAT:__CTA1?AVCAtlException@ATL@@
xdata$x	ENDS
;	COMDAT __CTA1?AVCAtlException@ATL@@
xdata$x	SEGMENT
__CTA1?AVCAtlException@ATL@@ DD 01H
	DD	FLAT:__CT??_R0?AVCAtlException@ATL@@@84
xdata$x	ENDS
;	COMDAT __CT??_R0?AVCAtlException@ATL@@@84
xdata$x	SEGMENT
__CT??_R0?AVCAtlException@ATL@@@84 DD 00H
	DD	FLAT:??_R0?AVCAtlException@ATL@@@8
	DD	00H
	DD	0ffffffffH
	ORG $+4
	DD	04H
	DD	00H
xdata$x	ENDS
;	COMDAT ??_R0?AVCAtlException@ATL@@@8
_DATA	SEGMENT
??_R0?AVCAtlException@ATL@@@8 DD FLAT:??_7type_info@@6B@ ; ATL::CAtlException `RTTI Type Descriptor'
	DD	00H
	DB	'.?AVCAtlException@ATL@@', 00H
__bad_alloc_Message DD FLAT:??_C@_0P@GHFPNOJB@bad?5allocation?$AA@
_wmiClasses DD	FLAT:??_C@_0BF@GIOJHHEG@Win32_1394Controller?$AA@
	DD	FLAT:??_C@_04FABLJDN@Name?$AA@
	DD	FLAT:??_C@_0BF@GIOJHHEG@Win32_1394Controller?$AA@
	DD	FLAT:??_C@_0M@HHJKGII@PNPDeviceID?$AA@
	DD	FLAT:??_C@_0BF@GIOJHHEG@Win32_1394Controller?$AA@
	DD	FLAT:??_C@_08JLPEJKOE@DeviceID?$AA@
	DD	FLAT:??_C@_0BF@GIOJHHEG@Win32_1394Controller?$AA@
	DD	FLAT:??_C@_0N@BBNLMPJO@Manufacturer?$AA@
	DD	FLAT:??_C@_0BF@GIOJHHEG@Win32_1394Controller?$AA@
	DD	FLAT:??_C@_0N@MFGCECDI@Availability?$AA@
	DD	FLAT:??_C@_0BF@GIOJHHEG@Win32_1394Controller?$AA@
	DD	FLAT:??_C@_07OJKFJLLK@Caption?$AA@
	DD	FLAT:??_C@_0BF@GIOJHHEG@Win32_1394Controller?$AA@
	DD	FLAT:??_C@_0BH@JDEEEDCN@ConfigManagerErrorCode?$AA@
	DD	FLAT:??_C@_0BF@GIOJHHEG@Win32_1394Controller?$AA@
	DD	FLAT:??_C@_0BI@OBNCDCBF@ConfigManagerUserConfig?$AA@
	DD	FLAT:??_C@_0BF@GIOJHHEG@Win32_1394Controller?$AA@
	DD	FLAT:??_C@_0M@OHKMKKDH@Description?$AA@
	DD	FLAT:??_C@_0BF@GIOJHHEG@Win32_1394Controller?$AA@
	DD	FLAT:??_C@_0N@FJHLDHMG@ErrorCleared?$AA@
	DD	FLAT:??_C@_0BF@GIOJHHEG@Win32_1394Controller?$AA@
	DD	FLAT:??_C@_0BB@KIDBLMK@ErrorDescription?$AA@
	DD	FLAT:??_C@_0BF@GIOJHHEG@Win32_1394Controller?$AA@
	DD	FLAT:??_C@_0M@NBIJNNJJ@InstallDate?$AA@
	DD	FLAT:??_C@_0BF@GIOJHHEG@Win32_1394Controller?$AA@
	DD	FLAT:??_C@_0O@NDKHIJAE@LastErrorCode?$AA@
	DD	FLAT:??_C@_0BF@GIOJHHEG@Win32_1394Controller?$AA@
	DD	FLAT:??_C@_0BE@JDLAPHJE@MaxNumberControlled?$AA@
	DD	FLAT:??_C@_0BF@GIOJHHEG@Win32_1394Controller?$AA@
	DD	FLAT:??_C@_0BM@NFDEHNHA@PowerManagementCapabilities?$AA@
	DD	FLAT:??_C@_0BF@GIOJHHEG@Win32_1394Controller?$AA@
	DD	FLAT:??_C@_0BJ@CFOPGMLH@PowerManagementSupported?$AA@
	DD	FLAT:??_C@_0BF@GIOJHHEG@Win32_1394Controller?$AA@
	DD	FLAT:??_C@_0BC@JHPOAJCM@ProtocolSupported?$AA@
	DD	FLAT:??_C@_0BF@GIOJHHEG@Win32_1394Controller?$AA@
	DD	FLAT:??_C@_06PGDKHFME@Status?$AA@
	DD	FLAT:??_C@_0BF@GIOJHHEG@Win32_1394Controller?$AA@
	DD	FLAT:??_C@_0L@PKEHCAEI@StatusInfo?$AA@
	DD	FLAT:??_C@_0BF@GIOJHHEG@Win32_1394Controller?$AA@
	DD	FLAT:??_C@_0BA@HADKHLAI@TimeOfLastReset?$AA@
	DD	FLAT:??_C@_0BA@FKIDHCEN@Win32_BaseBoard?$AA@
	DD	FLAT:??_C@_03PJHNOEGB@Tag?$AA@
	DD	FLAT:??_C@_0BA@FKIDHCEN@Win32_BaseBoard?$AA@
	DD	FLAT:??_C@_07HMDPOHHF@Product?$AA@
	DD	FLAT:??_C@_0BA@FKIDHCEN@Win32_BaseBoard?$AA@
	DD	FLAT:??_C@_0N@BBNLMPJO@Manufacturer?$AA@
	DD	FLAT:??_C@_0BA@FKIDHCEN@Win32_BaseBoard?$AA@
	DD	FLAT:??_C@_05NFIJOKEG@Model?$AA@
	DD	FLAT:??_C@_0BA@FKIDHCEN@Win32_BaseBoard?$AA@
	DD	FLAT:??_C@_07NGFJPNPN@Version?$AA@
	DD	FLAT:??_C@_0BA@FKIDHCEN@Win32_BaseBoard?$AA@
	DD	FLAT:??_C@_0O@GLLHAKAI@ConfigOptions?$AA@
	DD	FLAT:??_C@_0BA@FKIDHCEN@Win32_BaseBoard?$AA@
	DD	FLAT:??_C@_05BOMFGPKE@Depth?$AA@
	DD	FLAT:??_C@_0BA@FKIDHCEN@Win32_BaseBoard?$AA@
	DD	FLAT:??_C@_06HCAKHJJK@Height?$AA@
	DD	FLAT:??_C@_0BA@FKIDHCEN@Win32_BaseBoard?$AA@
	DD	FLAT:??_C@_06ODJMJFLN@Weight?$AA@
	DD	FLAT:??_C@_0BA@FKIDHCEN@Win32_BaseBoard?$AA@
	DD	FLAT:??_C@_05IBAMDCFI@Width?$AA@
	DD	FLAT:??_C@_0BA@FKIDHCEN@Win32_BaseBoard?$AA@
	DD	FLAT:??_C@_0N@CCJNCHMP@HostingBoard?$AA@
	DD	FLAT:??_C@_0BA@FKIDHCEN@Win32_BaseBoard?$AA@
	DD	FLAT:??_C@_0N@FCOIALPI@HotSwappable?$AA@
	DD	FLAT:??_C@_0BA@FKIDHCEN@Win32_BaseBoard?$AA@
	DD	FLAT:??_C@_0M@NBIJNNJJ@InstallDate?$AA@
	DD	FLAT:??_C@_0BA@FKIDHCEN@Win32_BaseBoard?$AA@
	DD	FLAT:??_C@_0BF@DMENANMJ@OtherIdentifyingInfo?$AA@
	DD	FLAT:??_C@_0BA@FKIDHCEN@Win32_BaseBoard?$AA@
	DD	FLAT:??_C@_0L@MIOPIENN@PartNumber?$AA@
	DD	FLAT:??_C@_0BA@FKIDHCEN@Win32_BaseBoard?$AA@
	DD	FLAT:??_C@_09HKGEBMAI@PoweredOn?$AA@
	DD	FLAT:??_C@_0BA@FKIDHCEN@Win32_BaseBoard?$AA@
	DD	FLAT:??_C@_09DADBKOHO@Removable?$AA@
	DD	FLAT:??_C@_0BA@FKIDHCEN@Win32_BaseBoard?$AA@
	DD	FLAT:??_C@_0M@KLOLJEDG@Replaceable?$AA@
	DD	FLAT:??_C@_0BA@FKIDHCEN@Win32_BaseBoard?$AA@
	DD	FLAT:??_C@_0BI@NLNEBFOD@RequirementsDescription?$AA@
	DD	FLAT:??_C@_0BA@FKIDHCEN@Win32_BaseBoard?$AA@
	DD	FLAT:??_C@_0BG@KNNEFNEE@RequiresDaughterBoard?$AA@
	DD	FLAT:??_C@_0BA@FKIDHCEN@Win32_BaseBoard?$AA@
	DD	FLAT:??_C@_0N@FPJJBBNM@SerialNumber?$AA@
	DD	FLAT:??_C@_0BA@FKIDHCEN@Win32_BaseBoard?$AA@
	DD	FLAT:??_C@_03LMAAELJP@SKU?$AA@
	DD	FLAT:??_C@_0BA@FKIDHCEN@Win32_BaseBoard?$AA@
	DD	FLAT:??_C@_0L@NLNCHAIH@SlotLayout?$AA@
	DD	FLAT:??_C@_0BA@FKIDHCEN@Win32_BaseBoard?$AA@
	DD	FLAT:??_C@_0BE@DAJBDDHL@SpecialRequirements?$AA@
	DD	FLAT:??_C@_0BA@FKIDHCEN@Win32_BaseBoard?$AA@
	DD	FLAT:??_C@_06PGDKHFME@Status?$AA@
	DD	FLAT:??_C@_0O@CLAKILND@Win32_Battery?$AA@
	DD	FLAT:??_C@_04FABLJDN@Name?$AA@
	DD	FLAT:??_C@_0O@CLAKILND@Win32_Battery?$AA@
	DD	FLAT:??_C@_0M@HHJKGII@PNPDeviceID?$AA@
	DD	FLAT:??_C@_0O@CLAKILND@Win32_Battery?$AA@
	DD	FLAT:??_C@_08JLPEJKOE@DeviceID?$AA@
	DD	FLAT:??_C@_0O@CLAKILND@Win32_Battery?$AA@
	DD	FLAT:??_C@_0O@PKGMNGNM@BatteryStatus?$AA@
	DD	FLAT:??_C@_0O@CLAKILND@Win32_Battery?$AA@
	DD	FLAT:??_C@_0O@IKADLBCG@TimeOnBattery?$AA@
	DD	FLAT:??_C@_0O@CLAKILND@Win32_Battery?$AA@
	DD	FLAT:??_C@_0BB@HMDCOCCC@TimeToFullCharge?$AA@
	DD	FLAT:??_C@_0O@CLAKILND@Win32_Battery?$AA@
	DD	FLAT:??_C@_0N@MFGCECDI@Availability?$AA@
	DD	FLAT:??_C@_0O@CLAKILND@Win32_Battery?$AA@
	DD	FLAT:??_C@_0BE@HNKJKBND@BatteryRechargeTime?$AA@
	DD	FLAT:??_C@_0O@CLAKILND@Win32_Battery?$AA@
	DD	FLAT:??_C@_07OJKFJLLK@Caption?$AA@
	DD	FLAT:??_C@_0O@CLAKILND@Win32_Battery?$AA@
	DD	FLAT:??_C@_09CAHFAGKL@Chemistry?$AA@
	DD	FLAT:??_C@_0O@CLAKILND@Win32_Battery?$AA@
	DD	FLAT:??_C@_0BH@JDEEEDCN@ConfigManagerErrorCode?$AA@
	DD	FLAT:??_C@_0O@CLAKILND@Win32_Battery?$AA@
	DD	FLAT:??_C@_0BI@OBNCDCBF@ConfigManagerUserConfig?$AA@
	DD	FLAT:??_C@_0O@CLAKILND@Win32_Battery?$AA@
	DD	FLAT:??_C@_0M@OHKMKKDH@Description?$AA@
	DD	FLAT:??_C@_0O@CLAKILND@Win32_Battery?$AA@
	DD	FLAT:??_C@_0P@IFPGNGPN@DesignCapacity?$AA@
	DD	FLAT:??_C@_0O@CLAKILND@Win32_Battery?$AA@
	DD	FLAT:??_C@_0O@PBABLEFL@DesignVoltage?$AA@
	DD	FLAT:??_C@_0O@CLAKILND@Win32_Battery?$AA@
	DD	FLAT:??_C@_0N@FJHLDHMG@ErrorCleared?$AA@
	DD	FLAT:??_C@_0O@CLAKILND@Win32_Battery?$AA@
	DD	FLAT:??_C@_0BB@KIDBLMK@ErrorDescription?$AA@
	DD	FLAT:??_C@_0O@CLAKILND@Win32_Battery?$AA@
	DD	FLAT:??_C@_0BJ@CDCEHMEP@EstimatedChargeRemaining?$AA@
	DD	FLAT:??_C@_0O@CLAKILND@Win32_Battery?$AA@
	DD	FLAT:??_C@_0BB@NPKJIND@EstimatedRunTime?$AA@
	DD	FLAT:??_C@_0O@CLAKILND@Win32_Battery?$AA@
	DD	FLAT:??_C@_0BE@NEEKJBPN@ExpectedBatteryLife?$AA@
	DD	FLAT:??_C@_0O@CLAKILND@Win32_Battery?$AA@
	DD	FLAT:??_C@_0N@DDGBNILM@ExpectedLife?$AA@
	DD	FLAT:??_C@_0O@CLAKILND@Win32_Battery?$AA@
	DD	FLAT:??_C@_0BD@HADPLBCE@FullChargeCapacity?$AA@
	DD	FLAT:??_C@_0O@CLAKILND@Win32_Battery?$AA@
	DD	FLAT:??_C@_0M@NBIJNNJJ@InstallDate?$AA@
	DD	FLAT:??_C@_0O@CLAKILND@Win32_Battery?$AA@
	DD	FLAT:??_C@_0O@NDKHIJAE@LastErrorCode?$AA@
	DD	FLAT:??_C@_0O@CLAKILND@Win32_Battery?$AA@
	DD	FLAT:??_C@_0BA@KENPOHHF@MaxRechargeTime?$AA@
	DD	FLAT:??_C@_0O@CLAKILND@Win32_Battery?$AA@
	DD	FLAT:??_C@_0BM@NFDEHNHA@PowerManagementCapabilities?$AA@
	DD	FLAT:??_C@_0O@CLAKILND@Win32_Battery?$AA@
	DD	FLAT:??_C@_0BJ@CFOPGMLH@PowerManagementSupported?$AA@
	DD	FLAT:??_C@_0O@CLAKILND@Win32_Battery?$AA@
	DD	FLAT:??_C@_0BE@IIEJDIAD@SmartBatteryVersion?$AA@
	DD	FLAT:??_C@_0O@CLAKILND@Win32_Battery?$AA@
	DD	FLAT:??_C@_06PGDKHFME@Status?$AA@
	DD	FLAT:??_C@_0O@CLAKILND@Win32_Battery?$AA@
	DD	FLAT:??_C@_0L@PKEHCAEI@StatusInfo?$AA@
	DD	FLAT:??_C@_0L@JLLHHBAL@Win32_BIOS?$AA@
	DD	FLAT:??_C@_04FABLJDN@Name?$AA@
	DD	FLAT:??_C@_0L@JLLHHBAL@Win32_BIOS?$AA@
	DD	FLAT:??_C@_0BE@DHLHFABD@BiosCharacteristics?$AA@
	DD	FLAT:??_C@_0L@JLLHHBAL@Win32_BIOS?$AA@
	DD	FLAT:??_C@_0M@JNJNMLGA@BIOSVersion?$AA@
	DD	FLAT:??_C@_0L@JLLHHBAL@Win32_BIOS?$AA@
	DD	FLAT:??_C@_0M@PIEABBJI@BuildNumber?$AA@
	DD	FLAT:??_C@_0L@JLLHHBAL@Win32_BIOS?$AA@
	DD	FLAT:??_C@_07FOHBHJJA@CodeSet?$AA@
	DD	FLAT:??_C@_0L@JLLHHBAL@Win32_BIOS?$AA@
	DD	FLAT:??_C@_0BA@LAFEEKJE@CurrentLanguage?$AA@
	DD	FLAT:??_C@_0L@JLLHHBAL@Win32_BIOS?$AA@
	DD	FLAT:??_C@_0BD@IAKLNJOL@IdentificationCode?$AA@
	DD	FLAT:??_C@_0L@JLLHHBAL@Win32_BIOS?$AA@
	DD	FLAT:??_C@_0BF@JGHHIKJK@InstallableLanguages?$AA@
	DD	FLAT:??_C@_0L@JLLHHBAL@Win32_BIOS?$AA@
	DD	FLAT:??_C@_0M@NBIJNNJJ@InstallDate?$AA@
	DD	FLAT:??_C@_0L@JLLHHBAL@Win32_BIOS?$AA@
	DD	FLAT:??_C@_0BA@OPCNKLIC@ListOfLanguages?$AA@
	DD	FLAT:??_C@_0L@JLLHHBAL@Win32_BIOS?$AA@
	DD	FLAT:??_C@_0N@BBNLMPJO@Manufacturer?$AA@
	DD	FLAT:??_C@_0L@JLLHHBAL@Win32_BIOS?$AA@
	DD	FLAT:??_C@_0O@LMGDODCH@OtherTargetOS?$AA@
	DD	FLAT:??_C@_0L@JLLHHBAL@Win32_BIOS?$AA@
	DD	FLAT:??_C@_0M@PLCFCEDN@PrimaryBIOS?$AA@
	DD	FLAT:??_C@_0L@JLLHHBAL@Win32_BIOS?$AA@
	DD	FLAT:??_C@_0M@FEKFCCJH@ReleaseDate?$AA@
	DD	FLAT:??_C@_0L@JLLHHBAL@Win32_BIOS?$AA@
	DD	FLAT:??_C@_0N@FPJJBBNM@SerialNumber?$AA@
	DD	FLAT:??_C@_0L@JLLHHBAL@Win32_BIOS?$AA@
	DD	FLAT:??_C@_0BC@GDJFCIN@SMBIOSBIOSVersion?$AA@
	DD	FLAT:??_C@_0L@JLLHHBAL@Win32_BIOS?$AA@
	DD	FLAT:??_C@_0BD@GHLLPFOK@SMBIOSMajorVersion?$AA@
	DD	FLAT:??_C@_0L@JLLHHBAL@Win32_BIOS?$AA@
	DD	FLAT:??_C@_0BD@NBGOPAJG@SMBIOSMinorVersion?$AA@
	DD	FLAT:??_C@_0L@JLLHHBAL@Win32_BIOS?$AA@
	DD	FLAT:??_C@_0O@BHMENNOL@SMBIOSPresent?$AA@
	DD	FLAT:??_C@_0L@JLLHHBAL@Win32_BIOS?$AA@
	DD	FLAT:??_C@_0BC@MBHIKAHO@SoftwareElementID?$AA@
	DD	FLAT:??_C@_0L@JLLHHBAL@Win32_BIOS?$AA@
	DD	FLAT:??_C@_0BF@GFDCFGAP@SoftwareElementState?$AA@
	DD	FLAT:??_C@_0L@JLLHHBAL@Win32_BIOS?$AA@
	DD	FLAT:??_C@_06PGDKHFME@Status?$AA@
	DD	FLAT:??_C@_0L@JLLHHBAL@Win32_BIOS?$AA@
	DD	FLAT:??_C@_07NGFJPNPN@Version?$AA@
	DD	FLAT:??_C@_09HPFDNOIF@Win32_Bus?$AA@
	DD	FLAT:??_C@_04FABLJDN@Name?$AA@
	DD	FLAT:??_C@_09HPFDNOIF@Win32_Bus?$AA@
	DD	FLAT:??_C@_0M@HHJKGII@PNPDeviceID?$AA@
	DD	FLAT:??_C@_09HPFDNOIF@Win32_Bus?$AA@
	DD	FLAT:??_C@_08JLPEJKOE@DeviceID?$AA@
	DD	FLAT:??_C@_09HPFDNOIF@Win32_Bus?$AA@
	DD	FLAT:??_C@_06KNDINCOD@BusNum?$AA@
	DD	FLAT:??_C@_09HPFDNOIF@Win32_Bus?$AA@
	DD	FLAT:??_C@_07FFFMBEEK@BusType?$AA@
	DD	FLAT:??_C@_09HPFDNOIF@Win32_Bus?$AA@
	DD	FLAT:??_C@_0N@MFGCECDI@Availability?$AA@
	DD	FLAT:??_C@_09HPFDNOIF@Win32_Bus?$AA@
	DD	FLAT:??_C@_0BH@JDEEEDCN@ConfigManagerErrorCode?$AA@
	DD	FLAT:??_C@_09HPFDNOIF@Win32_Bus?$AA@
	DD	FLAT:??_C@_0BI@OBNCDCBF@ConfigManagerUserConfig?$AA@
	DD	FLAT:??_C@_09HPFDNOIF@Win32_Bus?$AA@
	DD	FLAT:??_C@_0N@FJHLDHMG@ErrorCleared?$AA@
	DD	FLAT:??_C@_09HPFDNOIF@Win32_Bus?$AA@
	DD	FLAT:??_C@_0BB@KIDBLMK@ErrorDescription?$AA@
	DD	FLAT:??_C@_09HPFDNOIF@Win32_Bus?$AA@
	DD	FLAT:??_C@_0M@NBIJNNJJ@InstallDate?$AA@
	DD	FLAT:??_C@_09HPFDNOIF@Win32_Bus?$AA@
	DD	FLAT:??_C@_0O@NDKHIJAE@LastErrorCode?$AA@
	DD	FLAT:??_C@_09HPFDNOIF@Win32_Bus?$AA@
	DD	FLAT:??_C@_0BM@NFDEHNHA@PowerManagementCapabilities?$AA@
	DD	FLAT:??_C@_09HPFDNOIF@Win32_Bus?$AA@
	DD	FLAT:??_C@_0BJ@CFOPGMLH@PowerManagementSupported?$AA@
	DD	FLAT:??_C@_09HPFDNOIF@Win32_Bus?$AA@
	DD	FLAT:??_C@_06PGDKHFME@Status?$AA@
	DD	FLAT:??_C@_09HPFDNOIF@Win32_Bus?$AA@
	DD	FLAT:??_C@_0L@PKEHCAEI@StatusInfo?$AA@
	DD	FLAT:??_C@_0BB@KBKCBBFJ@Win32_CDROMDrive?$AA@
	DD	FLAT:??_C@_04FABLJDN@Name?$AA@
	DD	FLAT:??_C@_0BB@KBKCBBFJ@Win32_CDROMDrive?$AA@
	DD	FLAT:??_C@_0M@HHJKGII@PNPDeviceID?$AA@
	DD	FLAT:??_C@_0BB@KBKCBBFJ@Win32_CDROMDrive?$AA@
	DD	FLAT:??_C@_08JLPEJKOE@DeviceID?$AA@
	DD	FLAT:??_C@_0BB@KBKCBBFJ@Win32_CDROMDrive?$AA@
	DD	FLAT:??_C@_0N@BBNLMPJO@Manufacturer?$AA@
	DD	FLAT:??_C@_0BB@KBKCBBFJ@Win32_CDROMDrive?$AA@
	DD	FLAT:??_C@_05FHDOJGAA@Drive?$AA@
	DD	FLAT:??_C@_0BB@KBKCBBFJ@Win32_CDROMDrive?$AA@
	DD	FLAT:??_C@_0N@FPJJBBNM@SerialNumber?$AA@
	DD	FLAT:??_C@_0BB@KBKCBBFJ@Win32_CDROMDrive?$AA@
	DD	FLAT:??_C@_0L@PEPMOJNO@VolumeName?$AA@
	DD	FLAT:??_C@_0BB@KBKCBBFJ@Win32_CDROMDrive?$AA@
	DD	FLAT:??_C@_0BD@KNELKJMD@VolumeSerialNumber?$AA@
	DD	FLAT:??_C@_0BB@KBKCBBFJ@Win32_CDROMDrive?$AA@
	DD	FLAT:??_C@_0N@MFGCECDI@Availability?$AA@
	DD	FLAT:??_C@_0BB@KBKCBBFJ@Win32_CDROMDrive?$AA@
	DD	FLAT:??_C@_0N@FNJCOOAL@Capabilities?$AA@
	DD	FLAT:??_C@_0BB@KBKCBBFJ@Win32_CDROMDrive?$AA@
	DD	FLAT:??_C@_0BH@EPMKAGLN@CapabilityDescriptions?$AA@
	DD	FLAT:??_C@_0BB@KBKCBBFJ@Win32_CDROMDrive?$AA@
	DD	FLAT:??_C@_0BC@MBGAHHAB@CompressionMethod?$AA@
	DD	FLAT:??_C@_0BB@KBKCBBFJ@Win32_CDROMDrive?$AA@
	DD	FLAT:??_C@_0BH@JDEEEDCN@ConfigManagerErrorCode?$AA@
	DD	FLAT:??_C@_0BB@KBKCBBFJ@Win32_CDROMDrive?$AA@
	DD	FLAT:??_C@_0BI@OBNCDCBF@ConfigManagerUserConfig?$AA@
	DD	FLAT:??_C@_0BB@KBKCBBFJ@Win32_CDROMDrive?$AA@
	DD	FLAT:??_C@_0BB@GHOHONOE@DefaultBlockSize?$AA@
	DD	FLAT:??_C@_0BB@KBKCBBFJ@Win32_CDROMDrive?$AA@
	DD	FLAT:??_C@_0M@OHKMKKDH@Description?$AA@
	DD	FLAT:??_C@_0BB@KBKCBBFJ@Win32_CDROMDrive?$AA@
	DD	FLAT:??_C@_0P@HKGKOHLF@DriveIntegrity?$AA@
	DD	FLAT:??_C@_0BB@KBKCBBFJ@Win32_CDROMDrive?$AA@
	DD	FLAT:??_C@_0N@FJHLDHMG@ErrorCleared?$AA@
	DD	FLAT:??_C@_0BB@KBKCBBFJ@Win32_CDROMDrive?$AA@
	DD	FLAT:??_C@_0BB@KIDBLMK@ErrorDescription?$AA@
	DD	FLAT:??_C@_0BB@KBKCBBFJ@Win32_CDROMDrive?$AA@
	DD	FLAT:??_C@_0BB@PNCBAHDK@ErrorMethodology?$AA@
	DD	FLAT:??_C@_0BB@KBKCBBFJ@Win32_CDROMDrive?$AA@
	DD	FLAT:??_C@_0BA@KMBBNBII@FileSystemFlags?$AA@
	DD	FLAT:??_C@_0BB@KBKCBBFJ@Win32_CDROMDrive?$AA@
	DD	FLAT:??_C@_0BC@JDDJOAMF@FileSystemFlagsEx?$AA@
	DD	FLAT:??_C@_0BB@KBKCBBFJ@Win32_CDROMDrive?$AA@
	DD	FLAT:??_C@_0M@NBIJNNJJ@InstallDate?$AA@
	DD	FLAT:??_C@_0BB@KBKCBBFJ@Win32_CDROMDrive?$AA@
	DD	FLAT:??_C@_0O@NDKHIJAE@LastErrorCode?$AA@
	DD	FLAT:??_C@_0BB@KBKCBBFJ@Win32_CDROMDrive?$AA@
	DD	FLAT:??_C@_0N@HEPDBKFE@MaxBlockSize?$AA@
	DD	FLAT:??_C@_0BB@KBKCBBFJ@Win32_CDROMDrive?$AA@
	DD	FLAT:??_C@_0BH@GKGMNPDK@MaximumComponentLength?$AA@
	DD	FLAT:??_C@_0BB@KBKCBBFJ@Win32_CDROMDrive?$AA@
	DD	FLAT:??_C@_0N@HBNKJHPM@MaxMediaSize?$AA@
	DD	FLAT:??_C@_0BB@KBKCBBFJ@Win32_CDROMDrive?$AA@
	DD	FLAT:??_C@_0M@BKHKLNGH@MediaLoaded?$AA@
	DD	FLAT:??_C@_0BB@KBKCBBFJ@Win32_CDROMDrive?$AA@
	DD	FLAT:??_C@_09HPDNNFFF@MediaType?$AA@
	DD	FLAT:??_C@_0BB@KBKCBBFJ@Win32_CDROMDrive?$AA@
	DD	FLAT:??_C@_0BJ@FCFAAAMD@MfrAssignedRevisionLevel?$AA@
	DD	FLAT:??_C@_0BB@KBKCBBFJ@Win32_CDROMDrive?$AA@
	DD	FLAT:??_C@_0N@DELMGCCC@MinBlockSize?$AA@
	DD	FLAT:??_C@_0BB@KBKCBBFJ@Win32_CDROMDrive?$AA@
	DD	FLAT:??_C@_0O@IIJMNCFJ@NeedsCleaning?$AA@
	DD	FLAT:??_C@_0BB@KBKCBBFJ@Win32_CDROMDrive?$AA@
	DD	FLAT:??_C@_0BH@COPKOGMD@NumberOfMediaSupported?$AA@
	DD	FLAT:??_C@_0BB@KBKCBBFJ@Win32_CDROMDrive?$AA@
	DD	FLAT:??_C@_0BM@NFDEHNHA@PowerManagementCapabilities?$AA@
	DD	FLAT:??_C@_0BB@KBKCBBFJ@Win32_CDROMDrive?$AA@
	DD	FLAT:??_C@_0BJ@CFOPGMLH@PowerManagementSupported?$AA@
	DD	FLAT:??_C@_0BB@KBKCBBFJ@Win32_CDROMDrive?$AA@
	DD	FLAT:??_C@_0O@MEKHAACN@RevisionLevel?$AA@
	DD	FLAT:??_C@_0BB@KBKCBBFJ@Win32_CDROMDrive?$AA@
	DD	FLAT:??_C@_07IMFLOLAO@SCSIBus?$AA@
	DD	FLAT:??_C@_0BB@KBKCBBFJ@Win32_CDROMDrive?$AA@
	DD	FLAT:??_C@_0BA@FGFDLPLK@SCSILogicalUnit?$AA@
	DD	FLAT:??_C@_0BB@KBKCBBFJ@Win32_CDROMDrive?$AA@
	DD	FLAT:??_C@_08IICBNDDA@SCSIPort?$AA@
	DD	FLAT:??_C@_0BB@KBKCBBFJ@Win32_CDROMDrive?$AA@
	DD	FLAT:??_C@_0N@BGGJIJCI@SCSITargetId?$AA@
	DD	FLAT:??_C@_0BB@KBKCBBFJ@Win32_CDROMDrive?$AA@
	DD	FLAT:??_C@_04EBKMHHBE@Size?$AA@
	DD	FLAT:??_C@_0BB@KBKCBBFJ@Win32_CDROMDrive?$AA@
	DD	FLAT:??_C@_06PGDKHFME@Status?$AA@
	DD	FLAT:??_C@_0BB@KBKCBBFJ@Win32_CDROMDrive?$AA@
	DD	FLAT:??_C@_0L@PKEHCAEI@StatusInfo?$AA@
	DD	FLAT:??_C@_0BB@KBKCBBFJ@Win32_CDROMDrive?$AA@
	DD	FLAT:??_C@_0N@GFEIEMMN@TransferRate?$AA@
	DD	FLAT:??_C@_0BB@ILOPCCAP@Win32_DMAChannel?$AA@
	DD	FLAT:??_C@_04FABLJDN@Name?$AA@
	DD	FLAT:??_C@_0BB@ILOPCCAP@Win32_DMAChannel?$AA@
	DD	FLAT:??_C@_04HOKNCALA@Port?$AA@
	DD	FLAT:??_C@_0BB@ILOPCCAP@Win32_DMAChannel?$AA@
	DD	FLAT:??_C@_0L@PGAIMACF@DMAChannel?$AA@
	DD	FLAT:??_C@_0BB@ILOPCCAP@Win32_DMAChannel?$AA@
	DD	FLAT:??_C@_0M@HJPEAMBM@AddressSize?$AA@
	DD	FLAT:??_C@_0BB@ILOPCCAP@Win32_DMAChannel?$AA@
	DD	FLAT:??_C@_0N@MFGCECDI@Availability?$AA@
	DD	FLAT:??_C@_0BB@ILOPCCAP@Win32_DMAChannel?$AA@
	DD	FLAT:??_C@_09LDKFCLB@BurstMode?$AA@
	DD	FLAT:??_C@_0BB@ILOPCCAP@Win32_DMAChannel?$AA@
	DD	FLAT:??_C@_08IOOBKHAJ@ByteMode?$AA@
	DD	FLAT:??_C@_0BB@ILOPCCAP@Win32_DMAChannel?$AA@
	DD	FLAT:??_C@_0O@BPLPAGKN@ChannelTiming?$AA@
	DD	FLAT:??_C@_0BB@ILOPCCAP@Win32_DMAChannel?$AA@
	DD	FLAT:??_C@_0M@NBIJNNJJ@InstallDate?$AA@
	DD	FLAT:??_C@_0BB@ILOPCCAP@Win32_DMAChannel?$AA@
	DD	FLAT:??_C@_0BA@HBAKOKJE@MaxTransferSize?$AA@
	DD	FLAT:??_C@_0BB@ILOPCCAP@Win32_DMAChannel?$AA@
	DD	FLAT:??_C@_06PGDKHFME@Status?$AA@
	DD	FLAT:??_C@_0BB@ILOPCCAP@Win32_DMAChannel?$AA@
	DD	FLAT:??_C@_0P@HFMGHLOP@TransferWidths?$AA@
	DD	FLAT:??_C@_0BB@ILOPCCAP@Win32_DMAChannel?$AA@
	DD	FLAT:??_C@_0M@MOIPDDOB@TypeCTiming?$AA@
	DD	FLAT:??_C@_0BB@ILOPCCAP@Win32_DMAChannel?$AA@
	DD	FLAT:??_C@_08HKOOHOAE@WordMode?$AA@
	DD	FLAT:??_C@_0BA@DGOGJGDP@Win32_DriverVXD?$AA@
	DD	FLAT:??_C@_04FABLJDN@Name?$AA@
	DD	FLAT:??_C@_0BA@DGOGJGDP@Win32_DriverVXD?$AA@
	DD	FLAT:??_C@_0N@BBNLMPJO@Manufacturer?$AA@
	DD	FLAT:??_C@_0BA@DGOGJGDP@Win32_DriverVXD?$AA@
	DD	FLAT:??_C@_07NGFJPNPN@Version?$AA@
	DD	FLAT:??_C@_0BA@DGOGJGDP@Win32_DriverVXD?$AA@
	DD	FLAT:??_C@_0M@PIEABBJI@BuildNumber?$AA@
	DD	FLAT:??_C@_0BA@DGOGJGDP@Win32_DriverVXD?$AA@
	DD	FLAT:??_C@_07OJKFJLLK@Caption?$AA@
	DD	FLAT:??_C@_0BA@DGOGJGDP@Win32_DriverVXD?$AA@
	DD	FLAT:??_C@_07FOHBHJJA@CodeSet?$AA@
	DD	FLAT:??_C@_0BA@DGOGJGDP@Win32_DriverVXD?$AA@
	DD	FLAT:??_C@_07DFGIDBBA@Control?$AA@
	DD	FLAT:??_C@_0BA@DGOGJGDP@Win32_DriverVXD?$AA@
	DD	FLAT:??_C@_0M@OHKMKKDH@Description?$AA@
	DD	FLAT:??_C@_0BA@DGOGJGDP@Win32_DriverVXD?$AA@
	DD	FLAT:??_C@_0BG@IOIHNNJK@DeviceDescriptorBlock?$AA@
	DD	FLAT:??_C@_0BA@DGOGJGDP@Win32_DriverVXD?$AA@
	DD	FLAT:??_C@_0BD@IAKLNJOL@IdentificationCode?$AA@
	DD	FLAT:??_C@_0BA@DGOGJGDP@Win32_DriverVXD?$AA@
	DD	FLAT:??_C@_0M@NBIJNNJJ@InstallDate?$AA@
	DD	FLAT:??_C@_0BA@DGOGJGDP@Win32_DriverVXD?$AA@
	DD	FLAT:??_C@_0BA@JOJBKDJN@LanguageEdition?$AA@
	DD	FLAT:??_C@_0BA@DGOGJGDP@Win32_DriverVXD?$AA@
	DD	FLAT:??_C@_0O@LMGDODCH@OtherTargetOS?$AA@
	DD	FLAT:??_C@_0BA@DGOGJGDP@Win32_DriverVXD?$AA@
	DD	FLAT:??_C@_06CGGMGNDK@PM_API?$AA@
	DD	FLAT:??_C@_0BA@DGOGJGDP@Win32_DriverVXD?$AA@
	DD	FLAT:??_C@_0N@FPJJBBNM@SerialNumber?$AA@
	DD	FLAT:??_C@_0BA@DGOGJGDP@Win32_DriverVXD?$AA@
	DD	FLAT:??_C@_0BB@CCKMONLJ@ServiceTableSize?$AA@
	DD	FLAT:??_C@_0BA@DGOGJGDP@Win32_DriverVXD?$AA@
	DD	FLAT:??_C@_0BC@MBHIKAHO@SoftwareElementID?$AA@
	DD	FLAT:??_C@_0BA@DGOGJGDP@Win32_DriverVXD?$AA@
	DD	FLAT:??_C@_0BF@GFDCFGAP@SoftwareElementState?$AA@
	DD	FLAT:??_C@_0BA@DGOGJGDP@Win32_DriverVXD?$AA@
	DD	FLAT:??_C@_06PGDKHFME@Status?$AA@
	DD	FLAT:??_C@_0BA@DGOGJGDP@Win32_DriverVXD?$AA@
	DD	FLAT:??_C@_0BG@LEBBIDOP@TargetOperatingSystem?$AA@
	DD	FLAT:??_C@_0BA@DGOGJGDP@Win32_DriverVXD?$AA@
	DD	FLAT:??_C@_07JENHGIOM@V86_API?$AA@
	DD	FLAT:??_C@_0BH@GBOCBJMM@Win32_FloppyController?$AA@
	DD	FLAT:??_C@_04FABLJDN@Name?$AA@
	DD	FLAT:??_C@_0BH@GBOCBJMM@Win32_FloppyController?$AA@
	DD	FLAT:??_C@_0M@HHJKGII@PNPDeviceID?$AA@
	DD	FLAT:??_C@_0BH@GBOCBJMM@Win32_FloppyController?$AA@
	DD	FLAT:??_C@_08JLPEJKOE@DeviceID?$AA@
	DD	FLAT:??_C@_0BH@GBOCBJMM@Win32_FloppyController?$AA@
	DD	FLAT:??_C@_0N@MFGCECDI@Availability?$AA@
	DD	FLAT:??_C@_0BH@GBOCBJMM@Win32_FloppyController?$AA@
	DD	FLAT:??_C@_0BH@JDEEEDCN@ConfigManagerErrorCode?$AA@
	DD	FLAT:??_C@_0BH@GBOCBJMM@Win32_FloppyController?$AA@
	DD	FLAT:??_C@_0BI@OBNCDCBF@ConfigManagerUserConfig?$AA@
	DD	FLAT:??_C@_0BH@GBOCBJMM@Win32_FloppyController?$AA@
	DD	FLAT:??_C@_0N@FJHLDHMG@ErrorCleared?$AA@
	DD	FLAT:??_C@_0BH@GBOCBJMM@Win32_FloppyController?$AA@
	DD	FLAT:??_C@_0BB@KIDBLMK@ErrorDescription?$AA@
	DD	FLAT:??_C@_0BH@GBOCBJMM@Win32_FloppyController?$AA@
	DD	FLAT:??_C@_0M@NBIJNNJJ@InstallDate?$AA@
	DD	FLAT:??_C@_0BH@GBOCBJMM@Win32_FloppyController?$AA@
	DD	FLAT:??_C@_0O@NDKHIJAE@LastErrorCode?$AA@
	DD	FLAT:??_C@_0BH@GBOCBJMM@Win32_FloppyController?$AA@
	DD	FLAT:??_C@_0N@BBNLMPJO@Manufacturer?$AA@
	DD	FLAT:??_C@_0BH@GBOCBJMM@Win32_FloppyController?$AA@
	DD	FLAT:??_C@_0BE@JDLAPHJE@MaxNumberControlled?$AA@
	DD	FLAT:??_C@_0BH@GBOCBJMM@Win32_FloppyController?$AA@
	DD	FLAT:??_C@_0BM@NFDEHNHA@PowerManagementCapabilities?$AA@
	DD	FLAT:??_C@_0BH@GBOCBJMM@Win32_FloppyController?$AA@
	DD	FLAT:??_C@_0BJ@CFOPGMLH@PowerManagementSupported?$AA@
	DD	FLAT:??_C@_0BH@GBOCBJMM@Win32_FloppyController?$AA@
	DD	FLAT:??_C@_0BC@JHPOAJCM@ProtocolSupported?$AA@
	DD	FLAT:??_C@_0BH@GBOCBJMM@Win32_FloppyController?$AA@
	DD	FLAT:??_C@_06PGDKHFME@Status?$AA@
	DD	FLAT:??_C@_0BH@GBOCBJMM@Win32_FloppyController?$AA@
	DD	FLAT:??_C@_0L@PKEHCAEI@StatusInfo?$AA@
	DD	FLAT:??_C@_0BH@GBOCBJMM@Win32_FloppyController?$AA@
	DD	FLAT:??_C@_0BA@HADKHLAI@TimeOfLastReset?$AA@
	DD	FLAT:??_C@_0BC@MGJAFBFH@Win32_FloppyDrive?$AA@
	DD	FLAT:??_C@_04FABLJDN@Name?$AA@
	DD	FLAT:??_C@_0BC@MGJAFBFH@Win32_FloppyDrive?$AA@
	DD	FLAT:??_C@_0M@HHJKGII@PNPDeviceID?$AA@
	DD	FLAT:??_C@_0BC@MGJAFBFH@Win32_FloppyDrive?$AA@
	DD	FLAT:??_C@_08JLPEJKOE@DeviceID?$AA@
	DD	FLAT:??_C@_0BC@MGJAFBFH@Win32_FloppyDrive?$AA@
	DD	FLAT:??_C@_0N@BBNLMPJO@Manufacturer?$AA@
	DD	FLAT:??_C@_0BC@MGJAFBFH@Win32_FloppyDrive?$AA@
	DD	FLAT:??_C@_0N@HEPDBKFE@MaxBlockSize?$AA@
	DD	FLAT:??_C@_0BC@MGJAFBFH@Win32_FloppyDrive?$AA@
	DD	FLAT:??_C@_0N@HBNKJHPM@MaxMediaSize?$AA@
	DD	FLAT:??_C@_0BC@MGJAFBFH@Win32_FloppyDrive?$AA@
	DD	FLAT:??_C@_0N@DELMGCCC@MinBlockSize?$AA@
	DD	FLAT:??_C@_0BC@MGJAFBFH@Win32_FloppyDrive?$AA@
	DD	FLAT:??_C@_0N@MFGCECDI@Availability?$AA@
	DD	FLAT:??_C@_0BC@MGJAFBFH@Win32_FloppyDrive?$AA@
	DD	FLAT:??_C@_0N@FNJCOOAL@Capabilities?$AA@
	DD	FLAT:??_C@_0BC@MGJAFBFH@Win32_FloppyDrive?$AA@
	DD	FLAT:??_C@_0BH@EPMKAGLN@CapabilityDescriptions?$AA@
	DD	FLAT:??_C@_0BC@MGJAFBFH@Win32_FloppyDrive?$AA@
	DD	FLAT:??_C@_0BC@MBGAHHAB@CompressionMethod?$AA@
	DD	FLAT:??_C@_0BC@MGJAFBFH@Win32_FloppyDrive?$AA@
	DD	FLAT:??_C@_0BH@JDEEEDCN@ConfigManagerErrorCode?$AA@
	DD	FLAT:??_C@_0BC@MGJAFBFH@Win32_FloppyDrive?$AA@
	DD	FLAT:??_C@_0BI@OBNCDCBF@ConfigManagerUserConfig?$AA@
	DD	FLAT:??_C@_0BC@MGJAFBFH@Win32_FloppyDrive?$AA@
	DD	FLAT:??_C@_0BB@GHOHONOE@DefaultBlockSize?$AA@
	DD	FLAT:??_C@_0BC@MGJAFBFH@Win32_FloppyDrive?$AA@
	DD	FLAT:??_C@_0N@FJHLDHMG@ErrorCleared?$AA@
	DD	FLAT:??_C@_0BC@MGJAFBFH@Win32_FloppyDrive?$AA@
	DD	FLAT:??_C@_0BB@KIDBLMK@ErrorDescription?$AA@
	DD	FLAT:??_C@_0BC@MGJAFBFH@Win32_FloppyDrive?$AA@
	DD	FLAT:??_C@_0BB@PNCBAHDK@ErrorMethodology?$AA@
	DD	FLAT:??_C@_0BC@MGJAFBFH@Win32_FloppyDrive?$AA@
	DD	FLAT:??_C@_0M@NBIJNNJJ@InstallDate?$AA@
	DD	FLAT:??_C@_0BC@MGJAFBFH@Win32_FloppyDrive?$AA@
	DD	FLAT:??_C@_0O@NDKHIJAE@LastErrorCode?$AA@
	DD	FLAT:??_C@_0BC@MGJAFBFH@Win32_FloppyDrive?$AA@
	DD	FLAT:??_C@_0O@IIJMNCFJ@NeedsCleaning?$AA@
	DD	FLAT:??_C@_0BC@MGJAFBFH@Win32_FloppyDrive?$AA@
	DD	FLAT:??_C@_0BH@COPKOGMD@NumberOfMediaSupported?$AA@
	DD	FLAT:??_C@_0BC@MGJAFBFH@Win32_FloppyDrive?$AA@
	DD	FLAT:??_C@_0BM@NFDEHNHA@PowerManagementCapabilities?$AA@
	DD	FLAT:??_C@_0BC@MGJAFBFH@Win32_FloppyDrive?$AA@
	DD	FLAT:??_C@_0BJ@CFOPGMLH@PowerManagementSupported?$AA@
	DD	FLAT:??_C@_0BC@MGJAFBFH@Win32_FloppyDrive?$AA@
	DD	FLAT:??_C@_06PGDKHFME@Status?$AA@
	DD	FLAT:??_C@_0BC@MGJAFBFH@Win32_FloppyDrive?$AA@
	DD	FLAT:??_C@_0L@PKEHCAEI@StatusInfo?$AA@
	DD	FLAT:??_C@_0P@MCPBPNON@Win32_HeatPipe?$AA@
	DD	FLAT:??_C@_04FABLJDN@Name?$AA@
	DD	FLAT:??_C@_0P@MCPBPNON@Win32_HeatPipe?$AA@
	DD	FLAT:??_C@_0M@HHJKGII@PNPDeviceID?$AA@
	DD	FLAT:??_C@_0P@MCPBPNON@Win32_HeatPipe?$AA@
	DD	FLAT:??_C@_08JLPEJKOE@DeviceID?$AA@
	DD	FLAT:??_C@_0P@MCPBPNON@Win32_HeatPipe?$AA@
	DD	FLAT:??_C@_0O@PBOKHICP@ActiveCooling?$AA@
	DD	FLAT:??_C@_0P@MCPBPNON@Win32_HeatPipe?$AA@
	DD	FLAT:??_C@_0N@MFGCECDI@Availability?$AA@
	DD	FLAT:??_C@_0P@MCPBPNON@Win32_HeatPipe?$AA@
	DD	FLAT:??_C@_07OJKFJLLK@Caption?$AA@
	DD	FLAT:??_C@_0P@MCPBPNON@Win32_HeatPipe?$AA@
	DD	FLAT:??_C@_0BH@JDEEEDCN@ConfigManagerErrorCode?$AA@
	DD	FLAT:??_C@_0P@MCPBPNON@Win32_HeatPipe?$AA@
	DD	FLAT:??_C@_0BI@OBNCDCBF@ConfigManagerUserConfig?$AA@
	DD	FLAT:??_C@_0P@MCPBPNON@Win32_HeatPipe?$AA@
	DD	FLAT:??_C@_0M@OHKMKKDH@Description?$AA@
	DD	FLAT:??_C@_0P@MCPBPNON@Win32_HeatPipe?$AA@
	DD	FLAT:??_C@_0N@FJHLDHMG@ErrorCleared?$AA@
	DD	FLAT:??_C@_0P@MCPBPNON@Win32_HeatPipe?$AA@
	DD	FLAT:??_C@_0BB@KIDBLMK@ErrorDescription?$AA@
	DD	FLAT:??_C@_0P@MCPBPNON@Win32_HeatPipe?$AA@
	DD	FLAT:??_C@_0M@NBIJNNJJ@InstallDate?$AA@
	DD	FLAT:??_C@_0P@MCPBPNON@Win32_HeatPipe?$AA@
	DD	FLAT:??_C@_0O@NDKHIJAE@LastErrorCode?$AA@
	DD	FLAT:??_C@_0P@MCPBPNON@Win32_HeatPipe?$AA@
	DD	FLAT:??_C@_0BM@NFDEHNHA@PowerManagementCapabilities?$AA@
	DD	FLAT:??_C@_0P@MCPBPNON@Win32_HeatPipe?$AA@
	DD	FLAT:??_C@_0BJ@CFOPGMLH@PowerManagementSupported?$AA@
	DD	FLAT:??_C@_0P@MCPBPNON@Win32_HeatPipe?$AA@
	DD	FLAT:??_C@_06PGDKHFME@Status?$AA@
	DD	FLAT:??_C@_0P@MCPBPNON@Win32_HeatPipe?$AA@
	DD	FLAT:??_C@_0L@PKEHCAEI@StatusInfo?$AA@
	DD	FLAT:??_C@_0BE@FMCMMJCA@Win32_IDEController?$AA@
	DD	FLAT:??_C@_04FABLJDN@Name?$AA@
	DD	FLAT:??_C@_0BE@FMCMMJCA@Win32_IDEController?$AA@
	DD	FLAT:??_C@_0M@HHJKGII@PNPDeviceID?$AA@
	DD	FLAT:??_C@_0BE@FMCMMJCA@Win32_IDEController?$AA@
	DD	FLAT:??_C@_08JLPEJKOE@DeviceID?$AA@
	DD	FLAT:??_C@_0BE@FMCMMJCA@Win32_IDEController?$AA@
	DD	FLAT:??_C@_0N@BBNLMPJO@Manufacturer?$AA@
	DD	FLAT:??_C@_0BE@FMCMMJCA@Win32_IDEController?$AA@
	DD	FLAT:??_C@_0N@MFGCECDI@Availability?$AA@
	DD	FLAT:??_C@_0BE@FMCMMJCA@Win32_IDEController?$AA@
	DD	FLAT:??_C@_0BH@JDEEEDCN@ConfigManagerErrorCode?$AA@
	DD	FLAT:??_C@_0BE@FMCMMJCA@Win32_IDEController?$AA@
	DD	FLAT:??_C@_0BI@OBNCDCBF@ConfigManagerUserConfig?$AA@
	DD	FLAT:??_C@_0BE@FMCMMJCA@Win32_IDEController?$AA@
	DD	FLAT:??_C@_0N@FJHLDHMG@ErrorCleared?$AA@
	DD	FLAT:??_C@_0BE@FMCMMJCA@Win32_IDEController?$AA@
	DD	FLAT:??_C@_0BB@KIDBLMK@ErrorDescription?$AA@
	DD	FLAT:??_C@_0BE@FMCMMJCA@Win32_IDEController?$AA@
	DD	FLAT:??_C@_0M@NBIJNNJJ@InstallDate?$AA@
	DD	FLAT:??_C@_0BE@FMCMMJCA@Win32_IDEController?$AA@
	DD	FLAT:??_C@_0O@NDKHIJAE@LastErrorCode?$AA@
	DD	FLAT:??_C@_0BE@FMCMMJCA@Win32_IDEController?$AA@
	DD	FLAT:??_C@_0BE@JDLAPHJE@MaxNumberControlled?$AA@
	DD	FLAT:??_C@_0BE@FMCMMJCA@Win32_IDEController?$AA@
	DD	FLAT:??_C@_0BM@NFDEHNHA@PowerManagementCapabilities?$AA@
	DD	FLAT:??_C@_0BE@FMCMMJCA@Win32_IDEController?$AA@
	DD	FLAT:??_C@_0BJ@CFOPGMLH@PowerManagementSupported?$AA@
	DD	FLAT:??_C@_0BE@FMCMMJCA@Win32_IDEController?$AA@
	DD	FLAT:??_C@_0BC@JHPOAJCM@ProtocolSupported?$AA@
	DD	FLAT:??_C@_0BE@FMCMMJCA@Win32_IDEController?$AA@
	DD	FLAT:??_C@_06PGDKHFME@Status?$AA@
	DD	FLAT:??_C@_0BE@FMCMMJCA@Win32_IDEController?$AA@
	DD	FLAT:??_C@_0L@PKEHCAEI@StatusInfo?$AA@
	DD	FLAT:??_C@_0BE@FMCMMJCA@Win32_IDEController?$AA@
	DD	FLAT:??_C@_0BA@HADKHLAI@TimeOfLastReset?$AA@
	DD	FLAT:??_C@_0BF@EEIPINHM@Win32_InfraredDevice?$AA@
	DD	FLAT:??_C@_04FABLJDN@Name?$AA@
	DD	FLAT:??_C@_0BF@EEIPINHM@Win32_InfraredDevice?$AA@
	DD	FLAT:??_C@_0M@HHJKGII@PNPDeviceID?$AA@
	DD	FLAT:??_C@_0BF@EEIPINHM@Win32_InfraredDevice?$AA@
	DD	FLAT:??_C@_08JLPEJKOE@DeviceID?$AA@
	DD	FLAT:??_C@_0BF@EEIPINHM@Win32_InfraredDevice?$AA@
	DD	FLAT:??_C@_0N@BBNLMPJO@Manufacturer?$AA@
	DD	FLAT:??_C@_0BF@EEIPINHM@Win32_InfraredDevice?$AA@
	DD	FLAT:??_C@_0N@MFGCECDI@Availability?$AA@
	DD	FLAT:??_C@_0BF@EEIPINHM@Win32_InfraredDevice?$AA@
	DD	FLAT:??_C@_07OJKFJLLK@Caption?$AA@
	DD	FLAT:??_C@_0BF@EEIPINHM@Win32_InfraredDevice?$AA@
	DD	FLAT:??_C@_0BH@JDEEEDCN@ConfigManagerErrorCode?$AA@
	DD	FLAT:??_C@_0BF@EEIPINHM@Win32_InfraredDevice?$AA@
	DD	FLAT:??_C@_0BI@OBNCDCBF@ConfigManagerUserConfig?$AA@
	DD	FLAT:??_C@_0BF@EEIPINHM@Win32_InfraredDevice?$AA@
	DD	FLAT:??_C@_0M@OHKMKKDH@Description?$AA@
	DD	FLAT:??_C@_0BF@EEIPINHM@Win32_InfraredDevice?$AA@
	DD	FLAT:??_C@_0N@FJHLDHMG@ErrorCleared?$AA@
	DD	FLAT:??_C@_0BF@EEIPINHM@Win32_InfraredDevice?$AA@
	DD	FLAT:??_C@_0BB@KIDBLMK@ErrorDescription?$AA@
	DD	FLAT:??_C@_0BF@EEIPINHM@Win32_InfraredDevice?$AA@
	DD	FLAT:??_C@_0M@NBIJNNJJ@InstallDate?$AA@
	DD	FLAT:??_C@_0BF@EEIPINHM@Win32_InfraredDevice?$AA@
	DD	FLAT:??_C@_0O@NDKHIJAE@LastErrorCode?$AA@
	DD	FLAT:??_C@_0BF@EEIPINHM@Win32_InfraredDevice?$AA@
	DD	FLAT:??_C@_0BE@JDLAPHJE@MaxNumberControlled?$AA@
	DD	FLAT:??_C@_0BF@EEIPINHM@Win32_InfraredDevice?$AA@
	DD	FLAT:??_C@_0BM@NFDEHNHA@PowerManagementCapabilities?$AA@
	DD	FLAT:??_C@_0BF@EEIPINHM@Win32_InfraredDevice?$AA@
	DD	FLAT:??_C@_0BJ@CFOPGMLH@PowerManagementSupported?$AA@
	DD	FLAT:??_C@_0BF@EEIPINHM@Win32_InfraredDevice?$AA@
	DD	FLAT:??_C@_0BC@JHPOAJCM@ProtocolSupported?$AA@
	DD	FLAT:??_C@_0BF@EEIPINHM@Win32_InfraredDevice?$AA@
	DD	FLAT:??_C@_06PGDKHFME@Status?$AA@
	DD	FLAT:??_C@_0BF@EEIPINHM@Win32_InfraredDevice?$AA@
	DD	FLAT:??_C@_0L@PKEHCAEI@StatusInfo?$AA@
	DD	FLAT:??_C@_0BF@EEIPINHM@Win32_InfraredDevice?$AA@
	DD	FLAT:??_C@_0BA@HADKHLAI@TimeOfLastReset?$AA@
	DD	FLAT:??_C@_0BC@MGLAEOHD@Win32_IRQResource?$AA@
	DD	FLAT:??_C@_04FABLJDN@Name?$AA@
	DD	FLAT:??_C@_0BC@MGLAEOHD@Win32_IRQResource?$AA@
	DD	FLAT:??_C@_0N@MFGCECDI@Availability?$AA@
	DD	FLAT:??_C@_0BC@MGLAEOHD@Win32_IRQResource?$AA@
	DD	FLAT:??_C@_08PPIOJEA@Hardware?$AA@
	DD	FLAT:??_C@_0BC@MGLAEOHD@Win32_IRQResource?$AA@
	DD	FLAT:??_C@_0M@NBIJNNJJ@InstallDate?$AA@
	DD	FLAT:??_C@_0BC@MGLAEOHD@Win32_IRQResource?$AA@
	DD	FLAT:??_C@_09PKFILKGD@Shareable?$AA@
	DD	FLAT:??_C@_0BC@MGLAEOHD@Win32_IRQResource?$AA@
	DD	FLAT:??_C@_06PGDKHFME@Status?$AA@
	DD	FLAT:??_C@_0BC@MGLAEOHD@Win32_IRQResource?$AA@
	DD	FLAT:??_C@_0N@NCNNCPPP@TriggerLevel?$AA@
	DD	FLAT:??_C@_0BC@MGLAEOHD@Win32_IRQResource?$AA@
	DD	FLAT:??_C@_0M@NKHMGHID@TriggerType?$AA@
	DD	FLAT:??_C@_0BC@MGLAEOHD@Win32_IRQResource?$AA@
	DD	FLAT:??_C@_06BOOCMPNK@Vector?$AA@
	DD	FLAT:??_C@_0P@IGJIBAJA@Win32_Keyboard?$AA@
	DD	FLAT:??_C@_04FABLJDN@Name?$AA@
	DD	FLAT:??_C@_0P@IGJIBAJA@Win32_Keyboard?$AA@
	DD	FLAT:??_C@_0M@HHJKGII@PNPDeviceID?$AA@
	DD	FLAT:??_C@_0P@IGJIBAJA@Win32_Keyboard?$AA@
	DD	FLAT:??_C@_08JLPEJKOE@DeviceID?$AA@
	DD	FLAT:??_C@_0P@IGJIBAJA@Win32_Keyboard?$AA@
	DD	FLAT:??_C@_06KMHOJANB@Layout?$AA@
	DD	FLAT:??_C@_0P@IGJIBAJA@Win32_Keyboard?$AA@
	DD	FLAT:??_C@_0BF@DODFNOHG@NumberOfFunctionKeys?$AA@
	DD	FLAT:??_C@_0P@IGJIBAJA@Win32_Keyboard?$AA@
	DD	FLAT:??_C@_0N@MFGCECDI@Availability?$AA@
	DD	FLAT:??_C@_0P@IGJIBAJA@Win32_Keyboard?$AA@
	DD	FLAT:??_C@_07OJKFJLLK@Caption?$AA@
	DD	FLAT:??_C@_0P@IGJIBAJA@Win32_Keyboard?$AA@
	DD	FLAT:??_C@_0BH@JDEEEDCN@ConfigManagerErrorCode?$AA@
	DD	FLAT:??_C@_0P@IGJIBAJA@Win32_Keyboard?$AA@
	DD	FLAT:??_C@_0BI@OBNCDCBF@ConfigManagerUserConfig?$AA@
	DD	FLAT:??_C@_0P@IGJIBAJA@Win32_Keyboard?$AA@
	DD	FLAT:??_C@_0M@OHKMKKDH@Description?$AA@
	DD	FLAT:??_C@_0P@IGJIBAJA@Win32_Keyboard?$AA@
	DD	FLAT:??_C@_0N@FJHLDHMG@ErrorCleared?$AA@
	DD	FLAT:??_C@_0P@IGJIBAJA@Win32_Keyboard?$AA@
	DD	FLAT:??_C@_0BB@KIDBLMK@ErrorDescription?$AA@
	DD	FLAT:??_C@_0P@IGJIBAJA@Win32_Keyboard?$AA@
	DD	FLAT:??_C@_0M@NBIJNNJJ@InstallDate?$AA@
	DD	FLAT:??_C@_0P@IGJIBAJA@Win32_Keyboard?$AA@
	DD	FLAT:??_C@_08EOCJLAAL@IsLocked?$AA@
	DD	FLAT:??_C@_0P@IGJIBAJA@Win32_Keyboard?$AA@
	DD	FLAT:??_C@_0O@NDKHIJAE@LastErrorCode?$AA@
	DD	FLAT:??_C@_0P@IGJIBAJA@Win32_Keyboard?$AA@
	DD	FLAT:??_C@_08FJIAHGMM@Password?$AA@
	DD	FLAT:??_C@_0P@IGJIBAJA@Win32_Keyboard?$AA@
	DD	FLAT:??_C@_0BM@NFDEHNHA@PowerManagementCapabilities?$AA@
	DD	FLAT:??_C@_0P@IGJIBAJA@Win32_Keyboard?$AA@
	DD	FLAT:??_C@_0BJ@CFOPGMLH@PowerManagementSupported?$AA@
	DD	FLAT:??_C@_0P@IGJIBAJA@Win32_Keyboard?$AA@
	DD	FLAT:??_C@_06PGDKHFME@Status?$AA@
	DD	FLAT:??_C@_0P@IGJIBAJA@Win32_Keyboard?$AA@
	DD	FLAT:??_C@_0L@PKEHCAEI@StatusInfo?$AA@
	DD	FLAT:??_C@_0BI@DKDNDIIN@Win32_MotherboardDevice?$AA@
	DD	FLAT:??_C@_04FABLJDN@Name?$AA@
	DD	FLAT:??_C@_0BI@DKDNDIIN@Win32_MotherboardDevice?$AA@
	DD	FLAT:??_C@_0M@HHJKGII@PNPDeviceID?$AA@
	DD	FLAT:??_C@_0BI@DKDNDIIN@Win32_MotherboardDevice?$AA@
	DD	FLAT:??_C@_08JLPEJKOE@DeviceID?$AA@
	DD	FLAT:??_C@_0BI@DKDNDIIN@Win32_MotherboardDevice?$AA@
	DD	FLAT:??_C@_0N@MFGCECDI@Availability?$AA@
	DD	FLAT:??_C@_0BI@DKDNDIIN@Win32_MotherboardDevice?$AA@
	DD	FLAT:??_C@_0BH@JDEEEDCN@ConfigManagerErrorCode?$AA@
	DD	FLAT:??_C@_0BI@DKDNDIIN@Win32_MotherboardDevice?$AA@
	DD	FLAT:??_C@_0BI@OBNCDCBF@ConfigManagerUserConfig?$AA@
	DD	FLAT:??_C@_0BI@DKDNDIIN@Win32_MotherboardDevice?$AA@
	DD	FLAT:??_C@_0N@FJHLDHMG@ErrorCleared?$AA@
	DD	FLAT:??_C@_0BI@DKDNDIIN@Win32_MotherboardDevice?$AA@
	DD	FLAT:??_C@_0BB@KIDBLMK@ErrorDescription?$AA@
	DD	FLAT:??_C@_0BI@DKDNDIIN@Win32_MotherboardDevice?$AA@
	DD	FLAT:??_C@_0M@NBIJNNJJ@InstallDate?$AA@
	DD	FLAT:??_C@_0BI@DKDNDIIN@Win32_MotherboardDevice?$AA@
	DD	FLAT:??_C@_0O@NDKHIJAE@LastErrorCode?$AA@
	DD	FLAT:??_C@_0BI@DKDNDIIN@Win32_MotherboardDevice?$AA@
	DD	FLAT:??_C@_0BM@NFDEHNHA@PowerManagementCapabilities?$AA@
	DD	FLAT:??_C@_0BI@DKDNDIIN@Win32_MotherboardDevice?$AA@
	DD	FLAT:??_C@_0BJ@CFOPGMLH@PowerManagementSupported?$AA@
	DD	FLAT:??_C@_0BI@DKDNDIIN@Win32_MotherboardDevice?$AA@
	DD	FLAT:??_C@_0P@GCEIIPJN@PrimaryBusType?$AA@
	DD	FLAT:??_C@_0BI@DKDNDIIN@Win32_MotherboardDevice?$AA@
	DD	FLAT:??_C@_0P@EJGNFGBG@RevisionNumber?$AA@
	DD	FLAT:??_C@_0BI@DKDNDIIN@Win32_MotherboardDevice?$AA@
	DD	FLAT:??_C@_0BB@MKKJDBAN@SecondaryBusType?$AA@
	DD	FLAT:??_C@_0BI@DKDNDIIN@Win32_MotherboardDevice?$AA@
	DD	FLAT:??_C@_06PGDKHFME@Status?$AA@
	DD	FLAT:??_C@_0BI@DKDNDIIN@Win32_MotherboardDevice?$AA@
	DD	FLAT:??_C@_0L@PKEHCAEI@StatusInfo?$AA@
	DD	FLAT:??_C@_0BE@ILPPNPBM@Win32_OnBoardDevice?$AA@
	DD	FLAT:??_C@_03PJHNOEGB@Tag?$AA@
	DD	FLAT:??_C@_0BE@ILPPNPBM@Win32_OnBoardDevice?$AA@
	DD	FLAT:??_C@_05NFIJOKEG@Model?$AA@
	DD	FLAT:??_C@_0BE@ILPPNPBM@Win32_OnBoardDevice?$AA@
	DD	FLAT:??_C@_07NGFJPNPN@Version?$AA@
	DD	FLAT:??_C@_0BE@ILPPNPBM@Win32_OnBoardDevice?$AA@
	DD	FLAT:??_C@_0N@BBNLMPJO@Manufacturer?$AA@
	DD	FLAT:??_C@_0BE@ILPPNPBM@Win32_OnBoardDevice?$AA@
	DD	FLAT:??_C@_0N@FPJJBBNM@SerialNumber?$AA@
	DD	FLAT:??_C@_0BE@ILPPNPBM@Win32_OnBoardDevice?$AA@
	DD	FLAT:??_C@_0L@MIOPIENN@PartNumber?$AA@
	DD	FLAT:??_C@_0BE@ILPPNPBM@Win32_OnBoardDevice?$AA@
	DD	FLAT:??_C@_0M@OHKMKKDH@Description?$AA@
	DD	FLAT:??_C@_0BE@ILPPNPBM@Win32_OnBoardDevice?$AA@
	DD	FLAT:??_C@_0L@PMICFDLL@DeviceType?$AA@
	DD	FLAT:??_C@_0BE@ILPPNPBM@Win32_OnBoardDevice?$AA@
	DD	FLAT:??_C@_07DOAOMMKG@Enabled?$AA@
	DD	FLAT:??_C@_0BE@ILPPNPBM@Win32_OnBoardDevice?$AA@
	DD	FLAT:??_C@_0N@FCOIALPI@HotSwappable?$AA@
	DD	FLAT:??_C@_0BE@ILPPNPBM@Win32_OnBoardDevice?$AA@
	DD	FLAT:??_C@_0M@NBIJNNJJ@InstallDate?$AA@
	DD	FLAT:??_C@_0BE@ILPPNPBM@Win32_OnBoardDevice?$AA@
	DD	FLAT:??_C@_0BF@DMENANMJ@OtherIdentifyingInfo?$AA@
	DD	FLAT:??_C@_0BE@ILPPNPBM@Win32_OnBoardDevice?$AA@
	DD	FLAT:??_C@_09HKGEBMAI@PoweredOn?$AA@
	DD	FLAT:??_C@_0BE@ILPPNPBM@Win32_OnBoardDevice?$AA@
	DD	FLAT:??_C@_09DADBKOHO@Removable?$AA@
	DD	FLAT:??_C@_0BE@ILPPNPBM@Win32_OnBoardDevice?$AA@
	DD	FLAT:??_C@_0M@KLOLJEDG@Replaceable?$AA@
	DD	FLAT:??_C@_0BE@ILPPNPBM@Win32_OnBoardDevice?$AA@
	DD	FLAT:??_C@_03LMAAELJP@SKU?$AA@
	DD	FLAT:??_C@_0BE@ILPPNPBM@Win32_OnBoardDevice?$AA@
	DD	FLAT:??_C@_06PGDKHFME@Status?$AA@
	DD	FLAT:??_C@_0BH@CNGPGCKD@Win32_PCMCIAController?$AA@
	DD	FLAT:??_C@_04FABLJDN@Name?$AA@
	DD	FLAT:??_C@_0BH@CNGPGCKD@Win32_PCMCIAController?$AA@
	DD	FLAT:??_C@_0M@HHJKGII@PNPDeviceID?$AA@
	DD	FLAT:??_C@_0BH@CNGPGCKD@Win32_PCMCIAController?$AA@
	DD	FLAT:??_C@_08JLPEJKOE@DeviceID?$AA@
	DD	FLAT:??_C@_0BH@CNGPGCKD@Win32_PCMCIAController?$AA@
	DD	FLAT:??_C@_0BE@JDLAPHJE@MaxNumberControlled?$AA@
	DD	FLAT:??_C@_0BH@CNGPGCKD@Win32_PCMCIAController?$AA@
	DD	FLAT:??_C@_0BC@JHPOAJCM@ProtocolSupported?$AA@
	DD	FLAT:??_C@_0BH@CNGPGCKD@Win32_PCMCIAController?$AA@
	DD	FLAT:??_C@_0N@MFGCECDI@Availability?$AA@
	DD	FLAT:??_C@_0BH@CNGPGCKD@Win32_PCMCIAController?$AA@
	DD	FLAT:??_C@_07OJKFJLLK@Caption?$AA@
	DD	FLAT:??_C@_0BH@CNGPGCKD@Win32_PCMCIAController?$AA@
	DD	FLAT:??_C@_0BH@JDEEEDCN@ConfigManagerErrorCode?$AA@
	DD	FLAT:??_C@_0BH@CNGPGCKD@Win32_PCMCIAController?$AA@
	DD	FLAT:??_C@_0BI@OBNCDCBF@ConfigManagerUserConfig?$AA@
	DD	FLAT:??_C@_0BH@CNGPGCKD@Win32_PCMCIAController?$AA@
	DD	FLAT:??_C@_0M@OHKMKKDH@Description?$AA@
	DD	FLAT:??_C@_0BH@CNGPGCKD@Win32_PCMCIAController?$AA@
	DD	FLAT:??_C@_0N@FJHLDHMG@ErrorCleared?$AA@
	DD	FLAT:??_C@_0BH@CNGPGCKD@Win32_PCMCIAController?$AA@
	DD	FLAT:??_C@_0BB@KIDBLMK@ErrorDescription?$AA@
	DD	FLAT:??_C@_0BH@CNGPGCKD@Win32_PCMCIAController?$AA@
	DD	FLAT:??_C@_0M@NBIJNNJJ@InstallDate?$AA@
	DD	FLAT:??_C@_0BH@CNGPGCKD@Win32_PCMCIAController?$AA@
	DD	FLAT:??_C@_0O@NDKHIJAE@LastErrorCode?$AA@
	DD	FLAT:??_C@_0BH@CNGPGCKD@Win32_PCMCIAController?$AA@
	DD	FLAT:??_C@_0N@BBNLMPJO@Manufacturer?$AA@
	DD	FLAT:??_C@_0BH@CNGPGCKD@Win32_PCMCIAController?$AA@
	DD	FLAT:??_C@_0BM@NFDEHNHA@PowerManagementCapabilities?$AA@
	DD	FLAT:??_C@_0BH@CNGPGCKD@Win32_PCMCIAController?$AA@
	DD	FLAT:??_C@_0BJ@CFOPGMLH@PowerManagementSupported?$AA@
	DD	FLAT:??_C@_0BH@CNGPGCKD@Win32_PCMCIAController?$AA@
	DD	FLAT:??_C@_06PGDKHFME@Status?$AA@
	DD	FLAT:??_C@_0BH@CNGPGCKD@Win32_PCMCIAController?$AA@
	DD	FLAT:??_C@_0L@PKEHCAEI@StatusInfo?$AA@
	DD	FLAT:??_C@_0BH@CNGPGCKD@Win32_PCMCIAController?$AA@
	DD	FLAT:??_C@_0BA@HADKHLAI@TimeOfLastReset?$AA@
	DD	FLAT:??_C@_0BA@EHCOOLPP@Win32_PnPEntity?$AA@
	DD	FLAT:??_C@_04FABLJDN@Name?$AA@
	DD	FLAT:??_C@_0BA@EHCOOLPP@Win32_PnPEntity?$AA@
	DD	FLAT:??_C@_07LMLHFMEG@Service?$AA@
	DD	FLAT:??_C@_0BA@EHCOOLPP@Win32_PnPEntity?$AA@
	DD	FLAT:??_C@_0M@HHJKGII@PNPDeviceID?$AA@
	DD	FLAT:??_C@_0BA@EHCOOLPP@Win32_PnPEntity?$AA@
	DD	FLAT:??_C@_08JLPEJKOE@DeviceID?$AA@
	DD	FLAT:??_C@_0BA@EHCOOLPP@Win32_PnPEntity?$AA@
	DD	FLAT:??_C@_09GPHNMGJN@ClassGuid?$AA@
	DD	FLAT:??_C@_0BA@EHCOOLPP@Win32_PnPEntity?$AA@
	DD	FLAT:??_C@_0N@MFGCECDI@Availability?$AA@
	DD	FLAT:??_C@_0BA@EHCOOLPP@Win32_PnPEntity?$AA@
	DD	FLAT:??_C@_0N@EEHHOFBP@CompatibleID?$AA@
	DD	FLAT:??_C@_0BA@EHCOOLPP@Win32_PnPEntity?$AA@
	DD	FLAT:??_C@_0BH@JDEEEDCN@ConfigManagerErrorCode?$AA@
	DD	FLAT:??_C@_0BA@EHCOOLPP@Win32_PnPEntity?$AA@
	DD	FLAT:??_C@_0BI@OBNCDCBF@ConfigManagerUserConfig?$AA@
	DD	FLAT:??_C@_0BA@EHCOOLPP@Win32_PnPEntity?$AA@
	DD	FLAT:??_C@_0N@FJHLDHMG@ErrorCleared?$AA@
	DD	FLAT:??_C@_0BA@EHCOOLPP@Win32_PnPEntity?$AA@
	DD	FLAT:??_C@_0BB@KIDBLMK@ErrorDescription?$AA@
	DD	FLAT:??_C@_0BA@EHCOOLPP@Win32_PnPEntity?$AA@
	DD	FLAT:??_C@_0L@MCPBCGGP@HardwareID?$AA@
	DD	FLAT:??_C@_0BA@EHCOOLPP@Win32_PnPEntity?$AA@
	DD	FLAT:??_C@_0M@NBIJNNJJ@InstallDate?$AA@
	DD	FLAT:??_C@_0BA@EHCOOLPP@Win32_PnPEntity?$AA@
	DD	FLAT:??_C@_0O@NDKHIJAE@LastErrorCode?$AA@
	DD	FLAT:??_C@_0BA@EHCOOLPP@Win32_PnPEntity?$AA@
	DD	FLAT:??_C@_0N@BBNLMPJO@Manufacturer?$AA@
	DD	FLAT:??_C@_0BA@EHCOOLPP@Win32_PnPEntity?$AA@
	DD	FLAT:??_C@_0BM@NFDEHNHA@PowerManagementCapabilities?$AA@
	DD	FLAT:??_C@_0BA@EHCOOLPP@Win32_PnPEntity?$AA@
	DD	FLAT:??_C@_0BJ@CFOPGMLH@PowerManagementSupported?$AA@
	DD	FLAT:??_C@_0BA@EHCOOLPP@Win32_PnPEntity?$AA@
	DD	FLAT:??_C@_06PGDKHFME@Status?$AA@
	DD	FLAT:??_C@_0BA@EHCOOLPP@Win32_PnPEntity?$AA@
	DD	FLAT:??_C@_0L@PKEHCAEI@StatusInfo?$AA@
	DD	FLAT:??_C@_0BF@MJMHBKMK@Win32_PointingDevice?$AA@
	DD	FLAT:??_C@_04FABLJDN@Name?$AA@
	DD	FLAT:??_C@_0BF@MJMHBKMK@Win32_PointingDevice?$AA@
	DD	FLAT:??_C@_0M@HHJKGII@PNPDeviceID?$AA@
	DD	FLAT:??_C@_0BF@MJMHBKMK@Win32_PointingDevice?$AA@
	DD	FLAT:??_C@_08JLPEJKOE@DeviceID?$AA@
	DD	FLAT:??_C@_0BF@MJMHBKMK@Win32_PointingDevice?$AA@
	DD	FLAT:??_C@_0N@BBNLMPJO@Manufacturer?$AA@
	DD	FLAT:??_C@_0BF@MJMHBKMK@Win32_PointingDevice?$AA@
	DD	FLAT:??_C@_0N@HMDMLBLH@PointingType?$AA@
	DD	FLAT:??_C@_0BF@MJMHBKMK@Win32_PointingDevice?$AA@
	DD	FLAT:??_C@_0BA@EHILAMBM@NumberOfButtons?$AA@
	DD	FLAT:??_C@_0BF@MJMHBKMK@Win32_PointingDevice?$AA@
	DD	FLAT:??_C@_0BA@PLLFIHNG@DeviceInterface?$AA@
	DD	FLAT:??_C@_0BF@MJMHBKMK@Win32_PointingDevice?$AA@
	DD	FLAT:??_C@_0N@OGCCLEJJ@HardwareType?$AA@
	DD	FLAT:??_C@_0BF@MJMHBKMK@Win32_PointingDevice?$AA@
	DD	FLAT:??_C@_0L@DEGCDBKP@Handedness?$AA@
	DD	FLAT:??_C@_0BF@MJMHBKMK@Win32_PointingDevice?$AA@
	DD	FLAT:??_C@_0N@MFGCECDI@Availability?$AA@
	DD	FLAT:??_C@_0BF@MJMHBKMK@Win32_PointingDevice?$AA@
	DD	FLAT:??_C@_0BH@JDEEEDCN@ConfigManagerErrorCode?$AA@
	DD	FLAT:??_C@_0BF@MJMHBKMK@Win32_PointingDevice?$AA@
	DD	FLAT:??_C@_0BI@OBNCDCBF@ConfigManagerUserConfig?$AA@
	DD	FLAT:??_C@_0BF@MJMHBKMK@Win32_PointingDevice?$AA@
	DD	FLAT:??_C@_0BF@FLDPHBAC@DoubleSpeedThreshold?$AA@
	DD	FLAT:??_C@_0BF@MJMHBKMK@Win32_PointingDevice?$AA@
	DD	FLAT:??_C@_0N@FJHLDHMG@ErrorCleared?$AA@
	DD	FLAT:??_C@_0BF@MJMHBKMK@Win32_PointingDevice?$AA@
	DD	FLAT:??_C@_0BB@KIDBLMK@ErrorDescription?$AA@
	DD	FLAT:??_C@_0BF@MJMHBKMK@Win32_PointingDevice?$AA@
	DD	FLAT:??_C@_0M@LNGELFEC@InfFileName?$AA@
	DD	FLAT:??_C@_0BF@MJMHBKMK@Win32_PointingDevice?$AA@
	DD	FLAT:??_C@_0L@KHOEHLLF@InfSection?$AA@
	DD	FLAT:??_C@_0BF@MJMHBKMK@Win32_PointingDevice?$AA@
	DD	FLAT:??_C@_0M@NBIJNNJJ@InstallDate?$AA@
	DD	FLAT:??_C@_0BF@MJMHBKMK@Win32_PointingDevice?$AA@
	DD	FLAT:??_C@_08EOCJLAAL@IsLocked?$AA@
	DD	FLAT:??_C@_0BF@MJMHBKMK@Win32_PointingDevice?$AA@
	DD	FLAT:??_C@_0O@NDKHIJAE@LastErrorCode?$AA@
	DD	FLAT:??_C@_0BF@MJMHBKMK@Win32_PointingDevice?$AA@
	DD	FLAT:??_C@_0BM@NFDEHNHA@PowerManagementCapabilities?$AA@
	DD	FLAT:??_C@_0BF@MJMHBKMK@Win32_PointingDevice?$AA@
	DD	FLAT:??_C@_0BJ@CFOPGMLH@PowerManagementSupported?$AA@
	DD	FLAT:??_C@_0BF@MJMHBKMK@Win32_PointingDevice?$AA@
	DD	FLAT:??_C@_0BD@MJAHKLJJ@QuadSpeedThreshold?$AA@
	DD	FLAT:??_C@_0BF@MJMHBKMK@Win32_PointingDevice?$AA@
	DD	FLAT:??_C@_0L@KGPBCGJE@Resolution?$AA@
	DD	FLAT:??_C@_0BF@MJMHBKMK@Win32_PointingDevice?$AA@
	DD	FLAT:??_C@_0L@NEGJIGMA@SampleRate?$AA@
	DD	FLAT:??_C@_0BF@MJMHBKMK@Win32_PointingDevice?$AA@
	DD	FLAT:??_C@_06PGDKHFME@Status?$AA@
	DD	FLAT:??_C@_0BF@MJMHBKMK@Win32_PointingDevice?$AA@
	DD	FLAT:??_C@_0L@PKEHCAEI@StatusInfo?$AA@
	DD	FLAT:??_C@_0BF@MJMHBKMK@Win32_PointingDevice?$AA@
	DD	FLAT:??_C@_05MKJLCFN@Synch?$AA@
	DD	FLAT:??_C@_0BE@BFHBBNBL@Win32_PortConnector?$AA@
	DD	FLAT:??_C@_03PJHNOEGB@Tag?$AA@
	DD	FLAT:??_C@_0BE@BFHBBNBL@Win32_PortConnector?$AA@
	DD	FLAT:??_C@_0N@BBNLMPJO@Manufacturer?$AA@
	DD	FLAT:??_C@_0BE@BFHBBNBL@Win32_PortConnector?$AA@
	DD	FLAT:??_C@_0N@FPJJBBNM@SerialNumber?$AA@
	DD	FLAT:??_C@_0BE@BFHBBNBL@Win32_PortConnector?$AA@
	DD	FLAT:??_C@_05NFIJOKEG@Model?$AA@
	DD	FLAT:??_C@_0BE@BFHBBNBL@Win32_PortConnector?$AA@
	DD	FLAT:??_C@_07NGFJPNPN@Version?$AA@
	DD	FLAT:??_C@_0BE@BFHBBNBL@Win32_PortConnector?$AA@
	DD	FLAT:??_C@_0BM@OAEDMMAI@ExternalReferenceDesignator?$AA@
	DD	FLAT:??_C@_0BE@BFHBBNBL@Win32_PortConnector?$AA@
	DD	FLAT:??_C@_0BM@JBGCGAG@InternalReferenceDesignator?$AA@
	DD	FLAT:??_C@_0BE@BFHBBNBL@Win32_PortConnector?$AA@
	DD	FLAT:??_C@_08BOPEOHEK@PortType?$AA@
	DD	FLAT:??_C@_0BE@BFHBBNBL@Win32_PortConnector?$AA@
	DD	FLAT:??_C@_0O@CPCPFFAH@ConnectorType?$AA@
	DD	FLAT:??_C@_0BE@BFHBBNBL@Win32_PortConnector?$AA@
	DD	FLAT:??_C@_0BA@KNNOFNF@ConnectorPinout?$AA@
	DD	FLAT:??_C@_0BE@BFHBBNBL@Win32_PortConnector?$AA@
	DD	FLAT:??_C@_0M@NBIJNNJJ@InstallDate?$AA@
	DD	FLAT:??_C@_0BE@BFHBBNBL@Win32_PortConnector?$AA@
	DD	FLAT:??_C@_0BF@DMENANMJ@OtherIdentifyingInfo?$AA@
	DD	FLAT:??_C@_0BE@BFHBBNBL@Win32_PortConnector?$AA@
	DD	FLAT:??_C@_0L@MIOPIENN@PartNumber?$AA@
	DD	FLAT:??_C@_0BE@BFHBBNBL@Win32_PortConnector?$AA@
	DD	FLAT:??_C@_09HKGEBMAI@PoweredOn?$AA@
	DD	FLAT:??_C@_0BE@BFHBBNBL@Win32_PortConnector?$AA@
	DD	FLAT:??_C@_03LMAAELJP@SKU?$AA@
	DD	FLAT:??_C@_0BE@BFHBBNBL@Win32_PortConnector?$AA@
	DD	FLAT:??_C@_06PGDKHFME@Status?$AA@
	DD	FLAT:??_C@_0BD@JJNGNMBL@Win32_PortResource?$AA@
	DD	FLAT:??_C@_04FABLJDN@Name?$AA@
	DD	FLAT:??_C@_0BD@JJNGNMBL@Win32_PortResource?$AA@
	DD	FLAT:??_C@_05NNNCCOHC@Alias?$AA@
	DD	FLAT:??_C@_0BD@JJNGNMBL@Win32_PortResource?$AA@
	DD	FLAT:??_C@_0M@NBIJNNJJ@InstallDate?$AA@
	DD	FLAT:??_C@_0BD@JJNGNMBL@Win32_PortResource?$AA@
	DD	FLAT:??_C@_06PGDKHFME@Status?$AA@
	DD	FLAT:??_C@_0BE@HLKMDILE@Win32_PrinterDriver?$AA@
	DD	FLAT:??_C@_04FABLJDN@Name?$AA@
	DD	FLAT:??_C@_0BE@HLKMDILE@Win32_PrinterDriver?$AA@
	DD	FLAT:??_C@_0BA@PFCCEOEE@DefaultDataType?$AA@
	DD	FLAT:??_C@_0BE@HLKMDILE@Win32_PrinterDriver?$AA@
	DD	FLAT:??_C@_0L@EAJLGPDF@DriverPath?$AA@
	DD	FLAT:??_C@_0BE@HLKMDILE@Win32_PrinterDriver?$AA@
	DD	FLAT:??_C@_08CKKAOMLK@FilePath?$AA@
	DD	FLAT:??_C@_0BE@HLKMDILE@Win32_PrinterDriver?$AA@
	DD	FLAT:??_C@_0L@LKBOBDBI@ConfigFile?$AA@
	DD	FLAT:??_C@_0BE@HLKMDILE@Win32_PrinterDriver?$AA@
	DD	FLAT:??_C@_08JFJMIJHO@DataFile?$AA@
	DD	FLAT:??_C@_0BE@HLKMDILE@Win32_PrinterDriver?$AA@
	DD	FLAT:??_C@_0M@PJPGFADP@MonitorName?$AA@
	DD	FLAT:??_C@_0BE@HLKMDILE@Win32_PrinterDriver?$AA@
	DD	FLAT:??_C@_0BC@MLDLGMGB@SupportedPlatform?$AA@
	DD	FLAT:??_C@_0BE@HLKMDILE@Win32_PrinterDriver?$AA@
	DD	FLAT:??_C@_07NGFJPNPN@Version?$AA@
	DD	FLAT:??_C@_0BE@HLKMDILE@Win32_PrinterDriver?$AA@
	DD	FLAT:??_C@_07JFPHJDHA@InfName?$AA@
	DD	FLAT:??_C@_0BE@HLKMDILE@Win32_PrinterDriver?$AA@
	DD	FLAT:??_C@_08GLFJHHAH@HelpFile?$AA@
	DD	FLAT:??_C@_0BE@HLKMDILE@Win32_PrinterDriver?$AA@
	DD	FLAT:??_C@_07OJKFJLLK@Caption?$AA@
	DD	FLAT:??_C@_0BE@HLKMDILE@Win32_PrinterDriver?$AA@
	DD	FLAT:??_C@_0P@NBBGILI@DependentFiles?$AA@
	DD	FLAT:??_C@_0BE@HLKMDILE@Win32_PrinterDriver?$AA@
	DD	FLAT:??_C@_0M@OHKMKKDH@Description?$AA@
	DD	FLAT:??_C@_0BE@HLKMDILE@Win32_PrinterDriver?$AA@
	DD	FLAT:??_C@_0M@NBIJNNJJ@InstallDate?$AA@
	DD	FLAT:??_C@_0BE@HLKMDILE@Win32_PrinterDriver?$AA@
	DD	FLAT:??_C@_06ENMIEFDD@OEMUrl?$AA@
	DD	FLAT:??_C@_0BE@HLKMDILE@Win32_PrinterDriver?$AA@
	DD	FLAT:??_C@_07LCDJNPHI@Started?$AA@
	DD	FLAT:??_C@_0BE@HLKMDILE@Win32_PrinterDriver?$AA@
	DD	FLAT:??_C@_09IAGOJBFI@StartMode?$AA@
	DD	FLAT:??_C@_0BE@HLKMDILE@Win32_PrinterDriver?$AA@
	DD	FLAT:??_C@_06PGDKHFME@Status?$AA@
	DD	FLAT:??_C@_0BA@OJJOBJJP@Win32_Processor?$AA@
	DD	FLAT:??_C@_04FABLJDN@Name?$AA@
	DD	FLAT:??_C@_0BA@OJJOBJJP@Win32_Processor?$AA@
	DD	FLAT:??_C@_0M@HHJKGII@PNPDeviceID?$AA@
	DD	FLAT:??_C@_0BA@OJJOBJJP@Win32_Processor?$AA@
	DD	FLAT:??_C@_08JLPEJKOE@DeviceID?$AA@
	DD	FLAT:??_C@_0BA@OJJOBJJP@Win32_Processor?$AA@
	DD	FLAT:??_C@_0N@MDJPNJNL@Architecture?$AA@
	DD	FLAT:??_C@_0BA@OJJOBJJP@Win32_Processor?$AA@
	DD	FLAT:??_C@_0N@BBNLMPJO@Manufacturer?$AA@
	DD	FLAT:??_C@_0BA@OJJOBJJP@Win32_Processor?$AA@
	DD	FLAT:??_C@_07NGFJPNPN@Version?$AA@
	DD	FLAT:??_C@_0BA@OJJOBJJP@Win32_Processor?$AA@
	DD	FLAT:??_C@_0O@FFCOPHIP@NumberOfCores?$AA@
	DD	FLAT:??_C@_0BA@OJJOBJJP@Win32_Processor?$AA@
	DD	FLAT:??_C@_0O@MJOHKFKO@MaxClockSpeed?$AA@
	DD	FLAT:??_C@_0BA@OJJOBJJP@Win32_Processor?$AA@
	DD	FLAT:??_C@_0BK@OBFFNDNO@NumberOfLogicalProcessors?$AA@
	DD	FLAT:??_C@_0BA@OJJOBJJP@Win32_Processor?$AA@
	DD	FLAT:??_C@_06BOFMEHLD@Family?$AA@
	DD	FLAT:??_C@_0BA@OJJOBJJP@Win32_Processor?$AA@
	DD	FLAT:??_C@_0M@DJKFFMLN@L2CacheSize?$AA@
	DD	FLAT:??_C@_0BA@OJJOBJJP@Win32_Processor?$AA@
	DD	FLAT:??_C@_0N@NBPCHGPE@L2CacheSpeed?$AA@
	DD	FLAT:??_C@_0BA@OJJOBJJP@Win32_Processor?$AA@
	DD	FLAT:??_C@_0M@PICLIDHN@L3CacheSize?$AA@
	DD	FLAT:??_C@_0BA@OJJOBJJP@Win32_Processor?$AA@
	DD	FLAT:??_C@_0N@EKFHDKJL@L3CacheSpeed?$AA@
	DD	FLAT:??_C@_0BA@OJJOBJJP@Win32_Processor?$AA@
	DD	FLAT:??_C@_0N@IPOPOCBB@AddressWidth?$AA@
	DD	FLAT:??_C@_0BA@OJJOBJJP@Win32_Processor?$AA@
	DD	FLAT:??_C@_0N@MFGCECDI@Availability?$AA@
	DD	FLAT:??_C@_0BA@OJJOBJJP@Win32_Processor?$AA@
	DD	FLAT:??_C@_0BH@JDEEEDCN@ConfigManagerErrorCode?$AA@
	DD	FLAT:??_C@_0BA@OJJOBJJP@Win32_Processor?$AA@
	DD	FLAT:??_C@_0BI@OBNCDCBF@ConfigManagerUserConfig?$AA@
	DD	FLAT:??_C@_0BA@OJJOBJJP@Win32_Processor?$AA@
	DD	FLAT:??_C@_09OJECCCEO@CpuStatus?$AA@
	DD	FLAT:??_C@_0BA@OJJOBJJP@Win32_Processor?$AA@
	DD	FLAT:??_C@_0BC@JFANJPME@CurrentClockSpeed?$AA@
	DD	FLAT:??_C@_0BA@OJJOBJJP@Win32_Processor?$AA@
	DD	FLAT:??_C@_0P@IHAGOHLC@CurrentVoltage?$AA@
	DD	FLAT:??_C@_0BA@OJJOBJJP@Win32_Processor?$AA@
	DD	FLAT:??_C@_09KNGBBIL@DataWidth?$AA@
	DD	FLAT:??_C@_0BA@OJJOBJJP@Win32_Processor?$AA@
	DD	FLAT:??_C@_0M@OHKMKKDH@Description?$AA@
	DD	FLAT:??_C@_0BA@OJJOBJJP@Win32_Processor?$AA@
	DD	FLAT:??_C@_0N@FJHLDHMG@ErrorCleared?$AA@
	DD	FLAT:??_C@_0BA@OJJOBJJP@Win32_Processor?$AA@
	DD	FLAT:??_C@_0BB@KIDBLMK@ErrorDescription?$AA@
	DD	FLAT:??_C@_0BA@OJJOBJJP@Win32_Processor?$AA@
	DD	FLAT:??_C@_08JALCBBMK@ExtClock?$AA@
	DD	FLAT:??_C@_0BA@OJJOBJJP@Win32_Processor?$AA@
	DD	FLAT:??_C@_0M@NBIJNNJJ@InstallDate?$AA@
	DD	FLAT:??_C@_0BA@OJJOBJJP@Win32_Processor?$AA@
	DD	FLAT:??_C@_0O@NDKHIJAE@LastErrorCode?$AA@
	DD	FLAT:??_C@_0BA@OJJOBJJP@Win32_Processor?$AA@
	DD	FLAT:??_C@_05KOHFLOFG@Level?$AA@
	DD	FLAT:??_C@_0BA@OJJOBJJP@Win32_Processor?$AA@
	DD	FLAT:??_C@_0P@HLLBIGKP@LoadPercentage?$AA@
	DD	FLAT:??_C@_0BA@OJJOBJJP@Win32_Processor?$AA@
	DD	FLAT:??_C@_0BH@LLAHKBOJ@OtherFamilyDescription?$AA@
	DD	FLAT:??_C@_0BA@OJJOBJJP@Win32_Processor?$AA@
	DD	FLAT:??_C@_0BM@NFDEHNHA@PowerManagementCapabilities?$AA@
	DD	FLAT:??_C@_0BA@OJJOBJJP@Win32_Processor?$AA@
	DD	FLAT:??_C@_0BJ@CFOPGMLH@PowerManagementSupported?$AA@
	DD	FLAT:??_C@_0BA@OJJOBJJP@Win32_Processor?$AA@
	DD	FLAT:??_C@_0M@DHKOOBFD@ProcessorId?$AA@
	DD	FLAT:??_C@_0BA@OJJOBJJP@Win32_Processor?$AA@
	DD	FLAT:??_C@_0O@DAODMABE@ProcessorType?$AA@
	DD	FLAT:??_C@_0BA@OJJOBJJP@Win32_Processor?$AA@
	DD	FLAT:??_C@_08DNLDHPFP@Revision?$AA@
	DD	FLAT:??_C@_0BA@OJJOBJJP@Win32_Processor?$AA@
	DD	FLAT:??_C@_04EBAMNOLK@Role?$AA@
	DD	FLAT:??_C@_0BA@OJJOBJJP@Win32_Processor?$AA@
	DD	FLAT:??_C@_0BC@GCIFEBIL@SocketDesignation?$AA@
	DD	FLAT:??_C@_0BA@OJJOBJJP@Win32_Processor?$AA@
	DD	FLAT:??_C@_06PGDKHFME@Status?$AA@
	DD	FLAT:??_C@_0BA@OJJOBJJP@Win32_Processor?$AA@
	DD	FLAT:??_C@_0L@PKEHCAEI@StatusInfo?$AA@
	DD	FLAT:??_C@_0BA@OJJOBJJP@Win32_Processor?$AA@
	DD	FLAT:??_C@_08HPJGCEAH@Stepping?$AA@
	DD	FLAT:??_C@_0BA@OJJOBJJP@Win32_Processor?$AA@
	DD	FLAT:??_C@_08HJBCPKNB@UniqueId?$AA@
	DD	FLAT:??_C@_0BA@OJJOBJJP@Win32_Processor?$AA@
	DD	FLAT:??_C@_0O@KHACBBMN@UpgradeMethod?$AA@
	DD	FLAT:??_C@_0BA@OJJOBJJP@Win32_Processor?$AA@
	DD	FLAT:??_C@_0M@DEJHGOJI@VoltageCaps?$AA@
	DD	FLAT:??_C@_0BF@OGHHAMBD@Win32_SCSIController?$AA@
	DD	FLAT:??_C@_04FABLJDN@Name?$AA@
	DD	FLAT:??_C@_0BF@OGHHAMBD@Win32_SCSIController?$AA@
	DD	FLAT:??_C@_0M@HHJKGII@PNPDeviceID?$AA@
	DD	FLAT:??_C@_0BF@OGHHAMBD@Win32_SCSIController?$AA@
	DD	FLAT:??_C@_08JLPEJKOE@DeviceID?$AA@
	DD	FLAT:??_C@_0BF@OGHHAMBD@Win32_SCSIController?$AA@
	DD	FLAT:??_C@_0N@BBNLMPJO@Manufacturer?$AA@
	DD	FLAT:??_C@_0BF@OGHHAMBD@Win32_SCSIController?$AA@
	DD	FLAT:??_C@_0L@DJBCKAGE@DriverName?$AA@
	DD	FLAT:??_C@_0BF@OGHHAMBD@Win32_SCSIController?$AA@
	DD	FLAT:??_C@_0BA@BJODOJJC@HardwareVersion?$AA@
	DD	FLAT:??_C@_0BF@OGHHAMBD@Win32_SCSIController?$AA@
	DD	FLAT:??_C@_0N@MFGCECDI@Availability?$AA@
	DD	FLAT:??_C@_0BF@OGHHAMBD@Win32_SCSIController?$AA@
	DD	FLAT:??_C@_0BH@JDEEEDCN@ConfigManagerErrorCode?$AA@
	DD	FLAT:??_C@_0BF@OGHHAMBD@Win32_SCSIController?$AA@
	DD	FLAT:??_C@_0BI@OBNCDCBF@ConfigManagerUserConfig?$AA@
	DD	FLAT:??_C@_0BF@OGHHAMBD@Win32_SCSIController?$AA@
	DD	FLAT:??_C@_0BD@LPBNFPJD@ControllerTimeouts?$AA@
	DD	FLAT:??_C@_0BF@OGHHAMBD@Win32_SCSIController?$AA@
	DD	FLAT:??_C@_09DJCHLIFB@DeviceMap?$AA@
	DD	FLAT:??_C@_0BF@OGHHAMBD@Win32_SCSIController?$AA@
	DD	FLAT:??_C@_0N@FJHLDHMG@ErrorCleared?$AA@
	DD	FLAT:??_C@_0BF@OGHHAMBD@Win32_SCSIController?$AA@
	DD	FLAT:??_C@_0BB@KIDBLMK@ErrorDescription?$AA@
	DD	FLAT:??_C@_0BF@OGHHAMBD@Win32_SCSIController?$AA@
	DD	FLAT:??_C@_05FNNGFGLF@Index?$AA@
	DD	FLAT:??_C@_0BF@OGHHAMBD@Win32_SCSIController?$AA@
	DD	FLAT:??_C@_0M@NBIJNNJJ@InstallDate?$AA@
	DD	FLAT:??_C@_0BF@OGHHAMBD@Win32_SCSIController?$AA@
	DD	FLAT:??_C@_0O@NDKHIJAE@LastErrorCode?$AA@
	DD	FLAT:??_C@_0BF@OGHHAMBD@Win32_SCSIController?$AA@
	DD	FLAT:??_C@_0N@OLJPFNHL@MaxDataWidth?$AA@
	DD	FLAT:??_C@_0BF@OGHHAMBD@Win32_SCSIController?$AA@
	DD	FLAT:??_C@_0BE@JDLAPHJE@MaxNumberControlled?$AA@
	DD	FLAT:??_C@_0BF@OGHHAMBD@Win32_SCSIController?$AA@
	DD	FLAT:??_C@_0BA@IDEAMGMB@MaxTransferRate?$AA@
	DD	FLAT:??_C@_0BF@OGHHAMBD@Win32_SCSIController?$AA@
	DD	FLAT:??_C@_0BM@NFDEHNHA@PowerManagementCapabilities?$AA@
	DD	FLAT:??_C@_0BF@OGHHAMBD@Win32_SCSIController?$AA@
	DD	FLAT:??_C@_0BJ@CFOPGMLH@PowerManagementSupported?$AA@
	DD	FLAT:??_C@_0BF@OGHHAMBD@Win32_SCSIController?$AA@
	DD	FLAT:??_C@_0BF@OGNJDJGP@ProtectionManagement?$AA@
	DD	FLAT:??_C@_0BF@OGHHAMBD@Win32_SCSIController?$AA@
	DD	FLAT:??_C@_0BC@JHPOAJCM@ProtocolSupported?$AA@
	DD	FLAT:??_C@_0BF@OGHHAMBD@Win32_SCSIController?$AA@
	DD	FLAT:??_C@_06PGDKHFME@Status?$AA@
	DD	FLAT:??_C@_0BF@OGHHAMBD@Win32_SCSIController?$AA@
	DD	FLAT:??_C@_0L@PKEHCAEI@StatusInfo?$AA@
	DD	FLAT:??_C@_0BF@OGHHAMBD@Win32_SCSIController?$AA@
	DD	FLAT:??_C@_0BA@HADKHLAI@TimeOfLastReset?$AA@
	DD	FLAT:??_C@_0BB@DLHLCIMJ@Win32_SerialPort?$AA@
	DD	FLAT:??_C@_04FABLJDN@Name?$AA@
	DD	FLAT:??_C@_0BB@DLHLCIMJ@Win32_SerialPort?$AA@
	DD	FLAT:??_C@_0M@HHJKGII@PNPDeviceID?$AA@
	DD	FLAT:??_C@_0BB@DLHLCIMJ@Win32_SerialPort?$AA@
	DD	FLAT:??_C@_08JLPEJKOE@DeviceID?$AA@
	DD	FLAT:??_C@_0BB@DLHLCIMJ@Win32_SerialPort?$AA@
	DD	FLAT:??_C@_0M@BFAJGJNN@MaxBaudRate?$AA@
	DD	FLAT:??_C@_0BB@DLHLCIMJ@Win32_SerialPort?$AA@
	DD	FLAT:??_C@_0BC@JHPOAJCM@ProtocolSupported?$AA@
	DD	FLAT:??_C@_0BB@DLHLCIMJ@Win32_SerialPort?$AA@
	DD	FLAT:??_C@_0N@KFNBCBNP@ProviderType?$AA@
	DD	FLAT:??_C@_0BB@DLHLCIMJ@Win32_SerialPort?$AA@
	DD	FLAT:??_C@_0N@MFGCECDI@Availability?$AA@
	DD	FLAT:??_C@_0BB@DLHLCIMJ@Win32_SerialPort?$AA@
	DD	FLAT:??_C@_06JCOMDNII@Binary?$AA@
	DD	FLAT:??_C@_0BB@DLHLCIMJ@Win32_SerialPort?$AA@
	DD	FLAT:??_C@_0N@FNJCOOAL@Capabilities?$AA@
	DD	FLAT:??_C@_0BB@DLHLCIMJ@Win32_SerialPort?$AA@
	DD	FLAT:??_C@_0BH@EPMKAGLN@CapabilityDescriptions?$AA@
	DD	FLAT:??_C@_0BB@DLHLCIMJ@Win32_SerialPort?$AA@
	DD	FLAT:??_C@_0BH@JDEEEDCN@ConfigManagerErrorCode?$AA@
	DD	FLAT:??_C@_0BB@DLHLCIMJ@Win32_SerialPort?$AA@
	DD	FLAT:??_C@_0BI@OBNCDCBF@ConfigManagerUserConfig?$AA@
	DD	FLAT:??_C@_0BB@DLHLCIMJ@Win32_SerialPort?$AA@
	DD	FLAT:??_C@_0N@FJHLDHMG@ErrorCleared?$AA@
	DD	FLAT:??_C@_0BB@DLHLCIMJ@Win32_SerialPort?$AA@
	DD	FLAT:??_C@_0BB@KIDBLMK@ErrorDescription?$AA@
	DD	FLAT:??_C@_0BB@DLHLCIMJ@Win32_SerialPort?$AA@
	DD	FLAT:??_C@_0M@NBIJNNJJ@InstallDate?$AA@
	DD	FLAT:??_C@_0BB@DLHLCIMJ@Win32_SerialPort?$AA@
	DD	FLAT:??_C@_0O@NDKHIJAE@LastErrorCode?$AA@
	DD	FLAT:??_C@_0BB@DLHLCIMJ@Win32_SerialPort?$AA@
	DD	FLAT:??_C@_0BH@PKAPBGLB@MaximumInputBufferSize?$AA@
	DD	FLAT:??_C@_0BB@DLHLCIMJ@Win32_SerialPort?$AA@
	DD	FLAT:??_C@_0BI@EAKFLPF@MaximumOutputBufferSize?$AA@
	DD	FLAT:??_C@_0BB@DLHLCIMJ@Win32_SerialPort?$AA@
	DD	FLAT:??_C@_0BE@JDLAPHJE@MaxNumberControlled?$AA@
	DD	FLAT:??_C@_0BB@DLHLCIMJ@Win32_SerialPort?$AA@
	DD	FLAT:??_C@_0BB@NCMHEECO@OSAutoDiscovered?$AA@
	DD	FLAT:??_C@_0BB@DLHLCIMJ@Win32_SerialPort?$AA@
	DD	FLAT:??_C@_0BM@NFDEHNHA@PowerManagementCapabilities?$AA@
	DD	FLAT:??_C@_0BB@DLHLCIMJ@Win32_SerialPort?$AA@
	DD	FLAT:??_C@_0BJ@CFOPGMLH@PowerManagementSupported?$AA@
	DD	FLAT:??_C@_0BB@DLHLCIMJ@Win32_SerialPort?$AA@
	DD	FLAT:??_C@_0BB@CCEBCKAP@SettableBaudRate?$AA@
	DD	FLAT:??_C@_0BB@DLHLCIMJ@Win32_SerialPort?$AA@
	DD	FLAT:??_C@_0BB@BOCNMDDI@SettableDataBits?$AA@
	DD	FLAT:??_C@_0BB@DLHLCIMJ@Win32_SerialPort?$AA@
	DD	FLAT:??_C@_0BE@FMKJPGFK@SettableFlowControl?$AA@
	DD	FLAT:??_C@_0BB@DLHLCIMJ@Win32_SerialPort?$AA@
	DD	FLAT:??_C@_0P@MOHECAJ@SettableParity?$AA@
	DD	FLAT:??_C@_0BB@DLHLCIMJ@Win32_SerialPort?$AA@
	DD	FLAT:??_C@_0BE@NMPLPPIE@SettableParityCheck?$AA@
	DD	FLAT:??_C@_0BB@DLHLCIMJ@Win32_SerialPort?$AA@
	DD	FLAT:??_C@_0N@OBGEBGNG@SettableRLSD?$AA@
	DD	FLAT:??_C@_0BB@DLHLCIMJ@Win32_SerialPort?$AA@
	DD	FLAT:??_C@_0BB@EPIEMKMF@SettableStopBits?$AA@
	DD	FLAT:??_C@_0BB@DLHLCIMJ@Win32_SerialPort?$AA@
	DD	FLAT:??_C@_06PGDKHFME@Status?$AA@
	DD	FLAT:??_C@_0BB@DLHLCIMJ@Win32_SerialPort?$AA@
	DD	FLAT:??_C@_0L@PKEHCAEI@StatusInfo?$AA@
	DD	FLAT:??_C@_0BB@DLHLCIMJ@Win32_SerialPort?$AA@
	DD	FLAT:??_C@_0BC@EEEMKCBH@Supports16BitMode?$AA@
	DD	FLAT:??_C@_0BB@DLHLCIMJ@Win32_SerialPort?$AA@
	DD	FLAT:??_C@_0P@GODDIGIP@SupportsDTRDSR?$AA@
	DD	FLAT:??_C@_0BB@DLHLCIMJ@Win32_SerialPort?$AA@
	DD	FLAT:??_C@_0BI@LJLLOLPH@SupportsElapsedTimeouts?$AA@
	DD	FLAT:??_C@_0BB@DLHLCIMJ@Win32_SerialPort?$AA@
	DD	FLAT:??_C@_0BE@JOEIKOLI@SupportsIntTimeouts?$AA@
	DD	FLAT:??_C@_0BB@DLHLCIMJ@Win32_SerialPort?$AA@
	DD	FLAT:??_C@_0BE@JCPAAGPO@SupportsParityCheck?$AA@
	DD	FLAT:??_C@_0BB@DLHLCIMJ@Win32_SerialPort?$AA@
	DD	FLAT:??_C@_0N@GBIJPBEE@SupportsRLSD?$AA@
	DD	FLAT:??_C@_0BB@DLHLCIMJ@Win32_SerialPort?$AA@
	DD	FLAT:??_C@_0P@NGNOBJLG@SupportsRTSCTS?$AA@
	DD	FLAT:??_C@_0BB@DLHLCIMJ@Win32_SerialPort?$AA@
	DD	FLAT:??_C@_0BK@GGENNCGN@SupportsSpecialCharacters?$AA@
	DD	FLAT:??_C@_0BB@DLHLCIMJ@Win32_SerialPort?$AA@
	DD	FLAT:??_C@_0BA@OPAGJFHI@SupportsXOnXOff?$AA@
	DD	FLAT:??_C@_0BB@DLHLCIMJ@Win32_SerialPort?$AA@
	DD	FLAT:??_C@_0BD@GDEAPHBI@SupportsXOnXOffSet?$AA@
	DD	FLAT:??_C@_0BB@DLHLCIMJ@Win32_SerialPort?$AA@
	DD	FLAT:??_C@_0BA@HADKHLAI@TimeOfLastReset?$AA@
	DD	FLAT:??_C@_0BO@BPJAPEGK@Win32_SerialPortConfiguration?$AA@
	DD	FLAT:??_C@_04FABLJDN@Name?$AA@
	DD	FLAT:??_C@_0BO@BPJAPEGK@Win32_SerialPortConfiguration?$AA@
	DD	FLAT:??_C@_08FCNNIBJG@BaudRate?$AA@
	DD	FLAT:??_C@_0BO@BPJAPEGK@Win32_SerialPortConfiguration?$AA@
	DD	FLAT:??_C@_0M@PAFDOFKP@BitsPerByte?$AA@
	DD	FLAT:??_C@_0BO@BPJAPEGK@Win32_SerialPortConfiguration?$AA@
	DD	FLAT:??_C@_06OKNHBMNM@Parity?$AA@
	DD	FLAT:??_C@_0BO@BPJAPEGK@Win32_SerialPortConfiguration?$AA@
	DD	FLAT:??_C@_08DPBIGBFM@StopBits?$AA@
	DD	FLAT:??_C@_0BO@BPJAPEGK@Win32_SerialPortConfiguration?$AA@
	DD	FLAT:??_C@_06OICOCAHF@IsBusy?$AA@
	DD	FLAT:??_C@_0BO@BPJAPEGK@Win32_SerialPortConfiguration?$AA@
	DD	FLAT:??_C@_0BG@DFLLPBBO@AbortReadWriteOnError?$AA@
	DD	FLAT:??_C@_0BO@BPJAPEGK@Win32_SerialPortConfiguration?$AA@
	DD	FLAT:??_C@_0BC@OGEDEEBA@BinaryModeEnabled?$AA@
	DD	FLAT:??_C@_0BO@BPJAPEGK@Win32_SerialPortConfiguration?$AA@
	DD	FLAT:??_C@_0BD@MCBMPIAJ@ContinueXMitOnXOff?$AA@
	DD	FLAT:??_C@_0BO@BPJAPEGK@Win32_SerialPortConfiguration?$AA@
	DD	FLAT:??_C@_0BC@BMKJGEMK@CTSOutflowControl?$AA@
	DD	FLAT:??_C@_0BO@BPJAPEGK@Win32_SerialPortConfiguration?$AA@
	DD	FLAT:??_C@_0BB@LNMOOKGE@DiscardNULLBytes?$AA@
	DD	FLAT:??_C@_0BO@BPJAPEGK@Win32_SerialPortConfiguration?$AA@
	DD	FLAT:??_C@_0BC@HDHNIDHE@DSROutflowControl?$AA@
	DD	FLAT:??_C@_0BO@BPJAPEGK@Win32_SerialPortConfiguration?$AA@
	DD	FLAT:??_C@_0P@FDLAEJMA@DSRSensitivity?$AA@
	DD	FLAT:??_C@_0BO@BPJAPEGK@Win32_SerialPortConfiguration?$AA@
	DD	FLAT:??_C@_0BD@HKACMHPL@DTRFlowControlType?$AA@
	DD	FLAT:??_C@_0BO@BPJAPEGK@Win32_SerialPortConfiguration?$AA@
	DD	FLAT:??_C@_0N@HDNBGKMG@EOFCharacter?$AA@
	DD	FLAT:??_C@_0BO@BPJAPEGK@Win32_SerialPortConfiguration?$AA@
	DD	FLAT:??_C@_0BG@HECEEKCN@ErrorReplaceCharacter?$AA@
	DD	FLAT:??_C@_0BO@BPJAPEGK@Win32_SerialPortConfiguration?$AA@
	DD	FLAT:??_C@_0BI@MDNCEDD@ErrorReplacementEnabled?$AA@
	DD	FLAT:??_C@_0BO@BPJAPEGK@Win32_SerialPortConfiguration?$AA@
	DD	FLAT:??_C@_0P@ELDMBJ@EventCharacter?$AA@
	DD	FLAT:??_C@_0BO@BPJAPEGK@Win32_SerialPortConfiguration?$AA@
	DD	FLAT:??_C@_0BD@KACACAPH@ParityCheckEnabled?$AA@
	DD	FLAT:??_C@_0BO@BPJAPEGK@Win32_SerialPortConfiguration?$AA@
	DD	FLAT:??_C@_0BD@HDDKDMKB@RTSFlowControlType?$AA@
	DD	FLAT:??_C@_0BO@BPJAPEGK@Win32_SerialPortConfiguration?$AA@
	DD	FLAT:??_C@_09CMMJGBDB@SettingID?$AA@
	DD	FLAT:??_C@_0BO@BPJAPEGK@Win32_SerialPortConfiguration?$AA@
	DD	FLAT:??_C@_0O@IABHIILA@XOffCharacter?$AA@
	DD	FLAT:??_C@_0BO@BPJAPEGK@Win32_SerialPortConfiguration?$AA@
	DD	FLAT:??_C@_0BC@PIOKAKHD@XOffXMitThreshold?$AA@
	DD	FLAT:??_C@_0BO@BPJAPEGK@Win32_SerialPortConfiguration?$AA@
	DD	FLAT:??_C@_0N@LMKFMCPA@XOnCharacter?$AA@
	DD	FLAT:??_C@_0BO@BPJAPEGK@Win32_SerialPortConfiguration?$AA@
	DD	FLAT:??_C@_0BB@OHGPOKOF@XOnXMitThreshold?$AA@
	DD	FLAT:??_C@_0BO@BPJAPEGK@Win32_SerialPortConfiguration?$AA@
	DD	FLAT:??_C@_0BF@FMELJHC@XOnXOffInFlowControl?$AA@
	DD	FLAT:??_C@_0BO@BPJAPEGK@Win32_SerialPortConfiguration?$AA@
	DD	FLAT:??_C@_0BG@LCMFOHKE@XOnXOffOutFlowControl?$AA@
	DD	FLAT:??_C@_0BC@INJPMPPD@Win32_SoundDevice?$AA@
	DD	FLAT:??_C@_0M@MNPNDAHP@ProductName?$AA@
	DD	FLAT:??_C@_0BC@INJPMPPD@Win32_SoundDevice?$AA@
	DD	FLAT:??_C@_0M@HHJKGII@PNPDeviceID?$AA@
	DD	FLAT:??_C@_0BC@INJPMPPD@Win32_SoundDevice?$AA@
	DD	FLAT:??_C@_08JLPEJKOE@DeviceID?$AA@
	DD	FLAT:??_C@_0BC@INJPMPPD@Win32_SoundDevice?$AA@
	DD	FLAT:??_C@_0N@BBNLMPJO@Manufacturer?$AA@
	DD	FLAT:??_C@_0BC@INJPMPPD@Win32_SoundDevice?$AA@
	DD	FLAT:??_C@_0O@GILLNKKD@MPU401Address?$AA@
	DD	FLAT:??_C@_0BC@INJPMPPD@Win32_SoundDevice?$AA@
	DD	FLAT:??_C@_0N@MFGCECDI@Availability?$AA@
	DD	FLAT:??_C@_0BC@INJPMPPD@Win32_SoundDevice?$AA@
	DD	FLAT:??_C@_0BH@JDEEEDCN@ConfigManagerErrorCode?$AA@
	DD	FLAT:??_C@_0BC@INJPMPPD@Win32_SoundDevice?$AA@
	DD	FLAT:??_C@_0BI@OBNCDCBF@ConfigManagerUserConfig?$AA@
	DD	FLAT:??_C@_0BC@INJPMPPD@Win32_SoundDevice?$AA@
	DD	FLAT:??_C@_0O@GHJKPLAG@DMABufferSize?$AA@
	DD	FLAT:??_C@_0BC@INJPMPPD@Win32_SoundDevice?$AA@
	DD	FLAT:??_C@_0N@FJHLDHMG@ErrorCleared?$AA@
	DD	FLAT:??_C@_0BC@INJPMPPD@Win32_SoundDevice?$AA@
	DD	FLAT:??_C@_0BB@KIDBLMK@ErrorDescription?$AA@
	DD	FLAT:??_C@_0BC@INJPMPPD@Win32_SoundDevice?$AA@
	DD	FLAT:??_C@_0M@NBIJNNJJ@InstallDate?$AA@
	DD	FLAT:??_C@_0BC@INJPMPPD@Win32_SoundDevice?$AA@
	DD	FLAT:??_C@_0O@NDKHIJAE@LastErrorCode?$AA@
	DD	FLAT:??_C@_0BC@INJPMPPD@Win32_SoundDevice?$AA@
	DD	FLAT:??_C@_0BM@NFDEHNHA@PowerManagementCapabilities?$AA@
	DD	FLAT:??_C@_0BC@INJPMPPD@Win32_SoundDevice?$AA@
	DD	FLAT:??_C@_0BJ@CFOPGMLH@PowerManagementSupported?$AA@
	DD	FLAT:??_C@_0BC@INJPMPPD@Win32_SoundDevice?$AA@
	DD	FLAT:??_C@_06PGDKHFME@Status?$AA@
	DD	FLAT:??_C@_0BC@INJPMPPD@Win32_SoundDevice?$AA@
	DD	FLAT:??_C@_0L@PKEHCAEI@StatusInfo?$AA@
	DD	FLAT:??_C@_0BE@KNIHCNGM@Win32_USBController?$AA@
	DD	FLAT:??_C@_04FABLJDN@Name?$AA@
	DD	FLAT:??_C@_0BE@KNIHCNGM@Win32_USBController?$AA@
	DD	FLAT:??_C@_0M@HHJKGII@PNPDeviceID?$AA@
	DD	FLAT:??_C@_0BE@KNIHCNGM@Win32_USBController?$AA@
	DD	FLAT:??_C@_08JLPEJKOE@DeviceID?$AA@
	DD	FLAT:??_C@_0BE@KNIHCNGM@Win32_USBController?$AA@
	DD	FLAT:??_C@_0N@BBNLMPJO@Manufacturer?$AA@
	DD	FLAT:??_C@_0BE@KNIHCNGM@Win32_USBController?$AA@
	DD	FLAT:??_C@_0BC@JHPOAJCM@ProtocolSupported?$AA@
	DD	FLAT:??_C@_0BE@KNIHCNGM@Win32_USBController?$AA@
	DD	FLAT:??_C@_0N@MFGCECDI@Availability?$AA@
	DD	FLAT:??_C@_0BE@KNIHCNGM@Win32_USBController?$AA@
	DD	FLAT:??_C@_0BH@JDEEEDCN@ConfigManagerErrorCode?$AA@
	DD	FLAT:??_C@_0BE@KNIHCNGM@Win32_USBController?$AA@
	DD	FLAT:??_C@_0BI@OBNCDCBF@ConfigManagerUserConfig?$AA@
	DD	FLAT:??_C@_0BE@KNIHCNGM@Win32_USBController?$AA@
	DD	FLAT:??_C@_0N@FJHLDHMG@ErrorCleared?$AA@
	DD	FLAT:??_C@_0BE@KNIHCNGM@Win32_USBController?$AA@
	DD	FLAT:??_C@_0BB@KIDBLMK@ErrorDescription?$AA@
	DD	FLAT:??_C@_0BE@KNIHCNGM@Win32_USBController?$AA@
	DD	FLAT:??_C@_0M@NBIJNNJJ@InstallDate?$AA@
	DD	FLAT:??_C@_0BE@KNIHCNGM@Win32_USBController?$AA@
	DD	FLAT:??_C@_0O@NDKHIJAE@LastErrorCode?$AA@
	DD	FLAT:??_C@_0BE@KNIHCNGM@Win32_USBController?$AA@
	DD	FLAT:??_C@_0BE@JDLAPHJE@MaxNumberControlled?$AA@
	DD	FLAT:??_C@_0BE@KNIHCNGM@Win32_USBController?$AA@
	DD	FLAT:??_C@_0BM@NFDEHNHA@PowerManagementCapabilities?$AA@
	DD	FLAT:??_C@_0BE@KNIHCNGM@Win32_USBController?$AA@
	DD	FLAT:??_C@_0BJ@CFOPGMLH@PowerManagementSupported?$AA@
	DD	FLAT:??_C@_0BE@KNIHCNGM@Win32_USBController?$AA@
	DD	FLAT:??_C@_06PGDKHFME@Status?$AA@
	DD	FLAT:??_C@_0BE@KNIHCNGM@Win32_USBController?$AA@
	DD	FLAT:??_C@_0L@PKEHCAEI@StatusInfo?$AA@
	DD	FLAT:??_C@_0BE@KNIHCNGM@Win32_USBController?$AA@
	DD	FLAT:??_C@_0BA@HADKHLAI@TimeOfLastReset?$AA@
	DD	FLAT:??_C@_0BG@IOBPPLKC@Win32_VideoController?$AA@
	DD	FLAT:??_C@_04FABLJDN@Name?$AA@
	DD	FLAT:??_C@_0BG@IOBPPLKC@Win32_VideoController?$AA@
	DD	FLAT:??_C@_0M@HHJKGII@PNPDeviceID?$AA@
	DD	FLAT:??_C@_0BG@IOBPPLKC@Win32_VideoController?$AA@
	DD	FLAT:??_C@_08JLPEJKOE@DeviceID?$AA@
	DD	FLAT:??_C@_0BG@IOBPPLKC@Win32_VideoController?$AA@
	DD	FLAT:??_C@_0BE@FEOPMOOE@CurrentBitsPerPixel?$AA@
	DD	FLAT:??_C@_0BG@IOBPPLKC@Win32_VideoController?$AA@
	DD	FLAT:??_C@_0BM@OFHJCNEB@CurrentHorizontalResolution?$AA@
	DD	FLAT:??_C@_0BG@IOBPPLKC@Win32_VideoController?$AA@
	DD	FLAT:??_C@_0BK@LFIAOAGD@CurrentVerticalResolution?$AA@
	DD	FLAT:??_C@_0BG@IOBPPLKC@Win32_VideoController?$AA@
	DD	FLAT:??_C@_0BG@NCBMILGB@CurrentNumberOfColors?$AA@
	DD	FLAT:??_C@_0BG@IOBPPLKC@Win32_VideoController?$AA@
	DD	FLAT:??_C@_0BD@JKLPINND@CurrentRefreshRate?$AA@
	DD	FLAT:??_C@_0BG@IOBPPLKC@Win32_VideoController?$AA@
	DD	FLAT:??_C@_0BA@CDIHNLEF@CurrentScanMode?$AA@
	DD	FLAT:??_C@_0BG@IOBPPLKC@Win32_VideoController?$AA@
	DD	FLAT:??_C@_0BH@IKBJPLJ@CurrentNumberOfColumns?$AA@
	DD	FLAT:??_C@_0BG@IOBPPLKC@Win32_VideoController?$AA@
	DD	FLAT:??_C@_0BE@BKBIMFEG@CurrentNumberOfRows?$AA@
	DD	FLAT:??_C@_0BG@IOBPPLKC@Win32_VideoController?$AA@
	DD	FLAT:??_C@_0BC@GFHBBCIN@VideoArchitecture?$AA@
	DD	FLAT:??_C@_0BG@IOBPPLKC@Win32_VideoController?$AA@
	DD	FLAT:??_C@_0BA@COFLHODM@VideoMemoryType?$AA@
	DD	FLAT:??_C@_0BG@IOBPPLKC@Win32_VideoController?$AA@
	DD	FLAT:??_C@_09LIEAKBEG@VideoMode?$AA@
	DD	FLAT:??_C@_0BG@IOBPPLKC@Win32_VideoController?$AA@
	DD	FLAT:??_C@_0BF@MAGAOPPB@VideoModeDescription?$AA@
	DD	FLAT:??_C@_0BG@IOBPPLKC@Win32_VideoController?$AA@
	DD	FLAT:??_C@_0P@OMEGAAG@VideoProcessor?$AA@
	DD	FLAT:??_C@_0BG@IOBPPLKC@Win32_VideoController?$AA@
	DD	FLAT:??_C@_0BC@PEHKLIOA@ColorTableEntries?$AA@
	DD	FLAT:??_C@_0BG@IOBPPLKC@Win32_VideoController?$AA@
	DD	FLAT:??_C@_0BF@JCFFEIIM@NumberOfColorPlanes?$DL?$AA@
	DD	FLAT:??_C@_0BG@IOBPPLKC@Win32_VideoController?$AA@
	DD	FLAT:??_C@_0BD@DECAKEGH@NumberOfVideoPages?$AA@
	DD	FLAT:??_C@_0BG@IOBPPLKC@Win32_VideoController?$AA@
	DD	FLAT:??_C@_0BF@FKKNOPFN@SystemPaletteEntries?$AA@
	DD	FLAT:??_C@_0BG@IOBPPLKC@Win32_VideoController?$AA@
	DD	FLAT:??_C@_0BI@DFJMJFBI@AcceleratorCapabilities?$AA@
	DD	FLAT:??_C@_0BG@IOBPPLKC@Win32_VideoController?$AA@
	DD	FLAT:??_C@_0BF@LPCADEJI@AdapterCompatibility?$AA@
	DD	FLAT:??_C@_0BG@IOBPPLKC@Win32_VideoController?$AA@
	DD	FLAT:??_C@_0P@MPKKGADB@AdapterDACType?$AA@
	DD	FLAT:??_C@_0BG@IOBPPLKC@Win32_VideoController?$AA@
	DD	FLAT:??_C@_0L@CKHNOAKJ@AdapterRAM?$AA@
	DD	FLAT:??_C@_0BG@IOBPPLKC@Win32_VideoController?$AA@
	DD	FLAT:??_C@_0M@HMKFJKEG@InfFilename?$AA@
	DD	FLAT:??_C@_0BG@IOBPPLKC@Win32_VideoController?$AA@
	DD	FLAT:??_C@_0L@KHOEHLLF@InfSection?$AA@
	DD	FLAT:??_C@_0BG@IOBPPLKC@Win32_VideoController?$AA@
	DD	FLAT:??_C@_0BC@JHPOAJCM@ProtocolSupported?$AA@
	DD	FLAT:??_C@_0BG@IOBPPLKC@Win32_VideoController?$AA@
	DD	FLAT:??_C@_0O@KKIKAADI@DriverVersion?$AA@
	DD	FLAT:??_C@_0BG@IOBPPLKC@Win32_VideoController?$AA@
	DD	FLAT:??_C@_0N@MFGCECDI@Availability?$AA@
	DD	FLAT:??_C@_0BG@IOBPPLKC@Win32_VideoController?$AA@
	DD	FLAT:??_C@_0BH@EPMKAGLN@CapabilityDescriptions?$AA@
	DD	FLAT:??_C@_0BG@IOBPPLKC@Win32_VideoController?$AA@
	DD	FLAT:??_C@_0BH@JDEEEDCN@ConfigManagerErrorCode?$AA@
	DD	FLAT:??_C@_0BG@IOBPPLKC@Win32_VideoController?$AA@
	DD	FLAT:??_C@_0BI@OBNCDCBF@ConfigManagerUserConfig?$AA@
	DD	FLAT:??_C@_0BG@IOBPPLKC@Win32_VideoController?$AA@
	DD	FLAT:??_C@_0BD@HBMCPLLH@DeviceSpecificPens?$AA@
	DD	FLAT:??_C@_0BG@IOBPPLKC@Win32_VideoController?$AA@
	DD	FLAT:??_C@_0L@HJOBJMDE@DitherType?$AA@
	DD	FLAT:??_C@_0BG@IOBPPLKC@Win32_VideoController?$AA@
	DD	FLAT:??_C@_0L@GAFFCADK@DriverDate?$AA@
	DD	FLAT:??_C@_0BG@IOBPPLKC@Win32_VideoController?$AA@
	DD	FLAT:??_C@_0N@FJHLDHMG@ErrorCleared?$AA@
	DD	FLAT:??_C@_0BG@IOBPPLKC@Win32_VideoController?$AA@
	DD	FLAT:??_C@_0BB@KIDBLMK@ErrorDescription?$AA@
	DD	FLAT:??_C@_0BG@IOBPPLKC@Win32_VideoController?$AA@
	DD	FLAT:??_C@_09MBIABGHL@ICMIntent?$AA@
	DD	FLAT:??_C@_0BG@IOBPPLKC@Win32_VideoController?$AA@
	DD	FLAT:??_C@_09OGGCGCBA@ICMMethod?$AA@
	DD	FLAT:??_C@_0BG@IOBPPLKC@Win32_VideoController?$AA@
	DD	FLAT:??_C@_0M@NBIJNNJJ@InstallDate?$AA@
	DD	FLAT:??_C@_0BG@IOBPPLKC@Win32_VideoController?$AA@
	DD	FLAT:??_C@_0BI@NCJGCGIA@InstalledDisplayDrivers?$AA@
	DD	FLAT:??_C@_0BG@IOBPPLKC@Win32_VideoController?$AA@
	DD	FLAT:??_C@_0O@NDKHIJAE@LastErrorCode?$AA@
	DD	FLAT:??_C@_0BG@IOBPPLKC@Win32_VideoController?$AA@
	DD	FLAT:??_C@_0BD@KFJBBNPN@MaxMemorySupported?$AA@
	DD	FLAT:??_C@_0BG@IOBPPLKC@Win32_VideoController?$AA@
	DD	FLAT:??_C@_0BE@JDLAPHJE@MaxNumberControlled?$AA@
	DD	FLAT:??_C@_0BG@IOBPPLKC@Win32_VideoController?$AA@
	DD	FLAT:??_C@_0P@DHIEOPKP@MaxRefreshRate?$AA@
	DD	FLAT:??_C@_0BG@IOBPPLKC@Win32_VideoController?$AA@
	DD	FLAT:??_C@_0P@BADPIIJO@MinRefreshRate?$AA@
	DD	FLAT:??_C@_0BG@IOBPPLKC@Win32_VideoController?$AA@
	DD	FLAT:??_C@_0L@NCAJOFAD@Monochrome?$AA@
	DD	FLAT:??_C@_0BG@IOBPPLKC@Win32_VideoController?$AA@
	DD	FLAT:??_C@_0BM@NFDEHNHA@PowerManagementCapabilities?$AA@
	DD	FLAT:??_C@_0BG@IOBPPLKC@Win32_VideoController?$AA@
	DD	FLAT:??_C@_0BJ@CFOPGMLH@PowerManagementSupported?$AA@
	DD	FLAT:??_C@_0BG@IOBPPLKC@Win32_VideoController?$AA@
	DD	FLAT:??_C@_0BN@FJFLBOEO@ReservedSystemPaletteEntries?$AA@
	DD	FLAT:??_C@_0BG@IOBPPLKC@Win32_VideoController?$AA@
	DD	FLAT:??_C@_0BF@HGGDLIIF@SpecificationVersion?$AA@
	DD	FLAT:??_C@_0BG@IOBPPLKC@Win32_VideoController?$AA@
	DD	FLAT:??_C@_06PGDKHFME@Status?$AA@
	DD	FLAT:??_C@_0BG@IOBPPLKC@Win32_VideoController?$AA@
	DD	FLAT:??_C@_0L@PKEHCAEI@StatusInfo?$AA@
	DD	FLAT:??_C@_0BG@IOBPPLKC@Win32_VideoController?$AA@
	DD	FLAT:??_C@_0BA@HADKHLAI@TimeOfLastReset?$AA@
	DD	FLAT:??_C@_0BA@CJPFNKBD@Win32_DiskDrive?$AA@
	DD	FLAT:??_C@_04FABLJDN@Name?$AA@
	DD	FLAT:??_C@_0BA@CJPFNKBD@Win32_DiskDrive?$AA@
	DD	FLAT:??_C@_0M@HHJKGII@PNPDeviceID?$AA@
	DD	FLAT:??_C@_0BA@CJPFNKBD@Win32_DiskDrive?$AA@
	DD	FLAT:??_C@_08JLPEJKOE@DeviceID?$AA@
	DD	FLAT:??_C@_0BA@CJPFNKBD@Win32_DiskDrive?$AA@
	DD	FLAT:??_C@_0L@BLANPANH@Partitions?$AA@
	DD	FLAT:??_C@_0BA@CJPFNKBD@Win32_DiskDrive?$AA@
	DD	FLAT:??_C@_0N@FPJJBBNM@SerialNumber?$AA@
	DD	FLAT:??_C@_0BA@CJPFNKBD@Win32_DiskDrive?$AA@
	DD	FLAT:??_C@_04EBKMHHBE@Size?$AA@
	DD	FLAT:??_C@_0BA@CJPFNKBD@Win32_DiskDrive?$AA@
	DD	FLAT:??_C@_09HPDNNFFF@MediaType?$AA@
	DD	FLAT:??_C@_0BA@CJPFNKBD@Win32_DiskDrive?$AA@
	DD	FLAT:??_C@_09GDNFOKKF@Signature?$AA@
	DD	FLAT:??_C@_0BA@CJPFNKBD@Win32_DiskDrive?$AA@
	DD	FLAT:??_C@_0N@MFGCECDI@Availability?$AA@
	DD	FLAT:??_C@_0BA@CJPFNKBD@Win32_DiskDrive?$AA@
	DD	FLAT:??_C@_0P@MMMIFHLL@BytesPerSector?$AA@
	DD	FLAT:??_C@_0BA@CJPFNKBD@Win32_DiskDrive?$AA@
	DD	FLAT:??_C@_0N@FNJCOOAL@Capabilities?$AA@
	DD	FLAT:??_C@_0BA@CJPFNKBD@Win32_DiskDrive?$AA@
	DD	FLAT:??_C@_0BH@EPMKAGLN@CapabilityDescriptions?$AA@
	DD	FLAT:??_C@_0BA@CJPFNKBD@Win32_DiskDrive?$AA@
	DD	FLAT:??_C@_07OJKFJLLK@Caption?$AA@
	DD	FLAT:??_C@_0BA@CJPFNKBD@Win32_DiskDrive?$AA@
	DD	FLAT:??_C@_0BC@MBGAHHAB@CompressionMethod?$AA@
	DD	FLAT:??_C@_0BA@CJPFNKBD@Win32_DiskDrive?$AA@
	DD	FLAT:??_C@_0BH@JDEEEDCN@ConfigManagerErrorCode?$AA@
	DD	FLAT:??_C@_0BA@CJPFNKBD@Win32_DiskDrive?$AA@
	DD	FLAT:??_C@_0BI@OBNCDCBF@ConfigManagerUserConfig?$AA@
	DD	FLAT:??_C@_0BA@CJPFNKBD@Win32_DiskDrive?$AA@
	DD	FLAT:??_C@_0BB@GHOHONOE@DefaultBlockSize?$AA@
	DD	FLAT:??_C@_0BA@CJPFNKBD@Win32_DiskDrive?$AA@
	DD	FLAT:??_C@_0M@OHKMKKDH@Description?$AA@
	DD	FLAT:??_C@_0BA@CJPFNKBD@Win32_DiskDrive?$AA@
	DD	FLAT:??_C@_0N@FJHLDHMG@ErrorCleared?$AA@
	DD	FLAT:??_C@_0BA@CJPFNKBD@Win32_DiskDrive?$AA@
	DD	FLAT:??_C@_0BB@KIDBLMK@ErrorDescription?$AA@
	DD	FLAT:??_C@_0BA@CJPFNKBD@Win32_DiskDrive?$AA@
	DD	FLAT:??_C@_0BB@PNCBAHDK@ErrorMethodology?$AA@
	DD	FLAT:??_C@_0BA@CJPFNKBD@Win32_DiskDrive?$AA@
	DD	FLAT:??_C@_0BB@HMBACBBL@FirmwareRevision?$AA@
	DD	FLAT:??_C@_0BA@CJPFNKBD@Win32_DiskDrive?$AA@
	DD	FLAT:??_C@_05FNNGFGLF@Index?$AA@
	DD	FLAT:??_C@_0BA@CJPFNKBD@Win32_DiskDrive?$AA@
	DD	FLAT:??_C@_0M@NBIJNNJJ@InstallDate?$AA@
	DD	FLAT:??_C@_0BA@CJPFNKBD@Win32_DiskDrive?$AA@
	DD	FLAT:??_C@_0O@IHENGMAG@InterfaceType?$AA@
	DD	FLAT:??_C@_0BA@CJPFNKBD@Win32_DiskDrive?$AA@
	DD	FLAT:??_C@_0O@NDKHIJAE@LastErrorCode?$AA@
	DD	FLAT:??_C@_0BA@CJPFNKBD@Win32_DiskDrive?$AA@
	DD	FLAT:??_C@_0N@BBNLMPJO@Manufacturer?$AA@
	DD	FLAT:??_C@_0BA@CJPFNKBD@Win32_DiskDrive?$AA@
	DD	FLAT:??_C@_0N@HEPDBKFE@MaxBlockSize?$AA@
	DD	FLAT:??_C@_0BA@CJPFNKBD@Win32_DiskDrive?$AA@
	DD	FLAT:??_C@_0N@HBNKJHPM@MaxMediaSize?$AA@
	DD	FLAT:??_C@_0BA@CJPFNKBD@Win32_DiskDrive?$AA@
	DD	FLAT:??_C@_0M@BKHKLNGH@MediaLoaded?$AA@
	DD	FLAT:??_C@_0BA@CJPFNKBD@Win32_DiskDrive?$AA@
	DD	FLAT:??_C@_0N@DELMGCCC@MinBlockSize?$AA@
	DD	FLAT:??_C@_0BA@CJPFNKBD@Win32_DiskDrive?$AA@
	DD	FLAT:??_C@_05NFIJOKEG@Model?$AA@
	DD	FLAT:??_C@_0BA@CJPFNKBD@Win32_DiskDrive?$AA@
	DD	FLAT:??_C@_0O@IIJMNCFJ@NeedsCleaning?$AA@
	DD	FLAT:??_C@_0BA@CJPFNKBD@Win32_DiskDrive?$AA@
	DD	FLAT:??_C@_0BH@COPKOGMD@NumberOfMediaSupported?$AA@
	DD	FLAT:??_C@_0BA@CJPFNKBD@Win32_DiskDrive?$AA@
	DD	FLAT:??_C@_0BM@NFDEHNHA@PowerManagementCapabilities?$AA@
	DD	FLAT:??_C@_0BA@CJPFNKBD@Win32_DiskDrive?$AA@
	DD	FLAT:??_C@_0BJ@CFOPGMLH@PowerManagementSupported?$AA@
	DD	FLAT:??_C@_0BA@CJPFNKBD@Win32_DiskDrive?$AA@
	DD	FLAT:??_C@_07IMFLOLAO@SCSIBus?$AA@
	DD	FLAT:??_C@_0BA@CJPFNKBD@Win32_DiskDrive?$AA@
	DD	FLAT:??_C@_0BA@FGFDLPLK@SCSILogicalUnit?$AA@
	DD	FLAT:??_C@_0BA@CJPFNKBD@Win32_DiskDrive?$AA@
	DD	FLAT:??_C@_08IICBNDDA@SCSIPort?$AA@
	DD	FLAT:??_C@_0BA@CJPFNKBD@Win32_DiskDrive?$AA@
	DD	FLAT:??_C@_0N@BGGJIJCI@SCSITargetId?$AA@
	DD	FLAT:??_C@_0BA@CJPFNKBD@Win32_DiskDrive?$AA@
	DD	FLAT:??_C@_0BA@CCMKCJPC@SectorsPerTrack?$AA@
	DD	FLAT:??_C@_0BA@CJPFNKBD@Win32_DiskDrive?$AA@
	DD	FLAT:??_C@_06PGDKHFME@Status?$AA@
	DD	FLAT:??_C@_0BA@CJPFNKBD@Win32_DiskDrive?$AA@
	DD	FLAT:??_C@_0L@PKEHCAEI@StatusInfo?$AA@
	DD	FLAT:??_C@_0BA@CJPFNKBD@Win32_DiskDrive?$AA@
	DD	FLAT:??_C@_0P@NEMACPGO@TotalCylinders?$AA@
	DD	FLAT:??_C@_0BA@CJPFNKBD@Win32_DiskDrive?$AA@
	DD	FLAT:??_C@_0L@PLGEACLG@TotalHeads?$AA@
	DD	FLAT:??_C@_0BA@CJPFNKBD@Win32_DiskDrive?$AA@
	DD	FLAT:??_C@_0N@BJMAPGKO@TotalSectors?$AA@
	DD	FLAT:??_C@_0BA@CJPFNKBD@Win32_DiskDrive?$AA@
	DD	FLAT:??_C@_0M@BHKEFGGG@TotalTracks?$AA@
	DD	FLAT:??_C@_0BA@CJPFNKBD@Win32_DiskDrive?$AA@
	DD	FLAT:??_C@_0BC@KOKBEBBE@TracksPerCylinder?$AA@
	DD	FLAT:??_C@_0BE@GBMGFCLI@Win32_DiskPartition?$AA@
	DD	FLAT:??_C@_04FABLJDN@Name?$AA@
	DD	FLAT:??_C@_0BE@GBMGFCLI@Win32_DiskPartition?$AA@
	DD	FLAT:??_C@_0M@HHJKGII@PNPDeviceID?$AA@
	DD	FLAT:??_C@_0BE@GBMGFCLI@Win32_DiskPartition?$AA@
	DD	FLAT:??_C@_08JLPEJKOE@DeviceID?$AA@
	DD	FLAT:??_C@_0BE@GBMGFCLI@Win32_DiskPartition?$AA@
	DD	FLAT:??_C@_04EBKMHHBE@Size?$AA@
	DD	FLAT:??_C@_0BE@GBMGFCLI@Win32_DiskPartition?$AA@
	DD	FLAT:??_C@_04KOACHJEN@Type?$AA@
	DD	FLAT:??_C@_0BE@GBMGFCLI@Win32_DiskPartition?$AA@
	DD	FLAT:??_C@_08GBCOMNMP@Bootable?$AA@
	DD	FLAT:??_C@_0BE@GBMGFCLI@Win32_DiskPartition?$AA@
	DD	FLAT:??_C@_0O@GKABHDFN@BootPartition?$AA@
	DD	FLAT:??_C@_0BE@GBMGFCLI@Win32_DiskPartition?$AA@
	DD	FLAT:??_C@_0BB@GMPNKCND@PrimaryPartition?$AA@
	DD	FLAT:??_C@_0BE@GBMGFCLI@Win32_DiskPartition?$AA@
	DD	FLAT:??_C@_06IOEANFCI@Access?$AA@
	DD	FLAT:??_C@_0BE@GBMGFCLI@Win32_DiskPartition?$AA@
	DD	FLAT:??_C@_0N@MFGCECDI@Availability?$AA@
	DD	FLAT:??_C@_0BE@GBMGFCLI@Win32_DiskPartition?$AA@
	DD	FLAT:??_C@_09JFLKFGKE@BlockSize?$AA@
	DD	FLAT:??_C@_0BE@GBMGFCLI@Win32_DiskPartition?$AA@
	DD	FLAT:??_C@_0P@PGINBNEO@NumberOfBlocks?$AA@
	DD	FLAT:??_C@_0BE@GBMGFCLI@Win32_DiskPartition?$AA@
	DD	FLAT:??_C@_0BH@JDEEEDCN@ConfigManagerErrorCode?$AA@
	DD	FLAT:??_C@_0BE@GBMGFCLI@Win32_DiskPartition?$AA@
	DD	FLAT:??_C@_0BI@OBNCDCBF@ConfigManagerUserConfig?$AA@
	DD	FLAT:??_C@_0BE@GBMGFCLI@Win32_DiskPartition?$AA@
	DD	FLAT:??_C@_0N@FJHLDHMG@ErrorCleared?$AA@
	DD	FLAT:??_C@_0BE@GBMGFCLI@Win32_DiskPartition?$AA@
	DD	FLAT:??_C@_0BB@KIDBLMK@ErrorDescription?$AA@
	DD	FLAT:??_C@_0BE@GBMGFCLI@Win32_DiskPartition?$AA@
	DD	FLAT:??_C@_0BB@PNCBAHDK@ErrorMethodology?$AA@
	DD	FLAT:??_C@_0BE@GBMGFCLI@Win32_DiskPartition?$AA@
	DD	FLAT:??_C@_0O@NMDEFEE@HiddenSectors?$AA@
	DD	FLAT:??_C@_0BE@GBMGFCLI@Win32_DiskPartition?$AA@
	DD	FLAT:??_C@_0M@NBIJNNJJ@InstallDate?$AA@
	DD	FLAT:??_C@_0BE@GBMGFCLI@Win32_DiskPartition?$AA@
	DD	FLAT:??_C@_0O@NDKHIJAE@LastErrorCode?$AA@
	DD	FLAT:??_C@_0BE@GBMGFCLI@Win32_DiskPartition?$AA@
	DD	FLAT:??_C@_0BM@NFDEHNHA@PowerManagementCapabilities?$AA@
	DD	FLAT:??_C@_0BE@GBMGFCLI@Win32_DiskPartition?$AA@
	DD	FLAT:??_C@_0BJ@CFOPGMLH@PowerManagementSupported?$AA@
	DD	FLAT:??_C@_0BE@GBMGFCLI@Win32_DiskPartition?$AA@
	DD	FLAT:??_C@_07ODOLMOGH@Purpose?$AA@
	DD	FLAT:??_C@_0BE@GBMGFCLI@Win32_DiskPartition?$AA@
	DD	FLAT:??_C@_0BB@CLPKNLNO@RewritePartition?$AA@
	DD	FLAT:??_C@_0BE@GBMGFCLI@Win32_DiskPartition?$AA@
	DD	FLAT:??_C@_0P@HEMAHOJD@StartingOffset?$AA@
	DD	FLAT:??_C@_0BE@GBMGFCLI@Win32_DiskPartition?$AA@
	DD	FLAT:??_C@_06PGDKHFME@Status?$AA@
	DD	FLAT:??_C@_0BE@GBMGFCLI@Win32_DiskPartition?$AA@
	DD	FLAT:??_C@_0L@PKEHCAEI@StatusInfo?$AA@
	DD	FLAT:??_C@_0BE@JBJLNBAC@Win32_PhysicalMedia?$AA@
	DD	FLAT:??_C@_03PJHNOEGB@Tag?$AA@
	DD	FLAT:??_C@_0BE@JBJLNBAC@Win32_PhysicalMedia?$AA@
	DD	FLAT:??_C@_04FABLJDN@Name?$AA@
	DD	FLAT:??_C@_0BE@JBJLNBAC@Win32_PhysicalMedia?$AA@
	DD	FLAT:??_C@_09HPDNNFFF@MediaType?$AA@
	DD	FLAT:??_C@_0BE@JBJLNBAC@Win32_PhysicalMedia?$AA@
	DD	FLAT:??_C@_0BB@GANKFIKA@MediaDescription?$AA@
	DD	FLAT:??_C@_0BE@JBJLNBAC@Win32_PhysicalMedia?$AA@
	DD	FLAT:??_C@_0N@BBNLMPJO@Manufacturer?$AA@
	DD	FLAT:??_C@_0BE@JBJLNBAC@Win32_PhysicalMedia?$AA@
	DD	FLAT:??_C@_05NFIJOKEG@Model?$AA@
	DD	FLAT:??_C@_0BE@JBJLNBAC@Win32_PhysicalMedia?$AA@
	DD	FLAT:??_C@_0N@FPJJBBNM@SerialNumber?$AA@
	DD	FLAT:??_C@_0BE@JBJLNBAC@Win32_PhysicalMedia?$AA@
	DD	FLAT:??_C@_07NGFJPNPN@Version?$AA@
	DD	FLAT:??_C@_0BE@JBJLNBAC@Win32_PhysicalMedia?$AA@
	DD	FLAT:??_C@_07OJKFJLLK@Caption?$AA@
	DD	FLAT:??_C@_0BE@JBJLNBAC@Win32_PhysicalMedia?$AA@
	DD	FLAT:??_C@_0M@OHKMKKDH@Description?$AA@
	DD	FLAT:??_C@_0BE@JBJLNBAC@Win32_PhysicalMedia?$AA@
	DD	FLAT:??_C@_0M@NBIJNNJJ@InstallDate?$AA@
	DD	FLAT:??_C@_0BE@JBJLNBAC@Win32_PhysicalMedia?$AA@
	DD	FLAT:??_C@_06PGDKHFME@Status?$AA@
	DD	FLAT:??_C@_0BE@JBJLNBAC@Win32_PhysicalMedia?$AA@
	DD	FLAT:??_C@_0BC@FNAKMFAB@CreationClassName?$AA@
	DD	FLAT:??_C@_0BE@JBJLNBAC@Win32_PhysicalMedia?$AA@
	DD	FLAT:??_C@_03LMAAELJP@SKU?$AA@
	DD	FLAT:??_C@_0BE@JBJLNBAC@Win32_PhysicalMedia?$AA@
	DD	FLAT:??_C@_0L@MIOPIENN@PartNumber?$AA@
	DD	FLAT:??_C@_0BE@JBJLNBAC@Win32_PhysicalMedia?$AA@
	DD	FLAT:??_C@_0BF@DMENANMJ@OtherIdentifyingInfo?$AA@
	DD	FLAT:??_C@_0BE@JBJLNBAC@Win32_PhysicalMedia?$AA@
	DD	FLAT:??_C@_09HKGEBMAI@PoweredOn?$AA@
	DD	FLAT:??_C@_0BE@JBJLNBAC@Win32_PhysicalMedia?$AA@
	DD	FLAT:??_C@_09DADBKOHO@Removable?$AA@
	DD	FLAT:??_C@_0BE@JBJLNBAC@Win32_PhysicalMedia?$AA@
	DD	FLAT:??_C@_0M@KLOLJEDG@Replaceable?$AA@
	DD	FLAT:??_C@_0BE@JBJLNBAC@Win32_PhysicalMedia?$AA@
	DD	FLAT:??_C@_0N@FCOIALPI@HotSwappable?$AA@
	DD	FLAT:??_C@_0BE@JBJLNBAC@Win32_PhysicalMedia?$AA@
	DD	FLAT:??_C@_08PINBMPEF@Capacity?$AA@
	DD	FLAT:??_C@_0BE@JBJLNBAC@Win32_PhysicalMedia?$AA@
	DD	FLAT:??_C@_0P@CNPPDDMA@WriteProtectOn?$AA@
	DD	FLAT:??_C@_0BE@JBJLNBAC@Win32_PhysicalMedia?$AA@
	DD	FLAT:??_C@_0N@NINPCONM@CleanerMedia?$AA@
	DD	FLAT:??_C@_0BA@GLDDIFFN@Win32_TapeDrive?$AA@
	DD	FLAT:??_C@_04FABLJDN@Name?$AA@
	DD	FLAT:??_C@_0BA@GLDDIFFN@Win32_TapeDrive?$AA@
	DD	FLAT:??_C@_0M@HHJKGII@PNPDeviceID?$AA@
	DD	FLAT:??_C@_0BA@GLDDIFFN@Win32_TapeDrive?$AA@
	DD	FLAT:??_C@_08JLPEJKOE@DeviceID?$AA@
	DD	FLAT:??_C@_0BA@GLDDIFFN@Win32_TapeDrive?$AA@
	DD	FLAT:??_C@_0N@BBNLMPJO@Manufacturer?$AA@
	DD	FLAT:??_C@_0BA@GLDDIFFN@Win32_TapeDrive?$AA@
	DD	FLAT:??_C@_02HOGEDOAB@Id?$AA@
	DD	FLAT:??_C@_0BA@GLDDIFFN@Win32_TapeDrive?$AA@
	DD	FLAT:??_C@_0N@MFGCECDI@Availability?$AA@
	DD	FLAT:??_C@_0BA@GLDDIFFN@Win32_TapeDrive?$AA@
	DD	FLAT:??_C@_0N@FNJCOOAL@Capabilities?$AA@
	DD	FLAT:??_C@_0BA@GLDDIFFN@Win32_TapeDrive?$AA@
	DD	FLAT:??_C@_0BH@EPMKAGLN@CapabilityDescriptions?$AA@
	DD	FLAT:??_C@_0BA@GLDDIFFN@Win32_TapeDrive?$AA@
	DD	FLAT:??_C@_07OJKFJLLK@Caption?$AA@
	DD	FLAT:??_C@_0BA@GLDDIFFN@Win32_TapeDrive?$AA@
	DD	FLAT:??_C@_0M@COKFBABJ@Compression?$AA@
	DD	FLAT:??_C@_0BA@GLDDIFFN@Win32_TapeDrive?$AA@
	DD	FLAT:??_C@_0BC@MBGAHHAB@CompressionMethod?$AA@
	DD	FLAT:??_C@_0BA@GLDDIFFN@Win32_TapeDrive?$AA@
	DD	FLAT:??_C@_0BH@JDEEEDCN@ConfigManagerErrorCode?$AA@
	DD	FLAT:??_C@_0BA@GLDDIFFN@Win32_TapeDrive?$AA@
	DD	FLAT:??_C@_0BI@OBNCDCBF@ConfigManagerUserConfig?$AA@
	DD	FLAT:??_C@_0BA@GLDDIFFN@Win32_TapeDrive?$AA@
	DD	FLAT:??_C@_0BB@GHOHONOE@DefaultBlockSize?$AA@
	DD	FLAT:??_C@_0BA@GLDDIFFN@Win32_TapeDrive?$AA@
	DD	FLAT:??_C@_0M@OHKMKKDH@Description?$AA@
	DD	FLAT:??_C@_0BA@GLDDIFFN@Win32_TapeDrive?$AA@
	DD	FLAT:??_C@_03NLPJKHLD@ECC?$AA@
	DD	FLAT:??_C@_0BA@GLDDIFFN@Win32_TapeDrive?$AA@
	DD	FLAT:??_C@_0BD@IDPNAMKG@EOTWarningZoneSize?$AA@
	DD	FLAT:??_C@_0BA@GLDDIFFN@Win32_TapeDrive?$AA@
	DD	FLAT:??_C@_0N@FJHLDHMG@ErrorCleared?$AA@
	DD	FLAT:??_C@_0BA@GLDDIFFN@Win32_TapeDrive?$AA@
	DD	FLAT:??_C@_0BB@KIDBLMK@ErrorDescription?$AA@
	DD	FLAT:??_C@_0BA@GLDDIFFN@Win32_TapeDrive?$AA@
	DD	FLAT:??_C@_0BB@PNCBAHDK@ErrorMethodology?$AA@
	DD	FLAT:??_C@_0BA@GLDDIFFN@Win32_TapeDrive?$AA@
	DD	FLAT:??_C@_0N@PNICBLFI@FeaturesHigh?$AA@
	DD	FLAT:??_C@_0BA@GLDDIFFN@Win32_TapeDrive?$AA@
	DD	FLAT:??_C@_0M@GCKGDCME@FeaturesLow?$AA@
	DD	FLAT:??_C@_0BA@GLDDIFFN@Win32_TapeDrive?$AA@
	DD	FLAT:??_C@_0M@NBIJNNJJ@InstallDate?$AA@
	DD	FLAT:??_C@_0BA@GLDDIFFN@Win32_TapeDrive?$AA@
	DD	FLAT:??_C@_0O@NDKHIJAE@LastErrorCode?$AA@
	DD	FLAT:??_C@_0BA@GLDDIFFN@Win32_TapeDrive?$AA@
	DD	FLAT:??_C@_0N@HEPDBKFE@MaxBlockSize?$AA@
	DD	FLAT:??_C@_0BA@GLDDIFFN@Win32_TapeDrive?$AA@
	DD	FLAT:??_C@_0N@HBNKJHPM@MaxMediaSize?$AA@
	DD	FLAT:??_C@_0BA@GLDDIFFN@Win32_TapeDrive?$AA@
	DD	FLAT:??_C@_0BC@NKLHGLCM@MaxPartitionCount?$AA@
	DD	FLAT:??_C@_0BA@GLDDIFFN@Win32_TapeDrive?$AA@
	DD	FLAT:??_C@_09HPDNNFFF@MediaType?$AA@
	DD	FLAT:??_C@_0BA@GLDDIFFN@Win32_TapeDrive?$AA@
	DD	FLAT:??_C@_0N@DELMGCCC@MinBlockSize?$AA@
	DD	FLAT:??_C@_0BA@GLDDIFFN@Win32_TapeDrive?$AA@
	DD	FLAT:??_C@_0O@IIJMNCFJ@NeedsCleaning?$AA@
	DD	FLAT:??_C@_0BA@GLDDIFFN@Win32_TapeDrive?$AA@
	DD	FLAT:??_C@_0BH@COPKOGMD@NumberOfMediaSupported?$AA@
	DD	FLAT:??_C@_0BA@GLDDIFFN@Win32_TapeDrive?$AA@
	DD	FLAT:??_C@_07DDDGKLAD@Padding?$AA@
	DD	FLAT:??_C@_0BA@GLDDIFFN@Win32_TapeDrive?$AA@
	DD	FLAT:??_C@_0BM@NFDEHNHA@PowerManagementCapabilities?$AA@
	DD	FLAT:??_C@_0BA@GLDDIFFN@Win32_TapeDrive?$AA@
	DD	FLAT:??_C@_0BJ@CFOPGMLH@PowerManagementSupported?$AA@
	DD	FLAT:??_C@_0BA@GLDDIFFN@Win32_TapeDrive?$AA@
	DD	FLAT:??_C@_0P@OCFCAPCK@ReportSetMarks?$AA@
	DD	FLAT:??_C@_0BA@GLDDIFFN@Win32_TapeDrive?$AA@
	DD	FLAT:??_C@_06PGDKHFME@Status?$AA@
	DD	FLAT:??_C@_0BA@GLDDIFFN@Win32_TapeDrive?$AA@
	DD	FLAT:??_C@_0L@PKEHCAEI@StatusInfo?$AA@
	DD	FLAT:??_C@_0BC@BKKBKJDE@Win32_CacheMemory?$AA@
	DD	FLAT:??_C@_0M@HHJKGII@PNPDeviceID?$AA@
	DD	FLAT:??_C@_0BC@BKKBKJDE@Win32_CacheMemory?$AA@
	DD	FLAT:??_C@_08JLPEJKOE@DeviceID?$AA@
	DD	FLAT:??_C@_0BC@BKKBKJDE@Win32_CacheMemory?$AA@
	DD	FLAT:??_C@_07ODOLMOGH@Purpose?$AA@
	DD	FLAT:??_C@_0BC@BKKBKJDE@Win32_CacheMemory?$AA@
	DD	FLAT:??_C@_06IOEANFCI@Access?$AA@
	DD	FLAT:??_C@_0BC@BKKBKJDE@Win32_CacheMemory?$AA@
	DD	FLAT:??_C@_0BE@FGEPBFNL@AdditionalErrorData?$AA@
	DD	FLAT:??_C@_0BC@BKKBKJDE@Win32_CacheMemory?$AA@
	DD	FLAT:??_C@_0O@BJAAJMNJ@Associativity?$AA@
	DD	FLAT:??_C@_0BC@BKKBKJDE@Win32_CacheMemory?$AA@
	DD	FLAT:??_C@_0N@MFGCECDI@Availability?$AA@
	DD	FLAT:??_C@_0BC@BKKBKJDE@Win32_CacheMemory?$AA@
	DD	FLAT:??_C@_09JFLKFGKE@BlockSize?$AA@
	DD	FLAT:??_C@_0BC@BKKBKJDE@Win32_CacheMemory?$AA@
	DD	FLAT:??_C@_0P@PGINBNEO@NumberOfBlocks?$AA@
	DD	FLAT:??_C@_0BC@BKKBKJDE@Win32_CacheMemory?$AA@
	DD	FLAT:??_C@_0L@GKCEABFB@CacheSpeed?$AA@
	DD	FLAT:??_C@_0BC@BKKBKJDE@Win32_CacheMemory?$AA@
	DD	FLAT:??_C@_09LDLPEFB@CacheType?$AA@
	DD	FLAT:??_C@_0BC@BKKBKJDE@Win32_CacheMemory?$AA@
	DD	FLAT:??_C@_0N@FNMLGPI@MaxCacheSize?$AA@
	DD	FLAT:??_C@_0BC@BKKBKJDE@Win32_CacheMemory?$AA@
	DD	FLAT:??_C@_0BH@JDEEEDCN@ConfigManagerErrorCode?$AA@
	DD	FLAT:??_C@_0BC@BKKBKJDE@Win32_CacheMemory?$AA@
	DD	FLAT:??_C@_0BI@OBNCDCBF@ConfigManagerUserConfig?$AA@
	DD	FLAT:??_C@_0BC@BKKBKJDE@Win32_CacheMemory?$AA@
	DD	FLAT:??_C@_0BB@HJBOPHEK@CorrectableError?$AA@
	DD	FLAT:??_C@_0BC@BKKBKJDE@Win32_CacheMemory?$AA@
	DD	FLAT:??_C@_0M@JJECGOOK@CurrentSRAM?$AA@
	DD	FLAT:??_C@_0BC@BKKBKJDE@Win32_CacheMemory?$AA@
	DD	FLAT:??_C@_0O@DMEOEBEF@EndingAddress?$AA@
	DD	FLAT:??_C@_0BC@BKKBKJDE@Win32_CacheMemory?$AA@
	DD	FLAT:??_C@_0M@PJGEGKNG@ErrorAccess?$AA@
	DD	FLAT:??_C@_0BC@BKKBKJDE@Win32_CacheMemory?$AA@
	DD	FLAT:??_C@_0N@BEELHEFJ@ErrorAddress?$AA@
	DD	FLAT:??_C@_0BC@BKKBKJDE@Win32_CacheMemory?$AA@
	DD	FLAT:??_C@_0N@FJHLDHMG@ErrorCleared?$AA@
	DD	FLAT:??_C@_0BC@BKKBKJDE@Win32_CacheMemory?$AA@
	DD	FLAT:??_C@_0BB@OEAEPHLK@ErrorCorrectType?$AA@
	DD	FLAT:??_C@_0BC@BKKBKJDE@Win32_CacheMemory?$AA@
	DD	FLAT:??_C@_09GOCFECJA@ErrorData?$AA@
	DD	FLAT:??_C@_0BC@BKKBKJDE@Win32_CacheMemory?$AA@
	DD	FLAT:??_C@_0P@LPKOAMHJ@ErrorDataOrder?$AA@
	DD	FLAT:??_C@_0BC@BKKBKJDE@Win32_CacheMemory?$AA@
	DD	FLAT:??_C@_0BB@KIDBLMK@ErrorDescription?$AA@
	DD	FLAT:??_C@_0BC@BKKBKJDE@Win32_CacheMemory?$AA@
	DD	FLAT:??_C@_09EPPHMMOH@ErrorInfo?$AA@
	DD	FLAT:??_C@_0BC@BKKBKJDE@Win32_CacheMemory?$AA@
	DD	FLAT:??_C@_0BB@PNCBAHDK@ErrorMethodology?$AA@
	DD	FLAT:??_C@_0BC@BKKBKJDE@Win32_CacheMemory?$AA@
	DD	FLAT:??_C@_0BA@DBMDPLBE@ErrorResolution?$AA@
	DD	FLAT:??_C@_0BC@BKKBKJDE@Win32_CacheMemory?$AA@
	DD	FLAT:??_C@_09LMOKKAAG@ErrorTime?$AA@
	DD	FLAT:??_C@_0BC@BKKBKJDE@Win32_CacheMemory?$AA@
	DD	FLAT:??_C@_0BC@FEODMBII@ErrorTransferSize?$AA@
	DD	FLAT:??_C@_0BC@BKKBKJDE@Win32_CacheMemory?$AA@
	DD	FLAT:??_C@_0L@NIIIAJJG@FlushTimer?$AA@
	DD	FLAT:??_C@_0BC@BKKBKJDE@Win32_CacheMemory?$AA@
	DD	FLAT:??_C@_0M@NBIJNNJJ@InstallDate?$AA@
	DD	FLAT:??_C@_0BC@BKKBKJDE@Win32_CacheMemory?$AA@
	DD	FLAT:??_C@_0O@BJDNNDOA@InstalledSize?$AA@
	DD	FLAT:??_C@_0BC@BKKBKJDE@Win32_CacheMemory?$AA@
	DD	FLAT:??_C@_0O@NDKHIJAE@LastErrorCode?$AA@
	DD	FLAT:??_C@_0BC@BKKBKJDE@Win32_CacheMemory?$AA@
	DD	FLAT:??_C@_05KOHFLOFG@Level?$AA@
	DD	FLAT:??_C@_0BC@BKKBKJDE@Win32_CacheMemory?$AA@
	DD	FLAT:??_C@_08BFDFHGHF@LineSize?$AA@
	DD	FLAT:??_C@_0BC@BKKBKJDE@Win32_CacheMemory?$AA@
	DD	FLAT:??_C@_08KDOEBHGA@Location?$AA@
	DD	FLAT:??_C@_0BC@BKKBKJDE@Win32_CacheMemory?$AA@
	DD	FLAT:??_C@_0BG@GMMANAIM@OtherErrorDescription?$AA@
	DD	FLAT:??_C@_0BC@BKKBKJDE@Win32_CacheMemory?$AA@
	DD	FLAT:??_C@_0BM@NFDEHNHA@PowerManagementCapabilities?$AA@
	DD	FLAT:??_C@_0BC@BKKBKJDE@Win32_CacheMemory?$AA@
	DD	FLAT:??_C@_0BJ@CFOPGMLH@PowerManagementSupported?$AA@
	DD	FLAT:??_C@_0BC@BKKBKJDE@Win32_CacheMemory?$AA@
	DD	FLAT:??_C@_0L@OICKBPFP@ReadPolicy?$AA@
	DD	FLAT:??_C@_0BC@BKKBKJDE@Win32_CacheMemory?$AA@
	DD	FLAT:??_C@_0BC@CACAEAGO@ReplacementPolicy?$AA@
	DD	FLAT:??_C@_0BC@BKKBKJDE@Win32_CacheMemory?$AA@
	DD	FLAT:??_C@_0BA@JKJCLFJA@StartingAddress?$AA@
	DD	FLAT:??_C@_0BC@BKKBKJDE@Win32_CacheMemory?$AA@
	DD	FLAT:??_C@_06PGDKHFME@Status?$AA@
	DD	FLAT:??_C@_0BC@BKKBKJDE@Win32_CacheMemory?$AA@
	DD	FLAT:??_C@_0L@PKEHCAEI@StatusInfo?$AA@
	DD	FLAT:??_C@_0BC@BKKBKJDE@Win32_CacheMemory?$AA@
	DD	FLAT:??_C@_0O@LOONNFKJ@SupportedSRAM?$AA@
	DD	FLAT:??_C@_0BC@BKKBKJDE@Win32_CacheMemory?$AA@
	DD	FLAT:??_C@_0BD@EHELDMNK@SystemLevelAddress?$AA@
	DD	FLAT:??_C@_0BC@BKKBKJDE@Win32_CacheMemory?$AA@
	DD	FLAT:??_C@_0M@GMGLDKG@WritePolicy?$AA@
	DD	FLAT:??_C@_0BK@CHMJMDKA@Win32_DeviceMemoryAddress?$AA@
	DD	FLAT:??_C@_04FABLJDN@Name?$AA@
	DD	FLAT:??_C@_0BK@CHMJMDKA@Win32_DeviceMemoryAddress?$AA@
	DD	FLAT:??_C@_0L@NKIIONIP@MemoryType?$AA@
	DD	FLAT:??_C@_0BK@CHMJMDKA@Win32_DeviceMemoryAddress?$AA@
	DD	FLAT:??_C@_0M@NBIJNNJJ@InstallDate?$AA@
	DD	FLAT:??_C@_0BK@CHMJMDKA@Win32_DeviceMemoryAddress?$AA@
	DD	FLAT:??_C@_06PGDKHFME@Status?$AA@
	DD	FLAT:??_C@_0BC@NBCNDILJ@Win32_MemoryArray?$AA@
	DD	FLAT:??_C@_0M@HHJKGII@PNPDeviceID?$AA@
	DD	FLAT:??_C@_0BC@NBCNDILJ@Win32_MemoryArray?$AA@
	DD	FLAT:??_C@_08JLPEJKOE@DeviceID?$AA@
	DD	FLAT:??_C@_0BC@NBCNDILJ@Win32_MemoryArray?$AA@
	DD	FLAT:??_C@_0BA@JKJCLFJA@StartingAddress?$AA@
	DD	FLAT:??_C@_0BC@NBCNDILJ@Win32_MemoryArray?$AA@
	DD	FLAT:??_C@_0O@DMEOEBEF@EndingAddress?$AA@
	DD	FLAT:??_C@_0BC@NBCNDILJ@Win32_MemoryArray?$AA@
	DD	FLAT:??_C@_0BD@EHELDMNK@SystemLevelAddress?$AA@
	DD	FLAT:??_C@_0BC@NBCNDILJ@Win32_MemoryArray?$AA@
	DD	FLAT:??_C@_06IOEANFCI@Access?$AA@
	DD	FLAT:??_C@_0BC@NBCNDILJ@Win32_MemoryArray?$AA@
	DD	FLAT:??_C@_0BE@FGEPBFNL@AdditionalErrorData?$AA@
	DD	FLAT:??_C@_0BC@NBCNDILJ@Win32_MemoryArray?$AA@
	DD	FLAT:??_C@_0N@MFGCECDI@Availability?$AA@
	DD	FLAT:??_C@_0BC@NBCNDILJ@Win32_MemoryArray?$AA@
	DD	FLAT:??_C@_09JFLKFGKE@BlockSize?$AA@
	DD	FLAT:??_C@_0BC@NBCNDILJ@Win32_MemoryArray?$AA@
	DD	FLAT:??_C@_0P@PGINBNEO@NumberOfBlocks?$AA@
	DD	FLAT:??_C@_0BC@NBCNDILJ@Win32_MemoryArray?$AA@
	DD	FLAT:??_C@_0BH@JDEEEDCN@ConfigManagerErrorCode?$AA@
	DD	FLAT:??_C@_0BC@NBCNDILJ@Win32_MemoryArray?$AA@
	DD	FLAT:??_C@_0BI@OBNCDCBF@ConfigManagerUserConfig?$AA@
	DD	FLAT:??_C@_0BC@NBCNDILJ@Win32_MemoryArray?$AA@
	DD	FLAT:??_C@_0BB@HJBOPHEK@CorrectableError?$AA@
	DD	FLAT:??_C@_0BC@NBCNDILJ@Win32_MemoryArray?$AA@
	DD	FLAT:??_C@_0M@PJGEGKNG@ErrorAccess?$AA@
	DD	FLAT:??_C@_0BC@NBCNDILJ@Win32_MemoryArray?$AA@
	DD	FLAT:??_C@_0N@BEELHEFJ@ErrorAddress?$AA@
	DD	FLAT:??_C@_0BC@NBCNDILJ@Win32_MemoryArray?$AA@
	DD	FLAT:??_C@_0N@FJHLDHMG@ErrorCleared?$AA@
	DD	FLAT:??_C@_0BC@NBCNDILJ@Win32_MemoryArray?$AA@
	DD	FLAT:??_C@_09GOCFECJA@ErrorData?$AA@
	DD	FLAT:??_C@_0BC@NBCNDILJ@Win32_MemoryArray?$AA@
	DD	FLAT:??_C@_0P@LPKOAMHJ@ErrorDataOrder?$AA@
	DD	FLAT:??_C@_0BC@NBCNDILJ@Win32_MemoryArray?$AA@
	DD	FLAT:??_C@_0BB@KIDBLMK@ErrorDescription?$AA@
	DD	FLAT:??_C@_0BC@NBCNDILJ@Win32_MemoryArray?$AA@
	DD	FLAT:??_C@_0BB@CCADGENH@ErrorGranularity?$AA@
	DD	FLAT:??_C@_0BC@NBCNDILJ@Win32_MemoryArray?$AA@
	DD	FLAT:??_C@_09EPPHMMOH@ErrorInfo?$AA@
	DD	FLAT:??_C@_0BC@NBCNDILJ@Win32_MemoryArray?$AA@
	DD	FLAT:??_C@_0BB@PNCBAHDK@ErrorMethodology?$AA@
	DD	FLAT:??_C@_0BC@NBCNDILJ@Win32_MemoryArray?$AA@
	DD	FLAT:??_C@_0BA@DBMDPLBE@ErrorResolution?$AA@
	DD	FLAT:??_C@_0BC@NBCNDILJ@Win32_MemoryArray?$AA@
	DD	FLAT:??_C@_09LMOKKAAG@ErrorTime?$AA@
	DD	FLAT:??_C@_0BC@NBCNDILJ@Win32_MemoryArray?$AA@
	DD	FLAT:??_C@_0BC@FEODMBII@ErrorTransferSize?$AA@
	DD	FLAT:??_C@_0BC@NBCNDILJ@Win32_MemoryArray?$AA@
	DD	FLAT:??_C@_0M@NBIJNNJJ@InstallDate?$AA@
	DD	FLAT:??_C@_0BC@NBCNDILJ@Win32_MemoryArray?$AA@
	DD	FLAT:??_C@_0O@NDKHIJAE@LastErrorCode?$AA@
	DD	FLAT:??_C@_0BC@NBCNDILJ@Win32_MemoryArray?$AA@
	DD	FLAT:??_C@_0BG@GMMANAIM@OtherErrorDescription?$AA@
	DD	FLAT:??_C@_0BC@NBCNDILJ@Win32_MemoryArray?$AA@
	DD	FLAT:??_C@_0BM@NFDEHNHA@PowerManagementCapabilities?$AA@
	DD	FLAT:??_C@_0BC@NBCNDILJ@Win32_MemoryArray?$AA@
	DD	FLAT:??_C@_0BJ@CFOPGMLH@PowerManagementSupported?$AA@
	DD	FLAT:??_C@_0BC@NBCNDILJ@Win32_MemoryArray?$AA@
	DD	FLAT:??_C@_07ODOLMOGH@Purpose?$AA@
	DD	FLAT:??_C@_0BC@NBCNDILJ@Win32_MemoryArray?$AA@
	DD	FLAT:??_C@_06PGDKHFME@Status?$AA@
	DD	FLAT:??_C@_0BC@NBCNDILJ@Win32_MemoryArray?$AA@
	DD	FLAT:??_C@_0L@PKEHCAEI@StatusInfo?$AA@
	DD	FLAT:??_C@_0BD@MHIIAMPP@Win32_MemoryDevice?$AA@
	DD	FLAT:??_C@_0M@HHJKGII@PNPDeviceID?$AA@
	DD	FLAT:??_C@_0BD@MHIIAMPP@Win32_MemoryDevice?$AA@
	DD	FLAT:??_C@_08JLPEJKOE@DeviceID?$AA@
	DD	FLAT:??_C@_0BD@MHIIAMPP@Win32_MemoryDevice?$AA@
	DD	FLAT:??_C@_0BA@JKJCLFJA@StartingAddress?$AA@
	DD	FLAT:??_C@_0BD@MHIIAMPP@Win32_MemoryDevice?$AA@
	DD	FLAT:??_C@_0O@DMEOEBEF@EndingAddress?$AA@
	DD	FLAT:??_C@_0BD@MHIIAMPP@Win32_MemoryDevice?$AA@
	DD	FLAT:??_C@_09JFLKFGKE@BlockSize?$AA@
	DD	FLAT:??_C@_0BD@MHIIAMPP@Win32_MemoryDevice?$AA@
	DD	FLAT:??_C@_0P@PGINBNEO@NumberOfBlocks?$AA@
	DD	FLAT:??_C@_0BD@MHIIAMPP@Win32_MemoryDevice?$AA@
	DD	FLAT:??_C@_06IOEANFCI@Access?$AA@
	DD	FLAT:??_C@_0BD@MHIIAMPP@Win32_MemoryDevice?$AA@
	DD	FLAT:??_C@_0BE@FGEPBFNL@AdditionalErrorData?$AA@
	DD	FLAT:??_C@_0BD@MHIIAMPP@Win32_MemoryDevice?$AA@
	DD	FLAT:??_C@_0N@MFGCECDI@Availability?$AA@
	DD	FLAT:??_C@_0BD@MHIIAMPP@Win32_MemoryDevice?$AA@
	DD	FLAT:??_C@_0BH@JDEEEDCN@ConfigManagerErrorCode?$AA@
	DD	FLAT:??_C@_0BD@MHIIAMPP@Win32_MemoryDevice?$AA@
	DD	FLAT:??_C@_0BI@OBNCDCBF@ConfigManagerUserConfig?$AA@
	DD	FLAT:??_C@_0BD@MHIIAMPP@Win32_MemoryDevice?$AA@
	DD	FLAT:??_C@_0BB@HJBOPHEK@CorrectableError?$AA@
	DD	FLAT:??_C@_0BD@MHIIAMPP@Win32_MemoryDevice?$AA@
	DD	FLAT:??_C@_0M@PJGEGKNG@ErrorAccess?$AA@
	DD	FLAT:??_C@_0BD@MHIIAMPP@Win32_MemoryDevice?$AA@
	DD	FLAT:??_C@_0N@BEELHEFJ@ErrorAddress?$AA@
	DD	FLAT:??_C@_0BD@MHIIAMPP@Win32_MemoryDevice?$AA@
	DD	FLAT:??_C@_0N@FJHLDHMG@ErrorCleared?$AA@
	DD	FLAT:??_C@_0BD@MHIIAMPP@Win32_MemoryDevice?$AA@
	DD	FLAT:??_C@_09GOCFECJA@ErrorData?$AA@
	DD	FLAT:??_C@_0BD@MHIIAMPP@Win32_MemoryDevice?$AA@
	DD	FLAT:??_C@_0P@LPKOAMHJ@ErrorDataOrder?$AA@
	DD	FLAT:??_C@_0BD@MHIIAMPP@Win32_MemoryDevice?$AA@
	DD	FLAT:??_C@_0BB@KIDBLMK@ErrorDescription?$AA@
	DD	FLAT:??_C@_0BD@MHIIAMPP@Win32_MemoryDevice?$AA@
	DD	FLAT:??_C@_0BB@CCADGENH@ErrorGranularity?$AA@
	DD	FLAT:??_C@_0BD@MHIIAMPP@Win32_MemoryDevice?$AA@
	DD	FLAT:??_C@_09EPPHMMOH@ErrorInfo?$AA@
	DD	FLAT:??_C@_0BD@MHIIAMPP@Win32_MemoryDevice?$AA@
	DD	FLAT:??_C@_0BB@PNCBAHDK@ErrorMethodology?$AA@
	DD	FLAT:??_C@_0BD@MHIIAMPP@Win32_MemoryDevice?$AA@
	DD	FLAT:??_C@_0BA@DBMDPLBE@ErrorResolution?$AA@
	DD	FLAT:??_C@_0BD@MHIIAMPP@Win32_MemoryDevice?$AA@
	DD	FLAT:??_C@_09LMOKKAAG@ErrorTime?$AA@
	DD	FLAT:??_C@_0BD@MHIIAMPP@Win32_MemoryDevice?$AA@
	DD	FLAT:??_C@_0BC@FEODMBII@ErrorTransferSize?$AA@
	DD	FLAT:??_C@_0BD@MHIIAMPP@Win32_MemoryDevice?$AA@
	DD	FLAT:??_C@_0M@NBIJNNJJ@InstallDate?$AA@
	DD	FLAT:??_C@_0BD@MHIIAMPP@Win32_MemoryDevice?$AA@
	DD	FLAT:??_C@_0O@NDKHIJAE@LastErrorCode?$AA@
	DD	FLAT:??_C@_0BD@MHIIAMPP@Win32_MemoryDevice?$AA@
	DD	FLAT:??_C@_0BG@GMMANAIM@OtherErrorDescription?$AA@
	DD	FLAT:??_C@_0BD@MHIIAMPP@Win32_MemoryDevice?$AA@
	DD	FLAT:??_C@_0BM@NFDEHNHA@PowerManagementCapabilities?$AA@
	DD	FLAT:??_C@_0BD@MHIIAMPP@Win32_MemoryDevice?$AA@
	DD	FLAT:??_C@_0BJ@CFOPGMLH@PowerManagementSupported?$AA@
	DD	FLAT:??_C@_0BD@MHIIAMPP@Win32_MemoryDevice?$AA@
	DD	FLAT:??_C@_07ODOLMOGH@Purpose?$AA@
	DD	FLAT:??_C@_0BD@MHIIAMPP@Win32_MemoryDevice?$AA@
	DD	FLAT:??_C@_06PGDKHFME@Status?$AA@
	DD	FLAT:??_C@_0BD@MHIIAMPP@Win32_MemoryDevice?$AA@
	DD	FLAT:??_C@_0L@PKEHCAEI@StatusInfo?$AA@
	DD	FLAT:??_C@_0BD@MHIIAMPP@Win32_MemoryDevice?$AA@
	DD	FLAT:??_C@_0BD@EHELDMNK@SystemLevelAddress?$AA@
	DD	FLAT:??_C@_0BF@CGHJBIMG@Win32_PhysicalMemory?$AA@
	DD	FLAT:??_C@_03PJHNOEGB@Tag?$AA@
	DD	FLAT:??_C@_0BF@CGHJBIMG@Win32_PhysicalMemory?$AA@
	DD	FLAT:??_C@_09ELEBPJGH@BankLabel?$AA@
	DD	FLAT:??_C@_0BF@CGHJBIMG@Win32_PhysicalMemory?$AA@
	DD	FLAT:??_C@_08PINBMPEF@Capacity?$AA@
	DD	FLAT:??_C@_0BF@CGHJBIMG@Win32_PhysicalMemory?$AA@
	DD	FLAT:??_C@_09KNGBBIL@DataWidth?$AA@
	DD	FLAT:??_C@_0BF@CGHJBIMG@Win32_PhysicalMemory?$AA@
	DD	FLAT:??_C@_0O@DKGGAIKL@DeviceLocator?$AA@
	DD	FLAT:??_C@_0BF@CGHJBIMG@Win32_PhysicalMemory?$AA@
	DD	FLAT:??_C@_0L@JPOMKNPI@FormFactor?$AA@
	DD	FLAT:??_C@_0BF@CGHJBIMG@Win32_PhysicalMemory?$AA@
	DD	FLAT:??_C@_0N@FCOIALPI@HotSwappable?$AA@
	DD	FLAT:??_C@_0BF@CGHJBIMG@Win32_PhysicalMemory?$AA@
	DD	FLAT:??_C@_0M@NBIJNNJJ@InstallDate?$AA@
	DD	FLAT:??_C@_0BF@CGHJBIMG@Win32_PhysicalMemory?$AA@
	DD	FLAT:??_C@_0BE@GAJMAAIE@InterleaveDataDepth?$AA@
	DD	FLAT:??_C@_0BF@CGHJBIMG@Win32_PhysicalMemory?$AA@
	DD	FLAT:??_C@_0BD@OOBFBMPB@InterleavePosition?$AA@
	DD	FLAT:??_C@_0BF@CGHJBIMG@Win32_PhysicalMemory?$AA@
	DD	FLAT:??_C@_0N@BBNLMPJO@Manufacturer?$AA@
	DD	FLAT:??_C@_0BF@CGHJBIMG@Win32_PhysicalMemory?$AA@
	DD	FLAT:??_C@_0L@NKIIONIP@MemoryType?$AA@
	DD	FLAT:??_C@_0BF@CGHJBIMG@Win32_PhysicalMemory?$AA@
	DD	FLAT:??_C@_05NFIJOKEG@Model?$AA@
	DD	FLAT:??_C@_0BF@CGHJBIMG@Win32_PhysicalMemory?$AA@
	DD	FLAT:??_C@_0BF@DMENANMJ@OtherIdentifyingInfo?$AA@
	DD	FLAT:??_C@_0BF@CGHJBIMG@Win32_PhysicalMemory?$AA@
	DD	FLAT:??_C@_0L@MIOPIENN@PartNumber?$AA@
	DD	FLAT:??_C@_0BF@CGHJBIMG@Win32_PhysicalMemory?$AA@
	DD	FLAT:??_C@_0O@MJAFBIEI@PositionInRow?$AA@
	DD	FLAT:??_C@_0BF@CGHJBIMG@Win32_PhysicalMemory?$AA@
	DD	FLAT:??_C@_09HKGEBMAI@PoweredOn?$AA@
	DD	FLAT:??_C@_0BF@CGHJBIMG@Win32_PhysicalMemory?$AA@
	DD	FLAT:??_C@_09DADBKOHO@Removable?$AA@
	DD	FLAT:??_C@_0BF@CGHJBIMG@Win32_PhysicalMemory?$AA@
	DD	FLAT:??_C@_0M@KLOLJEDG@Replaceable?$AA@
	DD	FLAT:??_C@_0BF@CGHJBIMG@Win32_PhysicalMemory?$AA@
	DD	FLAT:??_C@_0N@FPJJBBNM@SerialNumber?$AA@
	DD	FLAT:??_C@_0BF@CGHJBIMG@Win32_PhysicalMemory?$AA@
	DD	FLAT:??_C@_03LMAAELJP@SKU?$AA@
	DD	FLAT:??_C@_0BF@CGHJBIMG@Win32_PhysicalMemory?$AA@
	DD	FLAT:??_C@_05HOIAGEJD@Speed?$AA@
	DD	FLAT:??_C@_0BF@CGHJBIMG@Win32_PhysicalMemory?$AA@
	DD	FLAT:??_C@_06PGDKHFME@Status?$AA@
	DD	FLAT:??_C@_0BF@CGHJBIMG@Win32_PhysicalMemory?$AA@
	DD	FLAT:??_C@_0L@EONKMHCB@TotalWidth?$AA@
	DD	FLAT:??_C@_0BF@CGHJBIMG@Win32_PhysicalMemory?$AA@
	DD	FLAT:??_C@_0L@NHBAOOAD@TypeDetail?$AA@
	DD	FLAT:??_C@_0BF@CGHJBIMG@Win32_PhysicalMemory?$AA@
	DD	FLAT:??_C@_07NGFJPNPN@Version?$AA@
	DD	FLAT:??_C@_0BK@FKMONDCJ@Win32_PhysicalMemoryArray?$AA@
	DD	FLAT:??_C@_03PJHNOEGB@Tag?$AA@
	DD	FLAT:??_C@_0BK@FKMONDCJ@Win32_PhysicalMemoryArray?$AA@
	DD	FLAT:??_C@_0N@BBNLMPJO@Manufacturer?$AA@
	DD	FLAT:??_C@_0BK@FKMONDCJ@Win32_PhysicalMemoryArray?$AA@
	DD	FLAT:??_C@_0N@FPJJBBNM@SerialNumber?$AA@
	DD	FLAT:??_C@_0BK@FKMONDCJ@Win32_PhysicalMemoryArray?$AA@
	DD	FLAT:??_C@_05NFIJOKEG@Model?$AA@
	DD	FLAT:??_C@_0BK@FKMONDCJ@Win32_PhysicalMemoryArray?$AA@
	DD	FLAT:??_C@_07NGFJPNPN@Version?$AA@
	DD	FLAT:??_C@_0BK@FKMONDCJ@Win32_PhysicalMemoryArray?$AA@
	DD	FLAT:??_C@_0O@EOCLGIEK@MemoryDevices?$AA@
	DD	FLAT:??_C@_0BK@FKMONDCJ@Win32_PhysicalMemoryArray?$AA@
	DD	FLAT:??_C@_05BOMFGPKE@Depth?$AA@
	DD	FLAT:??_C@_0BK@FKMONDCJ@Win32_PhysicalMemoryArray?$AA@
	DD	FLAT:??_C@_06HCAKHJJK@Height?$AA@
	DD	FLAT:??_C@_0BK@FKMONDCJ@Win32_PhysicalMemoryArray?$AA@
	DD	FLAT:??_C@_05IBAMDCFI@Width?$AA@
	DD	FLAT:??_C@_0BK@FKMONDCJ@Win32_PhysicalMemoryArray?$AA@
	DD	FLAT:??_C@_06ODJMJFLN@Weight?$AA@
	DD	FLAT:??_C@_0BK@FKMONDCJ@Win32_PhysicalMemoryArray?$AA@
	DD	FLAT:??_C@_0N@FCOIALPI@HotSwappable?$AA@
	DD	FLAT:??_C@_0BK@FKMONDCJ@Win32_PhysicalMemoryArray?$AA@
	DD	FLAT:??_C@_0M@NBIJNNJJ@InstallDate?$AA@
	DD	FLAT:??_C@_0BK@FKMONDCJ@Win32_PhysicalMemoryArray?$AA@
	DD	FLAT:??_C@_08KDOEBHGA@Location?$AA@
	DD	FLAT:??_C@_0BK@FKMONDCJ@Win32_PhysicalMemoryArray?$AA@
	DD	FLAT:??_C@_0M@LPAFCHAO@MaxCapacity?$AA@
	DD	FLAT:??_C@_0BK@FKMONDCJ@Win32_PhysicalMemoryArray?$AA@
	DD	FLAT:??_C@_0BG@BDKPEMKD@MemoryErrorCorrection?$AA@
	DD	FLAT:??_C@_0BK@FKMONDCJ@Win32_PhysicalMemoryArray?$AA@
	DD	FLAT:??_C@_0BF@DMENANMJ@OtherIdentifyingInfo?$AA@
	DD	FLAT:??_C@_0BK@FKMONDCJ@Win32_PhysicalMemoryArray?$AA@
	DD	FLAT:??_C@_0L@MIOPIENN@PartNumber?$AA@
	DD	FLAT:??_C@_0BK@FKMONDCJ@Win32_PhysicalMemoryArray?$AA@
	DD	FLAT:??_C@_09HKGEBMAI@PoweredOn?$AA@
	DD	FLAT:??_C@_0BK@FKMONDCJ@Win32_PhysicalMemoryArray?$AA@
	DD	FLAT:??_C@_09DADBKOHO@Removable?$AA@
	DD	FLAT:??_C@_0BK@FKMONDCJ@Win32_PhysicalMemoryArray?$AA@
	DD	FLAT:??_C@_0M@KLOLJEDG@Replaceable?$AA@
	DD	FLAT:??_C@_0BK@FKMONDCJ@Win32_PhysicalMemoryArray?$AA@
	DD	FLAT:??_C@_03LMAAELJP@SKU?$AA@
	DD	FLAT:??_C@_0BK@FKMONDCJ@Win32_PhysicalMemoryArray?$AA@
	DD	FLAT:??_C@_06PGDKHFME@Status?$AA@
	DD	FLAT:??_C@_0BK@FKMONDCJ@Win32_PhysicalMemoryArray?$AA@
	DD	FLAT:??_C@_03GMFFJGJI@Use?$AA@
	DD	FLAT:??_C@_0BD@CLOLHCII@Win32_SMBIOSMemory?$AA@
	DD	FLAT:??_C@_0M@HHJKGII@PNPDeviceID?$AA@
	DD	FLAT:??_C@_0BD@CLOLHCII@Win32_SMBIOSMemory?$AA@
	DD	FLAT:??_C@_08JLPEJKOE@DeviceID?$AA@
	DD	FLAT:??_C@_0BD@CLOLHCII@Win32_SMBIOSMemory?$AA@
	DD	FLAT:??_C@_0BA@JKJCLFJA@StartingAddress?$AA@
	DD	FLAT:??_C@_0BD@CLOLHCII@Win32_SMBIOSMemory?$AA@
	DD	FLAT:??_C@_0O@DMEOEBEF@EndingAddress?$AA@
	DD	FLAT:??_C@_0BD@CLOLHCII@Win32_SMBIOSMemory?$AA@
	DD	FLAT:??_C@_06IOEANFCI@Access?$AA@
	DD	FLAT:??_C@_0BD@CLOLHCII@Win32_SMBIOSMemory?$AA@
	DD	FLAT:??_C@_0BE@FGEPBFNL@AdditionalErrorData?$AA@
	DD	FLAT:??_C@_0BD@CLOLHCII@Win32_SMBIOSMemory?$AA@
	DD	FLAT:??_C@_0N@MFGCECDI@Availability?$AA@
	DD	FLAT:??_C@_0BD@CLOLHCII@Win32_SMBIOSMemory?$AA@
	DD	FLAT:??_C@_09JFLKFGKE@BlockSize?$AA@
	DD	FLAT:??_C@_0BD@CLOLHCII@Win32_SMBIOSMemory?$AA@
	DD	FLAT:??_C@_0BH@JDEEEDCN@ConfigManagerErrorCode?$AA@
	DD	FLAT:??_C@_0BD@CLOLHCII@Win32_SMBIOSMemory?$AA@
	DD	FLAT:??_C@_0BI@OBNCDCBF@ConfigManagerUserConfig?$AA@
	DD	FLAT:??_C@_0BD@CLOLHCII@Win32_SMBIOSMemory?$AA@
	DD	FLAT:??_C@_0BB@HJBOPHEK@CorrectableError?$AA@
	DD	FLAT:??_C@_0BD@CLOLHCII@Win32_SMBIOSMemory?$AA@
	DD	FLAT:??_C@_0M@PJGEGKNG@ErrorAccess?$AA@
	DD	FLAT:??_C@_0BD@CLOLHCII@Win32_SMBIOSMemory?$AA@
	DD	FLAT:??_C@_0N@BEELHEFJ@ErrorAddress?$AA@
	DD	FLAT:??_C@_0BD@CLOLHCII@Win32_SMBIOSMemory?$AA@
	DD	FLAT:??_C@_0N@FJHLDHMG@ErrorCleared?$AA@
	DD	FLAT:??_C@_0BD@CLOLHCII@Win32_SMBIOSMemory?$AA@
	DD	FLAT:??_C@_09GOCFECJA@ErrorData?$AA@
	DD	FLAT:??_C@_0BD@CLOLHCII@Win32_SMBIOSMemory?$AA@
	DD	FLAT:??_C@_0P@LPKOAMHJ@ErrorDataOrder?$AA@
	DD	FLAT:??_C@_0BD@CLOLHCII@Win32_SMBIOSMemory?$AA@
	DD	FLAT:??_C@_0BB@KIDBLMK@ErrorDescription?$AA@
	DD	FLAT:??_C@_0BD@CLOLHCII@Win32_SMBIOSMemory?$AA@
	DD	FLAT:??_C@_09EPPHMMOH@ErrorInfo?$AA@
	DD	FLAT:??_C@_0BD@CLOLHCII@Win32_SMBIOSMemory?$AA@
	DD	FLAT:??_C@_0BB@PNCBAHDK@ErrorMethodology?$AA@
	DD	FLAT:??_C@_0BD@CLOLHCII@Win32_SMBIOSMemory?$AA@
	DD	FLAT:??_C@_0BA@DBMDPLBE@ErrorResolution?$AA@
	DD	FLAT:??_C@_0BD@CLOLHCII@Win32_SMBIOSMemory?$AA@
	DD	FLAT:??_C@_09LMOKKAAG@ErrorTime?$AA@
	DD	FLAT:??_C@_0BD@CLOLHCII@Win32_SMBIOSMemory?$AA@
	DD	FLAT:??_C@_0BC@FEODMBII@ErrorTransferSize?$AA@
	DD	FLAT:??_C@_0BD@CLOLHCII@Win32_SMBIOSMemory?$AA@
	DD	FLAT:??_C@_0M@NBIJNNJJ@InstallDate?$AA@
	DD	FLAT:??_C@_0BD@CLOLHCII@Win32_SMBIOSMemory?$AA@
	DD	FLAT:??_C@_0O@NDKHIJAE@LastErrorCode?$AA@
	DD	FLAT:??_C@_0BD@CLOLHCII@Win32_SMBIOSMemory?$AA@
	DD	FLAT:??_C@_0P@PGINBNEO@NumberOfBlocks?$AA@
	DD	FLAT:??_C@_0BD@CLOLHCII@Win32_SMBIOSMemory?$AA@
	DD	FLAT:??_C@_0BG@GMMANAIM@OtherErrorDescription?$AA@
	DD	FLAT:??_C@_0BD@CLOLHCII@Win32_SMBIOSMemory?$AA@
	DD	FLAT:??_C@_0BM@NFDEHNHA@PowerManagementCapabilities?$AA@
	DD	FLAT:??_C@_0BD@CLOLHCII@Win32_SMBIOSMemory?$AA@
	DD	FLAT:??_C@_0BJ@CFOPGMLH@PowerManagementSupported?$AA@
	DD	FLAT:??_C@_0BD@CLOLHCII@Win32_SMBIOSMemory?$AA@
	DD	FLAT:??_C@_07ODOLMOGH@Purpose?$AA@
	DD	FLAT:??_C@_0BD@CLOLHCII@Win32_SMBIOSMemory?$AA@
	DD	FLAT:??_C@_06PGDKHFME@Status?$AA@
	DD	FLAT:??_C@_0BD@CLOLHCII@Win32_SMBIOSMemory?$AA@
	DD	FLAT:??_C@_0L@PKEHCAEI@StatusInfo?$AA@
	DD	FLAT:??_C@_0BD@CLOLHCII@Win32_SMBIOSMemory?$AA@
	DD	FLAT:??_C@_0BD@EHELDMNK@SystemLevelAddress?$AA@
	DD	FLAT:??_C@_0BL@GIIBFPAF@Win32_SystemMemoryResource?$AA@
	DD	FLAT:??_C@_04FABLJDN@Name?$AA@
	DD	FLAT:??_C@_0BL@GIIBFPAF@Win32_SystemMemoryResource?$AA@
	DD	FLAT:??_C@_0M@NBIJNNJJ@InstallDate?$AA@
	DD	FLAT:??_C@_0BL@GIIBFPAF@Win32_SystemMemoryResource?$AA@
	DD	FLAT:??_C@_06PGDKHFME@Status?$AA@
	DD	FLAT:??_C@_0BF@GMDCFJKK@Win32_ComputerSystem?$AA@
	DD	FLAT:??_C@_04FABLJDN@Name?$AA@
	DD	FLAT:??_C@_0BF@GMDCFJKK@Win32_ComputerSystem?$AA@
	DD	FLAT:??_C@_0N@BBNLMPJO@Manufacturer?$AA@
	DD	FLAT:??_C@_0BF@GMDCFJKK@Win32_ComputerSystem?$AA@
	DD	FLAT:??_C@_05NFIJOKEG@Model?$AA@
	DD	FLAT:??_C@_0BF@GMDCFJKK@Win32_ComputerSystem?$AA@
	DD	FLAT:??_C@_0L@GEHHDFHH@SystemType?$AA@
	DD	FLAT:??_C@_0BF@GMDCFJKK@Win32_ComputerSystem?$AA@
	DD	FLAT:??_C@_0BD@KEFEPCEP@NumberOfProcessors?$AA@
	DD	FLAT:??_C@_0BF@GMDCFJKK@Win32_ComputerSystem?$AA@
	DD	FLAT:??_C@_0BK@OBFFNDNO@NumberOfLogicalProcessors?$AA@
	DD	FLAT:??_C@_0BF@GMDCFJKK@Win32_ComputerSystem?$AA@
	DD	FLAT:??_C@_08KAFEAHEM@UserName?$AA@
	DD	FLAT:??_C@_0BF@GMDCFJKK@Win32_ComputerSystem?$AA@
	DD	FLAT:??_C@_0BE@BPKIAGEB@AdminPasswordStatus?$AA@
	DD	FLAT:??_C@_0BF@GMDCFJKK@Win32_ComputerSystem?$AA@
	DD	FLAT:??_C@_0BJ@GMKDMOMC@AutomaticManagedPagefile?$AA@
	DD	FLAT:??_C@_0BF@GMDCFJKK@Win32_ComputerSystem?$AA@
	DD	FLAT:??_C@_0BJ@CCCKPNOE@AutomaticResetBootOption?$AA@
	DD	FLAT:??_C@_0BF@GMDCFJKK@Win32_ComputerSystem?$AA@
	DD	FLAT:??_C@_0BJ@HFJMLPDD@AutomaticResetCapability?$AA@
	DD	FLAT:??_C@_0BF@GMDCFJKK@Win32_ComputerSystem?$AA@
	DD	FLAT:??_C@_0BC@LOIFGJNH@BootOptionOnLimit?$AA@
	DD	FLAT:??_C@_0BF@GMDCFJKK@Win32_ComputerSystem?$AA@
	DD	FLAT:??_C@_0BF@NHNHHNLM@BootOptionOnWatchDog?$AA@
	DD	FLAT:??_C@_0BF@GMDCFJKK@Win32_ComputerSystem?$AA@
	DD	FLAT:??_C@_0BB@KCAGDBFG@BootROMSupported?$AA@
	DD	FLAT:??_C@_0BF@GMDCFJKK@Win32_ComputerSystem?$AA@
	DD	FLAT:??_C@_0M@FAIFADKE@BootupState?$AA@
	DD	FLAT:??_C@_0BF@GMDCFJKK@Win32_ComputerSystem?$AA@
	DD	FLAT:??_C@_0BD@NPOFELCJ@ChassisBootupState?$AA@
	DD	FLAT:??_C@_0BF@GMDCFJKK@Win32_ComputerSystem?$AA@
	DD	FLAT:??_C@_0BA@KEBGPOLH@CurrentTimeZone?$AA@
	DD	FLAT:??_C@_0BF@GMDCFJKK@Win32_ComputerSystem?$AA@
	DD	FLAT:??_C@_0BB@PNOOHJBN@DaylightInEffect?$AA@
	DD	FLAT:??_C@_0BF@GMDCFJKK@Win32_ComputerSystem?$AA@
	DD	FLAT:??_C@_0M@OHKMKKDH@Description?$AA@
	DD	FLAT:??_C@_0BF@GMDCFJKK@Win32_ComputerSystem?$AA@
	DD	FLAT:??_C@_0M@HMDMJNAL@DNSHostName?$AA@
	DD	FLAT:??_C@_0BF@GMDCFJKK@Win32_ComputerSystem?$AA@
	DD	FLAT:??_C@_06HFDFFJHI@Domain?$AA@
	DD	FLAT:??_C@_0BF@GMDCFJKK@Win32_ComputerSystem?$AA@
	DD	FLAT:??_C@_0L@DHGJAMBB@DomainRole?$AA@
	DD	FLAT:??_C@_0BF@GMDCFJKK@Win32_ComputerSystem?$AA@
	DD	FLAT:??_C@_0BK@DMLHGPE@EnableDaylightSavingsTime?$AA@
	DD	FLAT:??_C@_0BF@GMDCFJKK@Win32_ComputerSystem?$AA@
	DD	FLAT:??_C@_0BG@OFHEPCGG@FrontPanelResetStatus?$AA@
	DD	FLAT:??_C@_0BF@GMDCFJKK@Win32_ComputerSystem?$AA@
	DD	FLAT:??_C@_0BC@MOGIEFCC@InfraredSupported?$AA@
	DD	FLAT:??_C@_0BF@GMDCFJKK@Win32_ComputerSystem?$AA@
	DD	FLAT:??_C@_0BA@FHFMLOBH@InitialLoadInfo?$AA@
	DD	FLAT:??_C@_0BF@GMDCFJKK@Win32_ComputerSystem?$AA@
	DD	FLAT:??_C@_0M@NBIJNNJJ@InstallDate?$AA@
	DD	FLAT:??_C@_0BF@GMDCFJKK@Win32_ComputerSystem?$AA@
	DD	FLAT:??_C@_0BH@NPMFKEOG@KeyboardPasswordStatus?$AA@
	DD	FLAT:??_C@_0BF@GMDCFJKK@Win32_ComputerSystem?$AA@
	DD	FLAT:??_C@_0N@FDMFJCLB@LastLoadInfo?$AA@
	DD	FLAT:??_C@_0BF@GMDCFJKK@Win32_ComputerSystem?$AA@
	DD	FLAT:??_C@_0L@INCFKHMA@NameFormat?$AA@
	DD	FLAT:??_C@_0BF@GMDCFJKK@Win32_ComputerSystem?$AA@
	DD	FLAT:??_C@_0BJ@OJMPPEPI@NetworkServerModeEnabled?$AA@
	DD	FLAT:??_C@_0BF@GMDCFJKK@Win32_ComputerSystem?$AA@
	DD	FLAT:??_C@_0O@KFCLFAME@OEMLogoBitmap?$AA@
	DD	FLAT:??_C@_0BF@GMDCFJKK@Win32_ComputerSystem?$AA@
	DD	FLAT:??_C@_0P@DEDOEGFN@OEMStringArray?$AA@
	DD	FLAT:??_C@_0BF@GMDCFJKK@Win32_ComputerSystem?$AA@
	DD	FLAT:??_C@_0N@BDBDHMKI@PartOfDomain?$AA@
	DD	FLAT:??_C@_0BF@GMDCFJKK@Win32_ComputerSystem?$AA@
	DD	FLAT:??_C@_0BA@BAAGJACJ@PauseAfterReset?$AA@
	DD	FLAT:??_C@_0BF@GMDCFJKK@Win32_ComputerSystem?$AA@
	DD	FLAT:??_C@_0N@EOPDJAGI@PCSystemType?$AA@
	DD	FLAT:??_C@_0BF@GMDCFJKK@Win32_ComputerSystem?$AA@
	DD	FLAT:??_C@_0BM@NFDEHNHA@PowerManagementCapabilities?$AA@
	DD	FLAT:??_C@_0BF@GMDCFJKK@Win32_ComputerSystem?$AA@
	DD	FLAT:??_C@_0BJ@CFOPGMLH@PowerManagementSupported?$AA@
	DD	FLAT:??_C@_0BF@GMDCFJKK@Win32_ComputerSystem?$AA@
	DD	FLAT:??_C@_0BG@MGBDJIM@PowerOnPasswordStatus?$AA@
	DD	FLAT:??_C@_0BF@GMDCFJKK@Win32_ComputerSystem?$AA@
	DD	FLAT:??_C@_0L@PFLEPOFF@PowerState?$AA@
	DD	FLAT:??_C@_0BF@GMDCFJKK@Win32_ComputerSystem?$AA@
	DD	FLAT:??_C@_0BB@PGEJAGBJ@PowerSupplyState?$AA@
	DD	FLAT:??_C@_0BF@GMDCFJKK@Win32_ComputerSystem?$AA@
	DD	FLAT:??_C@_0BE@GNDJOKHP@PrimaryOwnerContact?$AA@
	DD	FLAT:??_C@_0BF@GMDCFJKK@Win32_ComputerSystem?$AA@
	DD	FLAT:??_C@_0BB@CIHLIHGG@PrimaryOwnerName?$AA@
	DD	FLAT:??_C@_0BF@GMDCFJKK@Win32_ComputerSystem?$AA@
	DD	FLAT:??_C@_0BA@JGMMLHGF@ResetCapability?$AA@
	DD	FLAT:??_C@_0BF@GMDCFJKK@Win32_ComputerSystem?$AA@
	DD	FLAT:??_C@_0L@NDDNCBN@ResetCount?$AA@
	DD	FLAT:??_C@_0BF@GMDCFJKK@Win32_ComputerSystem?$AA@
	DD	FLAT:??_C@_0L@ODMHPMJN@ResetLimit?$AA@
	DD	FLAT:??_C@_0BF@GMDCFJKK@Win32_ComputerSystem?$AA@
	DD	FLAT:??_C@_05CPOHHMHJ@Roles?$AA@
	DD	FLAT:??_C@_0BF@GMDCFJKK@Win32_ComputerSystem?$AA@
	DD	FLAT:??_C@_06PGDKHFME@Status?$AA@
	DD	FLAT:??_C@_0BF@GMDCFJKK@Win32_ComputerSystem?$AA@
	DD	FLAT:??_C@_0BK@GHHBNFKI@SupportContactDescription?$AA@
	DD	FLAT:??_C@_0BF@GMDCFJKK@Win32_ComputerSystem?$AA@
	DD	FLAT:??_C@_0BD@MJBJDOPG@SystemStartupDelay?$AA@
	DD	FLAT:??_C@_0BF@GMDCFJKK@Win32_ComputerSystem?$AA@
	DD	FLAT:??_C@_0BF@HNHDCNN@SystemStartupOptions?$AA@
	DD	FLAT:??_C@_0BF@GMDCFJKK@Win32_ComputerSystem?$AA@
	DD	FLAT:??_C@_0BF@IKJAHOGK@SystemStartupSetting?$AA@
	DD	FLAT:??_C@_0BF@GMDCFJKK@Win32_ComputerSystem?$AA@
	DD	FLAT:??_C@_0N@HHACICKK@ThermalState?$AA@
	DD	FLAT:??_C@_0BF@GMDCFJKK@Win32_ComputerSystem?$AA@
	DD	FLAT:??_C@_0BE@LPDNMOEG@TotalPhysicalMemory?$AA@
	DD	FLAT:??_C@_0BF@GMDCFJKK@Win32_ComputerSystem?$AA@
	DD	FLAT:??_C@_0L@FAPFOCCC@WakeUpType?$AA@
	DD	FLAT:??_C@_0BF@GMDCFJKK@Win32_ComputerSystem?$AA@
	DD	FLAT:??_C@_09CLAAHCGK@Workgroup?$AA@
	DD	FLAT:??_C@_0BM@IEKJLBKB@Win32_ComputerSystemProduct?$AA@
	DD	FLAT:??_C@_04FABLJDN@Name?$AA@
	DD	FLAT:??_C@_0BM@IEKJLBKB@Win32_ComputerSystemProduct?$AA@
	DD	FLAT:??_C@_06LGGLFMPE@Vendor?$AA@
	DD	FLAT:??_C@_0BM@IEKJLBKB@Win32_ComputerSystemProduct?$AA@
	DD	FLAT:??_C@_07NGFJPNPN@Version?$AA@
	DD	FLAT:??_C@_0BM@IEKJLBKB@Win32_ComputerSystemProduct?$AA@
	DD	FLAT:??_C@_04NOKDILIH@UUID?$AA@
	DD	FLAT:??_C@_0BM@IEKJLBKB@Win32_ComputerSystemProduct?$AA@
	DD	FLAT:??_C@_0BC@IBEJLMDM@IdentifyingNumber?$AA@
	DD	FLAT:??_C@_0BM@IEKJLBKB@Win32_ComputerSystemProduct?$AA@
	DD	FLAT:??_C@_09ODBEMGCH@SKUNumber?$AA@
	DD	FLAT:??_C@_0O@LCAALOJJ@Win32_Product?$AA@
	DD	FLAT:??_C@_04FABLJDN@Name?$AA@
	DD	FLAT:??_C@_0O@LCAALOJJ@Win32_Product?$AA@
	DD	FLAT:??_C@_07NGFJPNPN@Version?$AA@
	DD	FLAT:??_C@_0O@LCAALOJJ@Win32_Product?$AA@
	DD	FLAT:??_C@_09IHHILKBJ@ProductID?$AA@
	DD	FLAT:??_C@_0O@LCAALOJJ@Win32_Product?$AA@
	DD	FLAT:??_C@_06LGGLFMPE@Vendor?$AA@
	DD	FLAT:??_C@_0O@LCAALOJJ@Win32_Product?$AA@
	DD	FLAT:??_C@_0P@CAOEPKFE@AssignmentType?$AA@
	DD	FLAT:??_C@_0O@LCAALOJJ@Win32_Product?$AA@
	DD	FLAT:??_C@_0BC@IBEJLMDM@IdentifyingNumber?$AA@
	DD	FLAT:??_C@_0O@LCAALOJJ@Win32_Product?$AA@
	DD	FLAT:??_C@_0M@NBIJNNJJ@InstallDate?$AA@
	DD	FLAT:??_C@_0O@LCAALOJJ@Win32_Product?$AA@
	DD	FLAT:??_C@_0BA@DLLPKNMD@InstallLocation?$AA@
	DD	FLAT:??_C@_0O@LCAALOJJ@Win32_Product?$AA@
	DD	FLAT:??_C@_0N@FNHIHJOE@InstallState?$AA@
	DD	FLAT:??_C@_0O@LCAALOJJ@Win32_Product?$AA@
	DD	FLAT:??_C@_08LMOOJGEG@HelpLink?$AA@
	DD	FLAT:??_C@_0O@LCAALOJJ@Win32_Product?$AA@
	DD	FLAT:??_C@_0O@PPCFOOHH@HelpTelephone?$AA@
	DD	FLAT:??_C@_0O@LCAALOJJ@Win32_Product?$AA@
	DD	FLAT:??_C@_0O@GCCHCBIO@InstallSource?$AA@
	DD	FLAT:??_C@_0O@LCAALOJJ@Win32_Product?$AA@
	DD	FLAT:??_C@_08BENDAOKD@Language?$AA@
	DD	FLAT:??_C@_0O@LCAALOJJ@Win32_Product?$AA@
	DD	FLAT:??_C@_0N@ONDNCIN@LocalPackage?$AA@
	DD	FLAT:??_C@_0O@LCAALOJJ@Win32_Product?$AA@
	DD	FLAT:??_C@_0N@LIDMIFHK@PackageCache?$AA@
	DD	FLAT:??_C@_0O@LCAALOJJ@Win32_Product?$AA@
	DD	FLAT:??_C@_0M@OMMGPPBL@PackageCode?$AA@
	DD	FLAT:??_C@_0O@LCAALOJJ@Win32_Product?$AA@
	DD	FLAT:??_C@_0M@PLFIHHBG@PackageName?$AA@
	DD	FLAT:??_C@_0O@LCAALOJJ@Win32_Product?$AA@
	DD	FLAT:??_C@_08KOFIEIPM@RegOwner?$AA@
	DD	FLAT:??_C@_0O@LCAALOJJ@Win32_Product?$AA@
	DD	FLAT:??_C@_0L@BDBMLIBF@RegCompany?$AA@
	DD	FLAT:??_C@_0O@LCAALOJJ@Win32_Product?$AA@
	DD	FLAT:??_C@_09ODBEMGCH@SKUNumber?$AA@
	DD	FLAT:??_C@_0O@LCAALOJJ@Win32_Product?$AA@
	DD	FLAT:??_C@_0L@LNLOEOEC@Transforms?$AA@
	DD	FLAT:??_C@_0O@LCAALOJJ@Win32_Product?$AA@
	DD	FLAT:??_C@_0N@CIJCJNDA@URLInfoAbout?$AA@
	DD	FLAT:??_C@_0O@LCAALOJJ@Win32_Product?$AA@
	DD	FLAT:??_C@_0O@FDAGMPND@URLUpdateInfo?$AA@
	DD	FLAT:??_C@_0O@LCAALOJJ@Win32_Product?$AA@
	DD	FLAT:??_C@_09JCLOCIPO@WordCount?$AA@
	DD	FLAT:??_C@_0BK@FHHANEEI@Win32_QuickFixEngineering?$AA@
	DD	FLAT:??_C@_04FABLJDN@Name?$AA@
	DD	FLAT:??_C@_0BK@FHHANEEI@Win32_QuickFixEngineering?$AA@
	DD	FLAT:??_C@_08GFKGEEBB@HotFixID?$AA@
	DD	FLAT:??_C@_0BK@FHHANEEI@Win32_QuickFixEngineering?$AA@
	DD	FLAT:??_C@_0M@NBIJNNJJ@InstallDate?$AA@
	DD	FLAT:??_C@_0BK@FHHANEEI@Win32_QuickFixEngineering?$AA@
	DD	FLAT:??_C@_0M@NMGHOPGA@InstalledBy?$AA@
	DD	FLAT:??_C@_0BK@FHHANEEI@Win32_QuickFixEngineering?$AA@
	DD	FLAT:??_C@_0M@NBDMPIKF@InstalledOn?$AA@
	DD	FLAT:??_C@_0BK@FHHANEEI@Win32_QuickFixEngineering?$AA@
	DD	FLAT:??_C@_07OJKFJLLK@Caption?$AA@
	DD	FLAT:??_C@_0BK@FHHANEEI@Win32_QuickFixEngineering?$AA@
	DD	FLAT:??_C@_0M@OHKMKKDH@Description?$AA@
	DD	FLAT:??_C@_0BK@FHHANEEI@Win32_QuickFixEngineering?$AA@
	DD	FLAT:??_C@_0M@PIGNGIJB@FixComments?$AA@
	DD	FLAT:??_C@_0BK@FHHANEEI@Win32_QuickFixEngineering?$AA@
	DD	FLAT:??_C@_0BE@FBEKBLIJ@ServicePackInEffect?$AA@
	DD	FLAT:??_C@_0BK@FHHANEEI@Win32_QuickFixEngineering?$AA@
	DD	FLAT:??_C@_06PGDKHFME@Status?$AA@
	DD	FLAT:??_C@_0BE@DKANKDCG@Win32_Refrigeration?$AA@
	DD	FLAT:??_C@_04FABLJDN@Name?$AA@
	DD	FLAT:??_C@_0BE@DKANKDCG@Win32_Refrigeration?$AA@
	DD	FLAT:??_C@_0M@HHJKGII@PNPDeviceID?$AA@
	DD	FLAT:??_C@_0BE@DKANKDCG@Win32_Refrigeration?$AA@
	DD	FLAT:??_C@_08JLPEJKOE@DeviceID?$AA@
	DD	FLAT:??_C@_0BE@DKANKDCG@Win32_Refrigeration?$AA@
	DD	FLAT:??_C@_0O@PBOKHICP@ActiveCooling?$AA@
	DD	FLAT:??_C@_0BE@DKANKDCG@Win32_Refrigeration?$AA@
	DD	FLAT:??_C@_0N@MFGCECDI@Availability?$AA@
	DD	FLAT:??_C@_0BE@DKANKDCG@Win32_Refrigeration?$AA@
	DD	FLAT:??_C@_07OJKFJLLK@Caption?$AA@
	DD	FLAT:??_C@_0BE@DKANKDCG@Win32_Refrigeration?$AA@
	DD	FLAT:??_C@_0BH@JDEEEDCN@ConfigManagerErrorCode?$AA@
	DD	FLAT:??_C@_0BE@DKANKDCG@Win32_Refrigeration?$AA@
	DD	FLAT:??_C@_0BI@OBNCDCBF@ConfigManagerUserConfig?$AA@
	DD	FLAT:??_C@_0BE@DKANKDCG@Win32_Refrigeration?$AA@
	DD	FLAT:??_C@_0M@OHKMKKDH@Description?$AA@
	DD	FLAT:??_C@_0BE@DKANKDCG@Win32_Refrigeration?$AA@
	DD	FLAT:??_C@_0N@FJHLDHMG@ErrorCleared?$AA@
	DD	FLAT:??_C@_0BE@DKANKDCG@Win32_Refrigeration?$AA@
	DD	FLAT:??_C@_0BB@KIDBLMK@ErrorDescription?$AA@
	DD	FLAT:??_C@_0BE@DKANKDCG@Win32_Refrigeration?$AA@
	DD	FLAT:??_C@_0M@NBIJNNJJ@InstallDate?$AA@
	DD	FLAT:??_C@_0BE@DKANKDCG@Win32_Refrigeration?$AA@
	DD	FLAT:??_C@_0O@NDKHIJAE@LastErrorCode?$AA@
	DD	FLAT:??_C@_0BE@DKANKDCG@Win32_Refrigeration?$AA@
	DD	FLAT:??_C@_0BM@NFDEHNHA@PowerManagementCapabilities?$AA@
	DD	FLAT:??_C@_0BE@DKANKDCG@Win32_Refrigeration?$AA@
	DD	FLAT:??_C@_0BJ@CFOPGMLH@PowerManagementSupported?$AA@
	DD	FLAT:??_C@_0BE@DKANKDCG@Win32_Refrigeration?$AA@
	DD	FLAT:??_C@_06PGDKHFME@Status?$AA@
	DD	FLAT:??_C@_0BE@DKANKDCG@Win32_Refrigeration?$AA@
	DD	FLAT:??_C@_0L@PKEHCAEI@StatusInfo?$AA@
	DD	FLAT:??_C@_0P@OGGGECNI@Win32_Registry?$AA@
	DD	FLAT:??_C@_04FABLJDN@Name?$AA@
	DD	FLAT:??_C@_0P@OGGGECNI@Win32_Registry?$AA@
	DD	FLAT:??_C@_0M@MLALLFJB@CurrentSize?$AA@
	DD	FLAT:??_C@_0P@OGGGECNI@Win32_Registry?$AA@
	DD	FLAT:??_C@_0M@NBIJNNJJ@InstallDate?$AA@
	DD	FLAT:??_C@_0P@OGGGECNI@Win32_Registry?$AA@
	DD	FLAT:??_C@_0M@JHEHBNHB@MaximumSize?$AA@
	DD	FLAT:??_C@_0P@OGGGECNI@Win32_Registry?$AA@
	DD	FLAT:??_C@_0N@JHIKPPPP@ProposedSize?$AA@
	DD	FLAT:??_C@_0P@OGGGECNI@Win32_Registry?$AA@
	DD	FLAT:??_C@_06PGDKHFME@Status?$AA@
	DD	FLAT:??_C@_0BE@DHOOODEL@Win32_SystemAccount?$AA@
	DD	FLAT:??_C@_04FABLJDN@Name?$AA@
	DD	FLAT:??_C@_0BE@DHOOODEL@Win32_SystemAccount?$AA@
	DD	FLAT:??_C@_03OMFNLMOB@SID?$AA@
	DD	FLAT:??_C@_0BE@DHOOODEL@Win32_SystemAccount?$AA@
	DD	FLAT:??_C@_06HFDFFJHI@Domain?$AA@
	DD	FLAT:??_C@_0BE@DHOOODEL@Win32_SystemAccount?$AA@
	DD	FLAT:??_C@_0M@NBIJNNJJ@InstallDate?$AA@
	DD	FLAT:??_C@_0BE@DHOOODEL@Win32_SystemAccount?$AA@
	DD	FLAT:??_C@_0N@FPKOIMIG@LocalAccount?$AA@
	DD	FLAT:??_C@_0BE@DHOOODEL@Win32_SystemAccount?$AA@
	DD	FLAT:??_C@_07JDPBNNMM@SIDType?$AA@
	DD	FLAT:??_C@_0BE@DHOOODEL@Win32_SystemAccount?$AA@
	DD	FLAT:??_C@_06PGDKHFME@Status?$AA@
	DD	FLAT:??_C@_0BD@GGPCAOMO@Win32_SystemDriver?$AA@
	DD	FLAT:??_C@_04FABLJDN@Name?$AA@
	DD	FLAT:??_C@_0BD@GGPCAOMO@Win32_SystemDriver?$AA@
	DD	FLAT:??_C@_0M@MLHPPPJP@DisplayName?$AA@
	DD	FLAT:??_C@_0BD@GGPCAOMO@Win32_SystemDriver?$AA@
	DD	FLAT:??_C@_08LHLJMCNC@PathName?$AA@
	DD	FLAT:??_C@_0BD@GGPCAOMO@Win32_SystemDriver?$AA@
	DD	FLAT:??_C@_0M@MEIJGDEJ@AcceptPause?$AA@
	DD	FLAT:??_C@_0BD@GGPCAOMO@Win32_SystemDriver?$AA@
	DD	FLAT:??_C@_0L@MPAKMMDG@AcceptStop?$AA@
	DD	FLAT:??_C@_0BD@GGPCAOMO@Win32_SystemDriver?$AA@
	DD	FLAT:??_C@_0BA@DKLNMHH@DesktopInteract?$AA@
	DD	FLAT:??_C@_0BD@GGPCAOMO@Win32_SystemDriver?$AA@
	DD	FLAT:??_C@_0N@GPBKMKLE@ErrorControl?$AA@
	DD	FLAT:??_C@_0BD@GGPCAOMO@Win32_SystemDriver?$AA@
	DD	FLAT:??_C@_08FHJJFIAP@ExitCode?$AA@
	DD	FLAT:??_C@_0BD@GGPCAOMO@Win32_SystemDriver?$AA@
	DD	FLAT:??_C@_0M@NBIJNNJJ@InstallDate?$AA@
	DD	FLAT:??_C@_0BD@GGPCAOMO@Win32_SystemDriver?$AA@
	DD	FLAT:??_C@_0BI@JAIDFKNN@ServiceSpecificExitCode?$AA@
	DD	FLAT:??_C@_0BD@GGPCAOMO@Win32_SystemDriver?$AA@
	DD	FLAT:??_C@_0M@CFFFGGEC@ServiceType?$AA@
	DD	FLAT:??_C@_0BD@GGPCAOMO@Win32_SystemDriver?$AA@
	DD	FLAT:??_C@_07LCDJNPHI@Started?$AA@
	DD	FLAT:??_C@_0BD@GGPCAOMO@Win32_SystemDriver?$AA@
	DD	FLAT:??_C@_09IAGOJBFI@StartMode?$AA@
	DD	FLAT:??_C@_0BD@GGPCAOMO@Win32_SystemDriver?$AA@
	DD	FLAT:??_C@_09CIMAKHDE@StartName?$AA@
	DD	FLAT:??_C@_0BD@GGPCAOMO@Win32_SystemDriver?$AA@
	DD	FLAT:??_C@_05JNKNAC@State?$AA@
	DD	FLAT:??_C@_0BD@GGPCAOMO@Win32_SystemDriver?$AA@
	DD	FLAT:??_C@_06PGDKHFME@Status?$AA@
	DD	FLAT:??_C@_0BD@GGPCAOMO@Win32_SystemDriver?$AA@
	DD	FLAT:??_C@_05KFFLJNBG@TagId?$AA@
	DD	FLAT:??_C@_0BG@COLMHJCF@Win32_SystemEnclosure?$AA@
	DD	FLAT:??_C@_03PJHNOEGB@Tag?$AA@
	DD	FLAT:??_C@_0BG@COLMHJCF@Win32_SystemEnclosure?$AA@
	DD	FLAT:??_C@_07NGFJPNPN@Version?$AA@
	DD	FLAT:??_C@_0BG@COLMHJCF@Win32_SystemEnclosure?$AA@
	DD	FLAT:??_C@_0N@BBNLMPJO@Manufacturer?$AA@
	DD	FLAT:??_C@_0BG@COLMHJCF@Win32_SystemEnclosure?$AA@
	DD	FLAT:??_C@_05NFIJOKEG@Model?$AA@
	DD	FLAT:??_C@_0BG@COLMHJCF@Win32_SystemEnclosure?$AA@
	DD	FLAT:??_C@_0N@FPJJBBNM@SerialNumber?$AA@
	DD	FLAT:??_C@_0BG@COLMHJCF@Win32_SystemEnclosure?$AA@
	DD	FLAT:??_C@_0N@MLFAOMIG@ChassisTypes?$AA@
	DD	FLAT:??_C@_0BG@COLMHJCF@Win32_SystemEnclosure?$AA@
	DD	FLAT:??_C@_05BOMFGPKE@Depth?$AA@
	DD	FLAT:??_C@_0BG@COLMHJCF@Win32_SystemEnclosure?$AA@
	DD	FLAT:??_C@_06HCAKHJJK@Height?$AA@
	DD	FLAT:??_C@_0BG@COLMHJCF@Win32_SystemEnclosure?$AA@
	DD	FLAT:??_C@_05IBAMDCFI@Width?$AA@
	DD	FLAT:??_C@_0BG@COLMHJCF@Win32_SystemEnclosure?$AA@
	DD	FLAT:??_C@_06ODJMJFLN@Weight?$AA@
	DD	FLAT:??_C@_0BG@COLMHJCF@Win32_SystemEnclosure?$AA@
	DD	FLAT:??_C@_0N@FBKDMIBE@AudibleAlarm?$AA@
	DD	FLAT:??_C@_0BG@COLMHJCF@Win32_SystemEnclosure?$AA@
	DD	FLAT:??_C@_0BC@OICCILBJ@BreachDescription?$AA@
	DD	FLAT:??_C@_0BG@COLMHJCF@Win32_SystemEnclosure?$AA@
	DD	FLAT:??_C@_0BI@OIOFCGCN@CableManagementStrategy?$AA@
	DD	FLAT:??_C@_0BG@COLMHJCF@Win32_SystemEnclosure?$AA@
	DD	FLAT:??_C@_0BK@DMAHAAAM@CurrentRequiredOrProduced?$AA@
	DD	FLAT:??_C@_0BG@COLMHJCF@Win32_SystemEnclosure?$AA@
	DD	FLAT:??_C@_0P@FPMIANAI@HeatGeneration?$AA@
	DD	FLAT:??_C@_0BG@COLMHJCF@Win32_SystemEnclosure?$AA@
	DD	FLAT:??_C@_0N@FCOIALPI@HotSwappable?$AA@
	DD	FLAT:??_C@_0BG@COLMHJCF@Win32_SystemEnclosure?$AA@
	DD	FLAT:??_C@_0M@NBIJNNJJ@InstallDate?$AA@
	DD	FLAT:??_C@_0BG@COLMHJCF@Win32_SystemEnclosure?$AA@
	DD	FLAT:??_C@_0M@FLPBGKMO@LockPresent?$AA@
	DD	FLAT:??_C@_0BG@COLMHJCF@Win32_SystemEnclosure?$AA@
	DD	FLAT:??_C@_0BD@BOLIJOBH@NumberOfPowerCords?$AA@
	DD	FLAT:??_C@_0BG@COLMHJCF@Win32_SystemEnclosure?$AA@
	DD	FLAT:??_C@_0BF@DMENANMJ@OtherIdentifyingInfo?$AA@
	DD	FLAT:??_C@_0BG@COLMHJCF@Win32_SystemEnclosure?$AA@
	DD	FLAT:??_C@_0L@MIOPIENN@PartNumber?$AA@
	DD	FLAT:??_C@_0BG@COLMHJCF@Win32_SystemEnclosure?$AA@
	DD	FLAT:??_C@_09HKGEBMAI@PoweredOn?$AA@
	DD	FLAT:??_C@_0BG@COLMHJCF@Win32_SystemEnclosure?$AA@
	DD	FLAT:??_C@_09DADBKOHO@Removable?$AA@
	DD	FLAT:??_C@_0BG@COLMHJCF@Win32_SystemEnclosure?$AA@
	DD	FLAT:??_C@_0M@KLOLJEDG@Replaceable?$AA@
	DD	FLAT:??_C@_0BG@COLMHJCF@Win32_SystemEnclosure?$AA@
	DD	FLAT:??_C@_0P@IFAJDLJO@SecurityBreach?$AA@
	DD	FLAT:??_C@_0BG@COLMHJCF@Win32_SystemEnclosure?$AA@
	DD	FLAT:??_C@_0P@LBCDFKMM@SecurityStatus?$AA@
	DD	FLAT:??_C@_0BG@COLMHJCF@Win32_SystemEnclosure?$AA@
	DD	FLAT:??_C@_0BE@CDEDGENH@ServiceDescriptions?$AA@
	DD	FLAT:??_C@_0BG@COLMHJCF@Win32_SystemEnclosure?$AA@
	DD	FLAT:??_C@_0BC@MJACHPAA@ServicePhilosophy?$AA@
	DD	FLAT:??_C@_0BG@COLMHJCF@Win32_SystemEnclosure?$AA@
	DD	FLAT:??_C@_03LMAAELJP@SKU?$AA@
	DD	FLAT:??_C@_0BG@COLMHJCF@Win32_SystemEnclosure?$AA@
	DD	FLAT:??_C@_0P@GDBINLPP@SMBIOSAssetTag?$AA@
	DD	FLAT:??_C@_0BG@COLMHJCF@Win32_SystemEnclosure?$AA@
	DD	FLAT:??_C@_06PGDKHFME@Status?$AA@
	DD	FLAT:??_C@_0BG@COLMHJCF@Win32_SystemEnclosure?$AA@
	DD	FLAT:??_C@_0BB@EPPDMJMG@TypeDescriptions?$AA@
	DD	FLAT:??_C@_0BG@COLMHJCF@Win32_SystemEnclosure?$AA@
	DD	FLAT:??_C@_0N@BGAIBJKD@VisibleAlarm?$AA@
	DD	FLAT:??_C@_0BB@IINEGLLN@Win32_SystemSlot?$AA@
	DD	FLAT:??_C@_03PJHNOEGB@Tag?$AA@
	DD	FLAT:??_C@_0BB@IINEGLLN@Win32_SystemSlot?$AA@
	DD	FLAT:??_C@_07NGFJPNPN@Version?$AA@
	DD	FLAT:??_C@_0BB@IINEGLLN@Win32_SystemSlot?$AA@
	DD	FLAT:??_C@_0BA@JKMEMADA@SlotDesignation?$AA@
	DD	FLAT:??_C@_0BB@IINEGLLN@Win32_SystemSlot?$AA@
	DD	FLAT:??_C@_0O@CPCPFFAH@ConnectorType?$AA@
	DD	FLAT:??_C@_0BB@IINEGLLN@Win32_SystemSlot?$AA@
	DD	FLAT:??_C@_0N@BBNLMPJO@Manufacturer?$AA@
	DD	FLAT:??_C@_0BB@IINEGLLN@Win32_SystemSlot?$AA@
	DD	FLAT:??_C@_05NFIJOKEG@Model?$AA@
	DD	FLAT:??_C@_0BB@IINEGLLN@Win32_SystemSlot?$AA@
	DD	FLAT:??_C@_0N@FPJJBBNM@SerialNumber?$AA@
	DD	FLAT:??_C@_0BB@IINEGLLN@Win32_SystemSlot?$AA@
	DD	FLAT:??_C@_0BA@KNNOFNF@ConnectorPinout?$AA@
	DD	FLAT:??_C@_0BB@IINEGLLN@Win32_SystemSlot?$AA@
	DD	FLAT:??_C@_0N@OHNMFPEL@CurrentUsage?$AA@
	DD	FLAT:??_C@_0BB@IINEGLLN@Win32_SystemSlot?$AA@
	DD	FLAT:??_C@_0O@JIADPBNP@HeightAllowed?$AA@
	DD	FLAT:??_C@_0BB@IINEGLLN@Win32_SystemSlot?$AA@
	DD	FLAT:??_C@_0M@NBIJNNJJ@InstallDate?$AA@
	DD	FLAT:??_C@_0BB@IINEGLLN@Win32_SystemSlot?$AA@
	DD	FLAT:??_C@_0O@ICFBEHEI@LengthAllowed?$AA@
	DD	FLAT:??_C@_0BB@IINEGLLN@Win32_SystemSlot?$AA@
	DD	FLAT:??_C@_0N@OLJPFNHL@MaxDataWidth?$AA@
	DD	FLAT:??_C@_0BB@IINEGLLN@Win32_SystemSlot?$AA@
	DD	FLAT:??_C@_0BF@DMENANMJ@OtherIdentifyingInfo?$AA@
	DD	FLAT:??_C@_0BB@IINEGLLN@Win32_SystemSlot?$AA@
	DD	FLAT:??_C@_0L@MIOPIENN@PartNumber?$AA@
	DD	FLAT:??_C@_0BB@IINEGLLN@Win32_SystemSlot?$AA@
	DD	FLAT:??_C@_09KGLBDKHB@PMESignal?$AA@
	DD	FLAT:??_C@_0BB@IINEGLLN@Win32_SystemSlot?$AA@
	DD	FLAT:??_C@_09HKGEBMAI@PoweredOn?$AA@
	DD	FLAT:??_C@_0BB@IINEGLLN@Win32_SystemSlot?$AA@
	DD	FLAT:??_C@_0BD@MJCDBDLK@PurposeDescription?$AA@
	DD	FLAT:??_C@_0BB@IINEGLLN@Win32_SystemSlot?$AA@
	DD	FLAT:??_C@_06LOOAMPBO@Shared?$AA@
	DD	FLAT:??_C@_0BB@IINEGLLN@Win32_SystemSlot?$AA@
	DD	FLAT:??_C@_03LMAAELJP@SKU?$AA@
	DD	FLAT:??_C@_0BB@IINEGLLN@Win32_SystemSlot?$AA@
	DD	FLAT:??_C@_0P@MHGKENBB@SpecialPurpose?$AA@
	DD	FLAT:??_C@_0BB@IINEGLLN@Win32_SystemSlot?$AA@
	DD	FLAT:??_C@_06PGDKHFME@Status?$AA@
	DD	FLAT:??_C@_0BB@IINEGLLN@Win32_SystemSlot?$AA@
	DD	FLAT:??_C@_0BA@HLMBNLEL@SupportsHotPlug?$AA@
	DD	FLAT:??_C@_0BB@IINEGLLN@Win32_SystemSlot?$AA@
	DD	FLAT:??_C@_0O@OPICFFNJ@ThermalRating?$AA@
	DD	FLAT:??_C@_0BB@IINEGLLN@Win32_SystemSlot?$AA@
	DD	FLAT:??_C@_0BH@BMAHGALK@VccMixedVoltageSupport?$AA@
	DD	FLAT:??_C@_0BB@IINEGLLN@Win32_SystemSlot?$AA@
	DD	FLAT:??_C@_0BH@LMHCBHLE@VppMixedVoltageSupport?$AA@
	DD	FLAT:??_C@_0BF@IPHNLIOA@Win32_NetworkAdapter?$AA@
	DD	FLAT:??_C@_0M@MNPNDAHP@ProductName?$AA@
	DD	FLAT:??_C@_0BF@IPHNLIOA@Win32_NetworkAdapter?$AA@
	DD	FLAT:??_C@_0M@HHJKGII@PNPDeviceID?$AA@
	DD	FLAT:??_C@_0BF@IPHNLIOA@Win32_NetworkAdapter?$AA@
	DD	FLAT:??_C@_08JLPEJKOE@DeviceID?$AA@
	DD	FLAT:??_C@_0BF@IPHNLIOA@Win32_NetworkAdapter?$AA@
	DD	FLAT:??_C@_0L@MLCHOGMM@MACAddress?$AA@
	DD	FLAT:??_C@_0BF@IPHNLIOA@Win32_NetworkAdapter?$AA@
	DD	FLAT:??_C@_0N@BBNLMPJO@Manufacturer?$AA@
	DD	FLAT:??_C@_0BF@IPHNLIOA@Win32_NetworkAdapter?$AA@
	DD	FLAT:??_C@_0BA@PKOOKBHK@PhysicalAdapter?$AA@
	DD	FLAT:??_C@_0BF@IPHNLIOA@Win32_NetworkAdapter?$AA@
	DD	FLAT:??_C@_0M@IOFGKGDC@ServiceName?$AA@
	DD	FLAT:??_C@_0BF@IPHNLIOA@Win32_NetworkAdapter?$AA@
	DD	FLAT:??_C@_0BA@FMEGGBNH@NetConnectionID?$AA@
	DD	FLAT:??_C@_0BF@IPHNLIOA@Win32_NetworkAdapter?$AA@
	DD	FLAT:??_C@_0BE@OHJLPIPO@NetConnectionStatus?$AA@
	DD	FLAT:??_C@_0BF@IPHNLIOA@Win32_NetworkAdapter?$AA@
	DD	FLAT:??_C@_05HOIAGEJD@Speed?$AA@
	DD	FLAT:??_C@_0BF@IPHNLIOA@Win32_NetworkAdapter?$AA@
	DD	FLAT:??_C@_08MFFAALKH@MaxSpeed?$AA@
	DD	FLAT:??_C@_0BF@IPHNLIOA@Win32_NetworkAdapter?$AA@
	DD	FLAT:??_C@_04MEIDEPGF@GUID?$AA@
	DD	FLAT:??_C@_0BF@IPHNLIOA@Win32_NetworkAdapter?$AA@
	DD	FLAT:??_C@_0BB@HCIBJPII@NetworkAddresses?$AA@
	DD	FLAT:??_C@_0BF@IPHNLIOA@Win32_NetworkAdapter?$AA@
	DD	FLAT:??_C@_0BB@CPOCLJND@PermanentAddress?$AA@
	DD	FLAT:??_C@_0BF@IPHNLIOA@Win32_NetworkAdapter?$AA@
	DD	FLAT:??_C@_0M@CBMGKKGD@AdapterType?$AA@
	DD	FLAT:??_C@_0BF@IPHNLIOA@Win32_NetworkAdapter?$AA@
	DD	FLAT:??_C@_0O@JDINGPBK@AdapterTypeID?$AA@
	DD	FLAT:??_C@_0BF@IPHNLIOA@Win32_NetworkAdapter?$AA@
	DD	FLAT:??_C@_09MMNBJFFE@AutoSense?$AA@
	DD	FLAT:??_C@_0BF@IPHNLIOA@Win32_NetworkAdapter?$AA@
	DD	FLAT:??_C@_0N@MFGCECDI@Availability?$AA@
	DD	FLAT:??_C@_0BF@IPHNLIOA@Win32_NetworkAdapter?$AA@
	DD	FLAT:??_C@_07OJKFJLLK@Caption?$AA@
	DD	FLAT:??_C@_0BF@IPHNLIOA@Win32_NetworkAdapter?$AA@
	DD	FLAT:??_C@_0BH@JDEEEDCN@ConfigManagerErrorCode?$AA@
	DD	FLAT:??_C@_0BF@IPHNLIOA@Win32_NetworkAdapter?$AA@
	DD	FLAT:??_C@_0BI@OBNCDCBF@ConfigManagerUserConfig?$AA@
	DD	FLAT:??_C@_0BF@IPHNLIOA@Win32_NetworkAdapter?$AA@
	DD	FLAT:??_C@_0M@OHKMKKDH@Description?$AA@
	DD	FLAT:??_C@_0BF@IPHNLIOA@Win32_NetworkAdapter?$AA@
	DD	FLAT:??_C@_0N@FJHLDHMG@ErrorCleared?$AA@
	DD	FLAT:??_C@_0BF@IPHNLIOA@Win32_NetworkAdapter?$AA@
	DD	FLAT:??_C@_0BB@KIDBLMK@ErrorDescription?$AA@
	DD	FLAT:??_C@_0BF@IPHNLIOA@Win32_NetworkAdapter?$AA@
	DD	FLAT:??_C@_0M@NBIJNNJJ@InstallDate?$AA@
	DD	FLAT:??_C@_0BF@IPHNLIOA@Win32_NetworkAdapter?$AA@
	DD	FLAT:??_C@_09HBJECKPO@Installed?$AA@
	DD	FLAT:??_C@_0BF@IPHNLIOA@Win32_NetworkAdapter?$AA@
	DD	FLAT:??_C@_0P@LMPBIBLI@InterfaceIndex?$AA@
	DD	FLAT:??_C@_0BF@IPHNLIOA@Win32_NetworkAdapter?$AA@
	DD	FLAT:??_C@_0O@NDKHIJAE@LastErrorCode?$AA@
	DD	FLAT:??_C@_0BF@IPHNLIOA@Win32_NetworkAdapter?$AA@
	DD	FLAT:??_C@_0BE@JDLAPHJE@MaxNumberControlled?$AA@
	DD	FLAT:??_C@_0BF@IPHNLIOA@Win32_NetworkAdapter?$AA@
	DD	FLAT:??_C@_0L@COBEMNCH@NetEnabled?$AA@
	DD	FLAT:??_C@_0BF@IPHNLIOA@Win32_NetworkAdapter?$AA@
	DD	FLAT:??_C@_0BM@NFDEHNHA@PowerManagementCapabilities?$AA@
	DD	FLAT:??_C@_0BF@IPHNLIOA@Win32_NetworkAdapter?$AA@
	DD	FLAT:??_C@_0BJ@CFOPGMLH@PowerManagementSupported?$AA@
	DD	FLAT:??_C@_0BF@IPHNLIOA@Win32_NetworkAdapter?$AA@
	DD	FLAT:??_C@_06PGDKHFME@Status?$AA@
	DD	FLAT:??_C@_0BF@IPHNLIOA@Win32_NetworkAdapter?$AA@
	DD	FLAT:??_C@_0L@PKEHCAEI@StatusInfo?$AA@
	DD	FLAT:??_C@_0BF@IPHNLIOA@Win32_NetworkAdapter?$AA@
	DD	FLAT:??_C@_0BA@HADKHLAI@TimeOfLastReset?$AA@
	DD	FLAT:??_C@_0CC@CIAMNGGL@Win32_NetworkAdapterConfiguratio@
	DD	FLAT:??_C@_0L@MLCHOGMM@MACAddress?$AA@
	DD	FLAT:??_C@_0CC@CIAMNGGL@Win32_NetworkAdapterConfiguratio@
	DD	FLAT:??_C@_09NIGMFFPO@IPAddress?$AA@
	DD	FLAT:??_C@_0CC@CIAMNGGL@Win32_NetworkAdapterConfiguratio@
	DD	FLAT:??_C@_0L@BJOKJMLN@DHCPServer?$AA@
	DD	FLAT:??_C@_0CC@CIAMNGGL@Win32_NetworkAdapterConfiguratio@
	DD	FLAT:??_C@_0BB@HACNIBBH@DefaultIPGateway?$AA@
	DD	FLAT:??_C@_0CC@CIAMNGGL@Win32_NetworkAdapterConfiguratio@
	DD	FLAT:??_C@_09FBHLGFBK@DNSDomain?$AA@
	DD	FLAT:??_C@_0CC@CIAMNGGL@Win32_NetworkAdapterConfiguratio@
	DD	FLAT:??_C@_0M@HMDMJNAL@DNSHostName?$AA@
	DD	FLAT:??_C@_0CC@CIAMNGGL@Win32_NetworkAdapterConfiguratio@
	DD	FLAT:??_C@_08EKHHNDLH@IPSubnet?$AA@
	DD	FLAT:??_C@_0CC@CIAMNGGL@Win32_NetworkAdapterConfiguratio@
	DD	FLAT:??_C@_0M@IOFGKGDC@ServiceName?$AA@
	DD	FLAT:??_C@_0CC@CIAMNGGL@Win32_NetworkAdapterConfiguratio@
	DD	FLAT:??_C@_0BF@NNMMFFI@ArpAlwaysSourceRoute?$AA@
	DD	FLAT:??_C@_0CC@CIAMNGGL@Win32_NetworkAdapterConfiguratio@
	DD	FLAT:??_C@_0BA@DHDIOMKI@ArpUseEtherSNAP?$AA@
	DD	FLAT:??_C@_0CC@CIAMNGGL@Win32_NetworkAdapterConfiguratio@
	DD	FLAT:??_C@_07OJKFJLLK@Caption?$AA@
	DD	FLAT:??_C@_0CC@CIAMNGGL@Win32_NetworkAdapterConfiguratio@
	DD	FLAT:??_C@_0N@OAKOAPMO@DatabasePath?$AA@
	DD	FLAT:??_C@_0CC@CIAMNGGL@Win32_NetworkAdapterConfiguratio@
	DD	FLAT:??_C@_0BE@GOBIIDKA@DeadGWDetectEnabled?$AA@
	DD	FLAT:??_C@_0CC@CIAMNGGL@Win32_NetworkAdapterConfiguratio@
	DD	FLAT:??_C@_0L@JFBEJJHM@DefaultTOS?$AA@
	DD	FLAT:??_C@_0CC@CIAMNGGL@Win32_NetworkAdapterConfiguratio@
	DD	FLAT:??_C@_0L@EIDNNLHD@DefaultTTL?$AA@
	DD	FLAT:??_C@_0CC@CIAMNGGL@Win32_NetworkAdapterConfiguratio@
	DD	FLAT:??_C@_0M@HIMIFMFA@DHCPEnabled?$AA@
	DD	FLAT:??_C@_0CC@CIAMNGGL@Win32_NetworkAdapterConfiguratio@
	DD	FLAT:??_C@_0BB@BOGKHOEE@DHCPLeaseExpires?$AA@
	DD	FLAT:??_C@_0CC@CIAMNGGL@Win32_NetworkAdapterConfiguratio@
	DD	FLAT:??_C@_0BC@MIONLOAH@DHCPLeaseObtained?$AA@
	DD	FLAT:??_C@_0CC@CIAMNGGL@Win32_NetworkAdapterConfiguratio@
	DD	FLAT:??_C@_0BL@NEHFNDKH@DNSDomainSuffixSearchOrder?$AA@
	DD	FLAT:??_C@_0CC@CIAMNGGL@Win32_NetworkAdapterConfiguratio@
	DD	FLAT:??_C@_0BM@LEBEBEIJ@DNSEnabledForWINSResolution?$AA@
	DD	FLAT:??_C@_0CC@CIAMNGGL@Win32_NetworkAdapterConfiguratio@
	DD	FLAT:??_C@_0BF@CIMMNJEP@DNSServerSearchOrder?$AA@
	DD	FLAT:??_C@_0CC@CIAMNGGL@Win32_NetworkAdapterConfiguratio@
	DD	FLAT:??_C@_0BN@OACMHJBD@DomainDNSRegistrationEnabled?$AA@
	DD	FLAT:??_C@_0CC@CIAMNGGL@Win32_NetworkAdapterConfiguratio@
	DD	FLAT:??_C@_0BE@GGFBGHJP@ForwardBufferMemory?$AA@
	DD	FLAT:??_C@_0CC@CIAMNGGL@Win32_NetworkAdapterConfiguratio@
	DD	FLAT:??_C@_0BL@EIIPDLGE@FullDNSRegistrationEnabled?$AA@
	DD	FLAT:??_C@_0CC@CIAMNGGL@Win32_NetworkAdapterConfiguratio@
	DD	FLAT:??_C@_0BC@JPOLFPNM@GatewayCostMetric?$AA@
	DD	FLAT:??_C@_0CC@CIAMNGGL@Win32_NetworkAdapterConfiguratio@
	DD	FLAT:??_C@_09LFCMALKM@IGMPLevel?$AA@
	DD	FLAT:??_C@_0CC@CIAMNGGL@Win32_NetworkAdapterConfiguratio@
	DD	FLAT:??_C@_0P@LMPBIBLI@InterfaceIndex?$AA@
	DD	FLAT:??_C@_0CC@CIAMNGGL@Win32_NetworkAdapterConfiguratio@
	DD	FLAT:??_C@_0BD@KDBLHBOO@IPConnectionMetric?$AA@
	DD	FLAT:??_C@_0CC@CIAMNGGL@Win32_NetworkAdapterConfiguratio@
	DD	FLAT:??_C@_09KIFLBGKF@IPEnabled?$AA@
	DD	FLAT:??_C@_0CC@CIAMNGGL@Win32_NetworkAdapterConfiguratio@
	DD	FLAT:??_C@_0BI@LBDHONDJ@IPFilterSecurityEnabled?$AA@
	DD	FLAT:??_C@_0CC@CIAMNGGL@Win32_NetworkAdapterConfiguratio@
	DD	FLAT:??_C@_0BG@IJANIIKC@IPPortSecurityEnabled?$AA@
	DD	FLAT:??_C@_0CC@CIAMNGGL@Win32_NetworkAdapterConfiguratio@
	DD	FLAT:??_C@_0BH@HHIPIHMF@IPSecPermitIPProtocols?$AA@
	DD	FLAT:??_C@_0CC@CIAMNGGL@Win32_NetworkAdapterConfiguratio@
	DD	FLAT:??_C@_0BE@JOIOPHFJ@IPSecPermitTCPPorts?$AA@
	DD	FLAT:??_C@_0CC@CIAMNGGL@Win32_NetworkAdapterConfiguratio@
	DD	FLAT:??_C@_0BE@IDDAOKAD@IPSecPermitUDPPorts?$AA@
	DD	FLAT:??_C@_0CC@CIAMNGGL@Win32_NetworkAdapterConfiguratio@
	DD	FLAT:??_C@_0BD@EFBIPBIB@IPUseZeroBroadcast?$AA@
	DD	FLAT:??_C@_0CC@CIAMNGGL@Win32_NetworkAdapterConfiguratio@
	DD	FLAT:??_C@_0L@JNAHKDDE@IPXAddress?$AA@
	DD	FLAT:??_C@_0CC@CIAMNGGL@Win32_NetworkAdapterConfiguratio@
	DD	FLAT:??_C@_0L@ONDAOAGP@IPXEnabled?$AA@
	DD	FLAT:??_C@_0CC@CIAMNGGL@Win32_NetworkAdapterConfiguratio@
	DD	FLAT:??_C@_0N@EAKCLKKB@IPXFrameType?$AA@
	DD	FLAT:??_C@_0CC@CIAMNGGL@Win32_NetworkAdapterConfiguratio@
	DD	FLAT:??_C@_0N@FHNNAGIP@IPXMediaType?$AA@
	DD	FLAT:??_C@_0CC@CIAMNGGL@Win32_NetworkAdapterConfiguratio@
	DD	FLAT:??_C@_0BB@HFHJDNKD@IPXNetworkNumber?$AA@
	DD	FLAT:??_C@_0CC@CIAMNGGL@Win32_NetworkAdapterConfiguratio@
	DD	FLAT:??_C@_0BE@KIGHGIHN@IPXVirtualNetNumber?$AA@
	DD	FLAT:??_C@_0CC@CIAMNGGL@Win32_NetworkAdapterConfiguratio@
	DD	FLAT:??_C@_0BC@HLLJNCGL@KeepAliveInterval?$AA@
	DD	FLAT:??_C@_0CC@CIAMNGGL@Win32_NetworkAdapterConfiguratio@
	DD	FLAT:??_C@_0O@HNPIKCNH@KeepAliveTime?$AA@
	DD	FLAT:??_C@_0CC@CIAMNGGL@Win32_NetworkAdapterConfiguratio@
	DD	FLAT:??_C@_03BLLMIPHO@MTU?$AA@
	DD	FLAT:??_C@_0CC@CIAMNGGL@Win32_NetworkAdapterConfiguratio@
	DD	FLAT:??_C@_0BC@CHJCENM@NumForwardPackets?$AA@
	DD	FLAT:??_C@_0CC@CIAMNGGL@Win32_NetworkAdapterConfiguratio@
	DD	FLAT:??_C@_0BF@DPKIODPI@PMTUBHDetectEnabled?$DL?$AA@
	DD	FLAT:??_C@_0CC@CIAMNGGL@Win32_NetworkAdapterConfiguratio@
	DD	FLAT:??_C@_0BF@KBFAFCNG@PMTUDiscoveryEnabled?$AA@
	DD	FLAT:??_C@_0CC@CIAMNGGL@Win32_NetworkAdapterConfiguratio@
	DD	FLAT:??_C@_09CMMJGBDB@SettingID?$AA@
	DD	FLAT:??_C@_0CC@CIAMNGGL@Win32_NetworkAdapterConfiguratio@
	DD	FLAT:??_C@_0BE@MJKNHDFN@TcpipNetbiosOptions?$AA@
	DD	FLAT:??_C@_0CC@CIAMNGGL@Win32_NetworkAdapterConfiguratio@
	DD	FLAT:??_C@_0BN@NBAJINBE@TcpMaxConnectRetransmissions?$AA@
	DD	FLAT:??_C@_0CC@CIAMNGGL@Win32_NetworkAdapterConfiguratio@
	DD	FLAT:??_C@_0BK@ICGANMDC@TcpMaxDataRetransmissions?$AA@
	DD	FLAT:??_C@_0CC@CIAMNGGL@Win32_NetworkAdapterConfiguratio@
	DD	FLAT:??_C@_0BC@CEGEJAFC@TcpNumConnections?$AA@
	DD	FLAT:??_C@_0CC@CIAMNGGL@Win32_NetworkAdapterConfiguratio@
	DD	FLAT:??_C@_0BL@JOFENPLC@TcpUseRFC1122UrgentPointer?$AA@
	DD	FLAT:??_C@_0CC@CIAMNGGL@Win32_NetworkAdapterConfiguratio@
	DD	FLAT:??_C@_0O@CIEPJIDD@TcpWindowSize?$AA@
	DD	FLAT:??_C@_0CC@CIAMNGGL@Win32_NetworkAdapterConfiguratio@
	DD	FLAT:??_C@_0BI@MIGGLKDO@WINSEnableLMHostsLookup?$AA@
	DD	FLAT:??_C@_0CC@CIAMNGGL@Win32_NetworkAdapterConfiguratio@
	DD	FLAT:??_C@_0BD@POPKKJKC@WINSHostLookupFile?$AA@
	DD	FLAT:??_C@_0CC@CIAMNGGL@Win32_NetworkAdapterConfiguratio@
	DD	FLAT:??_C@_0BC@BECMMLFM@WINSPrimaryServer?$AA@
	DD	FLAT:??_C@_0CC@CIAMNGGL@Win32_NetworkAdapterConfiguratio@
	DD	FLAT:??_C@_0M@CMEBCDLL@WINSScopeID?$AA@
	DD	FLAT:??_C@_0CC@CIAMNGGL@Win32_NetworkAdapterConfiguratio@
	DD	FLAT:??_C@_0BE@CHHDIDN@WINSSecondaryServer?$AA@
	DD	FLAT:??_C@_0BK@BBOKMFIH@Win32_NetworkLoginProfile?$AA@
	DD	FLAT:??_C@_04FABLJDN@Name?$AA@
	DD	FLAT:??_C@_0BK@BBOKMFIH@Win32_NetworkLoginProfile?$AA@
	DD	FLAT:??_C@_08FPDCFGEH@FullName?$AA@
	DD	FLAT:??_C@_0BK@BBOKMFIH@Win32_NetworkLoginProfile?$AA@
	DD	FLAT:??_C@_0O@PKMMPAKN@HomeDirectory?$AA@
	DD	FLAT:??_C@_0BK@BBOKMFIH@Win32_NetworkLoginProfile?$AA@
	DD	FLAT:??_C@_0BD@GBDEODMP@HomeDirectoryDrive?$AA@
	DD	FLAT:??_C@_0BK@BBOKMFIH@Win32_NetworkLoginProfile?$AA@
	DD	FLAT:??_C@_0M@NDLIHBHJ@LogonServer?$AA@
	DD	FLAT:??_C@_0BK@BBOKMFIH@Win32_NetworkLoginProfile?$AA@
	DD	FLAT:??_C@_06HAPGBBDI@UserId?$AA@
	DD	FLAT:??_C@_0BK@BBOKMFIH@Win32_NetworkLoginProfile?$AA@
	DD	FLAT:??_C@_08LFHMHDM@UserType?$AA@
	DD	FLAT:??_C@_0BK@BBOKMFIH@Win32_NetworkLoginProfile?$AA@
	DD	FLAT:??_C@_0M@KEGPAPIK@UserComment?$AA@
	DD	FLAT:??_C@_0BK@BBOKMFIH@Win32_NetworkLoginProfile?$AA@
	DD	FLAT:??_C@_0P@FLJOKOM@AccountExpires?$AA@
	DD	FLAT:??_C@_0BK@BBOKMFIH@Win32_NetworkLoginProfile?$AA@
	DD	FLAT:??_C@_0BD@JGGENGAP@AuthorizationFlags?$AA@
	DD	FLAT:??_C@_0BK@BBOKMFIH@Win32_NetworkLoginProfile?$AA@
	DD	FLAT:??_C@_0BB@OBONNEPA@BadPasswordCount?$AA@
	DD	FLAT:??_C@_0BK@BBOKMFIH@Win32_NetworkLoginProfile?$AA@
	DD	FLAT:??_C@_08BHOPBADB@Caption?$DL?$AA@
	DD	FLAT:??_C@_0BK@BBOKMFIH@Win32_NetworkLoginProfile?$AA@
	DD	FLAT:??_C@_08DOHJINHB@CodePage?$AA@
	DD	FLAT:??_C@_0BK@BBOKMFIH@Win32_NetworkLoginProfile?$AA@
	DD	FLAT:??_C@_07JABLCLAF@Comment?$AA@
	DD	FLAT:??_C@_0BK@BBOKMFIH@Win32_NetworkLoginProfile?$AA@
	DD	FLAT:??_C@_0M@NALIBBDH@CountryCode?$AA@
	DD	FLAT:??_C@_0BK@BBOKMFIH@Win32_NetworkLoginProfile?$AA@
	DD	FLAT:??_C@_0M@OHKMKKDH@Description?$AA@
	DD	FLAT:??_C@_0BK@BBOKMFIH@Win32_NetworkLoginProfile?$AA@
	DD	FLAT:??_C@_05BOOEKJH@Flags?$AA@
	DD	FLAT:??_C@_0BK@BBOKMFIH@Win32_NetworkLoginProfile?$AA@
	DD	FLAT:??_C@_0L@NKJIFPDG@LastLogoff?$AA@
	DD	FLAT:??_C@_0BK@BBOKMFIH@Win32_NetworkLoginProfile?$AA@
	DD	FLAT:??_C@_09JEOPKIAO@LastLogon?$AA@
	DD	FLAT:??_C@_0BK@BBOKMFIH@Win32_NetworkLoginProfile?$AA@
	DD	FLAT:??_C@_0L@HFGJFNDM@LogonHours?$AA@
	DD	FLAT:??_C@_0BK@BBOKMFIH@Win32_NetworkLoginProfile?$AA@
	DD	FLAT:??_C@_0P@BDLNENEK@MaximumStorage?$AA@
	DD	FLAT:??_C@_0BK@BBOKMFIH@Win32_NetworkLoginProfile?$AA@
	DD	FLAT:??_C@_0P@FMELCCCP@NumberOfLogons?$AA@
	DD	FLAT:??_C@_0BK@BBOKMFIH@Win32_NetworkLoginProfile?$AA@
	DD	FLAT:??_C@_0L@PBGCNDPG@Parameters?$AA@
	DD	FLAT:??_C@_0BK@BBOKMFIH@Win32_NetworkLoginProfile?$AA@
	DD	FLAT:??_C@_0M@HKNCEPDC@PasswordAge?$AA@
	DD	FLAT:??_C@_0BK@BBOKMFIH@Win32_NetworkLoginProfile?$AA@
	DD	FLAT:??_C@_0BA@HLOHOKEI@PasswordExpires?$AA@
	DD	FLAT:??_C@_0BK@BBOKMFIH@Win32_NetworkLoginProfile?$AA@
	DD	FLAT:??_C@_0P@CIBDNLPH@PrimaryGroupId?$AA@
	DD	FLAT:??_C@_0BK@BBOKMFIH@Win32_NetworkLoginProfile?$AA@
	DD	FLAT:??_C@_0L@FILALLBE@Privileges?$AA@
	DD	FLAT:??_C@_0BK@BBOKMFIH@Win32_NetworkLoginProfile?$AA@
	DD	FLAT:??_C@_07EELFDIBP@Profile?$AA@
	DD	FLAT:??_C@_0BK@BBOKMFIH@Win32_NetworkLoginProfile?$AA@
	DD	FLAT:??_C@_0L@GHILPLPE@ScriptPath?$AA@
	DD	FLAT:??_C@_0BK@BBOKMFIH@Win32_NetworkLoginProfile?$AA@
	DD	FLAT:??_C@_09CMMJGBDB@SettingID?$AA@
	DD	FLAT:??_C@_0BK@BBOKMFIH@Win32_NetworkLoginProfile?$AA@
	DD	FLAT:??_C@_0N@LMMEGDEF@UnitsPerWeek?$AA@
	DD	FLAT:??_C@_0BK@BBOKMFIH@Win32_NetworkLoginProfile?$AA@
	DD	FLAT:??_C@_0N@LMIHDJBC@Workstations?$AA@
	DD	FLAT:??_C@_0BG@IFKJCFNC@Win32_NetworkProtocol?$AA@
	DD	FLAT:??_C@_04FABLJDN@Name?$AA@
	DD	FLAT:??_C@_0BG@IFKJCFNC@Win32_NetworkProtocol?$AA@
	DD	FLAT:??_C@_07OJKFJLLK@Caption?$AA@
	DD	FLAT:??_C@_0BG@IFKJCFNC@Win32_NetworkProtocol?$AA@
	DD	FLAT:??_C@_0BG@IODJFDPJ@ConnectionlessService?$AA@
	DD	FLAT:??_C@_0BG@IFKJCFNC@Win32_NetworkProtocol?$AA@
	DD	FLAT:??_C@_0M@OHKMKKDH@Description?$AA@
	DD	FLAT:??_C@_0BG@IFKJCFNC@Win32_NetworkProtocol?$AA@
	DD	FLAT:??_C@_0BD@ECGOALCK@GuaranteesDelivery?$AA@
	DD	FLAT:??_C@_0BG@IFKJCFNC@Win32_NetworkProtocol?$AA@
	DD	FLAT:??_C@_0BF@FAHCIDLD@GuaranteesSequencing?$AA@
	DD	FLAT:??_C@_0BG@IFKJCFNC@Win32_NetworkProtocol?$AA@
	DD	FLAT:??_C@_0M@NBIJNNJJ@InstallDate?$AA@
	DD	FLAT:??_C@_0BG@IFKJCFNC@Win32_NetworkProtocol?$AA@
	DD	FLAT:??_C@_0BD@FFCOFDOJ@MaximumAddressSize?$AA@
	DD	FLAT:??_C@_0BG@IFKJCFNC@Win32_NetworkProtocol?$AA@
	DD	FLAT:??_C@_0BD@IBPHBINL@MaximumMessageSize?$AA@
	DD	FLAT:??_C@_0BG@IFKJCFNC@Win32_NetworkProtocol?$AA@
	DD	FLAT:??_C@_0BA@NLEIFDG@MessageOriented?$AA@
	DD	FLAT:??_C@_0BG@IFKJCFNC@Win32_NetworkProtocol?$AA@
	DD	FLAT:??_C@_0BD@PCBKNDJA@MinimumAddressSize?$AA@
	DD	FLAT:??_C@_0BG@IFKJCFNC@Win32_NetworkProtocol?$AA@
	DD	FLAT:??_C@_0BF@DJOBDJFP@PseudoStreamOriented?$AA@
	DD	FLAT:??_C@_0BG@IFKJCFNC@Win32_NetworkProtocol?$AA@
	DD	FLAT:??_C@_06PGDKHFME@Status?$AA@
	DD	FLAT:??_C@_0BG@IFKJCFNC@Win32_NetworkProtocol?$AA@
	DD	FLAT:??_C@_0BF@ONDNBOBK@SupportsBroadcasting?$AA@
	DD	FLAT:??_C@_0BG@IFKJCFNC@Win32_NetworkProtocol?$AA@
	DD	FLAT:??_C@_0BE@OAOGNDFG@SupportsConnectData?$AA@
	DD	FLAT:??_C@_0BG@IFKJCFNC@Win32_NetworkProtocol?$AA@
	DD	FLAT:??_C@_0BH@KMFDMCNH@SupportsDisconnectData?$AA@
	DD	FLAT:??_C@_0BG@IFKJCFNC@Win32_NetworkProtocol?$AA@
	DD	FLAT:??_C@_0BD@BJHEFNDH@SupportsEncryption?$AA@
	DD	FLAT:??_C@_0BG@IFKJCFNC@Win32_NetworkProtocol?$AA@
	DD	FLAT:??_C@_0BG@MJFBKLBP@SupportsExpeditedData?$AA@
	DD	FLAT:??_C@_0BG@IFKJCFNC@Win32_NetworkProtocol?$AA@
	DD	FLAT:??_C@_0BH@PFGLDBHN@SupportsFragmentation?$DL?$AA@
	DD	FLAT:??_C@_0BG@IFKJCFNC@Win32_NetworkProtocol?$AA@
	DD	FLAT:??_C@_0BI@FGBPBAKA@SupportsGracefulClosing?$AA@
	DD	FLAT:??_C@_0BG@IFKJCFNC@Win32_NetworkProtocol?$AA@
	DD	FLAT:??_C@_0BM@MDHHIPIM@SupportsGuaranteedBandwidth?$AA@
	DD	FLAT:??_C@_0BG@IFKJCFNC@Win32_NetworkProtocol?$AA@
	DD	FLAT:??_C@_0BF@BHPPOJFK@SupportsMulticasting?$AA@
	DD	FLAT:??_C@_0BG@IFKJCFNC@Win32_NetworkProtocol?$AA@
	DD	FLAT:??_C@_0BJ@MNHPDIFA@SupportsQualityofService?$AA@
	DD	FLAT:??_C@_0BA@MBMLPGOB@Win32_CodecFile?$AA@
	DD	FLAT:??_C@_04FABLJDN@Name?$AA@
	DD	FLAT:??_C@_0BA@MBMLPGOB@Win32_CodecFile?$AA@
	DD	FLAT:??_C@_07NGFJPNPN@Version?$AA@
	DD	FLAT:??_C@_0BA@MBMLPGOB@Win32_CodecFile?$AA@
	DD	FLAT:??_C@_08BHIEONMC@FileSize?$AA@
	DD	FLAT:??_C@_0BA@MBMLPGOB@Win32_CodecFile?$AA@
	DD	FLAT:??_C@_08PICKODJL@FileType?$AA@
	DD	FLAT:??_C@_0BA@MBMLPGOB@Win32_CodecFile?$AA@
	DD	FLAT:??_C@_0L@OHPKPJND@AccessMask?$AA@
	DD	FLAT:??_C@_0BA@MBMLPGOB@Win32_CodecFile?$AA@
	DD	FLAT:??_C@_07CNOHFBBG@Archive?$AA@
	DD	FLAT:??_C@_0BA@MBMLPGOB@Win32_CodecFile?$AA@
	DD	FLAT:??_C@_0L@FBPJPEIN@Compressed?$AA@
	DD	FLAT:??_C@_0BA@MBMLPGOB@Win32_CodecFile?$AA@
	DD	FLAT:??_C@_0BC@MBGAHHAB@CompressionMethod?$AA@
	DD	FLAT:??_C@_0BA@MBMLPGOB@Win32_CodecFile?$AA@
	DD	FLAT:??_C@_0N@GPGLEEKJ@CreationDate?$AA@
	DD	FLAT:??_C@_0BA@MBMLPGOB@Win32_CodecFile?$AA@
	DD	FLAT:??_C@_0M@OHKMKKDH@Description?$AA@
