 SysStatus

 Timestamp is 5d261a19 (Wed Jul 10 14:02:17 2019)

 Preferred load address is 00400000

 Start         Length     Name                   Class
 0001:00000000 00018930H .text$di                CODE
 0001:00018930 0003c9b0H .text$mn                CODE
 0001:000552e0 000058d0H .text$x                 CODE
 0001:0005abb0 00000186H .text$yd                CODE
 0002:00000000 0000033cH .idata$5                DATA
 0002:0000033c 00000004H .00cfg                  DATA
 0002:00000340 00000004H .CRT$XCA                DATA
 0002:00000344 00000004H .CRT$XCAA               DATA
 0002:00000348 0000000cH .CRT$XCC                DATA
 0002:00000354 0000000cH .CRT$XCL                DATA
 0002:00000360 00000010H .CRT$XCU                DATA
 0002:00000370 00000004H .CRT$XCZ                DATA
 0002:00000374 00000004H .CRT$XIA                DATA
 0002:00000378 00000004H .CRT$XIAA               DATA
 0002:0000037c 00000004H .CRT$XIAC               DATA
 0002:00000380 00000014H .CRT$XIC                DATA
 0002:00000394 00000004H .CRT$XIZ                DATA
 0002:00000398 00000004H .CRT$XPA                DATA
 0002:0000039c 00000008H .CRT$XPX                DATA
 0002:000003a4 00000004H .CRT$XPXA               DATA
 0002:000003a8 00000004H .CRT$XPZ                DATA
 0002:000003ac 00000004H .CRT$XTA                DATA
 0002:000003b0 00000010H .CRT$XTZ                DATA
 0002:000003b4 00000000H .gfids$y                DATA
 0002:000003c0 0001e330H .rdata                  DATA
 0002:0001e6f0 00000ac0H .rdata$r                DATA
 0002:0001f1b0 00000254H .rdata$sxdata           DATA
 0002:0001f404 00000398H .rdata$zzzdbg           DATA
 0002:0001f79c 00000004H .rtc$IAA                DATA
 0002:0001f7a0 00000004H .rtc$IZZ                DATA
 0002:0001f7a4 00000004H .rtc$TAA                DATA
 0002:0001f7a8 00000008H .rtc$TZZ                DATA
 0002:0001f7b0 000052d8H .xdata$x                DATA
 0002:00024a88 00000000H ATL$__a                 DATA
 0002:00024a88 00000000H ATL$__z                 DATA
 0002:00024a88 00000000H .edata                  DATA
 0002:00024a88 00000104H .idata$2                DATA
 0002:00024b8c 00000014H .idata$3                DATA
 0002:00024ba0 0000033cH .idata$4                DATA
 0002:00024edc 00000e70H .idata$6                DATA
 0003:00000000 00004da0H .data                   DATA
 0003:00004da0 000005a0H .data$r                 DATA
 0003:00005340 00001254H .bss                    DATA
 0004:00000000 000004e0H .rsrc$01                DATA
 0004:000004e0 00019068H .rsrc$02                DATA

  Address         Publics by Value              Rva+Base       Lib:Object

 0000:00000000       ___hybrid_code_map_count   00000000     <absolute>
 0000:00000000       ___guard_fids_count        00000000     <absolute>
 0000:00000000       ___volatile_metadata       00000000     <absolute>
 0000:00000000       ___guard_fids_table        00000000     <absolute>
 0000:00000000       ___guard_iat_count         00000000     <absolute>
 0000:00000000       ___guard_iat_table         00000000     <absolute>
 0000:00000000       ___guard_longjmp_table     00000000     <absolute>
 0000:00000000       ___dynamic_value_reloc_table 00000000     <absolute>
 0000:00000000       ___guard_longjmp_count     00000000     <absolute>
 0000:00000000       __except_list              00000000     <absolute>
 0000:00000000       ___hybrid_auxiliary_iat    00000000     <absolute>
 0000:00000000       ___enclave_config          00000000     <absolute>
 0000:00000000       ___hybrid_code_map         00000000     <absolute>
 0000:00000095       ___safe_se_handler_count   00000095     <absolute>
 0000:00000100       ___guard_flags             00000100     <absolute>
 0000:00000000       ___ImageBase               00400000     <linker-defined>
 0001:00018930       ___local_stdio_printf_options 00419930 f i MonitorIPs.obj
 0001:00018940       ??0exception@std@@QAE@QBD@Z 00419940 f i MonitorIPs.obj
 0001:000189b0       ??0exception@std@@QAE@ABV01@@Z 004199b0 f i MonitorIPs.obj
 0001:00018a10       ??1exception@std@@UAE@XZ   00419a10 f i MonitorIPs.obj
 0001:00018a60       ?what@exception@std@@UBEPBDXZ 00419a60 f i MonitorIPs.obj
 0001:00018a70       ??_Gexception@std@@UAEPAXI@Z 00419a70 f i MonitorIPs.obj
 0001:00018a70       ??_Eexception@std@@UAEPAXI@Z 00419a70 f i * CIL library *:* CIL module *
 0001:00018ad0       __vsprintf_s_l             00419ad0 f i MonitorIPs.obj
 0001:00018b10       _sprintf_s                 00419b10 f i MonitorIPs.obj
 0001:00018b30       ??0runtime_error@std@@QAE@ABV?$basic_string@DU?$char_traits@D@std@@V?$allocator@D@2@@1@@Z 00419b30 f i MonitorIPs.obj
 0001:00018bc0       ??0runtime_error@std@@QAE@PBD@Z 00419bc0 f i MonitorIPs.obj
 0001:00018c40       ??_Eruntime_error@std@@UAEPAXI@Z 00419c40 f i * CIL library *:* CIL module *
 0001:00018c40       ??_Gruntime_error@std@@UAEPAXI@Z 00419c40 f i MonitorIPs.obj
 0001:00018cb0       ??1runtime_error@std@@UAE@XZ 00419cb0 f i MonitorIPs.obj
 0001:00018d00       ??0_Locinfo@std@@QAE@PBD@Z 00419d00 f i MonitorIPs.obj
 0001:00018dd0       ??1_Locinfo@std@@QAE@XZ    00419dd0 f i MonitorIPs.obj
 0001:00018ed0       ??0runtime_error@std@@QAE@ABV01@@Z 00419ed0 f i MonitorIPs.obj
 0001:00018f50       ??1_Facet_base@std@@UAE@XZ 00419f50 f i MonitorIPs.obj
 0001:00018f60       ??_G_Facet_base@std@@UAEPAXI@Z 00419f60 f i MonitorIPs.obj
 0001:00018f60       ??_E_Facet_base@std@@UAEPAXI@Z 00419f60 f i * CIL library *:* CIL module *
 0001:00018f90       ?_Incref@facet@locale@std@@UAEXXZ 00419f90 f i MonitorIPs.obj
 0001:00018fa0       ?_Decref@facet@locale@std@@UAEPAV_Facet_base@3@XZ 00419fa0 f i MonitorIPs.obj
 0001:00018fc0       ??1facet@locale@std@@MAE@XZ 00419fc0 f i MonitorIPs.obj
 0001:00019010       ??1locale@std@@QAE@XZ      0041a010 f i MonitorIPs.obj
 0001:00019060       ??_Efacet@locale@std@@MAEPAXI@Z 0041a060 f i * CIL library *:* CIL module *
 0001:00019060       ??_Gfacet@locale@std@@MAEPAXI@Z 0041a060 f i MonitorIPs.obj
 0001:000190d0       ??1ctype_base@std@@UAE@XZ  0041a0d0 f i MonitorIPs.obj
 0001:00019130       ??_Gctype_base@std@@UAEPAXI@Z 0041a130 f i MonitorIPs.obj
 0001:00019130       ??_Ectype_base@std@@UAEPAXI@Z 0041a130 f i * CIL library *:* CIL module *
 0001:000191a0       ?do_tolower@?$ctype@D@std@@MBEDD@Z 0041a1a0 f i MonitorIPs.obj
 0001:000191c0       ?do_tolower@?$ctype@D@std@@MBEPBDPADPBD@Z 0041a1c0 f i MonitorIPs.obj
 0001:00019210       ?do_toupper@?$ctype@D@std@@MBEDD@Z 0041a210 f i MonitorIPs.obj
 0001:00019230       ?do_toupper@?$ctype@D@std@@MBEPBDPADPBD@Z 0041a230 f i MonitorIPs.obj
 0001:00019280       ?do_widen@?$ctype@D@std@@MBEDD@Z 0041a280 f i MonitorIPs.obj
 0001:00019290       ?do_widen@?$ctype@D@std@@MBEPBDPBD0PAD@Z 0041a290 f i MonitorIPs.obj
 0001:000192b0       ?do_narrow@?$ctype@D@std@@MBEDDD@Z 0041a2b0 f i MonitorIPs.obj
 0001:000192c0       ?do_narrow@?$ctype@D@std@@MBEPBDPBD0DPAD@Z 0041a2c0 f i MonitorIPs.obj
 0001:000192e0       ??_G?$ctype@D@std@@MAEPAXI@Z 0041a2e0 f i MonitorIPs.obj
 0001:000192e0       ??_E?$ctype@D@std@@MAEPAXI@Z 0041a2e0 f i * CIL library *:* CIL module *
 0001:00019390       ?default_error_condition@error_category@std@@UBE?AVerror_condition@2@H@Z 0041a390 f i MonitorIPs.obj
 0001:000193b0       ?equivalent@error_category@std@@UBE_NHABVerror_condition@2@@Z 0041a3b0 f i MonitorIPs.obj
 0001:000193f0       ?equivalent@error_category@std@@UBE_NABVerror_code@2@H@Z 0041a3f0 f i MonitorIPs.obj
 0001:00019420       ?make_error_code@std@@YA?AVerror_code@1@W4io_errc@1@@Z 0041a420 f i MonitorIPs.obj
 0001:00019460       ??0_System_error@std@@IAE@Verror_code@1@ABV?$basic_string@DU?$char_traits@D@std@@V?$allocator@D@2@@1@@Z 0041a460 f i MonitorIPs.obj
 0001:000196d0       ??_G_System_error@std@@UAEPAXI@Z 0041a6d0 f i MonitorIPs.obj
 0001:000196d0       ??_E_System_error@std@@UAEPAXI@Z 0041a6d0 f i * CIL library *:* CIL module *
 0001:00019740       ??1_System_error@std@@UAE@XZ 0041a740 f i MonitorIPs.obj
 0001:00019790       ??_Gsystem_error@std@@UAEPAXI@Z 0041a790 f i MonitorIPs.obj
 0001:00019790       ??_Esystem_error@std@@UAEPAXI@Z 0041a790 f i * CIL library *:* CIL module *
 0001:00019800       ??1system_error@std@@UAE@XZ 0041a800 f i MonitorIPs.obj
 0001:00019850       ?name@_Iostream_error_category@std@@UBEPBDXZ 0041a850 f i MonitorIPs.obj
 0001:00019860       ?message@_Iostream_error_category@std@@UBE?AV?$basic_string@DU?$char_traits@D@std@@V?$allocator@D@2@@2@H@Z 0041a860 f i MonitorIPs.obj
 0001:00019930       ??_E_Iostream_error_category@std@@UAEPAXI@Z 0041a930 f i * CIL library *:* CIL module *
 0001:00019930       ??_G_Iostream_error_category@std@@UAEPAXI@Z 0041a930 f i MonitorIPs.obj
 0001:00019950       ??0failure@ios_base@std@@QAE@PBDABVerror_code@2@@Z 0041a950 f i MonitorIPs.obj
 0001:00019a70       ?clear@ios_base@std@@QAEXH_N@Z 0041aa70 f i MonitorIPs.obj
 0001:00019af0       ??1ios_base@std@@UAE@XZ    0041aaf0 f i MonitorIPs.obj
 0001:00019b30       ??_Efailure@ios_base@std@@UAEPAXI@Z 0041ab30 f i * CIL library *:* CIL module *
 0001:00019b30       ??_Gfailure@ios_base@std@@UAEPAXI@Z 0041ab30 f i MonitorIPs.obj
 0001:00019ba0       ??1failure@ios_base@std@@UAE@XZ 0041aba0 f i MonitorIPs.obj
 0001:00019bf0       ??0failure@ios_base@std@@QAE@ABV012@@Z 0041abf0 f i MonitorIPs.obj
 0001:00019ca0       ??0system_error@std@@QAE@ABV01@@Z 0041aca0 f i MonitorIPs.obj
 0001:00019d40       ??0_System_error@std@@QAE@ABV01@@Z 0041ad40 f i MonitorIPs.obj
 0001:00019dd0       ??_Gios_base@std@@UAEPAXI@Z 0041add0 f i MonitorIPs.obj
 0001:00019dd0       ??_Eios_base@std@@UAEPAXI@Z 0041add0 f i * CIL library *:* CIL module *
 0001:00019e30       ?hex@std@@YAAAVios_base@1@AAV21@@Z 0041ae30 f i MonitorIPs.obj
 0001:00019e50       ?s_OnChange@MonitorIPs@@KGXPAXE@Z 0041ae50 f i MonitorIPs.obj
 0001:00019ea0       ??_D?$basic_stringstream@DU?$char_traits@D@std@@V?$allocator@D@2@@std@@QAEXXZ 0041aea0 f i MonitorIPs.obj
 0001:00019f40       ??1?$_Yarn@_W@std@@QAE@XZ  0041af40 f i MonitorIPs.obj
 0001:00019f40       ??1?$_Yarn@D@std@@QAE@XZ   0041af40 f i MonitorIPs.obj
 0001:00019f90       ?resize@?$basic_string@DU?$char_traits@D@std@@V?$allocator@D@2@@std@@QAEXID@Z 0041af90 f i MonitorIPs.obj
 0001:0001a010       ?append@?$basic_string@DU?$char_traits@D@std@@V?$allocator@D@2@@std@@QAEAAV12@QBD@Z 0041b010 f i MonitorIPs.obj
 0001:0001a080       ?append@?$basic_string@DU?$char_traits@D@std@@V?$allocator@D@2@@std@@QAEAAV12@ABV12@@Z 0041b080 f i MonitorIPs.obj
 0001:0001a100       ??1?$basic_string@DU?$char_traits@D@std@@V?$allocator@D@2@@std@@QAE@XZ 0041b100 f i MonitorIPs.obj
 0001:0001a180       ??0?$basic_string@DU?$char_traits@D@std@@V?$allocator@D@2@@std@@QAE@ID@Z 0041b180 f i MonitorIPs.obj
 0001:0001a2c0       ??0?$basic_string@DU?$char_traits@D@std@@V?$allocator@D@2@@std@@QAE@QBD@Z 0041b2c0 f i MonitorIPs.obj
 0001:0001a300       ??0?$basic_string@DU?$char_traits@D@std@@V?$allocator@D@2@@std@@QAE@ABV01@@Z 0041b300 f i MonitorIPs.obj
 0001:0001a3c0       ?str@?$basic_stringstream@DU?$char_traits@D@std@@V?$allocator@D@2@@std@@QBE?AV?$basic_string@DU?$char_traits@D@std@@V?$allocator@D@2@@2@XZ 0041b3c0 f i MonitorIPs.obj
 0001:0001a4a0       ??0?$basic_stringstream@DU?$char_traits@D@std@@V?$allocator@D@2@@std@@QAE@H@Z 0041b4a0 f i MonitorIPs.obj
 0001:0001a750       ?seekpos@?$basic_stringbuf@DU?$char_traits@D@std@@V?$allocator@D@2@@std@@MAE?AV?$fpos@U_Mbstatet@@@2@V32@H@Z 0041b750 f i MonitorIPs.obj
 0001:0001a850       ?seekoff@?$basic_stringbuf@DU?$char_traits@D@std@@V?$allocator@D@2@@std@@MAE?AV?$fpos@U_Mbstatet@@@2@_JHH@Z 0041b850 f i MonitorIPs.obj
 0001:0001a9c0       ?underflow@?$basic_stringbuf@DU?$char_traits@D@std@@V?$allocator@D@2@@std@@MAEHXZ 0041b9c0 f i MonitorIPs.obj
 0001:0001aa20       ?pbackfail@?$basic_stringbuf@DU?$char_traits@D@std@@V?$allocator@D@2@@std@@MAEHH@Z 0041ba20 f i MonitorIPs.obj
 0001:0001aa80       ?overflow@?$basic_stringbuf@DU?$char_traits@D@std@@V?$allocator@D@2@@std@@MAEHH@Z 0041ba80 f i MonitorIPs.obj
 0001:0001ac40       ??1?$basic_stringbuf@DU?$char_traits@D@std@@V?$allocator@D@2@@std@@UAE@XZ 0041bc40 f i MonitorIPs.obj
 0001:0001ad60       ??1?$basic_iostream@DU?$char_traits@D@std@@@std@@UAE@XZ 0041bd60 f i MonitorIPs.obj
 0001:0001ae00       ??6?$basic_ostream@DU?$char_traits@D@std@@@std@@QAEAAV01@K@Z 0041be00 f i MonitorIPs.obj
 0001:0001afb0       ??6?$basic_ostream@DU?$char_traits@D@std@@@std@@QAEAAV01@G@Z 0041bfb0 f i MonitorIPs.obj
 0001:0001b160       ??1?$basic_ostream@DU?$char_traits@D@std@@@std@@UAE@XZ 0041c160 f i MonitorIPs.obj
 0001:0001b180       ??1?$basic_istream@DU?$char_traits@D@std@@@std@@UAE@XZ 0041c180 f i MonitorIPs.obj
 0001:0001b1a0       ?imbue@?$basic_streambuf@DU?$char_traits@D@std@@@std@@MAEXABVlocale@2@@Z 0041c1a0 f i MonitorIPs.obj
 0001:0001b1b0       ___scrt_exe_initialize_mta 0041c1b0 f i LIBCMT:utility_desktop.obj
 0001:0001b1b0       ___scrt_initialize_winrt   0041c1b0 f i LIBCMT:utility_desktop.obj
 0001:0001b1b0       __get_startup_commit_mode  0041c1b0 f i LIBCMT:commit_mode.obj
 0001:0001b1b0       __matherr                  0041c1b0 f i LIBCMT:matherr.obj
 0001:0001b1b0       __get_startup_thread_locale_mode 0041c1b0 f i LIBCMT:thread_locale.obj
 0001:0001b1b0       ___scrt_stub_for_initialize_mta 0041c1b0 f i LIBCMT:utility_desktop.obj
 0001:0001b1b0       __get_startup_new_mode     0041c1b0 f i LIBCMT:new_mode.obj
 0001:0001b1b0       ?sync@?$basic_streambuf@DU?$char_traits@D@std@@@std@@MAEHXZ 0041c1b0 f i MonitorIPs.obj
 0001:0001b1c0       ?setbuf@?$basic_streambuf@DU?$char_traits@D@std@@@std@@MAEPAV12@PAD_J@Z 0041c1c0 f i MonitorIPs.obj
 0001:0001b1d0       ?seekpos@?$basic_streambuf@DU?$char_traits@D@std@@@std@@MAE?AV?$fpos@U_Mbstatet@@@2@V32@H@Z 0041c1d0 f i MonitorIPs.obj
 0001:0001b200       ?seekoff@?$basic_streambuf@DU?$char_traits@D@std@@@std@@MAE?AV?$fpos@U_Mbstatet@@@2@_JHH@Z 0041c200 f i MonitorIPs.obj
 0001:0001b230       ?xsputn@?$basic_streambuf@DU?$char_traits@D@std@@@std@@MAE_JPBD_J@Z 0041c230 f i MonitorIPs.obj
 0001:0001b310       ?xsgetn@?$basic_streambuf@DU?$char_traits@D@std@@@std@@MAE_JPAD_J@Z 0041c310 f i MonitorIPs.obj
 0001:0001b410       ?uflow@?$basic_streambuf@DU?$char_traits@D@std@@@std@@MAEHXZ 0041c410 f i MonitorIPs.obj
 0001:0001b440       ?underflow@?$basic_streambuf@DU?$char_traits@D@std@@@std@@MAEHXZ 0041c440 f i MonitorIPs.obj
 0001:0001b450       ?showmanyc@?$basic_streambuf@DU?$char_traits@D@std@@@std@@MAE_JXZ 0041c450 f i MonitorIPs.obj
 0001:0001b460       ?overflow@?$basic_streambuf@DU?$char_traits@D@std@@@std@@MAEHH@Z 0041c460 f i MonitorIPs.obj
 0001:0001b460       ?pbackfail@?$basic_streambuf@DU?$char_traits@D@std@@@std@@MAEHH@Z 0041c460 f i MonitorIPs.obj
 0001:0001b470       __initialize_invalid_parameter_handler 0041c470 f i LIBCMT:invalid_parameter_handler.obj
 0001:0001b470       ?_Lock@?$basic_streambuf@DU?$char_traits@D@std@@@std@@UAEXXZ 0041c470 f i MonitorIPs.obj
 0001:0001b470       ?_Unlock@?$basic_streambuf@DU?$char_traits@D@std@@@std@@UAEXXZ 0041c470 f i MonitorIPs.obj
 0001:0001b470       @_guard_check_icall_nop@4  0041c470 f i LIBCMT:guard_support.obj
 0001:0001b470       __initialize_denormal_control 0041c470 f i LIBCMT:denormal_control.obj
 0001:0001b480       ??1?$basic_streambuf@DU?$char_traits@D@std@@@std@@UAE@XZ 0041c480 f i MonitorIPs.obj
 0001:0001b4f0       ??1?$basic_ios@DU?$char_traits@D@std@@@std@@UAE@XZ 0041c4f0 f i MonitorIPs.obj
 0001:0001b550       ??_G?$basic_stringstream@DU?$char_traits@D@std@@V?$allocator@D@2@@std@@UAEPAXI@Z 0041c550 f i MonitorIPs.obj
 0001:0001b550       ??_E?$basic_stringstream@DU?$char_traits@D@std@@V?$allocator@D@2@@std@@UAEPAXI@Z 0041c550 f i * CIL library *:* CIL module *
 0001:0001b580       ??_G?$basic_stringbuf@DU?$char_traits@D@std@@V?$allocator@D@2@@std@@UAEPAXI@Z 0041c580 f i MonitorIPs.obj
 0001:0001b580       ??_E?$basic_stringbuf@DU?$char_traits@D@std@@V?$allocator@D@2@@std@@UAEPAXI@Z 0041c580 f i * CIL library *:* CIL module *
 0001:0001b5b0       ??_E?$basic_iostream@DU?$char_traits@D@std@@@std@@UAEPAXI@Z 0041c5b0 f i * CIL library *:* CIL module *
 0001:0001b5b0       ??_G?$basic_iostream@DU?$char_traits@D@std@@@std@@UAEPAXI@Z 0041c5b0 f i MonitorIPs.obj
 0001:0001b630       ??_G?$basic_ostream@DU?$char_traits@D@std@@@std@@UAEPAXI@Z 0041c630 f i MonitorIPs.obj
 0001:0001b630       ??_E?$basic_ostream@DU?$char_traits@D@std@@@std@@UAEPAXI@Z 0041c630 f i * CIL library *:* CIL module *
 0001:0001b6c0       ??_E?$basic_istream@DU?$char_traits@D@std@@@std@@UAEPAXI@Z 0041c6c0 f i * CIL library *:* CIL module *
 0001:0001b6c0       ??_G?$basic_istream@DU?$char_traits@D@std@@@std@@UAEPAXI@Z 0041c6c0 f i MonitorIPs.obj
 0001:0001b750       ??_G?$basic_streambuf@DU?$char_traits@D@std@@@std@@UAEPAXI@Z 0041c750 f i MonitorIPs.obj
 0001:0001b750       ??_E?$basic_streambuf@DU?$char_traits@D@std@@@std@@UAEPAXI@Z 0041c750 f i * CIL library *:* CIL module *
 0001:0001b7d0       ??_G?$basic_ios@DU?$char_traits@D@std@@@std@@UAEPAXI@Z 0041c7d0 f i MonitorIPs.obj
 0001:0001b7d0       ??_E?$basic_ios@DU?$char_traits@D@std@@@std@@UAEPAXI@Z 0041c7d0 f i * CIL library *:* CIL module *
 0001:0001b840       ??1sentry@?$basic_ostream@DU?$char_traits@D@std@@@std@@QAE@XZ 0041c840 f i MonitorIPs.obj
 0001:0001b8c0       ??0sentry@?$basic_ostream@DU?$char_traits@D@std@@@std@@QAE@AAV12@@Z 0041c8c0 f i MonitorIPs.obj
 0001:0001ba00       ?do_put@?$num_put@DV?$ostreambuf_iterator@DU?$char_traits@D@std@@@std@@@std@@MBE?AV?$ostreambuf_iterator@DU?$char_traits@D@std@@@2@V32@AAVios_base@2@DPBX@Z 0041ca00 f i MonitorIPs.obj
 0001:0001ba70       ?do_put@?$num_put@DV?$ostreambuf_iterator@DU?$char_traits@D@std@@@std@@@std@@MBE?AV?$ostreambuf_iterator@DU?$char_traits@D@std@@@2@V32@AAVios_base@2@DO@Z 0041ca70 f i MonitorIPs.obj
 0001:0001bc30       ?do_put@?$num_put@DV?$ostreambuf_iterator@DU?$char_traits@D@std@@@std@@@std@@MBE?AV?$ostreambuf_iterator@DU?$char_traits@D@std@@@2@V32@AAVios_base@2@DN@Z 0041cc30 f i MonitorIPs.obj
 0001:0001bdf0       ?do_put@?$num_put@DV?$ostreambuf_iterator@DU?$char_traits@D@std@@@std@@@std@@MBE?AV?$ostreambuf_iterator@DU?$char_traits@D@std@@@2@V32@AAVios_base@2@D_K@Z 0041cdf0 f i MonitorIPs.obj
 0001:0001be70       ?do_put@?$num_put@DV?$ostreambuf_iterator@DU?$char_traits@D@std@@@std@@@std@@MBE?AV?$ostreambuf_iterator@DU?$char_traits@D@std@@@2@V32@AAVios_base@2@D_J@Z 0041ce70 f i MonitorIPs.obj
 0001:0001bef0       ?do_put@?$num_put@DV?$ostreambuf_iterator@DU?$char_traits@D@std@@@std@@@std@@MBE?AV?$ostreambuf_iterator@DU?$char_traits@D@std@@@2@V32@AAVios_base@2@DK@Z 0041cef0 f i MonitorIPs.obj
 0001:0001bf70       ?do_put@?$num_put@DV?$ostreambuf_iterator@DU?$char_traits@D@std@@@std@@@std@@MBE?AV?$ostreambuf_iterator@DU?$char_traits@D@std@@@2@V32@AAVios_base@2@DJ@Z 0041cf70 f i MonitorIPs.obj
 0001:0001bff0       ?do_put@?$num_put@DV?$ostreambuf_iterator@DU?$char_traits@D@std@@@std@@@std@@MBE?AV?$ostreambuf_iterator@DU?$char_traits@D@std@@@2@V32@AAVios_base@2@D_N@Z 0041cff0 f i MonitorIPs.obj
 0001:0001c2e0       ?put@?$num_put@DV?$ostreambuf_iterator@DU?$char_traits@D@std@@@std@@@std@@QBE?AV?$ostreambuf_iterator@DU?$char_traits@D@std@@@2@V32@AAVios_base@2@DK@Z 0041d2e0 f i MonitorIPs.obj
 0001:0001c310       ?_Destroy@?$vector@V?$basic_string@DU?$char_traits@D@std@@V?$allocator@D@2@@std@@V?$allocator@V?$basic_string@DU?$char_traits@D@std@@V?$allocator@D@2@@std@@@2@@std@@AAEXPAV?$basic_string@DU?$char_traits@D@std@@V?$allocator@D@2@@2@0@Z 0041d310 f i MonitorIPs.obj
 0001:0001c330       ?_Tidy_deallocate@?$basic_string@DU?$char_traits@D@std@@V?$allocator@D@2@@std@@QAEXXZ 0041d330 f i MonitorIPs.obj
 0001:0001c380       ?assign@?$basic_string@DU?$char_traits@D@std@@V?$allocator@D@2@@std@@QAEAAV12@QBD@Z 0041d380 f i MonitorIPs.obj
 0001:0001c3b0       ?assign@?$basic_string@DU?$char_traits@D@std@@V?$allocator@D@2@@std@@QAEAAV12@QBDI@Z 0041d3b0 f i MonitorIPs.obj
 0001:0001c4e0       ?_Pnavail@?$basic_streambuf@DU?$char_traits@D@std@@@std@@IBE_JXZ 0041d4e0 f i MonitorIPs.obj
 0001:0001c500       ?_Gnavail@?$basic_streambuf@DU?$char_traits@D@std@@@std@@IBE_JXZ 0041d500 f i MonitorIPs.obj
 0001:0001c520       ?setstate@?$basic_ios@DU?$char_traits@D@std@@@std@@QAEXH_N@Z 0041d520 f i MonitorIPs.obj
 0001:0001c550       ??_G?$num_put@DV?$ostreambuf_iterator@DU?$char_traits@D@std@@@std@@@std@@MAEPAXI@Z 0041d550 f i MonitorIPs.obj
 0001:0001c550       ??_E?$num_put@DV?$ostreambuf_iterator@DU?$char_traits@D@std@@@std@@@std@@MAEPAXI@Z 0041d550 f i * CIL library *:* CIL module *
 0001:0001c5c0       ?do_truename@?$numpunct@D@std@@MBE?AV?$basic_string@DU?$char_traits@D@std@@V?$allocator@D@2@@2@XZ 0041d5c0 f i MonitorIPs.obj
 0001:0001c640       ?do_falsename@?$numpunct@D@std@@MBE?AV?$basic_string@DU?$char_traits@D@std@@V?$allocator@D@2@@2@XZ 0041d640 f i MonitorIPs.obj
 0001:0001c6c0       ?do_grouping@?$numpunct@D@std@@MBE?AV?$basic_string@DU?$char_traits@D@std@@V?$allocator@D@2@@2@XZ 0041d6c0 f i MonitorIPs.obj
 0001:0001c740       ?do_thousands_sep@?$numpunct@D@std@@MBEDXZ 0041d740 f i MonitorIPs.obj
 0001:0001c750       ?do_decimal_point@?$numpunct@D@std@@MBEDXZ 0041d750 f i MonitorIPs.obj
 0001:0001c760       ??1_Sentry_base@?$basic_ostream@DU?$char_traits@D@std@@@std@@QAE@XZ 0041d760 f i MonitorIPs.obj
 0001:0001c7b0       ?_Rep@?$num_put@DV?$ostreambuf_iterator@DU?$char_traits@D@std@@@std@@@std@@ABA?AV?$ostreambuf_iterator@DU?$char_traits@D@std@@@2@V32@DI@Z 0041d7b0 f i MonitorIPs.obj
 0001:0001c820       ?_Put@?$num_put@DV?$ostreambuf_iterator@DU?$char_traits@D@std@@@std@@@std@@ABA?AV?$ostreambuf_iterator@DU?$char_traits@D@std@@@2@V32@PBDI@Z 0041d820 f i MonitorIPs.obj
 0001:0001c8a0       ?_Iput@?$num_put@DV?$ostreambuf_iterator@DU?$char_traits@D@std@@@std@@@std@@ABA?AV?$ostreambuf_iterator@DU?$char_traits@D@std@@@2@V32@AAVios_base@2@DPADI@Z 0041d8a0 f i MonitorIPs.obj
 0001:0001cd20       ?_Ifmt@?$num_put@DV?$ostreambuf_iterator@DU?$char_traits@D@std@@@std@@@std@@ABAPADPADPBDH@Z 0041dd20 f i MonitorIPs.obj
 0001:0001cdb0       ?_Fput@?$num_put@DV?$ostreambuf_iterator@DU?$char_traits@D@std@@@std@@@std@@ABA?AV?$ostreambuf_iterator@DU?$char_traits@D@std@@@2@V32@AAVios_base@2@DPBDI@Z 0041ddb0 f i MonitorIPs.obj
 0001:0001d280       ?_Ffmt@?$num_put@DV?$ostreambuf_iterator@DU?$char_traits@D@std@@@std@@@std@@ABAPADPADDH@Z 0041e280 f i MonitorIPs.obj
 0001:0001d340       ?deallocate@?$allocator@V?$basic_string@DU?$char_traits@D@std@@V?$allocator@D@2@@std@@@std@@QAEXQAV?$basic_string@DU?$char_traits@D@std@@V?$allocator@D@2@@2@I@Z 0041e340 f i MonitorIPs.obj
 0001:0001d380       ?assign@?$basic_string@DU?$char_traits@D@std@@V?$allocator@D@2@@std@@QAEAAV12@$$QAV12@@Z 0041e380 f i MonitorIPs.obj
 0001:0001d430       ?_Osfx@?$basic_ostream@DU?$char_traits@D@std@@@std@@QAEXXZ 0041e430 f i MonitorIPs.obj
 0001:0001d4c0       ??_G?$numpunct@D@std@@MAEPAXI@Z 0041e4c0 f i MonitorIPs.obj
 0001:0001d4c0       ??_E?$numpunct@D@std@@MAEPAXI@Z 0041e4c0 f i * CIL library *:* CIL module *
 0001:0001d550       ?_Tidy@?$numpunct@D@std@@AAEXXZ 0041e550 f i MonitorIPs.obj
 0001:0001d570       ?grouping@?$numpunct@D@std@@QBE?AV?$basic_string@DU?$char_traits@D@std@@V?$allocator@D@2@@2@XZ 0041e570 f i MonitorIPs.obj
 0001:0001d5d0       ?sputc@?$basic_streambuf@DU?$char_traits@D@std@@@std@@QAEHD@Z 0041e5d0 f i MonitorIPs.obj
 0001:0001d610       ?_Xran@?$_String_val@U?$_Simple_types@D@std@@@std@@SAXXZ 0041e610 f i MonitorIPs.obj
 0001:0001d620       ??$use_facet@V?$ctype@D@std@@@std@@YAABV?$ctype@D@0@ABVlocale@0@@Z 0041e620 f i MonitorIPs.obj
 0001:0001d810       ??$?6U?$char_traits@D@std@@@std@@YAAAV?$basic_ostream@DU?$char_traits@D@std@@@0@AAV10@PBD@Z 0041e810 f i MonitorIPs.obj
 0001:0001da20       ??$construct@V?$basic_string@DU?$char_traits@D@std@@V?$allocator@D@2@@std@@V12@@?$_Default_allocator_traits@V?$allocator@V?$basic_string@DU?$char_traits@D@std@@V?$allocator@D@2@@std@@@std@@@std@@SAXAAV?$allocator@V?$basic_string@DU?$char_traits@D@std@@V?$allocator@D@2@@std@@@1@QAV?$basic_string@DU?$char_traits@D@std@@V?$allocator@D@2@@1@$$QAV31@@Z 0041ea20 f i MonitorIPs.obj
 0001:0001da60       ??$_Emplace_reallocate@V?$basic_string@DU?$char_traits@D@std@@V?$allocator@D@2@@std@@@?$vector@V?$basic_string@DU?$char_traits@D@std@@V?$allocator@D@2@@std@@V?$allocator@V?$basic_string@DU?$char_traits@D@std@@V?$allocator@D@2@@std@@@2@@std@@QAEPAV?$basic_string@DU?$char_traits@D@std@@V?$allocator@D@2@@1@QAV21@$$QAV21@@Z 0041ea60 f i MonitorIPs.obj
 0001:0001dc20       ??$use_facet@V?$num_put@DV?$ostreambuf_iterator@DU?$char_traits@D@std@@@std@@@std@@@std@@YAABV?$num_put@DV?$ostreambuf_iterator@DU?$char_traits@D@std@@@std@@@0@ABVlocale@0@@Z 0041ec20 f i MonitorIPs.obj
 0001:0001ddd0       ??$use_facet@V?$numpunct@D@std@@@std@@YAABV?$numpunct@D@0@ABVlocale@0@@Z 0041edd0 f i MonitorIPs.obj
 0001:0001df90       ??$_Destroy_range@V?$allocator@V?$basic_string@DU?$char_traits@D@std@@V?$allocator@D@2@@std@@@std@@@std@@YAXPAV?$basic_string@DU?$char_traits@D@std@@V?$allocator@D@2@@0@0AAV?$allocator@V?$basic_string@DU?$char_traits@D@std@@V?$allocator@D@2@@std@@@0@@Z 0041ef90 f i MonitorIPs.obj
 0001:0001dff0       ??$_Reallocate_grow_by@V<lambda_c1b8c41cb4019640539cfd828748c4d4>@@ID@?$basic_string@DU?$char_traits@D@std@@V?$allocator@D@2@@std@@QAEAAV01@IV<lambda_c1b8c41cb4019640539cfd828748c4d4>@@ID@Z 0041eff0 f i MonitorIPs.obj
 0001:0001e140       ??$_Reallocate_grow_by@V<lambda_ab246b20b9526e2ef7792587e4298a77>@@PBDI@?$basic_string@DU?$char_traits@D@std@@V?$allocator@D@2@@std@@QAEAAV01@IV<lambda_ab246b20b9526e2ef7792587e4298a77>@@PBDI@Z 0041f140 f i MonitorIPs.obj
 0001:0001e290       ??$_Reallocate_grow_by@V<lambda_6607a66f2a10a1261ff9db96cba1015b>@@IID@?$basic_string@DU?$char_traits@D@std@@V?$allocator@D@2@@std@@QAEAAV01@IV<lambda_6607a66f2a10a1261ff9db96cba1015b>@@IID@Z 0041f290 f i MonitorIPs.obj
 0001:0001e400       ??1?$unique_ptr@V_Facet_base@std@@U?$default_delete@V_Facet_base@std@@@2@@std@@QAE@XZ 0041f400 f i MonitorIPs.obj
 0001:0001e410       ?_Xlength@?$vector@PA_WV?$allocator@PA_W@std@@@std@@CAXXZ 0041f410 f i WMI.obj
 0001:0001e410       ?_Xlength@?$vector@EV?$allocator@E@std@@@std@@CAXXZ 0041f410 f i SysStatus.obj
 0001:0001e410       ?_Xlength@?$vector@DV?$allocator@D@std@@@std@@CAXXZ 0041f410 f i SysStatus.obj
 0001:0001e410       ?_Xlength@?$vector@KV?$allocator@K@std@@@std@@CAXXZ 0041f410 f i WMI.obj
 0001:0001e410       ?_Xlength@?$vector@_KV?$allocator@_K@std@@@std@@CAXXZ 0041f410 f i WMI.obj
 0001:0001e410       ?_Xlength@?$vector@NV?$allocator@N@std@@@std@@CAXXZ 0041f410 f i WMI.obj
 0001:0001e410       ?_Xlength@?$vector@PAXV?$allocator@PAX@std@@@std@@CAXXZ 0041f410 f i SysStatus.obj
 0001:0001e410       ?_Xlength@?$vector@MV?$allocator@M@std@@@std@@CAXXZ 0041f410 f i WMI.obj
 0001:0001e410       ?_Xlength@?$vector@GV?$allocator@G@std@@@std@@CAXXZ 0041f410 f i WMI.obj
 0001:0001e410       ?_Xlength@?$vector@V?$basic_string@DU?$char_traits@D@std@@V?$allocator@D@2@@std@@V?$allocator@V?$basic_string@DU?$char_traits@D@std@@V?$allocator@D@2@@std@@@2@@std@@CAXXZ 0041f410 f i MonitorIPs.obj
 0001:0001e420       ?_Change_array@?$vector@V?$basic_string@DU?$char_traits@D@std@@V?$allocator@D@2@@std@@V?$allocator@V?$basic_string@DU?$char_traits@D@std@@V?$allocator@D@2@@std@@@2@@std@@AAEXQAV?$basic_string@DU?$char_traits@D@std@@V?$allocator@D@2@@2@II@Z 0041f420 f i MonitorIPs.obj
 0001:0001e4b0       ?_Xlen@?$basic_string@DU?$char_traits@D@std@@V?$allocator@D@2@@std@@SAXXZ 0041f4b0 f i MonitorIPs.obj
 0001:0001e4c0       ?sputn@?$basic_streambuf@DU?$char_traits@D@std@@@std@@QAE_JPBD_J@Z 0041f4c0 f i MonitorIPs.obj
 0001:0001e4e0       ?_Init@?$numpunct@D@std@@IAEXABV_Locinfo@2@_N@Z 0041f4e0 f i MonitorIPs.obj
 0001:0001e610       ??$_Immortalize_impl@V_Iostream_error_category@std@@@std@@YGHPAX0PAPAX@Z 0041f610 f i MonitorIPs.obj
 0001:0001e630       ??$_Uninitialized_move@PAV?$basic_string@DU?$char_traits@D@std@@V?$allocator@D@2@@std@@PAV12@V?$allocator@V?$basic_string@DU?$char_traits@D@std@@V?$allocator@D@2@@std@@@2@@std@@YAPAV?$basic_string@DU?$char_traits@D@std@@V?$allocator@D@2@@0@QAV10@0PAV10@AAV?$allocator@V?$basic_string@DU?$char_traits@D@std@@V?$allocator@D@2@@std@@@0@@Z 0041f630 f i MonitorIPs.obj
 0001:0001e6e0       ??$_Maklocstr@D@std@@YAPADPBDPADABU_Cvtvec@@@Z 0041f6e0 f i MonitorIPs.obj
 0001:0001e730       ??1?$_Uninitialized_backout_al@PAV?$basic_string@DU?$char_traits@D@std@@V?$allocator@D@2@@std@@V?$allocator@V?$basic_string@DU?$char_traits@D@std@@V?$allocator@D@2@@std@@@2@@std@@QAE@XZ 0041f730 f i MonitorIPs.obj
 0001:0001e73d       ??_E?$basic_ostream@DU?$char_traits@D@std@@@std@@$4PPPPPPPM@A@AEPAXI@Z 0041f73d f i MonitorIPs.obj
 0001:0001e745       ??_E?$basic_stringstream@DU?$char_traits@D@std@@V?$allocator@D@2@@std@@$4PPPPPPPM@A@AEPAXI@Z 0041f745 f i MonitorIPs.obj
 0001:0001e74d       ??_E?$basic_istream@DU?$char_traits@D@std@@@std@@$4PPPPPPPM@A@AEPAXI@Z 0041f74d f i MonitorIPs.obj
 0001:0001e755       ??_E?$basic_iostream@DU?$char_traits@D@std@@@std@@$4PPPPPPPM@A@AEPAXI@Z 0041f755 f i MonitorIPs.obj
 0001:0001e760       __vsnprintf_l              0041f760 f i SysStatus.obj
 0001:0001e7a0       __snprintf                 0041f7a0 f i SysStatus.obj
 0001:0001e7c0       ??1PBuffer@@QAE@XZ         0041f7c0 f i SysStatus.obj
 0001:0001e7f0       ??1?$pair@$$CB_KV?$basic_string@DU?$char_traits@D@std@@V?$allocator@D@2@@std@@@std@@QAE@XZ 0041f7f0 f i SysStatus.obj
 0001:0001e880       ?GetVendorString@USB@@SA?AV?$basic_string@DU?$char_traits@D@std@@V?$allocator@D@2@@std@@_K@Z 0041f880 f i SysStatus.obj
 0001:0001e950       ??1MonitorIPs@@QAE@XZ      0041f950 f i SysStatus.obj
 0001:0001e9e0       ?now@steady_clock@chrono@std@@SA?AV?$time_point@Usteady_clock@chrono@std@@V?$duration@_JU?$ratio@$00$0DLJKMKAA@@std@@@23@@23@XZ 0041f9e0 f i SysStatus.obj
 0001:0001ea80       ?win_error_code_to_str@dgi@@YA?BV?$basic_string@DU?$char_traits@D@std@@V?$allocator@D@2@@std@@K@Z 0041fa80 f i SysStatus.obj
 0001:0001eca0       ??1?$vector@EV?$allocator@E@std@@@std@@QAE@XZ 0041fca0 f i SysStatus.obj
 0001:0001eca0       ??1?$vector@DV?$allocator@D@std@@@std@@QAE@XZ 0041fca0 f i SysStatus.obj
 0001:0001ed20       ??0?$vector@EV?$allocator@E@std@@@std@@QAE@IABV?$allocator@E@1@@Z 0041fd20 f i SysStatus.obj
 0001:0001ed20       ??0?$vector@DV?$allocator@D@std@@@std@@QAE@IABV?$allocator@D@1@@Z 0041fd20 f i SysStatus.obj
 0001:0001eeb0       ??1?$vector@MV?$allocator@M@std@@@std@@QAE@XZ 0041feb0 f i WMI.obj
 0001:0001eeb0       ??1?$vector@KV?$allocator@K@std@@@std@@QAE@XZ 0041feb0 f i WMI.obj
 0001:0001eeb0       ??1?$vector@PA_WV?$allocator@PA_W@std@@@std@@QAE@XZ 0041feb0 f i WMI.obj
 0001:0001eeb0       ??1?$vector@PAXV?$allocator@PAX@std@@@std@@QAE@XZ 0041feb0 f i SysStatus.obj
 0001:0001ef40       ??0?$vector@PAXV?$allocator@PAX@std@@@std@@QAE@IABV?$allocator@PAX@1@@Z 0041ff40 f i SysStatus.obj
 0001:0001f010       ??1?$unique_ptr@$$BY0A@DU?$default_delete@$$BY0A@D@std@@@std@@QAE@XZ 00420010 f i SysStatus.obj
 0001:0001f020       ??1?$final_act@V<lambda_2473894a9631d8c320dfe2a7a9a3271e>@@@gsl@@QAE@XZ 00420020 f i SysStatus.obj
 0001:0001f070       ??1?$vector@V?$basic_string@DU?$char_traits@D@std@@V?$allocator@D@2@@std@@V?$allocator@V?$basic_string@DU?$char_traits@D@std@@V?$allocator@D@2@@std@@@2@@std@@QAE@XZ 00420070 f i SysStatus.obj
 0001:0001f0b0       ??1?$_Tree@V?$_Tmap_traits@_KV?$basic_string@DU?$char_traits@D@std@@V?$allocator@D@2@@std@@U?$less@_K@2@V?$allocator@U?$pair@$$CB_KV?$basic_string@DU?$char_traits@D@std@@V?$allocator@D@2@@std@@@std@@@2@$0A@@std@@@std@@QAE@XZ 004200b0 f i SysStatus.obj
 0001:0001f120       ??0?$map@_KV?$basic_string@DU?$char_traits@D@std@@V?$allocator@D@2@@std@@U?$less@_K@2@V?$allocator@U?$pair@$$CB_KV?$basic_string@DU?$char_traits@D@std@@V?$allocator@D@2@@std@@@std@@@2@@std@@QAE@V?$initializer_list@U?$pair@$$CB_KV?$basic_string@DU?$char_traits@D@std@@V?$allocator@D@2@@std@@@std@@@1@@Z 00420120 f i SysStatus.obj
 0001:0001f1c0       ?_Tidy@?$vector@EV?$allocator@E@std@@@std@@AAEXXZ 004201c0 f i SysStatus.obj
 0001:0001f1c0       ?_Tidy@?$vector@DV?$allocator@D@std@@@std@@AAEXXZ 004201c0 f i SysStatus.obj
 0001:0001f210       ?_Tidy@?$vector@PAXV?$allocator@PAX@std@@@std@@AAEXXZ 00420210 f i SysStatus.obj
 0001:0001f270       ?_Xrange@?$vector@V?$basic_string@DU?$char_traits@D@std@@V?$allocator@D@2@@std@@V?$allocator@V?$basic_string@DU?$char_traits@D@std@@V?$allocator@D@2@@std@@@2@@std@@CAXXZ 00420270 f i SysStatus.obj
 0001:0001f280       ?_Tidy@?$vector@V?$basic_string@DU?$char_traits@D@std@@V?$allocator@D@2@@std@@V?$allocator@V?$basic_string@DU?$char_traits@D@std@@V?$allocator@D@2@@std@@@2@@std@@AAEXXZ 00420280 f i SysStatus.obj
 0001:0001f300       ??1?$_Tree_comp_alloc@V?$_Tmap_traits@_KV?$basic_string@DU?$char_traits@D@std@@V?$allocator@D@2@@std@@U?$less@_K@2@V?$allocator@U?$pair@$$CB_KV?$basic_string@DU?$char_traits@D@std@@V?$allocator@D@2@@std@@@std@@@2@$0A@@std@@@std@@QAE@XZ 00420300 f i SysStatus.obj
 0001:0001f340       ??R?$less@_K@std@@QBE_NAB_K0@Z 00420340 f i SysStatus.obj
 0001:0001f370       ?deallocate@?$allocator@E@std@@QAEXQAEI@Z 00420370 f i SysStatus.obj
 0001:0001f3b0       ?deallocate@?$allocator@PAX@std@@QAEXQAPAXI@Z 004203b0 f i SysStatus.obj
 0001:0001f3b0       ?deallocate@?$allocator@K@std@@QAEXQAKI@Z 004203b0 f i WMI.obj
 0001:0001f3b0       ?deallocate@?$allocator@M@std@@QAEXQAMI@Z 004203b0 f i WMI.obj
 0001:0001f3b0       ?deallocate@?$allocator@PA_W@std@@QAEXQAPA_WI@Z 004203b0 f i WMI.obj
 0001:0001f3f0       ?erase@?$_Tree@V?$_Tmap_traits@_KV?$basic_string@DU?$char_traits@D@std@@V?$allocator@D@2@@std@@U?$less@_K@2@V?$allocator@U?$pair@$$CB_KV?$basic_string@DU?$char_traits@D@std@@V?$allocator@D@2@@std@@@std@@@2@$0A@@std@@@std@@QAE?AV?$_Tree_iterator@V?$_Tree_val@U?$_Tree_simple_types@U?$pair@$$CB_KV?$basic_string@DU?$char_traits@D@std@@V?$allocator@D@2@@std@@@std@@@std@@@std@@@2@V?$_Tree_const_iterator@V?$_Tree_val@U?$_Tree_simple_types@U?$pair@$$CB_KV?$basic_string@DU?$char_traits@D@std@@V?$allocator@D@2@@std@@@std@@@std@@@std@@@2@0@Z 004203f0 f i SysStatus.obj
 0001:0001f590       ?_Extract@?$_Tree_val@U?$_Tree_simple_types@U?$pair@$$CB_KV?$basic_string@DU?$char_traits@D@std@@V?$allocator@D@2@@std@@@std@@@std@@@std@@QAEPAU?$_Tree_node@U?$pair@$$CB_KV?$basic_string@DU?$char_traits@D@std@@V?$allocator@D@2@@std@@@std@@PAX@2@V?$_Tree_const_iterator@V?$_Tree_val@U?$_Tree_simple_types@U?$pair@$$CB_KV?$basic_string@DU?$char_traits@D@std@@V?$allocator@D@2@@std@@@std@@@std@@@std@@@2@@Z 00420590 f i SysStatus.obj
 0001:0001f840       ?_Buyheadnode@?$_Tree_comp_alloc@V?$_Tmap_traits@_KV?$basic_string@DU?$char_traits@D@std@@V?$allocator@D@2@@std@@U?$less@_K@2@V?$allocator@U?$pair@$$CB_KV?$basic_string@DU?$char_traits@D@std@@V?$allocator@D@2@@std@@@std@@@2@$0A@@std@@@std@@QAEPAU?$_Tree_node@U?$pair@$$CB_KV?$basic_string@DU?$char_traits@D@std@@V?$allocator@D@2@@std@@@std@@PAX@2@XZ 00420840 f i SysStatus.obj
 0001:0001f8c0       ?_Erase@?$_Tree@V?$_Tmap_traits@_KV?$basic_string@DU?$char_traits@D@std@@V?$allocator@D@2@@std@@U?$less@_K@2@V?$allocator@U?$pair@$$CB_KV?$basic_string@DU?$char_traits@D@std@@V?$allocator@D@2@@std@@@std@@@2@$0A@@std@@@std@@IAEXPAU?$_Tree_node@U?$pair@$$CB_KV?$basic_string@DU?$char_traits@D@std@@V?$allocator@D@2@@std@@@std@@PAX@2@@Z 004208c0 f i SysStatus.obj
 0001:0001f980       ?_Rrotate@?$_Tree_val@U?$_Tree_simple_types@U?$pair@$$CB_KV?$basic_string@DU?$char_traits@D@std@@V?$allocator@D@2@@std@@@std@@@std@@@std@@QAEXPAU?$_Tree_node@U?$pair@$$CB_KV?$basic_string@DU?$char_traits@D@std@@V?$allocator@D@2@@std@@@std@@PAX@2@@Z 00420980 f i SysStatus.obj
 0001:0001f9e0       ?_Lrotate@?$_Tree_val@U?$_Tree_simple_types@U?$pair@$$CB_KV?$basic_string@DU?$char_traits@D@std@@V?$allocator@D@2@@std@@@std@@@std@@@std@@QAEXPAU?$_Tree_node@U?$pair@$$CB_KV?$basic_string@DU?$char_traits@D@std@@V?$allocator@D@2@@std@@@std@@PAX@2@@Z 004209e0 f i SysStatus.obj
 0001:0001fa40       ?deallocate@?$allocator@U?$_Tree_node@U?$pair@$$CB_KV?$basic_string@DU?$char_traits@D@std@@V?$allocator@D@2@@std@@@std@@PAX@std@@@std@@QAEXQAU?$_Tree_node@U?$pair@$$CB_KV?$basic_string@DU?$char_traits@D@std@@V?$allocator@D@2@@std@@@std@@PAX@2@I@Z 00420a40 f i SysStatus.obj
 0001:0001fa60       ??$?0_KAAY0BH@$$CBD$0A@@?$pair@$$CB_KV?$basic_string@DU?$char_traits@D@std@@V?$allocator@D@2@@std@@@std@@QAE@$$QA_KAAY0BH@$$CBD@Z 00420a60 f i SysStatus.obj
 0001:0001fa60       ??$?0_KAAY0BP@$$CBD$0A@@?$pair@$$CB_KV?$basic_string@DU?$char_traits@D@std@@V?$allocator@D@2@@std@@@std@@QAE@$$QA_KAAY0BP@$$CBD@Z 00420a60 f i SysStatus.obj
 0001:0001fa60       ??$?0_KAAY0BF@$$CBD$0A@@?$pair@$$CB_KV?$basic_string@DU?$char_traits@D@std@@V?$allocator@D@2@@std@@@std@@QAE@$$QA_KAAY0BF@$$CBD@Z 00420a60 f i SysStatus.obj
 0001:0001fa60       ??$?0_KAAY0BC@$$CBD$0A@@?$pair@$$CB_KV?$basic_string@DU?$char_traits@D@std@@V?$allocator@D@2@@std@@@std@@QAE@$$QA_KAAY0BC@$$CBD@Z 00420a60 f i SysStatus.obj
 0001:0001fa60       ??$?0_KAAY0CA@$$CBD$0A@@?$pair@$$CB_KV?$basic_string@DU?$char_traits@D@std@@V?$allocator@D@2@@std@@@std@@QAE@$$QA_KAAY0CA@$$CBD@Z 00420a60 f i SysStatus.obj
 0001:0001fa60       ??$?0_KAAY0M@$$CBD$0A@@?$pair@$$CB_KV?$basic_string@DU?$char_traits@D@std@@V?$allocator@D@2@@std@@@std@@QAE@$$QA_KAAY0M@$$CBD@Z 00420a60 f i SysStatus.obj
 0001:0001fa60       ??$?0_KAAY0CJ@$$CBD$0A@@?$pair@$$CB_KV?$basic_string@DU?$char_traits@D@std@@V?$allocator@D@2@@std@@@std@@QAE@$$QA_KAAY0CJ@$$CBD@Z 00420a60 f i SysStatus.obj
 0001:0001fa60       ??$?0_KAAY0CD@$$CBD$0A@@?$pair@$$CB_KV?$basic_string@DU?$char_traits@D@std@@V?$allocator@D@2@@std@@@std@@QAE@$$QA_KAAY0CD@$$CBD@Z 00420a60 f i SysStatus.obj
 0001:0001fa60       ??$?0_KAAY0DC@$$CBD$0A@@?$pair@$$CB_KV?$basic_string@DU?$char_traits@D@std@@V?$allocator@D@2@@std@@@std@@QAE@$$QA_KAAY0DC@$$CBD@Z 00420a60 f i SysStatus.obj
 0001:0001fa60       ??$?0_KAAY0CO@$$CBD$0A@@?$pair@$$CB_KV?$basic_string@DU?$char_traits@D@std@@V?$allocator@D@2@@std@@@std@@QAE@$$QA_KAAY0CO@$$CBD@Z 00420a60 f i SysStatus.obj
 0001:0001fa60       ??$?0_KAAY0BJ@$$CBD$0A@@?$pair@$$CB_KV?$basic_string@DU?$char_traits@D@std@@V?$allocator@D@2@@std@@@std@@QAE@$$QA_KAAY0BJ@$$CBD@Z 00420a60 f i SysStatus.obj
 0001:0001fa60       ??$?0_KAAY0BD@$$CBD$0A@@?$pair@$$CB_KV?$basic_string@DU?$char_traits@D@std@@V?$allocator@D@2@@std@@@std@@QAE@$$QA_KAAY0BD@$$CBD@Z 00420a60 f i SysStatus.obj
 0001:0001fa60       ??$?0_KAAY0BN@$$CBD$0A@@?$pair@$$CB_KV?$basic_string@DU?$char_traits@D@std@@V?$allocator@D@2@@std@@@std@@QAE@$$QA_KAAY0BN@$$CBD@Z 00420a60 f i SysStatus.obj
 0001:0001fa60       ??$?0_KAAY0BO@$$CBD$0A@@?$pair@$$CB_KV?$basic_string@DU?$char_traits@D@std@@V?$allocator@D@2@@std@@@std@@QAE@$$QA_KAAY0BO@$$CBD@Z 00420a60 f i SysStatus.obj
 0001:0001fa60       ??$?0_KAAY0N@$$CBD$0A@@?$pair@$$CB_KV?$basic_string@DU?$char_traits@D@std@@V?$allocator@D@2@@std@@@std@@QAE@$$QA_KAAY0N@$$CBD@Z 00420a60 f i SysStatus.obj
 0001:0001fa60       ??$?0_KAAY0BL@$$CBD$0A@@?$pair@$$CB_KV?$basic_string@DU?$char_traits@D@std@@V?$allocator@D@2@@std@@@std@@QAE@$$QA_KAAY0BL@$$CBD@Z 00420a60 f i SysStatus.obj
 0001:0001fa60       ??$?0_KAAY0DH@$$CBD$0A@@?$pair@$$CB_KV?$basic_string@DU?$char_traits@D@std@@V?$allocator@D@2@@std@@@std@@QAE@$$QA_KAAY0DH@$$CBD@Z 00420a60 f i SysStatus.obj
 0001:0001fa60       ??$?0_KAAY0CK@$$CBD$0A@@?$pair@$$CB_KV?$basic_string@DU?$char_traits@D@std@@V?$allocator@D@2@@std@@@std@@QAE@$$QA_KAAY0CK@$$CBD@Z 00420a60 f i SysStatus.obj
 0001:0001fa60       ??$?0_KAAY09$$CBD$0A@@?$pair@$$CB_KV?$basic_string@DU?$char_traits@D@std@@V?$allocator@D@2@@std@@@std@@QAE@$$QA_KAAY09$$CBD@Z 00420a60 f i SysStatus.obj
 0001:0001fa60       ??$?0_KAAY0L@$$CBD$0A@@?$pair@$$CB_KV?$basic_string@DU?$char_traits@D@std@@V?$allocator@D@2@@std@@@std@@QAE@$$QA_KAAY0L@$$CBD@Z 00420a60 f i SysStatus.obj
 0001:0001fa60       ??$?0_KAAY0CF@$$CBD$0A@@?$pair@$$CB_KV?$basic_string@DU?$char_traits@D@std@@V?$allocator@D@2@@std@@@std@@QAE@$$QA_KAAY0CF@$$CBD@Z 00420a60 f i SysStatus.obj
 0001:0001fa60       ??$?0_KAAY07$$CBD$0A@@?$pair@$$CB_KV?$basic_string@DU?$char_traits@D@std@@V?$allocator@D@2@@std@@@std@@QAE@$$QA_KAAY07$$CBD@Z 00420a60 f i SysStatus.obj
 0001:0001fa60       ??$?0_KAAY0CI@$$CBD$0A@@?$pair@$$CB_KV?$basic_string@DU?$char_traits@D@std@@V?$allocator@D@2@@std@@@std@@QAE@$$QA_KAAY0CI@$$CBD@Z 00420a60 f i SysStatus.obj
 0001:0001fa60       ??$?0_KAAY0BI@$$CBD$0A@@?$pair@$$CB_KV?$basic_string@DU?$char_traits@D@std@@V?$allocator@D@2@@std@@@std@@QAE@$$QA_KAAY0BI@$$CBD@Z 00420a60 f i SysStatus.obj
 0001:0001fa60       ??$?0_KAAY0DF@$$CBD$0A@@?$pair@$$CB_KV?$basic_string@DU?$char_traits@D@std@@V?$allocator@D@2@@std@@@std@@QAE@$$QA_KAAY0DF@$$CBD@Z 00420a60 f i SysStatus.obj
 0001:0001fa60       ??$?0_KAAY0CN@$$CBD$0A@@?$pair@$$CB_KV?$basic_string@DU?$char_traits@D@std@@V?$allocator@D@2@@std@@@std@@QAE@$$QA_KAAY0CN@$$CBD@Z 00420a60 f i SysStatus.obj
 0001:0001fa60       ??$?0_KAAY05$$CBD$0A@@?$pair@$$CB_KV?$basic_string@DU?$char_traits@D@std@@V?$allocator@D@2@@std@@@std@@QAE@$$QA_KAAY05$$CBD@Z 00420a60 f i SysStatus.obj
 0001:0001fa60       ??$?0_KAAY0CP@$$CBD$0A@@?$pair@$$CB_KV?$basic_string@DU?$char_traits@D@std@@V?$allocator@D@2@@std@@@std@@QAE@$$QA_KAAY0CP@$$CBD@Z 00420a60 f i SysStatus.obj
 0001:0001fa60       ??$?0_KAAY0BA@$$CBD$0A@@?$pair@$$CB_KV?$basic_string@DU?$char_traits@D@std@@V?$allocator@D@2@@std@@@std@@QAE@$$QA_KAAY0BA@$$CBD@Z 00420a60 f i SysStatus.obj
 0001:0001fa60       ??$?0_KAAY0BK@$$CBD$0A@@?$pair@$$CB_KV?$basic_string@DU?$char_traits@D@std@@V?$allocator@D@2@@std@@@std@@QAE@$$QA_KAAY0BK@$$CBD@Z 00420a60 f i SysStatus.obj
 0001:0001fa60       ??$?0_KAAY0BB@$$CBD$0A@@?$pair@$$CB_KV?$basic_string@DU?$char_traits@D@std@@V?$allocator@D@2@@std@@@std@@QAE@$$QA_KAAY0BB@$$CBD@Z 00420a60 f i SysStatus.obj
 0001:0001fa60       ??$?0_KAAY0DG@$$CBD$0A@@?$pair@$$CB_KV?$basic_string@DU?$char_traits@D@std@@V?$allocator@D@2@@std@@@std@@QAE@$$QA_KAAY0DG@$$CBD@Z 00420a60 f i SysStatus.obj
 0001:0001fa60       ??$?0_KAAY0DB@$$CBD$0A@@?$pair@$$CB_KV?$basic_string@DU?$char_traits@D@std@@V?$allocator@D@2@@std@@@std@@QAE@$$QA_KAAY0DB@$$CBD@Z 00420a60 f i SysStatus.obj
 0001:0001fa60       ??$?0_KAAY0BM@$$CBD$0A@@?$pair@$$CB_KV?$basic_string@DU?$char_traits@D@std@@V?$allocator@D@2@@std@@@std@@QAE@$$QA_KAAY0BM@$$CBD@Z 00420a60 f i SysStatus.obj
 0001:0001fa60       ??$?0_KAAY0DE@$$CBD$0A@@?$pair@$$CB_KV?$basic_string@DU?$char_traits@D@std@@V?$allocator@D@2@@std@@@std@@QAE@$$QA_KAAY0DE@$$CBD@Z 00420a60 f i SysStatus.obj
 0001:0001fa60       ??$?0_KAAY0CH@$$CBD$0A@@?$pair@$$CB_KV?$basic_string@DU?$char_traits@D@std@@V?$allocator@D@2@@std@@@std@@QAE@$$QA_KAAY0CH@$$CBD@Z 00420a60 f i SysStatus.obj
 0001:0001fa60       ??$?0_KAAY0P@$$CBD$0A@@?$pair@$$CB_KV?$basic_string@DU?$char_traits@D@std@@V?$allocator@D@2@@std@@@std@@QAE@$$QA_KAAY0P@$$CBD@Z 00420a60 f i SysStatus.obj
 0001:0001fa60       ??$?0_KAAY0CL@$$CBD$0A@@?$pair@$$CB_KV?$basic_string@DU?$char_traits@D@std@@V?$allocator@D@2@@std@@@std@@QAE@$$QA_KAAY0CL@$$CBD@Z 00420a60 f i SysStatus.obj
 0001:0001fa60       ??$?0_KAAY08$$CBD$0A@@?$pair@$$CB_KV?$basic_string@DU?$char_traits@D@std@@V?$allocator@D@2@@std@@@std@@QAE@$$QA_KAAY08$$CBD@Z 00420a60 f i SysStatus.obj
 0001:0001fa60       ??$?0_KAAY06$$CBD$0A@@?$pair@$$CB_KV?$basic_string@DU?$char_traits@D@std@@V?$allocator@D@2@@std@@@std@@QAE@$$QA_KAAY06$$CBD@Z 00420a60 f i SysStatus.obj
 0001:0001fa60       ??$?0_KAAY0CB@$$CBD$0A@@?$pair@$$CB_KV?$basic_string@DU?$char_traits@D@std@@V?$allocator@D@2@@std@@@std@@QAE@$$QA_KAAY0CB@$$CBD@Z 00420a60 f i SysStatus.obj
 0001:0001fa60       ??$?0_KAAY0O@$$CBD$0A@@?$pair@$$CB_KV?$basic_string@DU?$char_traits@D@std@@V?$allocator@D@2@@std@@@std@@QAE@$$QA_KAAY0O@$$CBD@Z 00420a60 f i SysStatus.obj
 0001:0001fa60       ??$?0_KAAY0DD@$$CBD$0A@@?$pair@$$CB_KV?$basic_string@DU?$char_traits@D@std@@V?$allocator@D@2@@std@@@std@@QAE@$$QA_KAAY0DD@$$CBD@Z 00420a60 f i SysStatus.obj
 0001:0001fa60       ??$?0_KAAY0CE@$$CBD$0A@@?$pair@$$CB_KV?$basic_string@DU?$char_traits@D@std@@V?$allocator@D@2@@std@@@std@@QAE@$$QA_KAAY0CE@$$CBD@Z 00420a60 f i SysStatus.obj
 0001:0001fa60       ??$?0_KAAY0BE@$$CBD$0A@@?$pair@$$CB_KV?$basic_string@DU?$char_traits@D@std@@V?$allocator@D@2@@std@@@std@@QAE@$$QA_KAAY0BE@$$CBD@Z 00420a60 f i SysStatus.obj
 0001:0001fa60       ??$?0_KAAY0CG@$$CBD$0A@@?$pair@$$CB_KV?$basic_string@DU?$char_traits@D@std@@V?$allocator@D@2@@std@@@std@@QAE@$$QA_KAAY0CG@$$CBD@Z 00420a60 f i SysStatus.obj
 0001:0001fa60       ??$?0_KAAY0BG@$$CBD$0A@@?$pair@$$CB_KV?$basic_string@DU?$char_traits@D@std@@V?$allocator@D@2@@std@@@std@@QAE@$$QA_KAAY0BG@$$CBD@Z 00420a60 f i SysStatus.obj
 0001:0001fa60       ??$?0_KAAY0DI@$$CBD$0A@@?$pair@$$CB_KV?$basic_string@DU?$char_traits@D@std@@V?$allocator@D@2@@std@@@std@@QAE@$$QA_KAAY0DI@$$CBD@Z 00420a60 f i SysStatus.obj
 0001:0001fa60       ??$?0_KAAY0CC@$$CBD$0A@@?$pair@$$CB_KV?$basic_string@DU?$char_traits@D@std@@V?$allocator@D@2@@std@@@std@@QAE@$$QA_KAAY0CC@$$CBD@Z 00420a60 f i SysStatus.obj
 0001:0001fa60       ??$?0_KAAY0DA@$$CBD$0A@@?$pair@$$CB_KV?$basic_string@DU?$char_traits@D@std@@V?$allocator@D@2@@std@@@std@@QAE@$$QA_KAAY0DA@$$CBD@Z 00420a60 f i SysStatus.obj
 0001:0001fa60       ??$?0_KAAY0CM@$$CBD$0A@@?$pair@$$CB_KV?$basic_string@DU?$char_traits@D@std@@V?$allocator@D@2@@std@@@std@@QAE@$$QA_KAAY0CM@$$CBD@Z 00420a60 f i SysStatus.obj
 0001:0001fae0       ??$?0_KAAY0DM@$$CBD$0A@@?$pair@$$CB_KV?$basic_string@DU?$char_traits@D@std@@V?$allocator@D@2@@std@@@std@@QAE@$$QA_KAAY0DM@$$CBD@Z 00420ae0 f i SysStatus.obj
 0001:0001fb60       ??$?0_KAAY0EA@$$CBD$0A@@?$pair@$$CB_KV?$basic_string@DU?$char_traits@D@std@@V?$allocator@D@2@@std@@@std@@QAE@$$QA_KAAY0EA@$$CBD@Z 00420b60 f i SysStatus.obj
 0001:0001fbe0       ??$?0_KAAY0DJ@$$CBD$0A@@?$pair@$$CB_KV?$basic_string@DU?$char_traits@D@std@@V?$allocator@D@2@@std@@@std@@QAE@$$QA_KAAY0DJ@$$CBD@Z 00420be0 f i SysStatus.obj
 0001:0001fc60       ??$?0_KAAY0EN@$$CBD$0A@@?$pair@$$CB_KV?$basic_string@DU?$char_traits@D@std@@V?$allocator@D@2@@std@@@std@@QAE@$$QA_KAAY0EN@$$CBD@Z 00420c60 f i SysStatus.obj
 0001:0001fce0       ??$?0_KAAY0DL@$$CBD$0A@@?$pair@$$CB_KV?$basic_string@DU?$char_traits@D@std@@V?$allocator@D@2@@std@@@std@@QAE@$$QA_KAAY0DL@$$CBD@Z 00420ce0 f i SysStatus.obj
 0001:0001fd60       ??$?0_KAAY04$$CBD$0A@@?$pair@$$CB_KV?$basic_string@DU?$char_traits@D@std@@V?$allocator@D@2@@std@@@std@@QAE@$$QA_KAAY04$$CBD@Z 00420d60 f i SysStatus.obj
 0001:0001fde0       ??$?0_KAAY03$$CBD$0A@@?$pair@$$CB_KV?$basic_string@DU?$char_traits@D@std@@V?$allocator@D@2@@std@@@std@@QAE@$$QA_KAAY03$$CBD@Z 00420de0 f i SysStatus.obj
 0001:0001fe60       ??$?0_KAAY0DK@$$CBD$0A@@?$pair@$$CB_KV?$basic_string@DU?$char_traits@D@std@@V?$allocator@D@2@@std@@@std@@QAE@$$QA_KAAY0DK@$$CBD@Z 00420e60 f i SysStatus.obj
 0001:0001fee0       ??$finally@V<lambda_2473894a9631d8c320dfe2a7a9a3271e>@@@gsl@@YA?AV?$final_act@V<lambda_2473894a9631d8c320dfe2a7a9a3271e>@@@0@$$QAV<lambda_2473894a9631d8c320dfe2a7a9a3271e>@@@Z 00420ee0 f i SysStatus.obj
 0001:00020060       ??$_Emplace_reallocate@ABQAX@?$vector@PAXV?$allocator@PAX@std@@@std@@QAEPAPAXQAPAXABQAX@Z 00421060 f i SysStatus.obj
 0001:00020230       ??$_Emplace_reallocate@ABV?$basic_string@DU?$char_traits@D@std@@V?$allocator@D@2@@std@@@?$vector@V?$basic_string@DU?$char_traits@D@std@@V?$allocator@D@2@@std@@V?$allocator@V?$basic_string@DU?$char_traits@D@std@@V?$allocator@D@2@@std@@@2@@std@@QAEPAV?$basic_string@DU?$char_traits@D@std@@V?$allocator@D@2@@1@QAV21@ABV21@@Z 00421230 f i SysStatus.obj
 0001:000203f0       ?_Umove@?$vector@PAXV?$allocator@PAX@std@@@std@@AAEPAPAXPAPAX00@Z 004213f0 f i SysStatus.obj
 0001:00020420       ??$_Assign_range@PAV?$basic_string@DU?$char_traits@D@std@@V?$allocator@D@2@@std@@@?$vector@V?$basic_string@DU?$char_traits@D@std@@V?$allocator@D@2@@std@@V?$allocator@V?$basic_string@DU?$char_traits@D@std@@V?$allocator@D@2@@std@@@2@@std@@AAEXPAV?$basic_string@DU?$char_traits@D@std@@V?$allocator@D@2@@1@0Uforward_iterator_tag@1@@Z 00421420 f i SysStatus.obj
 0001:00020580       ?_Buy@?$vector@V?$basic_string@DU?$char_traits@D@std@@V?$allocator@D@2@@std@@V?$allocator@V?$basic_string@DU?$char_traits@D@std@@V?$allocator@D@2@@std@@@2@@std@@AAE_NI@Z 00421580 f i SysStatus.obj
 0001:00020640       ??$_Ucopy@PAV?$basic_string@DU?$char_traits@D@std@@V?$allocator@D@2@@std@@@?$vector@V?$basic_string@DU?$char_traits@D@std@@V?$allocator@D@2@@std@@V?$allocator@V?$basic_string@DU?$char_traits@D@std@@V?$allocator@D@2@@std@@@2@@std@@AAEPAV?$basic_string@DU?$char_traits@D@std@@V?$allocator@D@2@@1@PAV21@00@Z 00421640 f i SysStatus.obj
 0001:00020640       ??$_Ucopy@PBV?$basic_string@DU?$char_traits@D@std@@V?$allocator@D@2@@std@@@?$vector@V?$basic_string@DU?$char_traits@D@std@@V?$allocator@D@2@@std@@V?$allocator@V?$basic_string@DU?$char_traits@D@std@@V?$allocator@D@2@@std@@@2@@std@@AAEPAV?$basic_string@DU?$char_traits@D@std@@V?$allocator@D@2@@1@PBV21@0PAV21@@Z 00421640 f i WMI.obj
 0001:000206d0       ??$_Copy_unchecked@PAV?$basic_string@DU?$char_traits@D@std@@V?$allocator@D@2@@std@@PAV12@@std@@YAPAV?$basic_string@DU?$char_traits@D@std@@V?$allocator@D@2@@0@PAV10@00@Z 004216d0 f i SysStatus.obj
 0001:00020710       ??$_Buynode@ABU?$pair@$$CB_KV?$basic_string@DU?$char_traits@D@std@@V?$allocator@D@2@@std@@@std@@@?$_Tree_comp_alloc@V?$_Tmap_traits@_KV?$basic_string@DU?$char_traits@D@std@@V?$allocator@D@2@@std@@U?$less@_K@2@V?$allocator@U?$pair@$$CB_KV?$basic_string@DU?$char_traits@D@std@@V?$allocator@D@2@@std@@@std@@@2@$0A@@std@@@std@@QAEPAU?$_Tree_node@U?$pair@$$CB_KV?$basic_string@DU?$char_traits@D@std@@V?$allocator@D@2@@std@@@std@@PAX@1@ABU?$pair@$$CB_KV?$basic_string@DU?$char_traits@D@std@@V?$allocator@D@2@@std@@@1@@Z 00421710 f i SysStatus.obj
 0001:000207b0       ??$_Insert_hint@AAU?$pair@$$CB_KV?$basic_string@DU?$char_traits@D@std@@V?$allocator@D@2@@std@@@std@@PAU?$_Tree_node@U?$pair@$$CB_KV?$basic_string@DU?$char_traits@D@std@@V?$allocator@D@2@@std@@@std@@PAX@2@@?$_Tree@V?$_Tmap_traits@_KV?$basic_string@DU?$char_traits@D@std@@V?$allocator@D@2@@std@@U?$less@_K@2@V?$allocator@U?$pair@$$CB_KV?$basic_string@DU?$char_traits@D@std@@V?$allocator@D@2@@std@@@std@@@2@$0A@@std@@@std@@IAE?AV?$_Tree_iterator@V?$_Tree_val@U?$_Tree_simple_types@U?$pair@$$CB_KV?$basic_string@DU?$char_traits@D@std@@V?$allocator@D@2@@std@@@std@@@std@@@std@@@1@V?$_Tree_const_iterator@V?$_Tree_val@U?$_Tree_simple_types@U?$pair@$$CB_KV?$basic_string@DU?$char_traits@D@std@@V?$allocator@D@2@@std@@@std@@@std@@@std@@@1@AAU?$pair@$$CB_KV?$basic_string@DU?$char_traits@D@std@@V?$allocator@D@2@@std@@@1@PAU?$_Tree_node@U?$pair@$$CB_KV?$basic_string@DU?$char_traits@D@std@@V?$allocator@D@2@@std@@@std@@PAX@1@@Z 004217b0 f i SysStatus.obj
 0001:000209c0       ??$_Ptr_move_cat@GG@std@@YA?AU_Really_trivial_ptr_iterator_tag@0@ABQAG0@Z 004219c0 f i WMI.obj
 0001:000209c0       ??$_Ptr_move_cat@PA_WPA_W@std@@YA?AU_Really_trivial_ptr_iterator_tag@0@ABQAPA_W0@Z 004219c0 f i WMI.obj
 0001:000209c0       ??$_Ptr_move_cat@PAXPAX@std@@YA?AU_Really_trivial_ptr_iterator_tag@0@ABQAPAX0@Z 004219c0 f i SysStatus.obj
 0001:000209c0       ??$_Ptr_move_cat@KK@std@@YA?AU_Really_trivial_ptr_iterator_tag@0@ABQAK0@Z 004219c0 f i WMI.obj
 0001:000209c0       ??$_Ptr_move_cat@NN@std@@YA?AU_Really_trivial_ptr_iterator_tag@0@ABQAN0@Z 004219c0 f i WMI.obj
 0001:000209c0       ??$_Ptr_move_cat@_K_K@std@@YA?AU_Really_trivial_ptr_iterator_tag@0@ABQA_K0@Z 004219c0 f i WMI.obj
 0001:000209c0       ??$_Ptr_move_cat@MM@std@@YA?AU_Really_trivial_ptr_iterator_tag@0@ABQAM0@Z 004219c0 f i WMI.obj
 0001:000209c0       ??$_Ptr_move_cat@EE@std@@YA?AU_Really_trivial_ptr_iterator_tag@0@ABQAE0@Z 004219c0 f i WMI.obj
 0001:000209c0       ??$_Ptr_copy_cat@PAV?$basic_string@DU?$char_traits@D@std@@V?$allocator@D@2@@std@@PAV12@@std@@YA?AU_Really_trivial_ptr_iterator_tag@0@ABQAPAV?$basic_string@DU?$char_traits@D@std@@V?$allocator@D@2@@0@0@Z 004219c0 f i xmlwriter.obj
 0001:000209d0       ?_Freenode0@?$_Tree_comp_alloc@V?$_Tmap_traits@_KV?$basic_string@DU?$char_traits@D@std@@V?$allocator@D@2@@std@@U?$less@_K@2@V?$allocator@U?$pair@$$CB_KV?$basic_string@DU?$char_traits@D@std@@V?$allocator@D@2@@std@@@std@@@2@$0A@@std@@@std@@QAEXPAU?$_Tree_node@U?$pair@$$CB_KV?$basic_string@DU?$char_traits@D@std@@V?$allocator@D@2@@std@@@std@@PAX@2@@Z 004219d0 f i SysStatus.obj
 0001:000209f0       ?_Buynode0@?$_Tree_comp_alloc@V?$_Tmap_traits@_KV?$basic_string@DU?$char_traits@D@std@@V?$allocator@D@2@@std@@U?$less@_K@2@V?$allocator@U?$pair@$$CB_KV?$basic_string@DU?$char_traits@D@std@@V?$allocator@D@2@@std@@@std@@@2@$0A@@std@@@std@@QAEPAU?$_Tree_node@U?$pair@$$CB_KV?$basic_string@DU?$char_traits@D@std@@V?$allocator@D@2@@std@@@std@@PAX@2@XZ 004219f0 f i SysStatus.obj
 0001:00020a70       ?_Destroy_if_node@?$_Tree@V?$_Tmap_traits@_KV?$basic_string@DU?$char_traits@D@std@@V?$allocator@D@2@@std@@U?$less@_K@2@V?$allocator@U?$pair@$$CB_KV?$basic_string@DU?$char_traits@D@std@@V?$allocator@D@2@@std@@@std@@@2@$0A@@std@@@std@@IAEXPAU?$_Tree_node@U?$pair@$$CB_KV?$basic_string@DU?$char_traits@D@std@@V?$allocator@D@2@@std@@@std@@PAX@2@@Z 00421a70 f i SysStatus.obj
 0001:00020b10       ??$_Insert_at@AAU?$pair@$$CB_KV?$basic_string@DU?$char_traits@D@std@@V?$allocator@D@2@@std@@@std@@PAU?$_Tree_node@U?$pair@$$CB_KV?$basic_string@DU?$char_traits@D@std@@V?$allocator@D@2@@std@@@std@@PAX@2@@?$_Tree@V?$_Tmap_traits@_KV?$basic_string@DU?$char_traits@D@std@@V?$allocator@D@2@@std@@U?$less@_K@2@V?$allocator@U?$pair@$$CB_KV?$basic_string@DU?$char_traits@D@std@@V?$allocator@D@2@@std@@@std@@@2@$0A@@std@@@std@@IAE?AV?$_Tree_iterator@V?$_Tree_val@U?$_Tree_simple_types@U?$pair@$$CB_KV?$basic_string@DU?$char_traits@D@std@@V?$allocator@D@2@@std@@@std@@@std@@@std@@@1@_NPAU?$_Tree_node@U?$pair@$$CB_KV?$basic_string@DU?$char_traits@D@std@@V?$allocator@D@2@@std@@@std@@PAX@1@AAU?$pair@$$CB_KV?$basic_string@DU?$char_traits@D@std@@V?$allocator@D@2@@std@@@1@1@Z 00421b10 f i SysStatus.obj
 0001:00020cb0       ??$_Insert_nohint@AAU?$pair@$$CB_KV?$basic_string@DU?$char_traits@D@std@@V?$allocator@D@2@@std@@@std@@PAU?$_Tree_node@U?$pair@$$CB_KV?$basic_string@DU?$char_traits@D@std@@V?$allocator@D@2@@std@@@std@@PAX@2@@?$_Tree@V?$_Tmap_traits@_KV?$basic_string@DU?$char_traits@D@std@@V?$allocator@D@2@@std@@U?$less@_K@2@V?$allocator@U?$pair@$$CB_KV?$basic_string@DU?$char_traits@D@std@@V?$allocator@D@2@@std@@@std@@@2@$0A@@std@@@std@@IAE?AU?$pair@V?$_Tree_iterator@V?$_Tree_val@U?$_Tree_simple_types@U?$pair@$$CB_KV?$basic_string@DU?$char_traits@D@std@@V?$allocator@D@2@@std@@@std@@@std@@@std@@@std@@_N@1@_NAAU?$pair@$$CB_KV?$basic_string@DU?$char_traits@D@std@@V?$allocator@D@2@@std@@@1@PAU?$_Tree_node@U?$pair@$$CB_KV?$basic_string@DU?$char_traits@D@std@@V?$allocator@D@2@@std@@@std@@PAX@1@@Z 00421cb0 f i SysStatus.obj
 0001:00020e00       _sprintf                   00421e00 f i USB.obj
 0001:00020e20       ?PushBackDetails@USB@@IAAXPBDZZ 00421e20 f i USB.obj
 0001:00020ff0       ??0_bstr_t@@QAE@PBD@Z      00421ff0 f i WMI.obj
 0001:00021080       ??1_bstr_t@@QAE@XZ         00422080 f i WMI.obj
 0001:00021110       ??0CAtlException@ATL@@QAE@J@Z 00422110 f i WMI.obj
 0001:00021120       ?AtlThrowImpl@ATL@@YGXJ@Z  00422120 f i WMI.obj
 0001:00021140       ?Init@CComCriticalSection@ATL@@QAEJXZ 00422140 f i WMI.obj
 0001:000211b0       ??1?$vector@_KV?$allocator@_K@std@@@std@@QAE@XZ 004221b0 f i WMI.obj
 0001:000211b0       ??1?$vector@NV?$allocator@N@std@@@std@@QAE@XZ 004221b0 f i WMI.obj
 0001:00021240       ??1?$vector@GV?$allocator@G@std@@@std@@QAE@XZ 00422240 f i WMI.obj
 0001:000212d0       ??0?$vector@V?$basic_string@DU?$char_traits@D@std@@V?$allocator@D@2@@std@@V?$allocator@V?$basic_string@DU?$char_traits@D@std@@V?$allocator@D@2@@std@@@2@@std@@QAE@ABV01@@Z 004222d0 f i WMI.obj
 0001:00021380       ?deallocate@?$allocator@_K@std@@QAEXQA_KI@Z 00422380 f i WMI.obj
 0001:00021380       ?deallocate@?$allocator@N@std@@QAEXQANI@Z 00422380 f i WMI.obj
 0001:000213c0       ?_Getal@?$_Vector_alloc@U?$_Vec_base_types@GV?$allocator@G@std@@@std@@@std@@QAEAAV?$allocator@G@2@XZ 004223c0 f i WMI.obj
 0001:000213d0       ?deallocate@?$allocator@G@std@@QAEXQAGI@Z 004223d0 f i WMI.obj
 0001:00021410       ??$FromVariant@E@@YAXUtagVARIANT@@AAV?$vector@EV?$allocator@E@std@@@std@@@Z 00422410 f i WMI.obj
 0001:000215b0       ??$FromVariant@G@@YAXUtagVARIANT@@AAV?$vector@GV?$allocator@G@std@@@std@@@Z 004225b0 f i WMI.obj
 0001:00021750       ??$FromVariant@K@@YAXUtagVARIANT@@AAV?$vector@KV?$allocator@K@std@@@std@@@Z 00422750 f i WMI.obj
 0001:000218f0       ??$FromVariant@_K@@YAXUtagVARIANT@@AAV?$vector@_KV?$allocator@_K@std@@@std@@@Z 004228f0 f i WMI.obj
 0001:00021a90       ??$FromVariant@M@@YAXUtagVARIANT@@AAV?$vector@MV?$allocator@M@std@@@std@@@Z 00422a90 f i WMI.obj
 0001:00021c30       ??$FromVariant@N@@YAXUtagVARIANT@@AAV?$vector@NV?$allocator@N@std@@@std@@@Z 00422c30 f i WMI.obj
 0001:00021dd0       ??$FromVariant@PA_W@@YAXUtagVARIANT@@AAV?$vector@PA_WV?$allocator@PA_W@std@@@std@@@Z 00422dd0 f i WMI.obj
 0001:00021f70       ??$_Range_construct_or_tidy@PBV?$basic_string@DU?$char_traits@D@std@@V?$allocator@D@2@@std@@@?$vector@V?$basic_string@DU?$char_traits@D@std@@V?$allocator@D@2@@std@@V?$allocator@V?$basic_string@DU?$char_traits@D@std@@V?$allocator@D@2@@std@@@2@@std@@AAEXPBV?$basic_string@DU?$char_traits@D@std@@V?$allocator@D@2@@1@0Uforward_iterator_tag@1@@Z 00422f70 f i WMI.obj
 0001:00022010       ??1?$CComSafeArray@K$0BD@@ATL@@QAE@XZ 00423010 f i WMI.obj
 0001:00022010       ??1?$CComSafeArray@_K$0BF@@ATL@@QAE@XZ 00423010 f i WMI.obj
 0001:00022010       ??1?$CComSafeArray@M$03@ATL@@QAE@XZ 00423010 f i WMI.obj
 0001:00022010       ??1?$CComSafeArray@N$04@ATL@@QAE@XZ 00423010 f i WMI.obj
 0001:00022010       ??1?$CComSafeArray@E$0BB@@ATL@@QAE@XZ 00423010 f i WMI.obj
 0001:00022010       ??1?$CComSafeArray@PA_W$07@ATL@@QAE@XZ 00423010 f i WMI.obj
 0001:00022010       ??1?$CComSafeArray@G$0BC@@ATL@@QAE@XZ 00423010 f i WMI.obj
 0001:00022070       ??$_Resize@V<lambda_9015b627a392ed02a76b60582322ef4a>@@@?$vector@PA_WV?$allocator@PA_W@std@@@std@@AAEXIV<lambda_9015b627a392ed02a76b60582322ef4a>@@@Z 00423070 f i WMI.obj
 0001:00022070       ??$_Resize@V<lambda_d7a4910ec896527b17c46ceb55731b6b>@@@?$vector@MV?$allocator@M@std@@@std@@AAEXIV<lambda_d7a4910ec896527b17c46ceb55731b6b>@@@Z 00423070 f i WMI.obj
 0001:00022070       ??$_Resize@V<lambda_41cf2654fb7f54282f884164b4804166>@@@?$vector@KV?$allocator@K@std@@@std@@AAEXIV<lambda_41cf2654fb7f54282f884164b4804166>@@@Z 00423070 f i WMI.obj
 0001:00022240       ??$_Resize@V<lambda_37d2edcfa81498688f5009d219c6f7fd>@@@?$vector@_KV?$allocator@_K@std@@@std@@AAEXIV<lambda_37d2edcfa81498688f5009d219c6f7fd>@@@Z 00423240 f i WMI.obj
 0001:00022240       ??$_Resize@V<lambda_72b2ca492da4f1408aac84fdabcda767>@@@?$vector@NV?$allocator@N@std@@@std@@AAEXIV<lambda_72b2ca492da4f1408aac84fdabcda767>@@@Z 00423240 f i WMI.obj
 0001:00022410       ??$_Resize@V<lambda_2b6654e67a91186cf2b3ea8c5d1f7ef3>@@@?$vector@GV?$allocator@G@std@@@std@@AAEXIV<lambda_2b6654e67a91186cf2b3ea8c5d1f7ef3>@@@Z 00423410 f i WMI.obj
 0001:000225f0       ??$_Resize@V<lambda_1c24340e0c23a1361b49dbc3231bff51>@@@?$vector@EV?$allocator@E@std@@@std@@AAEXIV<lambda_1c24340e0c23a1361b49dbc3231bff51>@@@Z 004235f0 f i WMI.obj
 0001:000227c0       __vfprintf_l               004237c0 f i xmlwriter.obj
 0001:000227f0       ??1?$stack@V?$basic_string@DU?$char_traits@D@std@@V?$allocator@D@2@@std@@V?$deque@V?$basic_string@DU?$char_traits@D@std@@V?$allocator@D@2@@std@@V?$allocator@V?$basic_string@DU?$char_traits@D@std@@V?$allocator@D@2@@std@@@2@@2@@std@@QAE@XZ 004237f0 f i xmlwriter.obj
 0001:00022930       ??1?$deque@V?$basic_string@DU?$char_traits@D@std@@V?$allocator@D@2@@std@@V?$allocator@V?$basic_string@DU?$char_traits@D@std@@V?$allocator@D@2@@std@@@2@@std@@QAE@XZ 00423930 f i xmlwriter.obj
 0001:00022a70       ??1?$_Deque_alloc@U?$_Deque_base_types@V?$basic_string@DU?$char_traits@D@std@@V?$allocator@D@2@@std@@V?$allocator@V?$basic_string@DU?$char_traits@D@std@@V?$allocator@D@2@@std@@@2@@std@@@std@@QAE@XZ 00423a70 f i xmlwriter.obj
 0001:00022ac0       ?pop_back@?$deque@V?$basic_string@DU?$char_traits@D@std@@V?$allocator@D@2@@std@@V?$allocator@V?$basic_string@DU?$char_traits@D@std@@V?$allocator@D@2@@std@@@2@@std@@QAEXXZ 00423ac0 f i xmlwriter.obj
 0001:00022b30       ?_Growmap@?$deque@V?$basic_string@DU?$char_traits@D@std@@V?$allocator@D@2@@std@@V?$allocator@V?$basic_string@DU?$char_traits@D@std@@V?$allocator@D@2@@std@@@2@@std@@IAEXI@Z 00423b30 f i xmlwriter.obj
 0001:00022d00       ?_Xlen@?$deque@V?$basic_string@DU?$char_traits@D@std@@V?$allocator@D@2@@std@@V?$allocator@V?$basic_string@DU?$char_traits@D@std@@V?$allocator@D@2@@std@@@2@@std@@IBEXXZ 00423d00 f i xmlwriter.obj
 0001:00022d0b       ??0_Init_locks@std@@QAE@XZ 00423d0b f   libcpmt:xlock.obj
 0001:00022d38       ??0_Lockit@std@@QAE@H@Z    00423d38 f   libcpmt:xlock.obj
 0001:00022d69       ??1_Init_locks@std@@QAE@XZ 00423d69 f   libcpmt:xlock.obj
 0001:00022d90       ??1_Lockit@std@@QAE@XZ     00423d90 f   libcpmt:xlock.obj
 0001:00022daf       ?_Execute_once@std@@YAHAAUonce_flag@1@P6GHPAX1PAPAX@Z1@Z 00423daf f   libcpmt:xonce.obj
 0001:00022dc7       ??0_Locimp@locale@std@@AAE@_N@Z 00423dc7 f i libcpmt:locale0.obj
 0001:00022e08       ??1_Fac_node@std@@QAE@XZ   00423e08 f i libcpmt:locale0.obj
 0001:00022e67       ??1_Fac_tidy_reg_t@std@@QAE@XZ 00423e67 f i libcpmt:locale0.obj
 0001:00022e8e       ??1_Locimp@locale@std@@MAE@XZ 00423e8e f i libcpmt:locale0.obj
 0001:00022ee7       ??4?$_Yarn@D@std@@QAEAAV01@PBD@Z 00423ee7 f i libcpmt:locale0.obj
 0001:00022f3b       ??_E_Locimp@locale@std@@MAEPAXI@Z 00423f3b f i libcpmt:locale0.obj
 0001:00022f3b       ??_G_Locimp@locale@std@@MAEPAXI@Z 00423f3b f i libcpmt:locale0.obj
 0001:00022f5d       ?_Facet_Register@std@@YAXPAV_Facet_base@1@@Z 00423f5d f   libcpmt:locale0.obj
 0001:00022f89       ?_Getgloballocale@locale@std@@CAPAV_Locimp@12@XZ 00423f89 f   libcpmt:locale0.obj
 0001:00022f8f       ?_Init@locale@std@@CAPAV_Locimp@12@_N@Z 00423f8f f   libcpmt:locale0.obj
 0001:0002301f       ?_Locimp_dtor@_Locimp@locale@std@@CAXPAV123@@Z 0042401f f   libcpmt:locale0.obj
 0001:00023096       ?_Locinfo_ctor@_Locinfo@std@@SAXPAV12@PBD@Z 00424096 f   libcpmt:locale0.obj
 0001:000230e1       ?_Locinfo_dtor@_Locinfo@std@@SAXPAV12@@Z 004240e1 f   libcpmt:locale0.obj
 0001:000230fb       ?_New_Locimp@_Locimp@locale@std@@CAPAV123@_N@Z 004240fb f   libcpmt:locale0.obj
 0001:0002311e       ?_Setgloballocale@locale@std@@CAXPAX@Z 0042411e f   libcpmt:locale0.obj
 0001:00023146       __Deletegloballocale       00424146 f   libcpmt:locale0.obj
 0001:000231ab       ?uncaught_exception@std@@YA_NXZ 004241ab f   libcpmt:uncaught_exception.obj
 0001:000231b0       ??0bad_alloc@std@@QAE@ABV01@@Z 004241b0 f i libcpmt:xthrow.obj
 0001:000231cb       ??0bad_alloc@std@@QAE@XZ   004241cb f i libcpmt:xthrow.obj
 0001:000231e3       ??0invalid_argument@std@@QAE@ABV01@@Z 004241e3 f i libcpmt:xthrow.obj
 0001:000231fe       ??0invalid_argument@std@@QAE@PBD@Z 004241fe f i libcpmt:xthrow.obj
 0001:0002321d       ??0length_error@std@@QAE@ABV01@@Z 0042421d f i libcpmt:xthrow.obj
 0001:00023238       ??0length_error@std@@QAE@PBD@Z 00424238 f i libcpmt:xthrow.obj
 0001:00023257       ??0logic_error@std@@QAE@ABV01@@Z 00424257 f i libcpmt:xthrow.obj
 0001:00023272       ??0out_of_range@std@@QAE@ABV01@@Z 00424272 f i libcpmt:xthrow.obj
 0001:0002328d       ??0out_of_range@std@@QAE@PBD@Z 0042428d f i libcpmt:xthrow.obj
 0001:000232ac       ??1out_of_range@std@@UAE@XZ 004242ac f i libcpmt:xthrow.obj
 0001:000232ac       ??1bad_array_new_length@std@@UAE@XZ 004242ac f i LIBCMT:throw_bad_alloc.obj
 0001:000232ac       ??1bad_alloc@std@@UAE@XZ   004242ac f i libcpmt:xthrow.obj
 0001:000232ac       ??1invalid_argument@std@@UAE@XZ 004242ac f i libcpmt:xthrow.obj
 0001:000232ac       ??1length_error@std@@UAE@XZ 004242ac f i libcpmt:xthrow.obj
 0001:000232ac       ??1bad_exception@std@@UAE@XZ 004242ac f i libvcruntime:frame.obj
 0001:000232bd       ??_Gbad_alloc@std@@UAEPAXI@Z 004242bd f i libcpmt:xthrow.obj
 0001:000232bd       ??_Glength_error@std@@UAEPAXI@Z 004242bd f i libcpmt:xthrow.obj
 0001:000232bd       ??_Gout_of_range@std@@UAEPAXI@Z 004242bd f i libcpmt:xthrow.obj
 0001:000232bd       ??_Ginvalid_argument@std@@UAEPAXI@Z 004242bd f i libcpmt:xthrow.obj
 0001:000232bd       ??_Ebad_array_new_length@std@@UAEPAXI@Z 004242bd f i LIBCMT:throw_bad_alloc.obj
 0001:000232bd       ??_Ebad_exception@std@@UAEPAXI@Z 004242bd f i libvcruntime:frame.obj
 0001:000232bd       ??_Elogic_error@std@@UAEPAXI@Z 004242bd f i libcpmt:xthrow.obj
 0001:000232bd       ??_Gbad_array_new_length@std@@UAEPAXI@Z 004242bd f i LIBCMT:throw_bad_alloc.obj
 0001:000232bd       ??_Ebad_alloc@std@@UAEPAXI@Z 004242bd f i libcpmt:xthrow.obj
 0001:000232bd       ??_Elength_error@std@@UAEPAXI@Z 004242bd f i libcpmt:xthrow.obj
 0001:000232bd       ??_Eout_of_range@std@@UAEPAXI@Z 004242bd f i libcpmt:xthrow.obj
 0001:000232bd       ??_Gbad_exception@std@@UAEPAXI@Z 004242bd f i libvcruntime:frame.obj
 0001:000232bd       ??_Einvalid_argument@std@@UAEPAXI@Z 004242bd f i libcpmt:xthrow.obj
 0001:000232bd       ??_Glogic_error@std@@UAEPAXI@Z 004242bd f i libcpmt:xthrow.obj
 0001:000232ea       ?__scrt_throw_std_bad_alloc@@YAXXZ 004242ea f   LIBCMT:throw_bad_alloc.obj
 0001:000232ea       ?_Xbad_alloc@std@@YAXXZ    004242ea f   libcpmt:xthrow.obj
 0001:00023307       ?_Xinvalid_argument@std@@YAXPBD@Z 00424307 f   libcpmt:xthrow.obj
 0001:00023327       ?_Xlength_error@std@@YAXPBD@Z 00424327 f   libcpmt:xthrow.obj
 0001:00023347       ?_Xout_of_range@std@@YAXPBD@Z 00424347 f   libcpmt:xthrow.obj
 0001:00023367       ?_Callfns@ios_base@std@@AAEXW4event@12@@Z 00424367 f i libcpmt:ios.obj
 0001:0002339a       ?_Ios_base_dtor@ios_base@std@@CAXPAV12@@Z 0042439a f   libcpmt:ios.obj
 0001:000233da       ?_Tidy@ios_base@std@@AAEXXZ 004243da f i libcpmt:ios.obj
 0001:00023422       ?_Syserror_map@std@@YAPBDH@Z 00424422 f   libcpmt:syserror.obj
 0001:00023447       __Getctype                 00424447 f   libcpmt:_tolower.obj
 0001:000234af       __Tolower                  004244af f   libcpmt:_tolower.obj
 0001:000235ad       __Getcvt                   004245ad f   libcpmt:xwctomb.obj
 0001:00023620       __Toupper                  00424620 f   libcpmt:_toupper.obj
 0001:0002371e       __Query_perf_counter       0042471e f   libcpmt:xtime.obj
 0001:00023735       __Query_perf_frequency     00424735 f   libcpmt:xtime.obj
 0001:0002374c       __Mtxdst                   0042474c f   libcpmt:xmtx.obj
 0001:0002375a       __Mtxinit                  0042475a f   libcpmt:xmtx.obj
 0001:00023771       __Mtxlock                  00424771 f   libcpmt:xmtx.obj
 0001:0002377f       __Mtxunlock                0042477f f   libcpmt:xmtx.obj
 0001:00023b37       ___crtInitOnceExecuteOnce  00424b37 f   libcpmt:winapisupp.obj
 0001:00023bc5       ___crtInitializeCriticalSectionEx 00424bc5 f   libcpmt:winapisupp.obj
 0001:00023bfe       ??1_Init_atexit@@QAE@XZ    00424bfe f i libcpmt:iosptrs.obj
 0001:00023c61       ?_Atexit@@YAXP6AXXZ@Z      00424c61 f   libcpmt:iosptrs.obj
 0001:00023c8f       ___crtLCMapStringA         00424c8f f   libcpmt:StlLCMapStringA.obj
 0001:00023e64       __freea_crt                00424e64 f i libcpmt:StlLCMapStringA.obj
 0001:00023e82       _GetTableIndexFromLocaleName 00424e82 f   libcpmt:winapinls.obj
 0001:00023ed0       ___crtDownlevelLocaleNameToLCID 00424ed0 f   libcpmt:winapinls.obj
 0001:00023efa       ___crtLCMapStringEx        00424efa f   libcpmt:winapinls.obj
 0001:00023f51       ___wcsnicmp_ascii          00424f51 f   libcpmt:winapinls.obj
 0001:00023fc0       ?_com_issue_error@@YGXJ@Z  00424fc0 f   comsuppw:comsupp.obj
 0001:00023fe0       ?ConvertStringToBSTR@_com_util@@YGPA_WPBD@Z 00424fe0 f   comsuppw:comutil.obj
 0001:00024180       ??0_com_error@@QAE@ABV0@@Z 00425180 f i comsuppw:comraise.obj
 0001:000241c0       ??0_com_error@@QAE@JPAUIErrorInfo@@_N@Z 004251c0 f i comsuppw:comraise.obj
 0001:00024210       ??1_com_error@@UAE@XZ      00425210 f i comsuppw:comraise.obj
 0001:00024250       ??_G_com_error@@UAEPAXI@Z  00425250 f i comsuppw:comraise.obj
 0001:00024250       ??_E_com_error@@UAEPAXI@Z  00425250 f i comsuppw:comraise.obj
 0001:000242a0       ?_com_raise_error@@YGXJPAUIErrorInfo@@@Z 004252a0 f   comsuppw:comraise.obj
 0001:000242c5       @__security_check_cookie@4 004252c5 f   LIBCMT:secchk.obj
 0001:000242d6       ??_V@YAXPAX@Z              004252d6 f   LIBCMT:delete_array.obj
 0001:000242db       ??2@YAPAXI@Z               004252db f   LIBCMT:new_scalar.obj
 0001:0002430b       ??3@YAXPAXI@Z              0042530b f   LIBCMT:delete_scalar_size.obj
 0001:00024319       ??_Gtype_info@@UAEPAXI@Z   00425319 f i LIBCMT:std_type_info_static.obj
 0001:00024319       ??_Etype_info@@UAEPAXI@Z   00425319 f i LIBCMT:std_type_info_static.obj
 0001:0002433c       ??_M@YGXPAXIIP6EX0@Z@Z     0042533c f   LIBCMT:ehvecdtr.obj
 0001:000243c1       ?__ArrayUnwind@@YGXPAXIIP6EX0@Z@Z 004253c1 f   LIBCMT:ehvecdtr.obj
 0001:0002443a       ??$__crt_fast_encode_pointer@PAP6AXXZ@@YAPAP6AXXZQAP6AXXZ@Z 0042543a f i LIBCMT:utility.obj
 0001:0002443a       ??$__crt_fast_encode_pointer@PAX@@YAPAXQAX@Z 0042543a f i libvcruntime:winapi_downlevel.obj
 0001:0002449b       ___scrt_acquire_startup_lock 0042549b f   LIBCMT:utility.obj
 0001:000244cd       ___scrt_initialize_crt     004254cd f   LIBCMT:utility.obj
 0001:00024506       ___scrt_initialize_onexit_tables 00425506 f   LIBCMT:utility.obj
 0001:000245ab       ___scrt_is_nonwritable_in_current_image 004255ab f   LIBCMT:utility.obj
 0001:0002463f       ___scrt_release_startup_lock 0042563f f   LIBCMT:utility.obj
 0001:0002465c       ___scrt_uninitialize_crt   0042565c f   LIBCMT:utility.obj
 0001:00024684       __onexit                   00425684 f   LIBCMT:utility.obj
 0001:000246bf       _atexit                    004256bf f   LIBCMT:utility.obj
 0001:000246d4       ??_U@YAPAXI@Z              004256d4 f   LIBCMT:new_array.obj
 0001:000246dd       ??3@YAXPAX@Z               004256dd f   LIBCMT:delete_scalar.obj
 0001:00024923       _WinMainCRTStartup         00425923 f   LIBCMT:exe_winmain.obj
 0001:0002492d       __EH_epilog3               0042592d f   LIBCMT:ehprolg3.obj
 0001:00024942       __EH_epilog3_GS            00425942 f   LIBCMT:ehprolg3.obj
 0001:00024953       __EH_prolog3               00425953 f   LIBCMT:ehprolg3.obj
 0001:00024987       __EH_prolog3_GS            00425987 f   LIBCMT:ehprolg3.obj
 0001:000249be       __EH_prolog3_catch         004259be f   LIBCMT:ehprolg3.obj
 0001:00024a00       __aulldvrm                 00425a00 f   LIBCMT:ulldvrm.obj
 0001:00024aa0       __alloca_probe_16          00425aa0 f   LIBCMT:alloca16.obj
 0001:00024ab6       __alloca_probe_8           00425ab6     LIBCMT:alloca16.obj
 0001:00024ad0       __allmul                   00425ad0 f   LIBCMT:llmul.obj
 0001:00024b10       __aulldiv                  00425b10 f   LIBCMT:ulldiv.obj
 0001:00024b78       ___raise_securityfailure   00425b78 f   LIBCMT:gs_report.obj
 0001:00024ba0       ___report_gsfailure        00425ba0 f   LIBCMT:gs_report.obj
 0001:00024c99       ___report_rangecheckfailure 00425c99 f   LIBCMT:gs_report.obj
 0001:00024ca5       ___report_securityfailure  00425ca5 f   LIBCMT:gs_report.obj
 0001:00024d73       ??0bad_array_new_length@std@@QAE@ABV01@@Z 00425d73 f i LIBCMT:throw_bad_alloc.obj
 0001:00024d8e       ??0bad_array_new_length@std@@QAE@XZ 00425d8e f i LIBCMT:throw_bad_alloc.obj
 0001:00024da6       ?__scrt_throw_std_bad_array_new_length@@YAXXZ 00425da6 f   LIBCMT:throw_bad_alloc.obj
 0001:00024dd0       __SEH_prolog4              00425dd0 f   LIBCMT:sehprolg4.obj
 0001:00024e16       __SEH_epilog4              00425e16 f   LIBCMT:sehprolg4.obj
 0001:00024e2b       ___isa_available_init      00425e2b f   LIBCMT:cpu_disp.obj
 0001:00024fc2       __get_startup_argv_mode    00425fc2 f   LIBCMT:argv_mode.obj
 0001:00024fc6       ___scrt_is_ucrt_dll_in_use 00425fc6 f   LIBCMT:ucrt_detection.obj
 0001:00024fd2       ___scrt_fastfail           00425fd2 f   LIBCMT:utility_desktop.obj
 0001:000250ec       ___scrt_get_show_window_mode 004260ec f   LIBCMT:utility_desktop.obj
 0001:0002511d       ___scrt_initialize_mta     0042611d f   LIBCMT:utility_desktop.obj
 0001:00025122       ___scrt_is_managed_app     00426122 f   LIBCMT:utility_desktop.obj
 0001:00025165       ___scrt_set_unhandled_exception_filter 00426165 f   LIBCMT:utility_desktop.obj
 0001:00025171       ___scrt_unhandled_exception_filter@4 00426171 f   LIBCMT:utility_desktop.obj
 0001:000251b2       __crt_debugger_hook        004261b2 f   LIBCMT:utility_desktop.obj
 0001:00025207       ___security_init_cookie    00426207 f   LIBCMT:gs_support.obj
 0001:00025252       __get_startup_file_mode    00426252 f   LIBCMT:file_mode.obj
 0001:00025258       ?__scrt_initialize_type_info@@YAXXZ 00426258 f   LIBCMT:tncleanup.obj
 0001:00025264       ___acrt_uninitialize_command_line 00426264 f   libucrt:argv_data.obj
 0001:00025264       __should_initialize_environment 00426264 f   LIBCMT:env_mode.obj
 0001:00025267       __initialize_default_precision 00426267 f   LIBCMT:default_precision.obj
 0001:00025288       ___local_stdio_scanf_options 00426288 f i LIBCMT:default_local_stdio_options.obj
 0001:0002528e       ___scrt_initialize_default_local_stdio_options 0042628e f   LIBCMT:default_local_stdio_options.obj
 0001:000252ab       ___scrt_is_user_matherr_present 004262ab f   LIBCMT:matherr_detection.obj
 0001:000252b7       ___scrt_get_dyn_tls_init_callback 004262b7 f   LIBCMT:dyn_tls_init.obj
 0001:000252bd       ___scrt_get_dyn_tls_dtor_callback 004262bd f   LIBCMT:dyn_tls_dtor.obj
 0001:000252c3       __RTC_Initialize           004262c3 f   LIBCMT:initsect.obj
 0001:000252ef       __RTC_Terminate            004262ef f   LIBCMT:initsect.obj
 0001:00025320       __alloca_probe             00426320 f   LIBCMT:chkstk.obj
 0001:00025320       __chkstk                   00426320 f   LIBCMT:chkstk.obj
 0001:0002534d       ??0CAtlBaseModule@ATL@@QAE@XZ 0042634d f   atls:atlbase.obj
 0001:000253a0       ??0_ATL_BASE_MODULE70@ATL@@QAE@XZ 004263a0 f i atls:atlbase.obj
 0001:000253c3       ??1CAtlBaseModule@ATL@@QAE@XZ 004263c3 f   atls:atlbase.obj
 0001:000253d9       ?RemoveAll@?$CSimpleArray@PAUHINSTANCE__@@V?$CSimpleArrayEqualHelper@PAUHINSTANCE__@@@ATL@@@ATL@@QAEXXZ 004263d9 f i atls:atlbase.obj
 0001:000253f6       ?GetRangeOfTrysToCheck@__FrameHandler3@@SA?AU?$pair@Viterator@TryBlockMap@__FrameHandler3@@V123@@std@@AAVTryBlockMap@1@HH@Z 004263f6 f   libvcruntime:trnsctrl.obj
 0001:00025478       ?_CallCatchBlock2@@YAPAXPAUEHRegistrationNode@@PBU_s_FuncInfo@@PAXHK@Z 00426478 f   libvcruntime:trnsctrl.obj
 0001:000254d6       ?_CallSETranslator@@YAHPAUEHExceptionRecord@@PAUEHRegistrationNode@@PAX2PBU_s_FuncInfo@@H1@Z 004264d6 f   libvcruntime:trnsctrl.obj
 0001:000255b1       ?_JumpToContinuation@@YGXPAXPAUEHRegistrationNode@@@Z 004265b1 f   libvcruntime:trnsctrl.obj
 0001:000255e1       ?_UnwindNestedFrames@@YGXPAUEHRegistrationNode@@PAUEHExceptionRecord@@@Z 004265e1 f   libvcruntime:trnsctrl.obj
 0001:00025634       __CatchGuardHandler        00426634 f   libvcruntime:trnsctrl.obj
 0001:00025665       __CreateFrameInfo          00426665 f   libvcruntime:trnsctrl.obj
 0001:00025689       __FindAndUnlinkFrame       00426689 f   libvcruntime:trnsctrl.obj
 0001:000256ce       __TranslatorGuardHandler   004266ce f   libvcruntime:trnsctrl.obj
 0001:0002576b       ___CxxFrameHandler3        0042676b f   libvcruntime:trnsctrl.obj
 0001:000257a1       ___std_exception_copy      004267a1 f   libvcruntime:std_exception.obj
 0001:00025804       ___std_exception_destroy   00426804 f   libvcruntime:std_exception.obj
 0001:00025823       __get_purecall_handler     00426823 f   libvcruntime:purevirt.obj
 0001:00025838       __purecall                 00426838 f   libvcruntime:purevirt.obj
 0001:000258a0       __except_handler4          004268a0 f   libvcruntime:chandler4.obj
 0001:00025a00       _strstr                    00426a00 f   libvcruntime:strstr.obj
 0001:00025c70       _strchr                    00426c70 f   libvcruntime:strchr.obj
 0001:00025cde       ___from_strstr_to_strchr   00426cde     libvcruntime:strchr.obj
 0001:00025d9b       __CxxThrowException@8      00426d9b f   libvcruntime:throw.obj
 0001:00025e10       _memcpy                    00426e10 f   libvcruntime:memcpy.obj
 0001:00026390       _memmove                   00427390 f   libvcruntime:memmove.obj
 0001:00026910       _memset                    00427910 f   libvcruntime:memset.obj
 0001:00026a6a       ___uncaught_exception      00427a6a f   libvcruntime:uncaught_exception.obj
 0001:00026a7e       ___DestructExceptionObject 00427a7e f   libvcruntime:ehhelpers.obj
 0001:00026b1e       ?_CallMemberFunction0@@YGXQAX0@Z 00427b1e f i libvcruntime:ehhelpers.obj
 0001:00026b2b       __IsExceptionObjectToBeDestroyed 00427b2b f   libvcruntime:ehhelpers.obj
 0001:00026b51       ___AdjustPointer           00427b51 f   libvcruntime:ehhelpers.obj
 0001:00026b76       ___FrameUnwindFilter       00427b76 f   libvcruntime:ehhelpers.obj
 0001:00026bc0       _memchr                    00427bc0 f   libvcruntime:memchr.obj
 0001:00026c6d       _memcmp                    00427c6d f   libvcruntime:memcmp.obj
 0001:00027c11       ___vcrt_initialize         00428c11 f   libvcruntime:initialization.obj
 0001:00027c3a       ___vcrt_uninitialize       00428c3a f   libvcruntime:initialization.obj
 0001:00027c59       ___std_type_info_compare   00428c59 f   libvcruntime:std_type_info.obj
 0001:00027c95       ___vcrt_freefls@4          00428c95 f   libvcruntime:per_thread_data.obj
 0001:00027cb1       ___vcrt_getptd             00428cb1 f   libvcruntime:per_thread_data.obj
 0001:00027cbf       ___vcrt_getptd_noexit      00428cbf f   libvcruntime:per_thread_data.obj
 0001:00027d51       ___vcrt_getptd_noinit      00428d51 f   libvcruntime:per_thread_data.obj
 0001:00027d88       ___vcrt_initialize_ptd     00428d88 f   libvcruntime:per_thread_data.obj
 0001:00027dbb       ___vcrt_uninitialize_ptd   00428dbb f   libvcruntime:per_thread_data.obj
 0001:000284cd       ??$TypeMatchHelper@V__FrameHandler3@@@@YAHPBU_s_HandlerType@@PBU_s_CatchableType@@PBU_s_ThrowInfo@@@Z 004294cd f i libvcruntime:frame.obj
 0001:0002855b       ??$__InternalCxxFrameHandler@V__FrameHandler3@@@@YA?AW4_EXCEPTION_DISPOSITION@@PAUEHExceptionRecord@@PAUEHRegistrationNode@@PAU_CONTEXT@@PAXPBU_s_FuncInfo@@H1E@Z 0042955b f i libvcruntime:frame.obj
 0001:0002865d       ??0bad_exception@std@@QAE@ABV01@@Z 0042965d f i libvcruntime:frame.obj
 0001:00028678       ??0bad_exception@std@@QAE@XZ 00429678 f i libvcruntime:frame.obj
 0001:00028690       ??8type_info@@QBE_NABV0@@Z 00429690 f i libvcruntime:frame.obj
 0001:000288f7       ?FrameUnwindToEmptyState@__FrameHandler3@@SAXPAUEHRegistrationNode@@PAXPBU_s_FuncInfo@@@Z 004298f7 f   libvcruntime:frame.obj
 0001:0002890f       ?FrameUnwindToState@__FrameHandler3@@SAXPAUEHRegistrationNode@@PAXPBU_s_FuncInfo@@H@Z 0042990f f   libvcruntime:frame.obj
 0001:00028a91       ?_CallMemberFunction1@@YGXQAX00@Z 00429a91 f i libvcruntime:frame.obj
 0001:00028aa1       ?_CallMemberFunction2@@YGXQAX00H@Z 00429aa1 f i libvcruntime:frame.obj
 0001:00028ab4       ?getESTypes@__FrameHandler3@@SAPBU_s_ESTypeList@@PBU_s_FuncInfo@@@Z 00429ab4 f i libvcruntime:frame.obj
 0001:00028ac0       __CallSettingFrame@12      00429ac0 f   libvcruntime:lowhelpr.obj
 0001:00028ae7       __NLG_Return               00429ae7     libvcruntime:lowhelpr.obj
 0001:00028b0c       ___except_validate_context_record 00429b0c f   libvcruntime:jbcxrval.obj
 0001:00028b3c       ___except_validate_jump_buffer 00429b3c f   libvcruntime:jbcxrval.obj
 0001:00028b69       ___vcrt_initialize_pure_virtual_call_handler 00429b69 f   libvcruntime:purevirt_data.obj
 0001:00028b80       __local_unwind4            00429b80 f   libvcruntime:exsup4.obj
 0001:00028c58       __seh_longjmp_unwind4@4    00429c58 f   libvcruntime:exsup4.obj
 0001:00028c80       @_EH4_CallFilterFunc@8     00429c80 f   libvcruntime:exsup4.obj
 0001:00028c98       @_EH4_TransferToHandler@8  00429c98 f   libvcruntime:exsup4.obj
 0001:00028cb4       @_EH4_GlobalUnwind2@8      00429cb4 f   libvcruntime:exsup4.obj
 0001:00028cd0       @_EH4_LocalUnwind@16       00429cd0 f   libvcruntime:exsup4.obj
 0001:00028ce7       ___vcrt_initialize_locks   00429ce7 f   libvcruntime:locks.obj
 0001:00028d23       ___vcrt_uninitialize_locks 00429d23 f   libvcruntime:locks.obj
 0001:00028e85       ___vcrt_FlsAlloc           00429e85 f   libvcruntime:winapi_downlevel.obj
 0001:00028ec0       ___vcrt_FlsFree            00429ec0 f   libvcruntime:winapi_downlevel.obj
 0001:00028efb       ___vcrt_FlsGetValue        00429efb f   libvcruntime:winapi_downlevel.obj
 0001:00028f36       ___vcrt_FlsSetValue        00429f36 f   libvcruntime:winapi_downlevel.obj
 0001:00028f74       ___vcrt_InitializeCriticalSectionEx 00429f74 f   libvcruntime:winapi_downlevel.obj
 0001:00028fbb       ___vcrt_initialize_winapi_thunks 00429fbb f   libvcruntime:winapi_downlevel.obj
 0001:00028fe4       ___vcrt_uninitialize_winapi_thunks 00429fe4 f   libvcruntime:winapi_downlevel.obj
 0001:00029016       _unexpected                0042a016 f   libvcruntime:unexpected.obj
 0001:00029033       ?GetCurrentState@__FrameHandler3@@SAHPAUEHRegistrationNode@@PAXPBU_s_FuncInfo@@@Z 0042a033 f   libvcruntime:ehstate.obj
 0001:00029050       ?SetState@__FrameHandler3@@SAXPAUEHRegistrationNode@@PBU_s_FuncInfo@@H@Z 0042a050 f   libvcruntime:ehstate.obj
 0001:00029060       __global_unwind2           0042a060 f   libvcruntime:exsup.obj
 0001:000290c6       __local_unwind2            0042a0c6 f   libvcruntime:exsup.obj
 0001:0002914a       __abnormal_termination     0042a14a f   libvcruntime:exsup.obj
 0001:00029170       __NLG_Notify1              0042a170 f   libvcruntime:exsup.obj
 0001:0002917c       __NLG_Notify               0042a17c f   libvcruntime:exsup.obj
 0001:00029193       __NLG_Dispatch             0042a193     libvcruntime:exsup.obj
 0001:00029193       __NLG_Dispatch2            0042a193     libvcruntime:exsup.obj
 0001:0002919b       __NLG_Call                 0042a19b f   libvcruntime:exsup.obj
 0001:0002919d       __NLG_Return2              0042a19d     libvcruntime:exsup.obj
 0001:0002919e       _calloc                    0042a19e f   libucrt:calloc.obj
 0001:000291b0       _strcspn                   0042a1b0 f   libucrt:strcspn.obj
 0001:000295bf       ??$count@D@formatting_buffer@__crt_stdio_output@@QBEIXZ 0042a5bf f i libucrt:output.obj
 0001:000295d7       ??$ensure_buffer_is_big_enough@D@formatting_buffer@__crt_stdio_output@@QAE_NI@Z 0042a5d7 f i libucrt:output.obj
 0001:00029656       ??$is_wide_character_specifier@D@__crt_stdio_output@@YA_N_KDW4length_modifier@0@@Z 0042a656 f i libucrt:output.obj
 0001:00029687       ??$scratch_data@D@formatting_buffer@__crt_stdio_output@@QAEPADXZ 0042a687 f i libucrt:output.obj
 0001:000296a5       ??$type_case_integer_parse_into_buffer@I@?$output_processor@DV?$string_output_adapter@D@__crt_stdio_output@@V?$format_validation_base@DV?$string_output_adapter@D@__crt_stdio_output@@@2@@__crt_stdio_output@@AAEXII_N@Z 0042a6a5 f i libucrt:output.obj
 0001:000296a5       ??$type_case_integer_parse_into_buffer@I@?$output_processor@DV?$string_output_adapter@D@__crt_stdio_output@@V?$standard_base@DV?$string_output_adapter@D@__crt_stdio_output@@@2@@__crt_stdio_output@@AAEXII_N@Z 0042a6a5 f i libucrt:output.obj
 0001:000296a5       ??$type_case_integer_parse_into_buffer@I@?$output_processor@DV?$stream_output_adapter@D@__crt_stdio_output@@V?$standard_base@DV?$stream_output_adapter@D@__crt_stdio_output@@@2@@__crt_stdio_output@@AAEXII_N@Z 0042a6a5 f i libucrt:output.obj
 0001:00029718       ??$type_case_integer_parse_into_buffer@_K@?$output_processor@DV?$string_output_adapter@D@__crt_stdio_output@@V?$standard_base@DV?$string_output_adapter@D@__crt_stdio_output@@@2@@__crt_stdio_output@@AAEX_KI_N@Z 0042a718 f i libucrt:output.obj
 0001:00029718       ??$type_case_integer_parse_into_buffer@_K@?$output_processor@DV?$string_output_adapter@D@__crt_stdio_output@@V?$format_validation_base@DV?$string_output_adapter@D@__crt_stdio_output@@@2@@__crt_stdio_output@@AAEX_KI_N@Z 0042a718 f i libucrt:output.obj
 0001:00029718       ??$type_case_integer_parse_into_buffer@_K@?$output_processor@DV?$stream_output_adapter@D@__crt_stdio_output@@V?$standard_base@DV?$stream_output_adapter@D@__crt_stdio_output@@@2@@__crt_stdio_output@@AAEX_KI_N@Z 0042a718 f i libucrt:output.obj
 0001:000297a8       ??$write_multiple_characters@V?$stream_output_adapter@D@__crt_stdio_output@@D@__crt_stdio_output@@YAXABV?$stream_output_adapter@D@0@DHQAH@Z 0042a7a8 f i libucrt:output.obj
 0001:000297e3       ??$write_multiple_characters@V?$string_output_adapter@D@__crt_stdio_output@@D@__crt_stdio_output@@YAXABV?$string_output_adapter@D@0@DHQAH@Z 0042a7e3 f i libucrt:output.obj
 0001:0002980f       ??0?$common_data@D@__crt_stdio_output@@IAE@XZ 0042a80f f i libucrt:output.obj
 0001:00029856       ??0?$output_adapter_data@DV?$string_output_adapter@D@__crt_stdio_output@@@__crt_stdio_output@@IAE@ABV?$string_output_adapter@D@1@_KQBDQAU__crt_locale_pointers@@QAD@Z 0042a856 f i libucrt:output.obj
 0001:00029856       ??0?$output_adapter_data@DV?$stream_output_adapter@D@__crt_stdio_output@@@__crt_stdio_output@@IAE@ABV?$stream_output_adapter@D@1@_KQBDQAU__crt_locale_pointers@@QAD@Z 0042a856 f i libucrt:output.obj
 0001:00029892       ??0_LocaleUpdate@@QAE@QAU__crt_locale_pointers@@@Z 0042a892 f i libucrt:output.obj
 0001:00029915       ??1_LocaleUpdate@@QAE@XZ   0042a915 f i libucrt:output.obj
 0001:00029925       ??1formatting_buffer@__crt_stdio_output@@QAE@XZ 0042a925 f i libucrt:output.obj
 0001:0002993f       ??4?$__crt_unique_heap_ptr@DU__crt_internal_free_policy@@@@QAEAAV0@$$QAV0@@Z 0042a93f f i libucrt:output.obj
 0001:00029a24       ?crop_zeroes@__crt_stdio_output@@YAXPADQAU__crt_locale_pointers@@@Z 0042aa24 f i libucrt:output.obj
 0001:00029a84       ?find_next_state@?$output_processor@DV?$string_output_adapter@D@__crt_stdio_output@@V?$standard_base@DV?$string_output_adapter@D@__crt_stdio_output@@@2@@__crt_stdio_output@@ABE?AW4state@2@DW432@@Z 0042aa84 f i libucrt:output.obj
 0001:00029a84       ?find_next_state@?$output_processor@DV?$stream_output_adapter@D@__crt_stdio_output@@V?$standard_base@DV?$stream_output_adapter@D@__crt_stdio_output@@@2@@__crt_stdio_output@@ABE?AW4state@2@DW432@@Z 0042aa84 f i libucrt:output.obj
 0001:00029ac3       ?find_next_state@?$output_processor@DV?$string_output_adapter@D@__crt_stdio_output@@V?$format_validation_base@DV?$string_output_adapter@D@__crt_stdio_output@@@2@@__crt_stdio_output@@ABE?AW4state@2@DW432@@Z 0042aac3 f i libucrt:output.obj
 0001:00029b05       ?force_decimal_point@__crt_stdio_output@@YAXPADQAU__crt_locale_pointers@@@Z 0042ab05 f i libucrt:output.obj
 0001:00029b61       ?parse_int_from_format_string@?$output_processor@DV?$string_output_adapter@D@__crt_stdio_output@@V?$format_validation_base@DV?$string_output_adapter@D@__crt_stdio_output@@@2@@__crt_stdio_output@@AAE_NQAH@Z 0042ab61 f i libucrt:output.obj
 0001:00029b61       ?parse_int_from_format_string@?$output_processor@DV?$stream_output_adapter@D@__crt_stdio_output@@V?$standard_base@DV?$stream_output_adapter@D@__crt_stdio_output@@@2@@__crt_stdio_output@@AAE_NQAH@Z 0042ab61 f i libucrt:output.obj
 0001:00029b61       ?parse_int_from_format_string@?$output_processor@DV?$string_output_adapter@D@__crt_stdio_output@@V?$standard_base@DV?$string_output_adapter@D@__crt_stdio_output@@@2@@__crt_stdio_output@@AAE_NQAH@Z 0042ab61 f i libucrt:output.obj
 0001:00029bd7       ?process@?$output_processor@DV?$stream_output_adapter@D@__crt_stdio_output@@V?$standard_base@DV?$stream_output_adapter@D@__crt_stdio_output@@@2@@__crt_stdio_output@@QAEHXZ 0042abd7 f i libucrt:output.obj
 0001:00029ceb       ?process@?$output_processor@DV?$string_output_adapter@D@__crt_stdio_output@@V?$format_validation_base@DV?$string_output_adapter@D@__crt_stdio_output@@@2@@__crt_stdio_output@@QAEHXZ 0042aceb f i libucrt:output.obj
 0001:00029e0f       ?process@?$output_processor@DV?$string_output_adapter@D@__crt_stdio_output@@V?$standard_base@DV?$string_output_adapter@D@__crt_stdio_output@@@2@@__crt_stdio_output@@QAEHXZ 0042ae0f f i libucrt:output.obj
 0001:00029f23       ?state_case_flag@?$output_processor@DV?$string_output_adapter@D@__crt_stdio_output@@V?$standard_base@DV?$string_output_adapter@D@__crt_stdio_output@@@2@@__crt_stdio_output@@AAE_NXZ 0042af23 f i libucrt:output.obj
 0001:00029f23       ?state_case_flag@?$output_processor@DV?$stream_output_adapter@D@__crt_stdio_output@@V?$standard_base@DV?$stream_output_adapter@D@__crt_stdio_output@@@2@@__crt_stdio_output@@AAE_NXZ 0042af23 f i libucrt:output.obj
 0001:00029f23       ?state_case_flag@?$output_processor@DV?$string_output_adapter@D@__crt_stdio_output@@V?$format_validation_base@DV?$string_output_adapter@D@__crt_stdio_output@@@2@@__crt_stdio_output@@AAE_NXZ 0042af23 f i libucrt:output.obj
 0001:00029f60       ?state_case_normal@?$output_processor@DV?$stream_output_adapter@D@__crt_stdio_output@@V?$standard_base@DV?$stream_output_adapter@D@__crt_stdio_output@@@2@@__crt_stdio_output@@AAE_NXZ 0042af60 f i libucrt:output.obj
 0001:00029f7f       ?state_case_normal@?$output_processor@DV?$string_output_adapter@D@__crt_stdio_output@@V?$standard_base@DV?$string_output_adapter@D@__crt_stdio_output@@@2@@__crt_stdio_output@@AAE_NXZ 0042af7f f i libucrt:output.obj
 0001:00029f7f       ?state_case_normal@?$output_processor@DV?$string_output_adapter@D@__crt_stdio_output@@V?$format_validation_base@DV?$string_output_adapter@D@__crt_stdio_output@@@2@@__crt_stdio_output@@AAE_NXZ 0042af7f f i libucrt:output.obj
 0001:00029f9e       ?state_case_normal_common@?$output_processor@DV?$stream_output_adapter@D@__crt_stdio_output@@V?$standard_base@DV?$stream_output_adapter@D@__crt_stdio_output@@@2@@__crt_stdio_output@@AAE_NXZ 0042af9e f i libucrt:output.obj
 0001:00029fda       ?state_case_normal_common@?$output_processor@DV?$string_output_adapter@D@__crt_stdio_output@@V?$format_validation_base@DV?$string_output_adapter@D@__crt_stdio_output@@@2@@__crt_stdio_output@@AAE_NXZ 0042afda f i libucrt:output.obj
 0001:00029fda       ?state_case_normal_common@?$output_processor@DV?$string_output_adapter@D@__crt_stdio_output@@V?$standard_base@DV?$string_output_adapter@D@__crt_stdio_output@@@2@@__crt_stdio_output@@AAE_NXZ 0042afda f i libucrt:output.obj
 0001:0002a004       ?state_case_normal_tchar@?$output_processor@DV?$stream_output_adapter@D@__crt_stdio_output@@V?$standard_base@DV?$stream_output_adapter@D@__crt_stdio_output@@@2@@__crt_stdio_output@@AAE_ND@Z 0042b004 f i libucrt:output.obj
 0001:0002a071       ?state_case_normal_tchar@?$output_processor@DV?$string_output_adapter@D@__crt_stdio_output@@V?$standard_base@DV?$string_output_adapter@D@__crt_stdio_output@@@2@@__crt_stdio_output@@AAE_ND@Z 0042b071 f i libucrt:output.obj
 0001:0002a071       ?state_case_normal_tchar@?$output_processor@DV?$string_output_adapter@D@__crt_stdio_output@@V?$format_validation_base@DV?$string_output_adapter@D@__crt_stdio_output@@@2@@__crt_stdio_output@@AAE_ND@Z 0042b071 f i libucrt:output.obj
 0001:0002a0d5       ?state_case_precision@?$output_processor@DV?$string_output_adapter@D@__crt_stdio_output@@V?$standard_base@DV?$string_output_adapter@D@__crt_stdio_output@@@2@@__crt_stdio_output@@AAE_NXZ 0042b0d5 f i libucrt:output.obj
 0001:0002a0d5       ?state_case_precision@?$output_processor@DV?$string_output_adapter@D@__crt_stdio_output@@V?$format_validation_base@DV?$string_output_adapter@D@__crt_stdio_output@@@2@@__crt_stdio_output@@AAE_NXZ 0042b0d5 f i libucrt:output.obj
 0001:0002a0d5       ?state_case_precision@?$output_processor@DV?$stream_output_adapter@D@__crt_stdio_output@@V?$standard_base@DV?$stream_output_adapter@D@__crt_stdio_output@@@2@@__crt_stdio_output@@AAE_NXZ 0042b0d5 f i libucrt:output.obj
 0001:0002a0fb       ?state_case_size@?$output_processor@DV?$stream_output_adapter@D@__crt_stdio_output@@V?$standard_base@DV?$stream_output_adapter@D@__crt_stdio_output@@@2@@__crt_stdio_output@@AAE_NXZ 0042b0fb f i libucrt:output.obj
 0001:0002a249       ?state_case_size@?$output_processor@DV?$string_output_adapter@D@__crt_stdio_output@@V?$standard_base@DV?$string_output_adapter@D@__crt_stdio_output@@@2@@__crt_stdio_output@@AAE_NXZ 0042b249 f i libucrt:output.obj
 0001:0002a249       ?state_case_size@?$output_processor@DV?$string_output_adapter@D@__crt_stdio_output@@V?$format_validation_base@DV?$string_output_adapter@D@__crt_stdio_output@@@2@@__crt_stdio_output@@AAE_NXZ 0042b249 f i libucrt:output.obj
 0001:0002a397       ?state_case_type@?$output_processor@DV?$stream_output_adapter@D@__crt_stdio_output@@V?$standard_base@DV?$stream_output_adapter@D@__crt_stdio_output@@@2@@__crt_stdio_output@@AAE_NXZ 0042b397 f i libucrt:output.obj
 0001:0002a5cb       ?state_case_type@?$output_processor@DV?$string_output_adapter@D@__crt_stdio_output@@V?$standard_base@DV?$string_output_adapter@D@__crt_stdio_output@@@2@@__crt_stdio_output@@AAE_NXZ 0042b5cb f i libucrt:output.obj
 0001:0002a5cb       ?state_case_type@?$output_processor@DV?$string_output_adapter@D@__crt_stdio_output@@V?$format_validation_base@DV?$string_output_adapter@D@__crt_stdio_output@@@2@@__crt_stdio_output@@AAE_NXZ 0042b5cb f i libucrt:output.obj
 0001:0002a7ff       ?state_case_width@?$output_processor@DV?$stream_output_adapter@D@__crt_stdio_output@@V?$standard_base@DV?$stream_output_adapter@D@__crt_stdio_output@@@2@@__crt_stdio_output@@AAE_NXZ 0042b7ff f i libucrt:output.obj
 0001:0002a7ff       ?state_case_width@?$output_processor@DV?$string_output_adapter@D@__crt_stdio_output@@V?$standard_base@DV?$string_output_adapter@D@__crt_stdio_output@@@2@@__crt_stdio_output@@AAE_NXZ 0042b7ff f i libucrt:output.obj
 0001:0002a7ff       ?state_case_width@?$output_processor@DV?$string_output_adapter@D@__crt_stdio_output@@V?$format_validation_base@DV?$string_output_adapter@D@__crt_stdio_output@@@2@@__crt_stdio_output@@AAE_NXZ 0042b7ff f i libucrt:output.obj
 0001:0002a82a       ?to_integer_size@__crt_stdio_output@@YAIW4length_modifier@1@@Z 0042b82a f i libucrt:output.obj
 0001:0002a87e       ?type_case_Z@?$output_processor@DV?$string_output_adapter@D@__crt_stdio_output@@V?$format_validation_base@DV?$string_output_adapter@D@__crt_stdio_output@@@2@@__crt_stdio_output@@AAE_NXZ 0042b87e f i libucrt:output.obj
 0001:0002a87e       ?type_case_Z@?$output_processor@DV?$string_output_adapter@D@__crt_stdio_output@@V?$standard_base@DV?$string_output_adapter@D@__crt_stdio_output@@@2@@__crt_stdio_output@@AAE_NXZ 0042b87e f i libucrt:output.obj
 0001:0002a87e       ?type_case_Z@?$output_processor@DV?$stream_output_adapter@D@__crt_stdio_output@@V?$standard_base@DV?$stream_output_adapter@D@__crt_stdio_output@@@2@@__crt_stdio_output@@AAE_NXZ 0042b87e f i libucrt:output.obj
 0001:0002a8da       ?type_case_a@?$output_processor@DV?$string_output_adapter@D@__crt_stdio_output@@V?$format_validation_base@DV?$string_output_adapter@D@__crt_stdio_output@@@2@@__crt_stdio_output@@AAE_NXZ 0042b8da f i libucrt:output.obj
 0001:0002a8da       ?type_case_a@?$output_processor@DV?$string_output_adapter@D@__crt_stdio_output@@V?$standard_base@DV?$string_output_adapter@D@__crt_stdio_output@@@2@@__crt_stdio_output@@AAE_NXZ 0042b8da f i libucrt:output.obj
 0001:0002a8da       ?type_case_a@?$output_processor@DV?$stream_output_adapter@D@__crt_stdio_output@@V?$standard_base@DV?$stream_output_adapter@D@__crt_stdio_output@@@2@@__crt_stdio_output@@AAE_NXZ 0042b8da f i libucrt:output.obj
 0001:0002aa33       ?type_case_c_tchar@?$output_processor@DV?$string_output_adapter@D@__crt_stdio_output@@V?$standard_base@DV?$string_output_adapter@D@__crt_stdio_output@@@2@@__crt_stdio_output@@AAE_ND@Z 0042ba33 f i libucrt:output.obj
 0001:0002aa33       ?type_case_c_tchar@?$output_processor@DV?$string_output_adapter@D@__crt_stdio_output@@V?$format_validation_base@DV?$string_output_adapter@D@__crt_stdio_output@@@2@@__crt_stdio_output@@AAE_ND@Z 0042ba33 f i libucrt:output.obj
 0001:0002aa33       ?type_case_c_tchar@?$output_processor@DV?$stream_output_adapter@D@__crt_stdio_output@@V?$standard_base@DV?$stream_output_adapter@D@__crt_stdio_output@@@2@@__crt_stdio_output@@AAE_ND@Z 0042ba33 f i libucrt:output.obj
 0001:0002aac3       ?type_case_integer@?$output_processor@DV?$string_output_adapter@D@__crt_stdio_output@@V?$standard_base@DV?$string_output_adapter@D@__crt_stdio_output@@@2@@__crt_stdio_output@@AAE_NI_N@Z 0042bac3 f i libucrt:output.obj
 0001:0002aac3       ?type_case_integer@?$output_processor@DV?$stream_output_adapter@D@__crt_stdio_output@@V?$standard_base@DV?$stream_output_adapter@D@__crt_stdio_output@@@2@@__crt_stdio_output@@AAE_NI_N@Z 0042bac3 f i libucrt:output.obj
 0001:0002aac3       ?type_case_integer@?$output_processor@DV?$string_output_adapter@D@__crt_stdio_output@@V?$format_validation_base@DV?$string_output_adapter@D@__crt_stdio_output@@@2@@__crt_stdio_output@@AAE_NI_N@Z 0042bac3 f i libucrt:output.obj
 0001:0002ac16       ?type_case_n@?$output_processor@DV?$string_output_adapter@D@__crt_stdio_output@@V?$standard_base@DV?$string_output_adapter@D@__crt_stdio_output@@@2@@__crt_stdio_output@@AAE_NXZ 0042bc16 f i libucrt:output.obj
 0001:0002ac16       ?type_case_n@?$output_processor@DV?$string_output_adapter@D@__crt_stdio_output@@V?$format_validation_base@DV?$string_output_adapter@D@__crt_stdio_output@@@2@@__crt_stdio_output@@AAE_NXZ 0042bc16 f i libucrt:output.obj
 0001:0002ac16       ?type_case_n@?$output_processor@DV?$stream_output_adapter@D@__crt_stdio_output@@V?$standard_base@DV?$stream_output_adapter@D@__crt_stdio_output@@@2@@__crt_stdio_output@@AAE_NXZ 0042bc16 f i libucrt:output.obj
 0001:0002ac8a       ?type_case_o@?$output_processor@DV?$stream_output_adapter@D@__crt_stdio_output@@V?$standard_base@DV?$stream_output_adapter@D@__crt_stdio_output@@@2@@__crt_stdio_output@@AAE_NXZ 0042bc8a f i libucrt:output.obj
 0001:0002ac8a       ?type_case_o@?$output_processor@DV?$string_output_adapter@D@__crt_stdio_output@@V?$format_validation_base@DV?$string_output_adapter@D@__crt_stdio_output@@@2@@__crt_stdio_output@@AAE_NXZ 0042bc8a f i libucrt:output.obj
 0001:0002ac8a       ?type_case_o@?$output_processor@DV?$string_output_adapter@D@__crt_stdio_output@@V?$standard_base@DV?$string_output_adapter@D@__crt_stdio_output@@@2@@__crt_stdio_output@@AAE_NXZ 0042bc8a f i libucrt:output.obj
 0001:0002aca9       ?type_case_p@?$output_processor@DV?$string_output_adapter@D@__crt_stdio_output@@V?$standard_base@DV?$string_output_adapter@D@__crt_stdio_output@@@2@@__crt_stdio_output@@AAE_NXZ 0042bca9 f i libucrt:output.obj
 0001:0002aca9       ?type_case_p@?$output_processor@DV?$stream_output_adapter@D@__crt_stdio_output@@V?$standard_base@DV?$stream_output_adapter@D@__crt_stdio_output@@@2@@__crt_stdio_output@@AAE_NXZ 0042bca9 f i libucrt:output.obj
 0001:0002aca9       ?type_case_p@?$output_processor@DV?$string_output_adapter@D@__crt_stdio_output@@V?$format_validation_base@DV?$string_output_adapter@D@__crt_stdio_output@@@2@@__crt_stdio_output@@AAE_NXZ 0042bca9 f i libucrt:output.obj
 0001:0002acc1       ?type_case_s@?$output_processor@DV?$string_output_adapter@D@__crt_stdio_output@@V?$format_validation_base@DV?$string_output_adapter@D@__crt_stdio_output@@@2@@__crt_stdio_output@@AAE_NXZ 0042bcc1 f i libucrt:output.obj
 0001:0002acc1       ?type_case_s@?$output_processor@DV?$stream_output_adapter@D@__crt_stdio_output@@V?$standard_base@DV?$stream_output_adapter@D@__crt_stdio_output@@@2@@__crt_stdio_output@@AAE_NXZ 0042bcc1 f i libucrt:output.obj
 0001:0002acc1       ?type_case_s@?$output_processor@DV?$string_output_adapter@D@__crt_stdio_output@@V?$standard_base@DV?$string_output_adapter@D@__crt_stdio_output@@@2@@__crt_stdio_output@@AAE_NXZ 0042bcc1 f i libucrt:output.obj
 0001:0002ad32       ?validate@?$stream_output_adapter@D@__crt_stdio_output@@QBE_NXZ 0042bd32 f i libucrt:output.obj
 0001:0002ad53       ?validate@?$c_string_character_source@_W@__crt_strtox@@QBE_NXZ 0042bd53 f i libucrt:strtox.obj
 0001:0002ad53       ?validate@?$string_output_adapter@D@__crt_stdio_output@@QBE_NXZ 0042bd53 f i libucrt:output.obj
 0001:0002ad53       ?validate@?$c_string_character_source@D@__crt_strtox@@QBE_NXZ 0042bd53 f i libucrt:strtox.obj
 0001:0002ad6e       ?validate_and_update_state_at_end_of_format_string@?$format_validation_base@DV?$string_output_adapter@D@__crt_stdio_output@@@__crt_stdio_output@@IBE_NXZ 0042bd6e f i libucrt:output.obj
 0001:0002ad90       ?validate_stream_is_ansi_if_required@?$__acrt_stdio_char_traits@D@@SA_NQAU_iobuf@@@Z 0042bd90 f i libucrt:output.obj
 0001:0002ae17       ?write_character@?$string_output_adapter@D@__crt_stdio_output@@QBE_NDQAH@Z 0042be17 f i libucrt:output.obj
 0001:0002ae59       ?write_character_without_count_update@?$stream_output_adapter@D@__crt_stdio_output@@QBE_ND@Z 0042be59 f i libucrt:output.obj
 0001:0002ae8f       ?write_stored_string_tchar@?$output_processor@DV?$stream_output_adapter@D@__crt_stdio_output@@V?$standard_base@DV?$stream_output_adapter@D@__crt_stdio_output@@@2@@__crt_stdio_output@@AAE_ND@Z 0042be8f f i libucrt:output.obj
 0001:0002af38       ?write_stored_string_tchar@?$output_processor@DV?$string_output_adapter@D@__crt_stdio_output@@V?$format_validation_base@DV?$string_output_adapter@D@__crt_stdio_output@@@2@@__crt_stdio_output@@AAE_ND@Z 0042bf38 f i libucrt:output.obj
 0001:0002af38       ?write_stored_string_tchar@?$output_processor@DV?$string_output_adapter@D@__crt_stdio_output@@V?$standard_base@DV?$string_output_adapter@D@__crt_stdio_output@@@2@@__crt_stdio_output@@AAE_ND@Z 0042bf38 f i libucrt:output.obj
 0001:0002afe1       ?write_string@?$stream_output_adapter@D@__crt_stdio_output@@QBEXQBDHQAHAAV__crt_deferred_errno_cache@@@Z 0042bfe1 f i libucrt:output.obj
 0001:0002b00d       ?write_string@?$string_output_adapter@D@__crt_stdio_output@@QBEXQBDHQAHAAV__crt_deferred_errno_cache@@@Z 0042c00d f i libucrt:output.obj
 0001:0002b074       ?write_string_impl@?$output_adapter_common@DV?$stream_output_adapter@D@__crt_stdio_output@@@__crt_stdio_output@@IBEXQBDHQAHAAV__crt_deferred_errno_cache@@@Z 0042c074 f i libucrt:output.obj
 0001:0002b114       ___acrt_locale_get_ctype_array_value 0042c114 f i libucrt:output.obj
 0001:0002b136       ___stdio_common_vfprintf   0042c136 f   libucrt:output.obj
 0001:0002b1bb       ___stdio_common_vsprintf   0042c1bb f   libucrt:output.obj
 0001:0002b1df       ___stdio_common_vsprintf_s 0042c1df f   libucrt:output.obj
 0001:0002b203       _terminate                 0042c203 f   libucrt:terminate.obj
 0001:0002b23f       _localeconv                0042c23f f   libucrt:localeconv.obj
 0001:0002b269       _free                      0042c269 f   libucrt:free.obj
 0001:0002b286       _frexp                     0042c286 f   libucrt:frexp.obj
 0001:0002b382       ___acrt_call_reportfault   0042c382 f   libucrt:invalid_parameter.obj
 0001:0002b4bd       ___acrt_initialize_invalid_parameter_handler 0042c4bd f   libucrt:invalid_parameter.obj
 0001:0002b4cc       __invalid_parameter        0042c4cc f   libucrt:invalid_parameter.obj
 0001:0002b530       __invalid_parameter_noinfo 0042c530 f   libucrt:invalid_parameter.obj
 0001:0002b540       __invalid_parameter_noinfo_noreturn 0042c540 f   libucrt:invalid_parameter.obj
 0001:0002b55d       __invoke_watson            0042c55d f   libucrt:invalid_parameter.obj
 0001:0002b5d4       ??$__crt_fast_encode_pointer@P6GHPA_WKJ@Z@@YAP6GHPA_WKJ@ZQ6GH0KJ@Z@Z 0042c5d4 f i libucrt:winapi_thunks.obj
 0001:0002b5d4       ??$__crt_fast_encode_pointer@P6GXPAXK0@Z@@YAP6GXPAXK0@ZQ6GX0K0@Z@Z 0042c5d4 f i libucrt:exit.obj
 0001:0002b5d4       ??$__crt_fast_encode_pointer@P6AHXZ@@YAP6AHXZQ6AHXZ@Z 0042c5d4 f i libucrt:onexit.obj
 0001:0002b5d4       ??$__crt_fast_encode_pointer@P6AHPAU_exception@@@Z@@YAP6AHPAU_exception@@@ZQ6AH0@Z@Z 0042c5d4 f i libucrt:matherr.obj
 0001:0002b7d3       ___acrt_initialize_thread_local_exit_callback 0042c7d3 f   libucrt:exit.obj
 0001:0002b7e2       __c_exit                   0042c7e2 f   libucrt:exit.obj
 0001:0002b7f1       __cexit                    0042c7f1 f   libucrt:exit.obj
 0001:0002b800       __exit                     0042c800 f   libucrt:exit.obj
 0001:0002b816       __register_thread_local_exe_atexit_callback 0042c816 f   libucrt:exit.obj
 0001:0002b83c       _exit                      0042c83c f   libucrt:exit.obj
 0001:0002b9b0       __beginthreadex            0042c9b0 f   libucrt:thread.obj
 0001:0002ba35       __endthreadex              0042ca35 f   libucrt:thread.obj
 0001:0002baf5       ??$__acrt_mbs_to_wcs_cp@U__crt_win32_buffer_internal_dynamic_resizing@@@@YAHQBDAAV?$__crt_win32_buffer@_WU__crt_win32_buffer_internal_dynamic_resizing@@@@I@Z 0042caf5 f i libucrt:unlink.obj
 0001:0002bb14       ?__acrt_get_utf8_acp_compatibility_codepage@@YAIXZ 0042cb14 f i libucrt:unlink.obj
 0001:0002bb55       ?_deallocate@?$__crt_win32_buffer@_WU__crt_win32_buffer_internal_dynamic_resizing@@@@AAEXXZ 0042cb55 f i libucrt:unlink.obj
 0001:0002bb55       ?_deallocate@?$__crt_win32_buffer@DU__crt_win32_buffer_internal_dynamic_resizing@@@@AAEXXZ 0042cb55 f i libucrt:argv_wildcards.obj
 0001:0002bb6f       ?allocate@?$__crt_win32_buffer@_WU__crt_win32_buffer_internal_dynamic_resizing@@@@QAEHI@Z 0042cb6f f i libucrt:unlink.obj
 0001:0002bbae       ?allocate@__crt_win32_buffer_internal_dynamic_resizing@@SAHQAPAXIABV__crt_win32_buffer_empty_debug_info@@@Z 0042cbae f i libucrt:unlink.obj
 0001:0002bbcd       _remove                    0042cbcd f   libucrt:unlink.obj
 0001:0002bc39       ??$is_overflow_condition@K@__crt_strtox@@YA_NIK@Z 0042cc39 f i libucrt:strtox.obj
 0001:0002bc6a       ??$make_c_string_character_source@DPAPAD@__crt_strtox@@YA?AV?$c_string_character_source@D@0@QBDQAPAD@Z 0042cc6a f i libucrt:strtox.obj
 0001:0002bc85       ??$parse_integer@KV?$c_string_character_source@D@__crt_strtox@@@__crt_strtox@@YAKQAU__crt_locale_pointers@@V?$c_string_character_source@D@0@H_N@Z 0042cc85 f i libucrt:strtox.obj
 0001:0002beac       ??$parse_integer@KV?$c_string_character_source@_W@__crt_strtox@@@__crt_strtox@@YAKQAU__crt_locale_pointers@@V?$c_string_character_source@_W@0@H_N@Z 0042ceac f i libucrt:strtox.obj
 0001:0002c4ee       ?unget@?$c_string_character_source@D@__crt_strtox@@QAEXD@Z 0042d4ee f i libucrt:strtox.obj
 0001:0002c517       ?unget@?$c_string_character_source@_W@__crt_strtox@@QAEX_W@Z 0042d517 f i libucrt:strtox.obj
 0001:0002c545       __chvalidchk_l             0042d545 f i libucrt:strtox.obj
 0001:0002c56d       __ischartype_l             0042d56d f i libucrt:strtox.obj
 0001:0002c5a0       _strtol                    0042d5a0 f   libucrt:strtox.obj
 0001:0002c5cc       _strtoul                   0042d5cc f   libucrt:strtox.obj
 0001:0002c600       _strncpy                   0042d600 f   libucrt:strncpy.obj
 0001:0002c724       _rename                    0042d724 f   libucrt:rename.obj
 0001:0002c7d4       ___acrt_errno_from_os_error 0042d7d4 f   libucrt:errno.obj
 0001:0002c817       ___acrt_errno_map_os_error 0042d817 f   libucrt:errno.obj
 0001:0002c83a       ___doserrno                0042d83a f   libucrt:errno.obj
 0001:0002c84d       __errno                    0042d84d f   libucrt:errno.obj
 0001:0002c9ce       __strlwr                   0042d9ce f   libucrt:strlwr.obj
 0001:0002ca2a       __strlwr_s_l               0042da2a f   libucrt:strlwr.obj
 0001:0002ca63       __wtol                     0042da63 f   libucrt:atox.obj
 0001:0002ca88       _atoi                      0042da88 f   libucrt:atox.obj
 0001:0002caad       _malloc                    0042daad f   libucrt:malloc.obj
 0001:0002cb65       _fopen                     0042db65 f   libucrt:fopen.obj
 0001:0002cb7c       __fclose_nolock            0042db7c f   libucrt:fclose.obj
 0001:0002cbf3       _fclose                    0042dbf3 f   libucrt:fclose.obj
 0001:0002cc6d       ___acrt_initialize_locks   0042dc6d f   libucrt:locks.obj
 0001:0002ccae       ___acrt_lock               0042dcae f   libucrt:locks.obj
 0001:0002ccc5       ___acrt_uninitialize_locks 0042dcc5 f   libucrt:locks.obj
 0001:0002ccf6       ___acrt_unlock             0042dcf6 f   libucrt:locks.obj
 0001:0002cd0d       __lock_locales             0042dd0d f   libucrt:locks.obj
 0001:0002cd1b       __unlock_locales           0042dd1b f   libucrt:locks.obj
 0001:0002cf78       _setlocale                 0042df78 f   libucrt:setlocale.obj
 0001:0002cfb2       ___pctype_func             0042dfb2 f   libucrt:ctype.obj
 0001:0002cfd8       __isdigit_l                0042dfd8 f i libucrt:_ctype.obj
 0001:0002d010       __islower_l                0042e010 f i libucrt:_ctype.obj
 0001:0002d048       __isupper_l                0042e048 f i libucrt:_ctype.obj
 0001:0002d080       _isdigit                   0042e080 f i libucrt:_ctype.obj
 0001:0002d0b1       _islower                   0042e0b1 f i libucrt:_ctype.obj
 0001:0002d0e2       _isupper                   0042e0e2 f i libucrt:_ctype.obj
 0001:0002d113       __wcsdup                   0042e113 f   libucrt:wcsdup.obj
 0001:0002d172       ____lc_codepage_func       0042e172 f   libucrt:initctype.obj
 0001:0002d199       ____lc_locale_name_func    0042e199 f   libucrt:initctype.obj
 0001:0002d1c2       ____mb_cur_max_func        0042e1c2 f   libucrt:initctype.obj
 0001:0002d1e9       ___acrt_locale_initialize_ctype 0042e1e9 f   libucrt:initctype.obj
 0001:0002d630       ?divide@__crt_strtox@@YA_KAAUbig_integer@1@ABU21@@Z 0042e630 f i libucrt:strtod.obj
 0001:0002db50       __CIpow                    0042eb50 f   libucrt:pow_impl.obj
 0001:0002db8b       __CIpow_default            0042eb8b f   libucrt:pow_impl.obj
 0001:0002dba4       __pow_default              0042eba4     libucrt:pow_impl.obj
 0001:0002dd99       _abort                     0042ed99 f   libucrt:abort.obj
 0001:0002dddd       ___strncnt                 0042eddd f   libucrt:strncnt.obj
 0001:0002ddf9       ?allocate@?$__crt_win32_buffer@DU__crt_win32_buffer_no_resizing@@@@QAEHI@Z 0042edf9 f i libucrt:strftime.obj
 0001:0002de20       ?set_to_nullptr@?$__crt_win32_buffer@DU__crt_win32_buffer_no_resizing@@@@QAEXXZ 0042ee20 f i libucrt:strftime.obj
 0001:0002df97       __tolower_l                0042ef97 f   libucrt:tolower_toupper.obj
 0001:0002dfb1       _tolower                   0042efb1 f   libucrt:tolower_toupper.obj
 0001:0002dfe1       _wcscpy_s                  0042efe1 f   libucrt:wcscpy_s.obj
 0001:0002e045       _strnlen                   0042f045 f   libucrt:strnlen.obj
 0001:0002e167       _wcsnlen                   0042f167 f   libucrt:strnlen.obj
 0001:0002e317       ___acrt_initialize_new_handler 0042f317 f   libucrt:new_handler.obj
 0001:0002e326       __callnewh                 0042f326 f   libucrt:new_handler.obj
 0001:0002e353       __query_new_handler        0042f353 f   libucrt:new_handler.obj
 0001:0002e3a5       __seh_filter_exe           0042f3a5 f   libucrt:exception_filter.obj
 0001:0002e7b0       ___acrt_allocate_buffer_for_argv 0042f7b0 f   libucrt:argv_parsing.obj
 0001:0002e7ff       __configure_narrow_argv    0042f7ff f   libucrt:argv_parsing.obj
 0001:0002e95e       ??$uninitialize@A6AXAAPAPAD@Z@?$dual_state_global@PAPAD@__crt_state_management@@QAEXA6AXAAPAPAD@Z@Z 0042f95e f i libucrt:environment_initialization.obj
 0001:0002e95e       ??$uninitialize@A6AXAAPAPA_W@Z@?$dual_state_global@PAPA_W@__crt_state_management@@QAEXA6AXAAPAPA_W@Z@Z 0042f95e f i libucrt:environment_initialization.obj
 0001:0002e9bd       ___dcrt_uninitialize_environments_nolock 0042f9bd f   libucrt:environment_initialization.obj
 0001:0002e9f4       __initialize_narrow_environment 0042f9f4 f   libucrt:environment_initialization.obj
 0001:0002eca2       __crt_atexit               0042fca2 f   libucrt:onexit.obj
 0001:0002ecb8       __execute_onexit_table     0042fcb8 f   libucrt:onexit.obj
 0001:0002ece7       __initialize_onexit_table  0042fce7 f   libucrt:onexit.obj
 0001:0002ed10       __register_onexit_function 0042fd10 f   libucrt:onexit.obj
 0001:0002ee42       ___acrt_initialize         0042fe42 f   libucrt:initialization.obj
 0001:0002ee54       ___acrt_uninitialize       0042fe54 f   libucrt:initialization.obj
 0001:0002ee84       __query_app_type           0042fe84 f   libucrt:report_runtime_error.obj
 0001:0002ee8a       __set_app_type             0042fe8a f   libucrt:report_runtime_error.obj
 0001:0002ee99       ___acrt_has_user_matherr   0042fe99 f   libucrt:matherr.obj
 0001:0002eeb1       ___acrt_initialize_user_matherr 0042feb1 f   libucrt:matherr.obj
 0001:0002eec0       ___acrt_invoke_user_matherr 0042fec0 f   libucrt:matherr.obj
 0001:0002eef2       ___setusermatherr          0042fef2 f   libucrt:matherr.obj
 0001:0002ef07       __get_narrow_winmain_command_line 0042ff07 f   libucrt:argv_winmain.obj
 0001:0002ef5a       __initterm                 0042ff5a f   libucrt:initterm.obj
 0001:0002efa1       __initterm_e               0042ffa1 f   libucrt:initterm.obj
 0001:0002efcf       __get_fmode                0042ffcf f   libucrt:setmode.obj
 0001:0002effc       __set_fmode                0042fffc f   libucrt:setmode.obj
 0001:0002f039       __setmode_nolock           00430039 f   libucrt:setmode.obj
 0001:0002f356       ___acrt_copy_locale_name   00430356 f   libucrt:wsetlocale.obj
 0001:0002f3b6       ___acrt_set_locale_changed 004303b6 f   libucrt:wsetlocale.obj
 0001:0002f3c1       ___acrt_uninitialize_locale 004303c1 f   libucrt:wsetlocale.obj
 0001:0002f3ea       ___lc_lctowcs              004303ea f   libucrt:wsetlocale.obj
 0001:0002f45a       ___lc_wcstolc              0043045a f   libucrt:wsetlocale.obj
 0001:0002f5b8       __configthreadlocale       004305b8 f   libucrt:wsetlocale.obj
 0001:0002f649       __expandlocale             00430649 f   libucrt:wsetlocale.obj
 0001:0002fa27       __wcscats                  00430a27 f   libucrt:wsetlocale.obj
 0001:0002fa68       __wsetlocale               00430a68 f   libucrt:wsetlocale.obj
 0001:0003033f       __query_new_mode           0043133f f   libucrt:new_mode.obj
 0001:00030346       __set_new_mode             00431346 f   libucrt:new_mode.obj
 0001:00030375       ___p__commode              00431375 f   libucrt:ncommode.obj
 0001:0003037b       __controlfp_s              0043137b f   libucrt:contrlfp.obj
 0001:000303da       __recalloc_base            004313da f   libucrt:recalloc.obj
 0001:00030447       _strcpy_s                  00431447 f   libucrt:strcpy_s.obj
 0001:000304a1       _wcsncmp                   004314a1 f   libucrt:wcsncmp.obj
 0001:000304e0       _strncmp                   004314e0 f   libucrt:strncmp.obj
 0001:00030558       __calloc_base              00431558 f   libucrt:calloc_base.obj
 0001:000305b5       __free_base                004315b5 f   libucrt:free_base.obj
 0001:000305ef       __malloc_base              004315ef f   libucrt:malloc_base.obj
 0001:0003063d       __mbtowc_l                 0043163d f   libucrt:mbtowc.obj
 0001:00030781       _mbtowc                    00431781 f   libucrt:mbtowc.obj
 0001:0003079b       __wctomb_s_l               0043179b f   libucrt:wctomb.obj
 0001:000308f8       _wctomb_s                  004318f8 f   libucrt:wctomb.obj
 0001:00030c2f       ___acrt_getptd             00431c2f f   libucrt:per_thread_data.obj
 0001:00030cec       ___acrt_getptd_head        00431cec f   libucrt:per_thread_data.obj
 0001:00030d86       ___acrt_getptd_noexit      00431d86 f   libucrt:per_thread_data.obj
 0001:00030e3b       ___acrt_initialize_ptd     00431e3b f   libucrt:per_thread_data.obj
 0001:00030e67       ___acrt_uninitialize_ptd   00431e67 f   libucrt:per_thread_data.obj
 0001:00030e81       ___acrt_update_locale_info 00431e81 f   libucrt:locale_update.obj
 0001:00030eae       ___acrt_update_multibyte_info 00431eae f   libucrt:locale_update.obj
 0001:00030edb       ?__acrt_fp_classify@@YA?AW4__acrt_fp_class@@ABN@Z 00431edb f i libucrt:cvt.obj
 0001:00031792       ___acrt_fp_format          00432792 f   libucrt:cvt.obj
 0001:000318cf       __fileno                   004328cf f   libucrt:fileno.obj
 0001:000318f6       ___acrt_initialize_stdio   004328f6 f   libucrt:_file.obj
 0001:000319be       ___acrt_iob_func           004329be f   libucrt:_file.obj
 0001:000319ce       ___acrt_uninitialize_stdio 004329ce f   libucrt:_file.obj
 0001:00031a1a       __lock_file                00432a1a f   libucrt:_file.obj
 0001:00031a2e       __unlock_file              00432a2e f   libucrt:_file.obj
 0001:00031a42       __fputc_nolock             00432a42 f   libucrt:fputc.obj
 0001:00031a6b       __get_printf_count_output  00432a6b f   libucrt:printf_count_output.obj
 0001:00031a80       ___acrt_stdio_begin_temporary_buffering_nolock 00432a80 f   libucrt:_sftbuf.obj
 0001:00031b33       ___acrt_stdio_end_temporary_buffering_nolock 00432b33 f   libucrt:_sftbuf.obj
 0001:00031cd9       ___acrt_initialize_lowio   00432cd9 f   libucrt:ioinit.obj
 0001:00031d2f       ___acrt_uninitialize_lowio 00432d2f f   libucrt:ioinit.obj
 0001:00031d5b       __dsign                    00432d5b f   libucrt:nan.obj
 0001:00031d6b       __errcode                  00432d6b f   libucrt:fpexcept.obj
 0001:00031d9f       __except1                  00432d9f f   libucrt:fpexcept.obj
 0001:00031e6d       __handle_exc               00432e6d f   libucrt:fpexcept.obj
 0001:0003205a       __raise_exc                0043305a f   libucrt:fpexcept.obj
 0001:0003207d       __raise_exc_ex             0043307d f   libucrt:fpexcept.obj
 0001:00032373       __set_errno_from_matherr   00433373 f   libucrt:fpexcept.obj
 0001:000323a2       __umatherr                 004333a2 f   libucrt:fpexcept.obj
 0001:00032444       __decomp                   00433444 f   libucrt:util.obj
 0001:00032522       __set_exp                  00433522 f   libucrt:util.obj
 0001:00032551       __sptype                   00433551 f   libucrt:util.obj
 0001:000325af       ___set_fpsr_sse2           004335af f   libucrt:fpctrl.obj
 0001:00032625       __clrfp                    00433625 f   libucrt:fpctrl.obj
 0001:00032638       __ctrlfp                   00433638 f   libucrt:fpctrl.obj
 0001:00032664       __set_statfp               00433664 f   libucrt:fpctrl.obj
 0001:000326bf       __statfp                   004336bf f   libucrt:fpctrl.obj
 0001:000326d1       ___acrt_get_begin_thread_init_policy 004336d1 f   libucrt:win_policies.obj
 0001:00032717       ___acrt_get_process_end_policy 00433717 f   libucrt:win_policies.obj
 0001:00032a62       ___acrt_AppPolicyGetProcessTerminationMethodInternal@4 00433a62 f   libucrt:winapi_thunks.obj
 0001:00032aa2       ___acrt_AppPolicyGetThreadInitializationTypeInternal@4 00433aa2 f   libucrt:winapi_thunks.obj
 0001:00032ae2       ___acrt_AreFileApisANSI@0  00433ae2 f   libucrt:winapi_thunks.obj
 0001:00032b01       ___acrt_EnumSystemLocalesEx@16 00433b01 f   libucrt:winapi_thunks.obj
 0001:00032b57       ___acrt_FlsAlloc@4         00433b57 f   libucrt:winapi_thunks.obj
 0001:00032b96       ___acrt_FlsFree@4          00433b96 f   libucrt:winapi_thunks.obj
 0001:00032bd5       ___acrt_FlsGetValue@4      00433bd5 f   libucrt:winapi_thunks.obj
 0001:00032c14       ___acrt_FlsSetValue@8      00433c14 f   libucrt:winapi_thunks.obj
 0001:00032c56       ___acrt_GetLocaleInfoEx@16 00433c56 f   libucrt:winapi_thunks.obj
 0001:00032c95       ___acrt_GetUserDefaultLocaleName@8 00433c95 f   libucrt:winapi_thunks.obj
 0001:00032cd1       ___acrt_InitializeCriticalSectionEx@12 00433cd1 f   libucrt:winapi_thunks.obj
 0001:00032d1c       ___acrt_IsValidLocaleName@4 00433d1c f   libucrt:winapi_thunks.obj
 0001:00032d54       ___acrt_LCIDToLocaleName@16 00433d54 f   libucrt:winapi_thunks.obj
 0001:00032d93       ___acrt_LCMapStringEx@36   00433d93 f   libucrt:winapi_thunks.obj
 0001:00032df0       ___acrt_LocaleNameToLCID@8 00433df0 f   libucrt:winapi_thunks.obj
 0001:00032e21       ___acrt_RoInitialize@4     00433e21 f   libucrt:winapi_thunks.obj
 0001:00032e5c       ___acrt_RoUninitialize@0   00433e5c f   libucrt:winapi_thunks.obj
 0001:00032e8a       ___acrt_can_use_vista_locale_apis 00433e8a f   libucrt:winapi_thunks.obj
 0001:00032e95       ___acrt_eagerly_load_locale_apis 00433e95 f   libucrt:winapi_thunks.obj
 0001:00032ecc       ___acrt_initialize_winapi_thunks 00433ecc f   libucrt:winapi_thunks.obj
 0001:00032ef7       ___acrt_uninitialize_winapi_thunks 00433ef7 f   libucrt:winapi_thunks.obj
 0001:00032f2d       ___acrt_MultiByteToWideChar 00433f2d f   libucrt:multibytetowidechar.obj
 0001:00032fa9       __wremove                  00433fa9 f   libucrt:wunlink.obj
 0001:00032fd1       _iswctype                  00433fd1 f   libucrt:iswctype.obj
 0001:0003303c       __isctype_l                0043403c f   libucrt:isctype.obj
 0001:00033111       __wrename                  00434111 f   libucrt:wrename.obj
 0001:0003332a       ___acrt_LCMapStringA       0043432a f   libucrt:lcmapstringa.obj
 0001:00033375       ?__acrt_stdio_allocate_stream@@YA?AV__crt_stdio_stream@@XZ 00434375 f   libucrt:stream.obj
 0001:000333d4       ?__acrt_stdio_free_stream@@YAXV__crt_stdio_stream@@@Z 004343d4 f   libucrt:stream.obj
 0001:000334d3       ??$__acrt_stdio_parse_mode@D@@YA?AU__acrt_stdio_stream_mode@@QBD@Z 004344d3 f i libucrt:openfile.obj
 0001:00033787       ?__acrt_stdio_parse_mode_D@@YA_NAAU__acrt_stdio_stream_mode@@@Z 00434787 f i libucrt:openfile.obj
 0001:000337a2       ?__acrt_stdio_parse_mode_T@@YA_NAAU__acrt_stdio_stream_mode@@@Z 004347a2 f i libucrt:openfile.obj
 0001:000337c1       ?__acrt_stdio_parse_mode_b@@YA_NAAU__acrt_stdio_stream_mode@@@Z 004347c1 f i libucrt:openfile.obj
 0001:000337e1       ?__acrt_stdio_parse_mode_c@@YA_NAAU__acrt_stdio_stream_mode@@AA_N@Z 004347e1 f i libucrt:openfile.obj
 0001:00033803       ?__acrt_stdio_parse_mode_n@@YA_NAAU__acrt_stdio_stream_mode@@AA_N@Z 00434803 f i libucrt:openfile.obj
 0001:00033825       ?__acrt_stdio_parse_mode_plus@@YA_NAAU__acrt_stdio_stream_mode@@AA_N@Z 00434825 f i libucrt:openfile.obj
 0001:0003385b       ?__acrt_stdio_parse_mode_t@@YA_NAAU__acrt_stdio_stream_mode@@@Z 0043485b f i libucrt:openfile.obj
 0001:0003387b       ?__acrt_stdio_parse_mode_x@@YA_NAAU__acrt_stdio_stream_mode@@@Z 0043487b f i libucrt:openfile.obj
 0001:0003389b       __openfile                 0043489b f   libucrt:openfile.obj
 0001:00033928       __close                    00434928 f   libucrt:close.obj
 0001:000339b7       __close_nolock             004349b7 f   libucrt:close.obj
 0001:00033a53       ___acrt_stdio_free_buffer_nolock 00434a53 f   libucrt:_freebuf.obj
 0001:00033c5e       ___acrt_stdio_flush_nolock 00434c5e f   libucrt:fflush.obj
 0001:00033cc3       __fflush_nolock            00434cc3 f   libucrt:fflush.obj
 0001:00033d0b       __flushall                 00434d0b f   libucrt:fflush.obj
 0001:00033eb9       __mbstowcs_s_l             00434eb9 f   libucrt:mbstowcs.obj
 0001:00033f9b       _mbstowcs_s                00434f9b f   libucrt:mbstowcs.obj
 0001:00034264       __wcstombs_s_l             00435264 f   libucrt:wcstombs.obj
 0001:00034412       ___acrt_GetLocaleInfoA     00435412 f   libucrt:getlocaleinfoa.obj
 0001:000345c4       ___acrt_GetStringTypeA     004355c4 f   libucrt:getstringtypea.obj
 0001:000346c9       __realloc_base             004356c9 f   libucrt:realloc_base.obj
 0001:00034732       __fpclass                  00435732 f   libucrt:ieeemisc.obj
 0001:000347d6       ___acrt_initialize_sse2    004357d6 f   libucrt:mathfcns.obj
 0001:000347f0       __CIpow_pentium4           004357f0 f   libucrt:pow_pentium4.obj
 0001:00034809       __pow_pentium4             00435809     libucrt:pow_pentium4.obj
 0001:00035330       __fFEXP                    00436330 f   libucrt:87tran.obj
 0001:00035387       __rtinfpopse               00436387     libucrt:87tran.obj
 0001:00035389       __rtinfnpopse              00436389     libucrt:87tran.obj
 0001:00035399       __fFLN                     00436399     libucrt:87tran.obj
 0001:0003544e       __rtinfpop                 0043644e     libucrt:87tran.obj
 0001:00035450       __rtinfnpop                00436450     libucrt:87tran.obj
 0001:00035460       __rtforexpinf              00436460 f   libucrt:87tran.obj
 0001:0003546d       __ffexpm1                  0043646d     libucrt:87tran.obj
 0001:00035520       __trandisp1                00436520 f   libucrt:87disp.obj
 0001:00035595       __trandisp2                00436595 f   libucrt:87disp.obj
 0001:0003562f       __rttospopde               0043662f     libucrt:87disp.obj
 0001:00035634       __rttospop                 00436634     libucrt:87disp.obj
 0001:00035640       __rtnospop                 00436640 f   libucrt:87disp.obj
 0001:00035650       __rttosnpop                00436650 f   libucrt:87disp.obj
 0001:00035651       __rtnospopde               00436651     libucrt:87disp.obj
 0001:00035658       __rtzeropop                00436658     libucrt:87disp.obj
 0001:0003565a       __rtzeronpop               0043665a     libucrt:87disp.obj
 0001:00035660       __rtzerospop               00436660 f   libucrt:87disp.obj
 0001:0003566d       __rtonepop                 0043666d     libucrt:87disp.obj
 0001:00035670       __rtonenpop                00436670 f   libucrt:87disp.obj
 0001:00035680       __tosnan1                  00436680 f   libucrt:87disp.obj
 0001:000356b0       __nosnan2                  004366b0 f   libucrt:87disp.obj
 0001:000356c0       __tosnan2                  004366c0 f   libucrt:87disp.obj
 0001:000356f0       __nan2                     004366f0 f   libucrt:87disp.obj
 0001:00035730       __rtindfpop                00436730 f   libucrt:87disp.obj
 0001:00035732       __rtindfnpop               00436732     libucrt:87disp.obj
 0001:00035743       __rttosnpopde              00436743     libucrt:87disp.obj
 0001:00035750       __rtatan2inf               00436750 f   libucrt:87disp.obj
 0001:0003576d       __rtchsifneg               0043676d     libucrt:87disp.obj
 0001:00035780       __startTwoArgErrorHandling 00436780 f   libucrt:genexcep.obj
 0001:00035797       __startOneArgErrorHandling 00436797 f   libucrt:genexcep.obj
 0001:000357e0       __twoToTOS                 004367e0 f   libucrt:common.obj
 0001:000357f5       __load_CW                  004367f5 f   libucrt:common.obj
 0001:0003580c       __convertTOStoQNaN         0043680c f   libucrt:common.obj
 0001:00035825       __fload_withFB             00436825 f   libucrt:common.obj
 0001:00035868       __checkTOS_withFB          00436868 f   libucrt:common.obj
 0001:0003587e       __fast_exit                0043687e f   libucrt:common.obj
 0001:0003588b       __math_exit                0043688b f   libucrt:common.obj
 0001:000358b5       __check_overflow_exit      004368b5 f   libucrt:common.obj
 0001:000358c9       __check_range_exit         004368c9 f   libucrt:common.obj
 0001:0003596c       __d_inttype                0043696c f   libucrt:powhlp.obj
 0001:000359d6       __powhlp                   004369d6 f   libucrt:powhlp.obj
 0001:00035bc5       ___acrt_get_sigabrt_handler 00436bc5 f   libucrt:signal.obj
 0001:00035bee       ___acrt_initialize_signal_handlers 00436bee f   libucrt:signal.obj
 0001:00035c0c       ___fpecode                 00436c0c f   libucrt:signal.obj
 0001:00035c15       _raise                     00436c15 f   libucrt:signal.obj
 0001:00035dfc       ___acrt_WideCharToMultiByte 00436dfc f   libucrt:widechartomultibyte.obj
 0001:00035ea9       __wcsicmp                  00436ea9 f   libucrt:wcsicmp.obj
 0001:00035f37       __wcsicmp_l                00436f37 f   libucrt:wcsicmp.obj
 0001:00036014       ___acrt_initialize_timeset 00437014 f   libucrt:timeset.obj
 0001:0003603f       __isleadbyte_l             0043703f f i libucrt:_wctype.obj
 0001:0003665f       ?allocate@?$__crt_win32_buffer@DU__crt_win32_buffer_internal_dynamic_resizing@@@@QAEHI@Z 0043765f f i libucrt:argv_wildcards.obj
 0001:00036722       ___acrt_expand_narrow_argv_wildcards 00437722 f   libucrt:argv_wildcards.obj
 0001:000367f4       ___acrt_GetModuleFileNameA 004377f4 f   libucrt:getmodulefilenamea.obj
 0001:00036da7       ___acrt_initialize_multibyte 00437da7 f   libucrt:mbctype.obj
 0001:00036def       ___acrt_update_thread_multibyte_data 00437def f   libucrt:mbctype.obj
 0001:00036e02       __setmbcp_nolock           00437e02 f   libucrt:mbctype.obj
 0001:00037050       __ismbblead                00438050 f   libucrt:ismbbyte.obj
 0001:00037068       ___acrt_initialize_command_line 00438068 f   libucrt:argv_data.obj
 0001:000370b8       ___dcrt_get_narrow_environment_from_os 004380b8 f   libucrt:get_environment_from_os.obj
 0001:0003713e       ___acrt_initialize_heap    0043813e f   libucrt:heap_handle.obj
 0001:0003714f       ___acrt_uninitialize_heap  0043814f f   libucrt:heap_handle.obj
 0001:00037159       ___acrt_execute_initializers 00438159 f   libucrt:shared_initialization.obj
 0001:000371c1       ___acrt_execute_uninitializers 004381c1 f   libucrt:shared_initialization.obj
 0001:000371f2       _wcscat_s                  004381f2 f   libucrt:wcscat_s.obj
 0001:00037332       _wcsncpy_s                 00438332 f   libucrt:wcsncpy_s.obj
 0001:0003733d       ___acrt_lowio_create_handle_array 0043833d f   libucrt:osfinfo.obj
 0001:000373ba       ___acrt_lowio_destroy_handle_array 004383ba f   libucrt:osfinfo.obj
 0001:000373ef       ___acrt_lowio_ensure_fh_exists 004383ef f   libucrt:osfinfo.obj
 0001:00037483       ___acrt_lowio_lock_fh      00438483 f   libucrt:osfinfo.obj
 0001:000374a6       ___acrt_lowio_set_os_handle 004384a6 f   libucrt:osfinfo.obj
 0001:0003753a       ___acrt_lowio_unlock_fh    0043853a f   libucrt:osfinfo.obj
 0001:0003755d       __alloc_osfhnd             0043855d f   libucrt:osfinfo.obj
 0001:00037666       __free_osfhnd              00438666 f   libucrt:osfinfo.obj
 0001:000376f7       __get_osfhandle            004386f7 f   libucrt:osfinfo.obj
 0001:00037761       ___acrt_locale_free_monetary 00438761 f   libucrt:initmon.obj
 0001:0003785f       ___acrt_locale_initialize_monetary 0043885f f   libucrt:initmon.obj
 0001:00037c18       ___acrt_locale_free_numeric 00438c18 f   libucrt:initnum.obj
 0001:00037c81       ___acrt_locale_initialize_numeric 00438c81 f   libucrt:initnum.obj
 0001:00038148       ___acrt_locale_free_time   00439148 f   libucrt:inittime.obj
 0001:0003822c       ___acrt_locale_initialize_time 0043922c f   libucrt:inittime.obj
 0001:000382a7       _wcscspn                   004392a7 f   libucrt:wcscspn.obj
 0001:00038302       _wcspbrk                   00439302 f   libucrt:wcspbrk.obj
 0001:00038350       ___acrt_add_locale_ref     00439350 f   libucrt:locale_refcounting.obj
 0001:000383cd       ___acrt_free_locale        004393cd f   libucrt:locale_refcounting.obj
 0001:00038517       ___acrt_locale_add_lc_time_reference 00439517 f   libucrt:locale_refcounting.obj
 0001:00038540       ___acrt_locale_free_lc_time_if_unreferenced 00439540 f   libucrt:locale_refcounting.obj
 0001:00038571       ___acrt_locale_release_lc_time_reference 00439571 f   libucrt:locale_refcounting.obj
 0001:0003859a       ___acrt_release_locale_ref 0043959a f   libucrt:locale_refcounting.obj
 0001:0003861b       ___acrt_update_thread_locale_data 0043961b f   libucrt:locale_refcounting.obj
 0001:00038692       __updatetlocinfoEx_nolock  00439692 f   libucrt:locale_refcounting.obj
 0001:00038dec       ___acrt_get_qualified_locale 00439dec f   libucrt:get_qualified_locale.obj
 0001:0003975b       ___acrt_get_qualified_locale_downlevel 0043a75b f   libucrt:getqloc_downlevel.obj
 0001:000399f9       __clearfp                  0043a9f9 f   libucrt:ieee87.obj
 0001:00039ad9       __control87                0043aad9 f   libucrt:ieee87.obj
 0001:00039e76       __msize_base               0043ae76 f   libucrt:msize.obj
 0001:00039ed5       ?__mbrtowc_utf8@__crt_mbstring@@YAIPA_WPBDIPAU_Mbstatet@@@Z 0043aed5 f   libucrt:mbrtowc.obj
 0001:00039f17       ?__mbsrtowcs_utf8@__crt_mbstring@@YAIPA_WPAPBDIPAU_Mbstatet@@@Z 0043af17 f   libucrt:mbrtowc.obj
 0001:0003a014       ?__c32rtomb_utf8@__crt_mbstring@@YAIPAD_UPAU_Mbstatet@@@Z 0043b014 f   libucrt:c32rtomb.obj
 0001:0003a0c3       ?return_illegal_sequence@__crt_mbstring@@YAIPAU_Mbstatet@@@Z 0043b0c3 f i libucrt:c32rtomb.obj
 0001:0003a0e2       _c32rtomb                  0043b0e2 f   libucrt:c32rtomb.obj
 0001:0003a0ed       ___acrt_fp_strflt_to_string 0043b0ed f   libucrt:_fptostr.obj
 0001:0003a1ad       ___acrt_fltout             0043b1ad f   libucrt:cfout.obj
 0001:0003b771       ___acrt_stdio_flush_and_write_narrow_nolock 0043c771 f   libucrt:_flsbuf.obj
 0001:0003b77c       __fcloseall                0043c77c f   libucrt:closeall.obj
 0001:0003b81d       __isatty                   0043c81d f   libucrt:isatty.obj
 0001:0003b927       ___acrt_DownlevelLCIDToLocaleName 0043c927 f   libucrt:lcidtoname_downlevel.obj
 0001:0003b9d1       ___acrt_DownlevelLocaleNameToLCID 0043c9d1 f   libucrt:lcidtoname_downlevel.obj
 0001:0003b9fd       ___acrt_GetStringTypeW     0043c9fd f   libucrt:getstringtypew.obj
 0001:0003ba16       __wcsnicmp                 0043ca16 f   libucrt:wcsnicmp.obj
 0001:0003bac7       __wcsnicmp_l               0043cac7 f   libucrt:wcsnicmp.obj
 0001:0003bbc4       __strnicmp                 0043cbc4 f   libucrt:strnicmp.obj
 0001:0003bc31       __strnicmp_l               0043cc31 f   libucrt:strnicmp.obj
 0001:0003c2b1       __sopen_nolock             0043d2b1 f   libucrt:open.obj
 0001:0003c321       __sopen_s                  0043d321 f   libucrt:open.obj
 0001:0003c341       __wsopen_nolock            0043d341 f   libucrt:open.obj
 0001:0003c705       __commit                   0043d705 f   libucrt:commit.obj
 0001:0003cf09       __write                    0043df09 f   libucrt:write.obj
 0001:0003cff1       __write_nolock             0043dff1 f   libucrt:write.obj
 0001:0003d1d5       ?__wcsrtombs_utf8@__crt_mbstring@@YAIPADPAPB_WIPAU_Mbstatet@@@Z 0043e1d5 f   libucrt:wcrtomb.obj
 0001:0003d388       _strncpy_s                 0043e388 f   libucrt:strncpy_s.obj
 0001:0003d6a4       ___acrt_fenv_get_control   0043e6a4 f   libucrt:_fenvutils.obj
 0001:0003d726       ___acrt_fenv_get_status    0043e726 f   libucrt:_fenvutils.obj
 0001:0003d7e0       ___acrt_fenv_set_control   0043e7e0 f   libucrt:_fenvutils.obj
 0001:0003d84a       ___acrt_fenv_set_status    0043e84a f   libucrt:_fenvutils.obj
 0001:0003d943       ___libm_error_support      0043e943 f   libucrt:libm_error.obj
 0001:0003db39       __87except                 0043eb39 f   libucrt:87except.obj
 0001:0003dc43       __frnd                     0043ec43 f   libucrt:frnd.obj
 0001:0003dc59       __towlower_l               0043ec59 f   libucrt:towlower.obj
 0001:0003dd70       _qsort                     0043ed70 f   libucrt:qsort.obj
 0001:0003e1c0       _strpbrk                   0043f1c0 f   libucrt:strpbrk.obj
 0001:0003e200       __mbsdec                   0043f200 f   libucrt:mbsdec.obj
 0001:0003e217       __mbsdec_l                 0043f217 f   libucrt:mbsdec.obj
 0001:0003e3dc       __itow_s                   0043f3dc f   libucrt:xtoa.obj
 0001:0003e411       ?__mbrtoc32_utf8@__crt_mbstring@@YAIPA_UPBDIPAU_Mbstatet@@@Z 0043f411 f   libucrt:mbrtoc32.obj
 0001:0003e5c5       _fegetenv                  0043f5c5 f   libucrt:fegetenv.obj
 0001:0003e5e2       _fesetenv                  0043f5e2 f   libucrt:fesetenv.obj
 0001:0003e62f       _feholdexcept              0043f62f f   libucrt:feholdexcept.obj
 0001:0003e680       __CIlog10                  0043f680 f   libucrt:log10_impl.obj
 0001:0003e6bb       __CIlog10_default          0043f6bb f   libucrt:log10_impl.obj
 0001:0003e6cf       __log10_default            0043f6cf     libucrt:log10_impl.obj
 0001:0003e790       _ceil                      0043f790 f   libucrt:ceil_pentium4.obj
 0001:0003e7d0       __ceil_pentium4            0043f7d0 f   libucrt:ceil_pentium4.obj
 0001:0003ea2d       __lseeki64                 0043fa2d f   libucrt:lseek.obj
 0001:0003ea48       __lseeki64_nolock          0043fa48 f   libucrt:lseek.obj
 0001:0003ea63       ___acrt_stdio_allocate_buffer_nolock 0043fa63 f   libucrt:_getbuf.obj
 0001:0003eac0       ___ascii_strnicmp          0043fac0 f   libucrt:_strnicm.obj
 0001:0003eb21       ??0__crt_seek_guard@@QAE@H_J@Z 0043fb21 f i libucrt:chsize.obj
 0001:0003eb6e       __chsize_nolock            0043fb6e f   libucrt:chsize.obj
 0001:0003f1d8       __read_nolock              004401d8 f   libucrt:read.obj
 0001:0003f58a       __putwch_nolock            0044058a f   libucrt:putwch.obj
 0001:0003f5be       ?__c16rtomb_utf8@__crt_mbstring@@YAIPAD_SPAU_Mbstatet@@@Z 004405be f   libucrt:c16rtomb.obj
 0001:0003f65a       ___acrt_LCMapStringW       0044065a f   libucrt:lcmapstringw.obj
 0001:0003f6a0       __CIlog10_pentium4         004406a0 f   libucrt:log10_pentium4.obj
 0001:0003f6b8       __log10_pentium4           004406b8     libucrt:log10_pentium4.obj
 0001:0003f930       __ceil_default             00440930 f   libucrt:ceil.obj
 0001:0003fa06       ___dcrt_lowio_ensure_console_output_initialized 00440a06 f   libucrt:initcon.obj
 0001:0003fa25       ___dcrt_terminate_console_output 00440a25 f   libucrt:initcon.obj
 0001:0003fa3c       ___dcrt_write_console      00440a3c f   libucrt:initcon.obj
 0001:0003fa91       _IsProcessorFeaturePresent@4 00440a91 f   kernel32:KERNEL32.dll
 0001:0003faa0       __FindPESection            00440aa0 f   LIBCMT:pesect.obj
 0001:0003faf0       __IsNonwritableInCurrentImage 00440af0 f   LIBCMT:pesect.obj
 0001:0003fbb0       __ValidateImageBase        00440bb0 f   LIBCMT:pesect.obj
 0001:0003fbf0       __allshl                   00440bf0 f   LIBCMT:llshl.obj
 0001:0003fc10       __aullshr                  00440c10 f   LIBCMT:ullshr.obj
 0001:0003fc30       __alldvrm                  00440c30 f   LIBCMT:lldvrm.obj
 0001:0003fd10       __ftol2_sse                00440d10 f   LIBCMT:ftol2.obj
 0001:0003fd19       __ftol2_pentium4           00440d19 f   LIBCMT:ftol2.obj
 0001:0003fd2c       __ftol2_sse_excpt          00440d2c f   LIBCMT:ftol2.obj
 0001:0003fd50       __ftol2                    00440d50 f   LIBCMT:ftol2.obj
 0001:0003fdd0       _strrchr                   00440dd0 f   libvcruntime:strrchr.obj
 0001:0003ff07       _wcschr                    00440f07 f   libvcruntime:wcschr.obj
 0001:0003ffd0       ?CheckIPAddress@MonitorIPs@@IAEXXZ 00440fd0 f   MonitorIPs.obj
 0001:00040390       ?Initialize@MonitorIPs@@QAE_NXZ 00441390 f   MonitorIPs.obj
 0001:00040470       _WinMain@16                00441470 f   SysStatus.obj
 0001:000413a0       ?GetAppVersion@@YA?AV?$basic_string@DU?$char_traits@D@std@@V?$allocator@D@2@@std@@XZ 004423a0 f   SysStatus.obj
 0001:000415b0       ?NetworkAliveType@@YA?AV?$basic_string@DU?$char_traits@D@std@@V?$allocator@D@2@@std@@K@Z 004425b0 f   SysStatus.obj
 0001:00041800       ?AdjustProcessRights@@YAXXZ 00442800 f   SysStatus.obj
 0001:00041c50       ?ModifyPrivilege@@YA_NPBD_N@Z 00442c50 f   SysStatus.obj
 0001:00041e70       ?GetWMIStatus@@YAXXZ       00442e70 f   SysStatus.obj
 0001:000421d0       ?ThreadWMISystemVolumes@@YGIPAX@Z 004431d0 f   SysStatus.obj
 0001:00042270       ?ThreadWMIHardwareSensor@@YGIPAX@Z 00443270 f   SysStatus.obj
 0001:00042350       ?ThreadWMISystemPerformance@@YGIPAX@Z 00443350 f   SysStatus.obj
 0001:000424a0       ?GetSystemStatusChanges@@YAXXZ 004434a0 f   SysStatus.obj
 0001:000428d0       ?GetSystemStatus@@YAXXZ    004438d0 f   SysStatus.obj
 0001:00042d20       ?GetSystemDetails@@YAXXZ   00443d20 f   SysStatus.obj
 0001:00043270       ?GetSystemIPAddresses@@YAXPAVMonitorIPs@@_N@Z 00444270 f   SysStatus.obj
 0001:00043410       ?PrinterInfo@@YGIPAX@Z     00444410 f   SysStatus.obj
 0001:00046230       ?GetMediaTypeList@@YAPAU_ptrdata_info_list_@@PBD0@Z 00447230 f   SysStatus.obj
 0001:00046640       ?GetPaperList@@YAPAU_ptrdata_info_list_@@PBD0PBU_devicemodeA@@@Z 00447640 f   SysStatus.obj
 0001:00046b70       ?GetDeviceMode@@YAPAU_devicemodeA@@PBD0@Z 00447b70 f   SysStatus.obj
 0001:00046bd0       ?GetBinList@@YAPAU_ptrdata_info_list_@@PBD0@Z 00447bd0 f   SysStatus.obj
 0001:00046fb0       ?GetPrintersList@@YAHXZ    00447fb0 f   SysStatus.obj
 0001:000472c0       ?PerformanceInfo@@YGIPAX@Z 004482c0 f   SysStatus.obj
 0001:000474a0       ?DeviceDrivers@@YGIPAX@Z   004484a0 f   SysStatus.obj
 0001:00047740       ?SystemLogicalProcessorInforamtion@@YGIPAX@Z 00448740 f   SysStatus.obj
 0001:00047a90       ?CountSetBits@@YAKK@Z      00448a90 f   SysStatus.obj
 0001:00047ae0       ?SystemDirs@@YGIPAX@Z      00448ae0 f   SysStatus.obj
 0001:00047c80       ?LogicalDrives@@YGIPAX@Z   00448c80 f   SysStatus.obj
 0001:00047fa0       ?DriverTypeName@@YAPADK@Z  00448fa0 f   SysStatus.obj
 0001:00047ff0       ?SystemTimes@@YGIPAX@Z     00448ff0 f   SysStatus.obj
 0001:00048350       ?SystemMemory@@YGIPAX@Z    00449350 f   SysStatus.obj
 0001:00048590       ?OSInfo@@YGIPAX@Z          00449590 f   SysStatus.obj
 0001:000487c0       ?SystemInfo@@YGIPAX@Z      004497c0 f   SysStatus.obj
 0001:00048a30       ?CurrentProcessorNumber@@YAKXZ 00449a30 f   SysStatus.obj
 0001:00048a70       ?ProcessorSpeed@@YANXZ     00449a70 f   SysStatus.obj
 0001:00048b70       ?HwProfile@@YGIPAX@Z       00449b70 f   SysStatus.obj
 0001:00048ce0       ?ProcessInfo@@YGIPAX@Z     00449ce0 f   SysStatus.obj
 0001:00049380       ?ThreadUSB@@YGIPAX@Z       0044a380 f   SysStatus.obj
 0001:000494b0       ?ThreadMessage@@YGIPAX@Z   0044a4b0 f   SysStatus.obj
 0001:00049990       ?WndProcMessage@@YGJPAUHWND__@@IIJ@Z 0044a990 f   SysStatus.obj
 0001:0004a130       ?PowerManagementEvent@@YAPBDI@Z 0044b130 f   SysStatus.obj
 0001:0004a180       ?EndPendingThread@@YAXPAX@Z 0044b180 f   SysStatus.obj
 0001:0004a220       ?StartThread@@YA_NABV?$basic_string@DU?$char_traits@D@std@@V?$allocator@D@2@@std@@P6GIPAX@Z1KPAPAX@Z 0044b220 f   SysStatus.obj
 0001:0004a490       ?SetThreadName@@YAXPBDK@Z  0044b490 f   SysStatus.obj
 0001:0004a540       ?LogElapsedTime@@YAXK_KPBD@Z 0044b540 f   SysStatus.obj
 0001:0004a650       ?CalcElapsedTime@@YAX_KAA_KAAN1@Z 0044b650 f   SysStatus.obj
 0001:0004a6a0       ?SysTick@@YA_KXZ           0044b6a0 f   SysStatus.obj
 0001:0004a6e0       ?GetWinVer@@YAKXZ          0044b6e0 f   SysStatus.obj
 0001:0004a790       ?WideStrToMultiStr@@YAPADPA_W@Z 0044b790 f   SysStatus.obj
 0001:0004a7f0       ?AppUnhandledExceptionFilter@@YGJPAU_EXCEPTION_POINTERS@@@Z 0044b7f0 f   SysStatus.obj
 0001:0004a820       ?CreateMiniDump@@YAXPAU_EXCEPTION_POINTERS@@@Z 0044b820 f   SysStatus.obj
 0001:0004aa60       ?RedirectSetUnhandledExceptionFilter@@YAHXZ 0044ba60 f   SysStatus.obj
 0001:0004ab00       ?ReportAttemptsToSetUnhandledExceptionFilter@@YGP6GJPAU_EXCEPTION_POINTERS@@@ZP6GJ0@Z@Z 0044bb00 f   SysStatus.obj
 0001:0004ab20       ?parseNullTerminatedStrings@@YA?AV?$vector@V?$basic_string@DU?$char_traits@D@std@@V?$allocator@D@2@@std@@V?$allocator@V?$basic_string@DU?$char_traits@D@std@@V?$allocator@D@2@@std@@@2@@std@@PBD@Z 0044bb20 f   SysStatus.obj
 0001:0004aca0       ?GUID2Str@@YA?AV?$basic_string@DU?$char_traits@D@std@@V?$allocator@D@2@@std@@ABU_GUID@@@Z 0044bca0 f   SysStatus.obj
 0001:0004ae60       ?USBTraceInfo@@YAXPAD0@Z   0044be60 f   SysStatus.obj
 0001:0004b0f0       ?CheckLogFileSize@@YAXK@Z  0044c0f0 f   SysStatus.obj
 0001:0004b440       ?DebugStringToFile@@YAXPADH@Z 0044c440 f   SysStatus.obj
 0001:0004b690       ?_thGetInt@@YAHPAH@Z       0044c690 f   SysStatus.obj
 0001:0004b700       ?_thSetInt@@YAXPAHH@Z      0044c700 f   SysStatus.obj
 0001:0004b780       ?Log@@YAXHHPBDZZ           0044c780 f   SysStatus.obj
 0001:0004b9c0       ?UnknownDescriptor@USB@@IAEXPAU_USB_COMMON_DESCRIPTOR@@@Z 0044c9c0 f   USB.obj
 0001:0004bb00       ?StringDescriptor@USB@@IAEXEPAU_STRING_DESCRIPTOR_NODE@@@Z 0044cb00 f   USB.obj
 0001:0004bb70       ?HidDescriptor@USB@@IAEXPAU_USB_HID_DESCRIPTOR@@@Z 0044cb70 f   USB.obj
 0001:0004bc30       ?EndpointDescriptor@USB@@IAEXPAU_USB_ENDPOINT_DESCRIPTOR@@@Z 0044cc30 f   USB.obj
 0001:0004bd30       ?InterfaceDescriptor@USB@@IAEXPAU_USB_INTERFACE_DESCRIPTOR@@PAU_STRING_DESCRIPTOR_NODE@@@Z 0044cd30 f   USB.obj
 0001:0004be90       ?ConfigurationDescriptor@USB@@IAEXPAU_USB_CONFIGURATION_DESCRIPTOR@@PAU_STRING_DESCRIPTOR_NODE@@@Z 0044ce90 f   USB.obj
 0001:0004bf80       ?ConfigDesc@USB@@IAEXPAU_USB_CONFIGURATION_DESCRIPTOR@@PAU_STRING_DESCRIPTOR_NODE@@@Z 0044cf80 f   USB.obj
 0001:0004c4f0       ?PipeInfo@USB@@IAEXKPAU_USB_PIPE_INFO@@@Z 0044d4f0 f   USB.obj
 0001:0004c630       ?ConnectionInfo@USB@@IAEXPAU_USB_NODE_CONNECTION_INFORMATION_EX@@PAU_STRING_DESCRIPTOR_NODE@@@Z 0044d630 f   USB.obj
 0001:0004c940       ?HubInfo@USB@@IAEXPAU_USB_HUB_INFORMATION@@@Z 0044d940 f   USB.obj
 0001:0004ca70       ?GetConfigDescriptor@USB@@IAEPAU_USB_DESCRIPTOR_REQUEST@@PAXKE@Z 0044da70 f   USB.obj
 0001:0004cca0       ?GetStringDescriptors@USB@@IAEPAU_STRING_DESCRIPTOR_NODE@@PAXKEKPAGPAU2@@Z 0044dca0 f   USB.obj
 0001:0004d060       ?GetHCDDriverKeyName@USB@@IAEPADPAX@Z 0044e060 f   USB.obj
 0001:0004d150       ?GetRootHubName@USB@@IAEPADPAX@Z 0044e150 f   USB.obj
 0001:0004d240       ?EnumerateHub@USB@@IAEXPADPAU_USB_NODE_CONNECTION_INFORMATION_EX@@PAU_USB_DESCRIPTOR_REQUEST@@PAU_STRING_DESCRIPTOR_NODE@@0@Z 0044e240 f   USB.obj
 0001:0004d5f0       ?DriverNameToDeviceDesc@USB@@IAEPADPAD@Z 0044e5f0 f   USB.obj
 0001:0004d7c0       ?EnumerateHubPorts@USB@@IAEXPAXK@Z 0044e7c0 f   USB.obj
 0001:0004dfd0       ?GetExternalHubName@USB@@IAEPADPAXK@Z 0044efd0 f   USB.obj
 0001:0004e0d0       ?GetDriverKeyName@USB@@IAEPADPAXK@Z 0044f0d0 f   USB.obj
 0001:0004e1d0       ?GetAllStringDescriptors@USB@@IAEPAU_STRING_DESCRIPTOR_NODE@@PAXKPAU_USB_DEVICE_DESCRIPTOR@@PAU_USB_CONFIGURATION_DESCRIPTOR@@@Z 0044f1d0 f   USB.obj
 0001:0004e320       ?AreThereStringDescriptors@USB@@IAEHPAU_USB_DEVICE_DESCRIPTOR@@PAU_USB_CONFIGURATION_DESCRIPTOR@@@Z 0044f320 f   USB.obj
 0001:0004e440       ?GetStringDescriptor@USB@@IAEPAU_STRING_DESCRIPTOR_NODE@@PAXKEG@Z 0044f440 f   USB.obj
 0001:0004e760       ?USBDevicesDetails@USB@@QAEXXZ 0044f760 f   USB.obj
 0001:0004e930       ?EnumerateUSB@USB@@QAEXXZ  0044f930 f   USB.obj
 0001:0004ee70       ?ThreadWMIClass@@YGIPAX@Z  0044fe70 f   WMI.obj
 0001:0004f6d0       ?WMI@@YAXPBDPAK@Z          004506d0 f   WMI.obj
 0001:0004f6e0       ?WMIex@@YA_NPBDPAVxmlwriter@@PAK@Z 004506e0 f   WMI.obj
 0001:00052040       ?ThreadWMI@@YGIPAX@Z       00453040 f   WMI.obj
 0001:00053c60       ?WMISystemVolumes@@YAXXZ   00454c60 f   WMI.obj
 0001:00053cc0       ?WMIHardwareSensor@@YAXXZ  00454cc0 f   WMI.obj
 0001:00053d60       ?WMISystemPerformance@@YAXXZ 00454d60 f   WMI.obj
 0001:00053e80       ?Write@xmlwriter@@AAAXHPBDZZ 00454e80 f   xmlwriter.obj
 0001:00053f50       ?validateValue@xmlwriter@@AAE?AV?$basic_string@DU?$char_traits@D@std@@V?$allocator@D@2@@std@@ABV23@@Z 00454f50 f   xmlwriter.obj
 0001:00054110       ?validateTagName@xmlwriter@@AAE?AV?$basic_string@DU?$char_traits@D@std@@V?$allocator@D@2@@std@@ABV23@@Z 00455110 f   xmlwriter.obj
 0001:00054260       ?AddComment@xmlwriter@@QAEXABV?$basic_string@DU?$char_traits@D@std@@V?$allocator@D@2@@std@@@Z 00455260 f   xmlwriter.obj
 0001:000542d0       ?CloseAlltags@xmlwriter@@QAEXXZ 004552d0 f   xmlwriter.obj
 0001:00054390       ?CloseLasttag@xmlwriter@@QAEXXZ 00455390 f   xmlwriter.obj
 0001:00054430       ?Createtag@xmlwriter@@QAEXABV?$basic_string@DU?$char_traits@D@std@@V?$allocator@D@2@@std@@@Z 00455430 f   xmlwriter.obj
 0001:000547f0       ?CreateChild@xmlwriter@@QAEXABV?$basic_string@DU?$char_traits@D@std@@V?$allocator@D@2@@std@@0@Z 004557f0 f   xmlwriter.obj
 0001:00054bd0       ??1xmlwriter@@QAE@XZ       00455bd0 f   xmlwriter.obj
 0001:00054da0       ??0xmlwriter@@QAE@ABV?$basic_string@DU?$char_traits@D@std@@V?$allocator@D@2@@std@@P6AXPADH@Z@Z 00455da0 f   xmlwriter.obj
 0001:00054eb0       __alldiv                   00455eb0 f   LIBCMT:lldiv.obj
 0001:00054f60       __ftoui3                   00455f60 f   LIBCMT:ftol3.obj
 0001:00054f6f       __ftoul3                   00455f6f f   LIBCMT:ftol3.obj
 0001:00054f7e       __ftol3                    00455f7e f   LIBCMT:ftol3.obj
 0001:00054f8b       __ftol3_NaN                00455f8b f   LIBCMT:ftol3.obj
 0001:00054fa3       __ftol3_work               00455fa3 f   LIBCMT:ftol3.obj
 0001:00055029       __ftol3_common             00456029 f   LIBCMT:ftol3.obj
 0001:000550eb       __ftol3_arg_error          004560eb f   LIBCMT:ftol3.obj
 0001:000550fd       __ftol3_except             004560fd f   LIBCMT:ftol3.obj
 0001:00055141       __dtoui3                   00456141 f   LIBCMT:ftol3.obj
 0001:00055150       __dtoul3                   00456150 f   LIBCMT:ftol3.obj
 0001:0005515f       __dtol3                    0045615f f   LIBCMT:ftol3.obj
 0001:0005516c       __dtol3_NaN                0045616c f   LIBCMT:ftol3.obj
 0001:00055189       __dtol3_work               00456189 f   LIBCMT:ftol3.obj
 0001:00055270       __ultod3                   00456270 f   LIBCMT:ftol3.obj
 0001:000552b0       __ltod3                    004562b0 f   LIBCMT:ftol3.obj
 0002:00000000       __imp__BuildTrusteeWithSidA@8 0045c000     advapi32:ADVAPI32.dll
 0002:00000004       __imp__SetSecurityDescriptorDacl@16 0045c004     advapi32:ADVAPI32.dll
 0002:00000008       __imp__InitializeSecurityDescriptor@8 0045c008     advapi32:ADVAPI32.dll
 0002:0000000c       __imp__SetEntriesInAclA@16 0045c00c     advapi32:ADVAPI32.dll
 0002:00000010       __imp__AdjustTokenPrivileges@24 0045c010     advapi32:ADVAPI32.dll
 0002:00000014       __imp__GetCurrentHwProfileA@4 0045c014     advapi32:ADVAPI32.dll
 0002:00000018       __imp__LookupPrivilegeValueA@12 0045c018     advapi32:ADVAPI32.dll
 0002:0000001c       __imp__CreateWellKnownSid@16 0045c01c     advapi32:ADVAPI32.dll
 0002:00000020       __imp__OpenProcessToken@12 0045c020     advapi32:ADVAPI32.dll
 0002:00000024       __imp__SetSecurityInfo@28  0045c024     advapi32:ADVAPI32.dll
 0002:00000028       __imp__GetSecurityInfo@32  0045c028     advapi32:ADVAPI32.dll
 0002:0000002c       \177ADVAPI32_NULL_THUNK_DATA 0045c02c     advapi32:ADVAPI32.dll
 0002:00000030       __imp__CreateICA@16        0045c030     gdi32:GDI32.dll
 0002:00000034       __imp__GetDeviceCaps@8     0045c034     gdi32:GDI32.dll
 0002:00000038       __imp__DeleteDC@4          0045c038     gdi32:GDI32.dll
 0002:0000003c       __imp__GetCurrentObject@8  0045c03c     gdi32:GDI32.dll
 0002:00000040       __imp__GetObjectA@12       0045c040     gdi32:GDI32.dll
 0002:00000044       __imp__GetLayout@4         0045c044     gdi32:GDI32.dll
 0002:00000048       \177GDI32_NULL_THUNK_DATA  0045c048     gdi32:GDI32.dll
 0002:0000004c       __imp__NotifyAddrChange@8  0045c04c     iphlpapi:IPHLPAPI.DLL
 0002:00000050       __imp__GetIpAddrTable@12   0045c050     iphlpapi:IPHLPAPI.DLL
 0002:00000054       \177IPHLPAPI_NULL_THUNK_DATA 0045c054     iphlpapi:IPHLPAPI.DLL
 0002:00000058       __imp__GetProcessHeap@0    0045c058     kernel32:KERNEL32.dll
 0002:0000005c       __imp__CreateEventA@16     0045c05c     kernel32:KERNEL32.dll
 0002:00000060       __imp__K32EnumDeviceDrivers@12 0045c060     kernel32:KERNEL32.dll
 0002:00000064       __imp__GetLogicalDrives@0  0045c064     kernel32:KERNEL32.dll
 0002:00000068       __imp__WriteProcessMemory@20 0045c068     kernel32:KERNEL32.dll
 0002:0000006c       __imp__VerifyVersionInfoA@16 0045c06c     kernel32:KERNEL32.dll
 0002:00000070       __imp__GetCurrentProcess@0 0045c070     kernel32:KERNEL32.dll
 0002:00000074       __imp__K32GetDeviceDriverFileNameA@12 0045c074     kernel32:KERNEL32.dll
 0002:00000078       __imp__WriteFile@20        0045c078     kernel32:KERNEL32.dll
 0002:0000007c       __imp__OutputDebugStringA@4 0045c07c     kernel32:KERNEL32.dll
 0002:00000080       __imp__GetDriveTypeA@4     0045c080     kernel32:KERNEL32.dll
 0002:00000084       __imp__LoadLibraryExA@12   0045c084     kernel32:KERNEL32.dll
 0002:00000088       __imp__GetSystemTimes@12   0045c088     kernel32:KERNEL32.dll
 0002:0000008c       __imp__SetFilePointer@16   0045c08c     kernel32:KERNEL32.dll
 0002:00000090       __imp__K32GetDeviceDriverBaseNameA@12 0045c090     kernel32:KERNEL32.dll
 0002:00000094       __imp__GetVolumeInformationA@32 0045c094     kernel32:KERNEL32.dll
 0002:00000098       __imp__GetCurrentThreadId@0 0045c098     kernel32:KERNEL32.dll
 0002:0000009c       __imp__GetModuleHandleA@4  0045c09c     kernel32:KERNEL32.dll
 0002:000000a0       __imp__GetSystemWindowsDirectoryA@8 0045c0a0     kernel32:KERNEL32.dll
 0002:000000a4       __imp__OpenProcess@12      0045c0a4     kernel32:KERNEL32.dll
 0002:000000a8       __imp__GetExitCodeThread@8 0045c0a8     kernel32:KERNEL32.dll
 0002:000000ac       __imp__Sleep@4             0045c0ac     kernel32:KERNEL32.dll
 0002:000000b0       __imp__GetTempPathA@8      0045c0b0     kernel32:KERNEL32.dll
 0002:000000b4       __imp__GetDiskFreeSpaceA@20 0045c0b4     kernel32:KERNEL32.dll
 0002:000000b8       __imp__K32GetProcessMemoryInfo@12 0045c0b8     kernel32:KERNEL32.dll
 0002:000000bc       __imp__CreateFileA@28      0045c0bc     kernel32:KERNEL32.dll
 0002:000000c0       __imp__FileTimeToSystemTime@8 0045c0c0     kernel32:KERNEL32.dll
 0002:000000c4       __imp__GetSystemDirectoryA@8 0045c0c4     kernel32:KERNEL32.dll
 0002:000000c8       __imp__TerminateThread@8   0045c0c8     kernel32:KERNEL32.dll
 0002:000000cc       __imp__LoadLibraryA@4      0045c0cc     kernel32:KERNEL32.dll
 0002:000000d0       __imp__GetVersionExA@4     0045c0d0     kernel32:KERNEL32.dll
 0002:000000d4       __imp__QueryPerformanceFrequency@4 0045c0d4     kernel32:KERNEL32.dll
 0002:000000d8       __imp__CloseHandle@4       0045c0d8     kernel32:KERNEL32.dll
 0002:000000dc       __imp__K32GetModuleBaseNameA@16 0045c0dc     kernel32:KERNEL32.dll
 0002:000000e0       __imp__RaiseException@16   0045c0e0     kernel32:KERNEL32.dll
 0002:000000e4       __imp__GetSystemInfo@4     0045c0e4     kernel32:KERNEL32.dll
 0002:000000e8       __imp__GetWindowsDirectoryA@8 0045c0e8     kernel32:KERNEL32.dll
 0002:000000ec       __imp__GetLocalTime@4      0045c0ec     kernel32:KERNEL32.dll
 0002:000000f0       __imp__K32EnumProcesses@12 0045c0f0     kernel32:KERNEL32.dll
 0002:000000f4       __imp__GetLogicalDriveStringsA@8 0045c0f4     kernel32:KERNEL32.dll
 0002:000000f8       __imp__GetProcAddress@8    0045c0f8     kernel32:KERNEL32.dll
 0002:000000fc       __imp__UnregisterWaitEx@8  0045c0fc     kernel32:KERNEL32.dll
 0002:00000100       __imp__LocalFree@4         0045c100     kernel32:KERNEL32.dll
 0002:00000104       __imp__GetFileSize@8       0045c104     kernel32:KERNEL32.dll
 0002:00000108       __imp__WaitForSingleObject@8 0045c108     kernel32:KERNEL32.dll
 0002:0000010c       __imp__GlobalMemoryStatusEx@4 0045c10c     kernel32:KERNEL32.dll
 0002:00000110       __imp__GetModuleHandleW@4  0045c110     kernel32:KERNEL32.dll
 0002:00000114       __imp__FreeLibrary@4       0045c114     kernel32:KERNEL32.dll
 0002:00000118       __imp__WideCharToMultiByte@32 0045c118     kernel32:KERNEL32.dll
 0002:0000011c       __imp__K32GetPerformanceInfo@8 0045c11c     kernel32:KERNEL32.dll
 0002:00000120       __imp__GetLastError@0      0045c120     kernel32:KERNEL32.dll
 0002:00000124       __imp__FormatMessageA@28   0045c124     kernel32:KERNEL32.dll
 0002:00000128       __imp__QueryPerformanceCounter@4 0045c128     kernel32:KERNEL32.dll
 0002:0000012c       __imp__GetProcessHandleCount@8 0045c12c     kernel32:KERNEL32.dll
 0002:00000130       __imp__GetProcessTimes@20  0045c130     kernel32:KERNEL32.dll
 0002:00000134       __imp__GetComputerNameA@8  0045c134     kernel32:KERNEL32.dll
 0002:00000138       __imp__SetUnhandledExceptionFilter@4 0045c138     kernel32:KERNEL32.dll
 0002:0000013c       __imp__DeviceIoControl@32  0045c13c     kernel32:KERNEL32.dll
 0002:00000140       __imp__WaitForMultipleObjects@16 0045c140     kernel32:KERNEL32.dll
 0002:00000144       __imp__InitializeCriticalSectionEx@12 0045c144     kernel32:KERNEL32.dll
 0002:00000148       __imp__MultiByteToWideChar@24 0045c148     kernel32:KERNEL32.dll
 0002:0000014c       __imp__DecodePointer@4     0045c14c     kernel32:KERNEL32.dll
 0002:00000150       __imp__DeleteCriticalSection@4 0045c150     kernel32:KERNEL32.dll
 0002:00000154       __imp__RtlUnwind@16        0045c154     kernel32:KERNEL32.dll
 0002:00000158       __imp__CreateFileW@28      0045c158     kernel32:KERNEL32.dll
 0002:0000015c       __imp__SetFilePointerEx@20 0045c15c     kernel32:KERNEL32.dll
 0002:00000160       __imp__GetFileSizeEx@8     0045c160     kernel32:KERNEL32.dll
 0002:00000164       __imp__HeapSize@12         0045c164     kernel32:KERNEL32.dll
 0002:00000168       __imp__SetStdHandle@8      0045c168     kernel32:KERNEL32.dll
 0002:0000016c       __imp__FreeEnvironmentStringsW@4 0045c16c     kernel32:KERNEL32.dll
 0002:00000170       __imp__GetEnvironmentStringsW@0 0045c170     kernel32:KERNEL32.dll
 0002:00000174       __imp__GetCommandLineW@0   0045c174     kernel32:KERNEL32.dll
 0002:00000178       __imp__GetCommandLineA@0   0045c178     kernel32:KERNEL32.dll
 0002:0000017c       __imp__GetOEMCP@0          0045c17c     kernel32:KERNEL32.dll
 0002:00000180       __imp__GetACP@0            0045c180     kernel32:KERNEL32.dll
 0002:00000184       __imp__IsValidCodePage@4   0045c184     kernel32:KERNEL32.dll
 0002:00000188       __imp__FindNextFileW@8     0045c188     kernel32:KERNEL32.dll
 0002:0000018c       __imp__FindFirstFileExW@24 0045c18c     kernel32:KERNEL32.dll
 0002:00000190       __imp__FindClose@4         0045c190     kernel32:KERNEL32.dll
 0002:00000194       __imp__HeapReAlloc@16      0045c194     kernel32:KERNEL32.dll
 0002:00000198       __imp__MoveFileExW@12      0045c198     kernel32:KERNEL32.dll
 0002:0000019c       __imp__DeleteFileW@4       0045c19c     kernel32:KERNEL32.dll
 0002:000001a0       __imp__CreateMutexA@12     0045c1a0     kernel32:KERNEL32.dll
 0002:000001a4       __imp__RegisterWaitForSingleObject@24 0045c1a4     kernel32:KERNEL32.dll
 0002:000001a8       __imp__HeapFree@12         0045c1a8     kernel32:KERNEL32.dll
 0002:000001ac       __imp__FlushFileBuffers@4  0045c1ac     kernel32:KERNEL32.dll
 0002:000001b0       __imp__GetConsoleCP@0      0045c1b0     kernel32:KERNEL32.dll
 0002:000001b4       __imp__GetConsoleMode@8    0045c1b4     kernel32:KERNEL32.dll
 0002:000001b8       __imp__OutputDebugStringW@4 0045c1b8     kernel32:KERNEL32.dll
 0002:000001bc       __imp__EnumSystemLocalesW@8 0045c1bc     kernel32:KERNEL32.dll
 0002:000001c0       __imp__GetUserDefaultLCID@0 0045c1c0     kernel32:KERNEL32.dll
 0002:000001c4       __imp__IsValidLocale@8     0045c1c4     kernel32:KERNEL32.dll
 0002:000001c8       __imp__GetFileType@4       0045c1c8     kernel32:KERNEL32.dll
 0002:000001cc       __imp__SetEndOfFile@4      0045c1cc     kernel32:KERNEL32.dll
 0002:000001d0       __imp__ReadFile@20         0045c1d0     kernel32:KERNEL32.dll
 0002:000001d4       __imp__ReadConsoleW@20     0045c1d4     kernel32:KERNEL32.dll
 0002:000001d8       __imp__HeapAlloc@12        0045c1d8     kernel32:KERNEL32.dll
 0002:000001dc       __imp__K32EnumProcessModules@16 0045c1dc     kernel32:KERNEL32.dll
 0002:000001e0       __imp__ReleaseMutex@4      0045c1e0     kernel32:KERNEL32.dll
 0002:000001e4       __imp__WriteConsoleW@20    0045c1e4     kernel32:KERNEL32.dll
 0002:000001e8       __imp__LoadLibraryExW@12   0045c1e8     kernel32:KERNEL32.dll
 0002:000001ec       __imp__ExitProcess@4       0045c1ec     kernel32:KERNEL32.dll
 0002:000001f0       __imp__GetCurrentProcessId@0 0045c1f0     kernel32:KERNEL32.dll
 0002:000001f4       __imp__GetStdHandle@4      0045c1f4     kernel32:KERNEL32.dll
 0002:000001f8       __imp__GetModuleFileNameW@12 0045c1f8     kernel32:KERNEL32.dll
 0002:000001fc       __imp__FreeLibraryAndExitThread@8 0045c1fc     kernel32:KERNEL32.dll
 0002:00000200       __imp__ExitThread@4        0045c200     kernel32:KERNEL32.dll
 0002:00000204       __imp__InitializeSListHead@4 0045c204     kernel32:KERNEL32.dll
 0002:00000208       __imp__GetStartupInfoW@4   0045c208     kernel32:KERNEL32.dll
 0002:0000020c       __imp__IsDebuggerPresent@0 0045c20c     kernel32:KERNEL32.dll
 0002:00000210       __imp__IsProcessorFeaturePresent@4 0045c210     kernel32:KERNEL32.dll
 0002:00000214       __imp__TerminateProcess@8  0045c214     kernel32:KERNEL32.dll
 0002:00000218       __imp__UnhandledExceptionFilter@4 0045c218     kernel32:KERNEL32.dll
 0002:0000021c       __imp__GetCPInfo@8         0045c21c     kernel32:KERNEL32.dll
 0002:00000220       __imp__GetStringTypeW@16   0045c220     kernel32:KERNEL32.dll
 0002:00000224       __imp__GetLocaleInfoW@16   0045c224     kernel32:KERNEL32.dll
 0002:00000228       __imp__CreateThread@24     0045c228     kernel32:KERNEL32.dll
 0002:0000022c       __imp__EnterCriticalSection@4 0045c22c     kernel32:KERNEL32.dll
 0002:00000230       __imp__LeaveCriticalSection@4 0045c230     kernel32:KERNEL32.dll
 0002:00000234       __imp__SetLastError@4      0045c234     kernel32:KERNEL32.dll
 0002:00000238       __imp__InitializeCriticalSectionAndSpinCount@8 0045c238     kernel32:KERNEL32.dll
 0002:0000023c       __imp__SwitchToThread@0    0045c23c     kernel32:KERNEL32.dll
 0002:00000240       __imp__TlsAlloc@0          0045c240     kernel32:KERNEL32.dll
 0002:00000244       __imp__TlsGetValue@4       0045c244     kernel32:KERNEL32.dll
 0002:00000248       __imp__TlsSetValue@8       0045c248     kernel32:KERNEL32.dll
 0002:0000024c       __imp__TlsFree@4           0045c24c     kernel32:KERNEL32.dll
 0002:00000250       __imp__GetSystemTimeAsFileTime@4 0045c250     kernel32:KERNEL32.dll
 0002:00000254       __imp__EncodePointer@4     0045c254     kernel32:KERNEL32.dll
 0002:00000258       __imp__LCMapStringW@24     0045c258     kernel32:KERNEL32.dll
 0002:0000025c       __imp__GetModuleHandleExW@12 0045c25c     kernel32:KERNEL32.dll
 0002:00000260       \177KERNEL32_NULL_THUNK_DATA 0045c260     kernel32:KERNEL32.dll
 0002:00000264       __imp__SafeArrayUnlock@4   0045c264     oleaut32:OLEAUT32.dll
 0002:00000268       __imp__SafeArrayGetLBound@12 0045c268     oleaut32:OLEAUT32.dll
 0002:0000026c       __imp__SysFreeString@4     0045c26c     oleaut32:OLEAUT32.dll
 0002:00000270       __imp__SafeArrayGetUBound@12 0045c270     oleaut32:OLEAUT32.dll
 0002:00000274       __imp__SysAllocString@4    0045c274     oleaut32:OLEAUT32.dll
 0002:00000278       __imp__SafeArrayLock@4     0045c278     oleaut32:OLEAUT32.dll
 0002:0000027c       __imp__VariantClear@4      0045c27c     oleaut32:OLEAUT32.dll
 0002:00000280       __imp__SafeArrayGetVartype@8 0045c280     oleaut32:OLEAUT32.dll
 0002:00000284       __imp__SafeArrayDestroy@4  0045c284     oleaut32:OLEAUT32.dll
 0002:00000288       \177OLEAUT32_NULL_THUNK_DATA 0045c288     oleaut32:OLEAUT32.dll
 0002:0000028c       __imp__PathRemoveExtensionA@4 0045c28c     Shlwapi:SHLWAPI.dll
 0002:00000290       \177SHLWAPI_NULL_THUNK_DATA 0045c290     Shlwapi:SHLWAPI.dll
 0002:00000294       __imp__IsNetworkAlive@4    0045c294     Sensapi:SensApi.dll
 0002:00000298       \177SensApi_NULL_THUNK_DATA 0045c298     Sensapi:SensApi.dll
 0002:0000029c       __imp__SetWindowTextA@8    0045c29c     user32:USER32.dll
 0002:000002a0       __imp__UnregisterDeviceNotification@4 0045c2a0     user32:USER32.dll
 0002:000002a4       __imp__FindWindowA@8       0045c2a4     user32:USER32.dll
 0002:000002a8       __imp__PostQuitMessage@4   0045c2a8     user32:USER32.dll
 0002:000002ac       __imp__TranslateMessage@4  0045c2ac     user32:USER32.dll
 0002:000002b0       __imp__CreateWindowExA@48  0045c2b0     user32:USER32.dll
 0002:000002b4       __imp__DefWindowProcA@16   0045c2b4     user32:USER32.dll
 0002:000002b8       __imp__RegisterClassA@4    0045c2b8     user32:USER32.dll
 0002:000002bc       __imp__GetMonitorInfoA@8   0045c2bc     user32:USER32.dll
 0002:000002c0       __imp__wsprintfA           0045c2c0     user32:USER32.dll
 0002:000002c4       __imp__GetMessageA@16      0045c2c4     user32:USER32.dll
 0002:000002c8       __imp__DispatchMessageA@4  0045c2c8     user32:USER32.dll
 0002:000002cc       __imp__DestroyWindow@4     0045c2cc     user32:USER32.dll
 0002:000002d0       __imp__MonitorFromWindow@8 0045c2d0     user32:USER32.dll
 0002:000002d4       __imp__PostMessageA@16     0045c2d4     user32:USER32.dll
 0002:000002d8       __imp__ShowWindow@8        0045c2d8     user32:USER32.dll
 0002:000002dc       __imp__IsWindow@4          0045c2dc     user32:USER32.dll
 0002:000002e0       __imp__MessageBoxA@16      0045c2e0     user32:USER32.dll
 0002:000002e4       __imp__RegisterDeviceNotificationA@12 0045c2e4     user32:USER32.dll
 0002:000002e8       \177USER32_NULL_THUNK_DATA 0045c2e8     user32:USER32.dll
 0002:000002ec       __imp__GetFileVersionInfoSizeA@8 0045c2ec     version:VERSION.dll
 0002:000002f0       __imp__VerQueryValueA@16   0045c2f0     version:VERSION.dll
 0002:000002f4       __imp__GetFileVersionInfoA@16 0045c2f4     version:VERSION.dll
 0002:000002f8       \177VERSION_NULL_THUNK_DATA 0045c2f8     version:VERSION.dll
 0002:000002fc       __imp__OpenPrinterA@12     0045c2fc     winspool:WINSPOOL.DRV
 0002:00000300       __imp__DocumentPropertiesA@24 0045c300     winspool:WINSPOOL.DRV
 0002:00000304       __imp__EnumPrintersA@28    0045c304     winspool:WINSPOOL.DRV
 0002:00000308       __imp__DeviceCapabilitiesA@20 0045c308     winspool:WINSPOOL.DRV
 0002:0000030c       __imp__ClosePrinter@4      0045c30c     winspool:WINSPOOL.DRV
 0002:00000310       \177WINSPOOL_NULL_THUNK_DATA 0045c310     winspool:WINSPOOL.DRV
 0002:00000314       __imp__inet_ntoa@4         0045c314     ws2_32:WS2_32.dll
 0002:00000318       \177WS2_32_NULL_THUNK_DATA 0045c318     ws2_32:WS2_32.dll
 0002:0000031c       __imp__MiniDumpWriteDump@28 0045c31c     Dbghelp:dbghelp.dll
 0002:00000320       \177dbghelp_NULL_THUNK_DATA 0045c320     Dbghelp:dbghelp.dll
 0002:00000324       __imp__CoSetProxyBlanket@32 0045c324     ole32:ole32.dll
 0002:00000328       __imp__CoCreateInstance@20 0045c328     ole32:ole32.dll
 0002:0000032c       __imp__CoInitializeEx@8    0045c32c     ole32:ole32.dll
 0002:00000330       __imp__CoUninitialize@0    0045c330     ole32:ole32.dll
 0002:00000334       __imp__CoInitializeSecurity@36 0045c334     ole32:ole32.dll
 0002:00000338       \177ole32_NULL_THUNK_DATA  0045c338     ole32:ole32.dll
 0002:0000033c       ___guard_check_icall_fptr  0045c33c     LIBCMT:guard_support.obj
 0002:00000340       ___xc_a                    0045c340     LIBCMT:initializers.obj
 0002:00000370       ___xc_z                    0045c370     LIBCMT:initializers.obj
 0002:00000374       ___xi_a                    0045c374     LIBCMT:initializers.obj
 0002:00000384       ___acrt_stdio_initializer  0045c384     libucrt:stdio_initializer.obj
 0002:00000388       ___acrt_tran_sse2_initializer 0045c388     libucrt:sse2_initializer.obj
 0002:0000038c       ___acrt_timeset_initializer 0045c38c     libucrt:timeset_initializer.obj
 0002:00000390       ___acrt_multibyte_initializer 0045c390     libucrt:multibyte_initializer.obj
 0002:00000394       ___xi_z                    0045c394     LIBCMT:initializers.obj
 0002:00000398       ___xp_a                    0045c398     LIBCMT:initializers.obj
 0002:0000039c       ___acrt_locale_terminator  0045c39c     libucrt:locale_initializer.obj
 0002:000003a0       ___dcrt_console_output_terminator 0045c3a0     libucrt:console_output_initializer.obj
 0002:000003a4       ___acrt_stdio_terminator   0045c3a4     libucrt:stdio_initializer.obj
 0002:000003a8       ___xp_z                    0045c3a8     LIBCMT:initializers.obj
 0002:000003ac       ___xt_a                    0045c3ac     LIBCMT:initializers.obj
 0002:000003b0       ___xt_z                    0045c3b0     LIBCMT:initializers.obj
 0002:000003c0       _CLSID_WbemLocator         0045c3c0     wbemuuid:wbemcli_i.obj
 0002:000003d0       _IID_IWbemLocator          0045c3d0     wbemuuid:wbemcli_i.obj
 0002:000003e4       ??_7exception@std@@6B@     0045c3e4     libcpmt:xonce.obj
 0002:000003f0       ??_7runtime_error@std@@6B@ 0045c3f0     libcpmt:xonce.obj
 0002:000003fc       ??_7_System_error@std@@6B@ 0045c3fc     libcpmt:xonce.obj
 0002:00000408       ??_7system_error@std@@6B@  0045c408     libcpmt:xonce.obj
 0002:00000410       ??_C@_0O@BFJCFAAK@unknown?5error@ 0045c410     libcpmt:xonce.obj
 0002:00000424       ??_7_Facet_base@std@@6B@   0045c424     libcpmt:locale0.obj
 0002:00000434       ??_7facet@locale@std@@6B@  0045c434     libcpmt:locale0.obj
 0002:00000444       ??_7_Locimp@locale@std@@6B@ 0045c444     libcpmt:locale0.obj
 0002:00000450       ??_C@_01NBENCBCI@?$CK@     0045c450     libcpmt:locale0.obj
 0002:00000454       ??_C@_01GFHCPBMG@C@        0045c454     libcpmt:locale0.obj
 0002:0000045c       ??_7bad_alloc@std@@6B@     0045c45c     libcpmt:xthrow.obj
 0002:00000464       ??_C@_0P@GHFPNOJB@bad?5allocation@ 0045c464     libcpmt:xthrow.obj
 0002:00000478       ??_7logic_error@std@@6B@   0045c478     libcpmt:xthrow.obj
 0002:00000484       ??_7invalid_argument@std@@6B@ 0045c484     libcpmt:xthrow.obj
 0002:00000490       ??_7length_error@std@@6B@  0045c490     libcpmt:xthrow.obj
 0002:0000049c       ??_7out_of_range@std@@6B@  0045c49c     libcpmt:xthrow.obj
 0002:000004a8       ?_BADOFF@std@@3_JB         0045c4a8     libcpmt:ios.obj
 0002:00000988       ??_C@_0BN@LKKBCCDB@address?5family?5not?5supported@ 0045c988     libcpmt:syserror.obj
 0002:000009a8       ??_C@_0P@LDMLAFHI@address?5in?5use@ 0045c9a8     libcpmt:syserror.obj
 0002:000009b8       ??_C@_0BG@DHPCNBJB@address?5not?5available@ 0045c9b8     libcpmt:syserror.obj
 0002:000009d0       ??_C@_0BC@DFIBIBIL@already?5connected@ 0045c9d0     libcpmt:syserror.obj
 0002:000009e4       ??_C@_0BH@CAKOHOMI@argument?5list?5too?5long@ 0045c9e4     libcpmt:syserror.obj
 0002:000009fc       ??_C@_0BH@CGIMPKIM@argument?5out?5of?5domain@ 0045c9fc     libcpmt:syserror.obj
 0002:00000a14       ??_C@_0M@KGHGGJGL@bad?5address@ 0045ca14     libcpmt:syserror.obj
 0002:00000a20       ??_C@_0BE@MPJPGCEO@bad?5file?5descriptor@ 0045ca20     libcpmt:syserror.obj
 0002:00000a34       ??_C@_0M@PMMIEFCP@bad?5message@ 0045ca34     libcpmt:syserror.obj
 0002:00000a40       ??_C@_0M@KPHOFDBE@broken?5pipe@ 0045ca40     libcpmt:syserror.obj
 0002:00000a4c       ??_C@_0BD@MGNDDEGM@connection?5aborted@ 0045ca4c     libcpmt:syserror.obj
 0002:00000a60       ??_C@_0BP@KAIHPOGN@connection?5already?5in?5progress@ 0045ca60     libcpmt:syserror.obj
 0002:00000a80       ??_C@_0BD@PJLIIJEL@connection?5refused@ 0045ca80     libcpmt:syserror.obj
 0002:00000a94       ??_C@_0BB@IECNJNOI@connection?5reset@ 0045ca94     libcpmt:syserror.obj
 0002:00000aa8       ??_C@_0BC@PPHBOELF@cross?5device?5link@ 0045caa8     libcpmt:syserror.obj
 0002:00000abc       ??_C@_0BN@KDMIFEIP@destination?5address?5required@ 0045cabc     libcpmt:syserror.obj
 0002:00000adc       ??_C@_0BI@NGCEHDD@device?5or?5resource?5busy@ 0045cadc     libcpmt:syserror.obj
 0002:00000af4       ??_C@_0BE@JIDOCPHM@directory?5not?5empty@ 0045caf4     libcpmt:syserror.obj
 0002:00000b08       ??_C@_0BI@BNCLIGPB@executable?5format?5error@ 0045cb08     libcpmt:syserror.obj
 0002:00000b20       ??_C@_0M@MIDIAGJP@file?5exists@ 0045cb20     libcpmt:syserror.obj
 0002:00000b2c       ??_C@_0P@DNAJLBJK@file?5too?5large@ 0045cb2c     libcpmt:syserror.obj
 0002:00000b3c       ??_C@_0BC@EJHOMAAK@filename?5too?5long@ 0045cb3c     libcpmt:syserror.obj
 0002:00000b50       ??_C@_0BH@KEFGLDAF@function?5not?5supported@ 0045cb50     libcpmt:syserror.obj
 0002:00000b68       ??_C@_0BB@DHFDFGDM@host?5unreachable@ 0045cb68     libcpmt:syserror.obj
 0002:00000b7c       ??_C@_0BD@JPHBMONG@identifier?5removed@ 0045cb7c     libcpmt:syserror.obj
 0002:00000b90       ??_C@_0BG@CDNPAGJK@illegal?5byte?5sequence@ 0045cb90     libcpmt:syserror.obj
 0002:00000ba8       ??_C@_0CD@BNPLBMNA@inappropriate?5io?5control?5operat@ 0045cba8     libcpmt:syserror.obj
 0002:00000bcc       ??_C@_0M@EGEKIIMP@interrupted@ 0045cbcc     libcpmt:syserror.obj
 0002:00000bd8       ??_C@_0BB@FCMFBGOM@invalid?5argument@ 0045cbd8     libcpmt:syserror.obj
 0002:00000bec       ??_C@_0N@OHAFKDEK@invalid?5seek@ 0045cbec     libcpmt:syserror.obj
 0002:00000bfc       ??_C@_08GLNPIFBN@io?5error@ 0045cbfc     libcpmt:syserror.obj
 0002:00000c08       ??_C@_0P@FLLDBIDK@is?5a?5directory@ 0045cc08     libcpmt:syserror.obj
 0002:00000c18       ??_C@_0N@IFLPBIOP@message?5size@ 0045cc18     libcpmt:syserror.obj
 0002:00000c28       ??_C@_0N@KIIEAAIO@network?5down@ 0045cc28     libcpmt:syserror.obj
 0002:00000c38       ??_C@_0O@FNPDBHEE@network?5reset@ 0045cc38     libcpmt:syserror.obj
 0002:00000c48       ??_C@_0BE@IFNCKGE@network?5unreachable@ 0045cc48     libcpmt:syserror.obj
 0002:00000c5c       ??_C@_0BA@PFFCAOFK@no?5buffer?5space@ 0045cc5c     libcpmt:syserror.obj
 0002:00000c6c       ??_C@_0BB@IEPBLJHK@no?5child?5process@ 0045cc6c     libcpmt:syserror.obj
 0002:00000c80       ??_C@_07PLECNNKG@no?5link@ 0045cc80     libcpmt:syserror.obj
 0002:00000c88       ??_C@_0BC@NJECKMKE@no?5lock?5available@ 0045cc88     libcpmt:syserror.obj
 0002:00000c9c       ??_C@_0BF@PBGGPKKE@no?5message?5available@ 0045cc9c     libcpmt:syserror.obj
 0002:00000cb4       ??_C@_0L@EDOLMPAK@no?5message@ 0045ccb4     libcpmt:syserror.obj
 0002:00000cc0       ??_C@_0BD@EAMBFIDF@no?5protocol?5option@ 0045ccc0     libcpmt:syserror.obj
 0002:00000cd4       ??_C@_0BD@IJDJKDEA@no?5space?5on?5device@ 0045ccd4     libcpmt:syserror.obj
 0002:00000ce8       ??_C@_0BE@MKFDAFMP@no?5stream?5resources@ 0045cce8     libcpmt:syserror.obj
 0002:00000cfc       ??_C@_0BK@IMCPHCBI@no?5such?5device?5or?5address@ 0045ccfc     libcpmt:syserror.obj
 0002:00000d18       ??_C@_0P@FDINDDOK@no?5such?5device@ 0045cd18     libcpmt:syserror.obj
 0002:00000d28       ??_C@_0BK@NDOCBPGE@no?5such?5file?5or?5directory@ 0045cd28     libcpmt:syserror.obj
 0002:00000d44       ??_C@_0BA@ENLPPKBN@no?5such?5process@ 0045cd44     libcpmt:syserror.obj
 0002:00000d54       ??_C@_0BA@DOCPFFJG@not?5a?5directory@ 0045cd54     libcpmt:syserror.obj
 0002:00000d64       ??_C@_0N@POEIPGGF@not?5a?5socket@ 0045cd64     libcpmt:syserror.obj
 0002:00000d74       ??_C@_0N@LGAPMMPI@not?5a?5stream@ 0045cd74     libcpmt:syserror.obj
 0002:00000d84       ??_C@_0O@GLMIBBEG@not?5connected@ 0045cd84     libcpmt:syserror.obj
 0002:00000d94       ??_C@_0BC@ENOOLCNF@not?5enough?5memory@ 0045cd94     libcpmt:syserror.obj
 0002:00000da8       ??_C@_0O@NHEDABJP@not?5supported@ 0045cda8     libcpmt:syserror.obj
 0002:00000db8       ??_C@_0BD@MOLBPMEA@operation?5canceled@ 0045cdb8     libcpmt:syserror.obj
 0002:00000dcc       ??_C@_0BG@KDKHOPCO@operation?5in?5progress@ 0045cdcc     libcpmt:syserror.obj
 0002:00000de4       ??_C@_0BI@OHIEJAAB@operation?5not?5permitted@ 0045cde4     libcpmt:syserror.obj
 0002:00000dfc       ??_C@_0BI@LNEGIFLN@operation?5not?5supported@ 0045cdfc     libcpmt:syserror.obj
 0002:00000e14       ??_C@_0BG@OEMDKMEE@operation?5would?5block@ 0045ce14     libcpmt:syserror.obj
 0002:00000e2c       ??_C@_0L@BLPOFLNJ@owner?5dead@ 0045ce2c     libcpmt:syserror.obj
 0002:00000e38       ??_C@_0BC@CIJDGCDI@permission?5denied@ 0045ce38     libcpmt:syserror.obj
 0002:00000e4c       ??_C@_0P@FNPOCJBE@protocol?5error@ 0045ce4c     libcpmt:syserror.obj
 0002:00000e5c       ??_C@_0BH@JPPPLHJB@protocol?5not?5supported@ 0045ce5c     libcpmt:syserror.obj
 0002:00000e74       ??_C@_0BG@EICBIHDP@read?5only?5file?5system@ 0045ce74     libcpmt:syserror.obj
 0002:00000e8c       ??_C@_0BO@BJBOMOEJ@resource?5deadlock?5would?5occur@ 0045ce8c     libcpmt:syserror.obj
 0002:00000eac       ??_C@_0BP@LKNGHENJ@resource?5unavailable?5try?5again@ 0045ceac     libcpmt:syserror.obj
 0002:00000ecc       ??_C@_0BE@GOIPJJHG@result?5out?5of?5range@ 0045cecc     libcpmt:syserror.obj
 0002:00000ee0       ??_C@_0BG@MPLKFPAE@state?5not?5recoverable@ 0045cee0     libcpmt:syserror.obj
 0002:00000ef8       ??_C@_0P@DIIFGFCG@stream?5timeout@ 0045cef8     libcpmt:syserror.obj
 0002:00000f08       ??_C@_0P@IPFDMIFL@text?5file?5busy@ 0045cf08     libcpmt:syserror.obj
 0002:00000f18       ??_C@_09KJPPMAOI@timed?5out@ 0045cf18     libcpmt:syserror.obj
 0002:00000f24       ??_C@_0BO@HACHBEKI@too?5many?5files?5open?5in?5system@ 0045cf24     libcpmt:syserror.obj
 0002:00000f44       ??_C@_0BE@GHAFMPAH@too?5many?5files?5open@ 0045cf44     libcpmt:syserror.obj
 0002:00000f58       ??_C@_0P@HCOMKFCC@too?5many?5links@ 0045cf58     libcpmt:syserror.obj
 0002:00000f68       ??_C@_0BO@EFGOJEF@too?5many?5symbolic?5link?5levels@ 0045cf68     libcpmt:syserror.obj
 0002:00000f88       ??_C@_0BA@KGKGOOJA@value?5too?5large@ 0045cf88     libcpmt:syserror.obj
 0002:00000f98       ??_C@_0BE@MIEJDDNH@wrong?5protocol?5type@ 0045cf98     libcpmt:syserror.obj
 0002:00000fac       ??_C@_1BK@MGMFAEKH@?$AAk?$AAe?$AAr?$AAn?$AAe?$AAl?$AA3?$AA2?$AA?4?$AAd?$AAl?$AAl@ 0045cfac     libcpmt:winapisupp.obj
 0002:00000fc8       ??_C@_08KNHFBNJ@FlsAlloc@  0045cfc8     libcpmt:winapisupp.obj
 0002:00000fd4       ??_C@_07PEJMOBNF@FlsFree@  0045cfd4     libcpmt:winapisupp.obj
 0002:00000fdc       ??_C@_0M@GDNOONDI@FlsGetValue@ 0045cfdc     libcpmt:winapisupp.obj
 0002:00000fe8       ??_C@_0M@JCPCPOEF@FlsSetValue@ 0045cfe8     libcpmt:winapisupp.obj
 0002:00000ff4       ??_C@_0BM@HCFOFFN@InitializeCriticalSectionEx@ 0045cff4     libcpmt:winapisupp.obj
 0002:00001010       ??_C@_0BE@GPLMMCMH@InitOnceExecuteOnce@ 0045d010     libcpmt:winapisupp.obj
 0002:00001024       ??_C@_0P@DLHPPCNH@CreateEventExW@ 0045d024     libcpmt:winapisupp.obj
 0002:00001034       ??_C@_0BB@MEFPJLHN@CreateSemaphoreW@ 0045d034     libcpmt:winapisupp.obj
 0002:00001048       ??_C@_0BD@KIEEOEEH@CreateSemaphoreExW@ 0045d048     libcpmt:winapisupp.obj
 0002:0000105c       ??_C@_0BG@OGFAJCKC@CreateThreadpoolTimer@ 0045d05c     libcpmt:winapisupp.obj
 0002:00001074       ??_C@_0BD@LPLEMMDI@SetThreadpoolTimer@ 0045d074     libcpmt:winapisupp.obj
 0002:00001088       ??_C@_0CA@FMNJENH@WaitForThreadpoolTimerCallbacks@ 0045d088     libcpmt:winapisupp.obj
 0002:000010a8       ??_C@_0BF@DCFCCNOC@CloseThreadpoolTimer@ 0045d0a8     libcpmt:winapisupp.obj
 0002:000010c0       ??_C@_0BF@FLABGKKM@CreateThreadpoolWait@ 0045d0c0     libcpmt:winapisupp.obj
 0002:000010d8       ??_C@_0BC@MGCOHNA@SetThreadpoolWait@ 0045d0d8     libcpmt:winapisupp.obj
 0002:000010ec       ??_C@_0BE@OCIOMIMP@CloseThreadpoolWait@ 0045d0ec     libcpmt:winapisupp.obj
 0002:00001100       ??_C@_0BJ@LKGHFHBO@FlushProcessWriteBuffers@ 0045d100     libcpmt:winapisupp.obj
 0002:0000111c       ??_C@_0BP@KALKKPMO@FreeLibraryWhenCallbackReturns@ 0045d11c     libcpmt:winapisupp.obj
 0002:0000113c       ??_C@_0BE@FKKLLFLM@CreateSymbolicLinkW@ 0045d13c     libcpmt:winapisupp.obj
 0002:00001150       ??_C@_0BE@JOGNEJCI@GetCurrentPackageId@ 0045d150     libcpmt:winapisupp.obj
 0002:00001164       ??_C@_0P@CDHHOHKP@GetTickCount64@ 0045d164     libcpmt:winapisupp.obj
 0002:00001174       ??_C@_0BN@NEEHBBPO@GetFileInformationByHandleEx@ 0045d174     libcpmt:winapisupp.obj
 0002:00001194       ??_C@_0BL@KBBHGKCM@SetFileInformationByHandle@ 0045d194     libcpmt:winapisupp.obj
 0002:000011b0       ??_C@_0BP@FPNJPEJC@GetSystemTimePreciseAsFileTime@ 0045d1b0     libcpmt:winapisupp.obj
 0002:000011d0       ??_C@_0BM@HLJJNPAH@InitializeConditionVariable@ 0045d1d0     libcpmt:winapisupp.obj
 0002:000011ec       ??_C@_0BG@BFNILBLN@WakeConditionVariable@ 0045d1ec     libcpmt:winapisupp.obj
 0002:00001204       ??_C@_0BJ@PGPPEPCC@WakeAllConditionVariable@ 0045d204     libcpmt:winapisupp.obj
 0002:00001220       ??_C@_0BJ@JEBJOJFJ@SleepConditionVariableCS@ 0045d220     libcpmt:winapisupp.obj
 0002:0000123c       ??_C@_0BC@MMLHEBPB@InitializeSRWLock@ 0045d23c     libcpmt:winapisupp.obj
 0002:00001250       ??_C@_0BI@OMNLIJDB@AcquireSRWLockExclusive@ 0045d250     libcpmt:winapisupp.obj
 0002:00001268       ??_C@_0BL@OGHFEMNA@TryAcquireSRWLockExclusive@ 0045d268     libcpmt:winapisupp.obj
 0002:00001284       ??_C@_0BI@HMIEPCNJ@ReleaseSRWLockExclusive@ 0045d284     libcpmt:winapisupp.obj
 0002:0000129c       ??_C@_0BK@LGACAGIC@SleepConditionVariableSRW@ 0045d29c     libcpmt:winapisupp.obj
 0002:000012b8       ??_C@_0BF@GGPHFPJA@CreateThreadpoolWork@ 0045d2b8     libcpmt:winapisupp.obj
 0002:000012d0       ??_C@_0BF@NHDAIMMO@SubmitThreadpoolWork@ 0045d2d0     libcpmt:winapisupp.obj
 0002:000012e8       ??_C@_0BE@NPHIPNPD@CloseThreadpoolWork@ 0045d2e8     libcpmt:winapisupp.obj
 0002:000012fc       ??_C@_0BA@IHGNDAEB@CompareStringEx@ 0045d2fc     libcpmt:winapisupp.obj
 0002:0000130c       ??_C@_0BA@ONOKGCMP@GetLocaleInfoEx@ 0045d30c     libcpmt:winapisupp.obj
 0002:0000131c       ??_C@_0O@KKBNKAPF@LCMapStringEx@ 0045d31c     libcpmt:winapisupp.obj
 0002:00001330       ??_7ctype_base@std@@6B@    0045d330     libcpmt:locale.obj
 0002:00001340       ??_7?$ctype@D@std@@6B@     0045d340     libcpmt:locale.obj
 0002:00001370       ??_7?$num_put@DV?$ostreambuf_iterator@DU?$char_traits@D@std@@@std@@@std@@6B@ 0045d370     libcpmt:locale.obj
 0002:000013a0       ??_7?$numpunct@D@std@@6B@  0045d3a0     libcpmt:locale.obj
 0002:000013c0       ??_C@_11LOCGONAA@@         0045d3c0     libcpmt:wlocale.obj
 0002:000013c4       ??_C@_01JOAMLHOP@?9@       0045d3c4     libcpmt:wlocale.obj
 0002:000022a8       ??_C@_15EMKDOKLE@?$AAa?$AAr@ 0045e2a8     libcpmt:winapinls.obj
 0002:000022b0       ??_C@_15KNPADPLH@?$AAb?$AAg@ 0045e2b0     libcpmt:winapinls.obj
 0002:000022b8       ??_C@_15EDMHLDMO@?$AAc?$AAa@ 0045e2b8     libcpmt:winapinls.obj
 0002:000022c0       ??_C@_1O@BPEAJADD@?$AAz?$AAh?$AA?9?$AAC?$AAH?$AAS@ 0045e2c0     libcpmt:winapinls.obj
 0002:000022d0       ??_C@_15LJNHCMNK@?$AAc?$AAs@ 0045e2d0     libcpmt:winapinls.obj
 0002:000022d8       ??_C@_15FOMCIDHG@?$AAd?$AAa@ 0045e2d8     libcpmt:winapinls.obj
 0002:000022e0       ??_C@_15NBKABECB@?$AAd?$AAe@ 0045e2e0     libcpmt:winapinls.obj
 0002:000022e8       ??_C@_15GHPEIIAO@?$AAe?$AAl@ 0045e2e8     libcpmt:winapinls.obj
 0002:000022f0       ??_C@_15MNPNEAIF@?$AAe?$AAn@ 0045e2f0     libcpmt:winapinls.obj
 0002:000022f8       ??_C@_15GPIOMPMH@?$AAe?$AAs@ 0045e2f8     libcpmt:winapinls.obj
 0002:00002300       ??_C@_15NGLOAKJC@?$AAf?$AAi@ 0045e300     libcpmt:winapinls.obj
 0002:00002308       ??_C@_15FBKGNKAM@?$AAf?$AAr@ 0045e308     libcpmt:winapinls.obj
 0002:00002310       ??_C@_15KGGCNEFK@?$AAh?$AAe@ 0045e310     libcpmt:winapinls.obj
 0002:00002318       ??_C@_15PGHLIDMF@?$AAh?$AAu@ 0045e318     libcpmt:winapinls.obj
 0002:00002320       ??_C@_15BIEMAPLM@?$AAi?$AAs@ 0045e320     libcpmt:winapinls.obj
 0002:00002328       ??_C@_15IFJLDHAF@?$AAi?$AAt@ 0045e328     libcpmt:winapinls.obj
 0002:00002330       ??_C@_15GEMIOCAG@?$AAj?$AAa@ 0045e330     libcpmt:winapinls.obj
 0002:00002338       ??_C@_15EPELEGJA@?$AAk?$AAo@ 0045e338     libcpmt:winapinls.obj
 0002:00002340       ??_C@_15NDDHIMN@?$AAn?$AAl@ 0045e340     libcpmt:winapinls.obj
 0002:00002348       ??_C@_15BPIGNHCD@?$AAn?$AAo@ 0045e348     libcpmt:winapinls.obj
 0002:00002350       ??_C@_15DEOPBLCG@?$AAp?$AAl@ 0045e350     libcpmt:winapinls.obj
 0002:00002358       ??_C@_15KBECGEFG@?$AAp?$AAt@ 0045e358     libcpmt:winapinls.obj
 0002:00002360       ??_C@_15GLJCBFMD@?$AAr?$AAo@ 0045e360     libcpmt:winapinls.obj
 0002:00002368       ??_C@_15FEDGKCDI@?$AAr?$AAu@ 0045e368     libcpmt:winapinls.obj
 0002:00002370       ??_C@_15GLKMLLHM@?$AAh?$AAr@ 0045e370     libcpmt:winapinls.obj
 0002:00002378       ??_C@_15CPKMFBDB@?$AAs?$AAk@ 0045e378     libcpmt:winapinls.obj
 0002:00002380       ??_C@_15BAAIOGMK@?$AAs?$AAq@ 0045e380     libcpmt:winapinls.obj
 0002:00002388       ??_C@_15INNPNOHD@?$AAs?$AAv@ 0045e388     libcpmt:winapinls.obj
 0002:00002390       ??_C@_15CABMMOGH@?$AAt?$AAh@ 0045e390     libcpmt:winapinls.obj
 0002:00002398       ??_C@_15BPLIHJJM@?$AAt?$AAr@ 0045e398     libcpmt:winapinls.obj
 0002:000023a0       ??_C@_15NEOEKKDJ@?$AAu?$AAr@ 0045e3a0     libcpmt:winapinls.obj
 0002:000023a8       ??_C@_15NFICGAJK@?$AAi?$AAd@ 0045e3a8     libcpmt:winapinls.obj
 0002:000023b0       ??_C@_15PJPFLCCM@?$AAu?$AAk@ 0045e3b0     libcpmt:winapinls.obj
 0002:000023b8       ??_C@_15HPJPHDM@?$AAb?$AAe@ 0045e3b8     libcpmt:winapinls.obj
 0002:000023c0       ??_C@_15LCHLGJII@?$AAs?$AAl@ 0045e3c0     libcpmt:winapinls.obj
 0002:000023c8       ??_C@_15PCFJPHHO@?$AAe?$AAt@ 0045e3c8     libcpmt:winapinls.obj
 0002:000023d0       ??_C@_15HPFPGODN@?$AAl?$AAv@ 0045e3d0     libcpmt:winapinls.obj
 0002:000023d8       ??_C@_15NFFGKGLG@?$AAl?$AAt@ 0045e3d8     libcpmt:winapinls.obj
 0002:000023e0       ??_C@_15BDAKCCHN@?$AAf?$AAa@ 0045e3e0     libcpmt:winapinls.obj
 0002:000023e8       ??_C@_15NFGIAIAJ@?$AAv?$AAi@ 0045e3e8     libcpmt:winapinls.obj
 0002:000023f0       ??_C@_15LMKNDMHN@?$AAh?$AAy@ 0045e3f0     libcpmt:winapinls.obj
 0002:000023f8       ??_C@_15IJBHMCFL@?$AAa?$AAz@ 0045e3f8     libcpmt:winapinls.obj
 0002:00002400       ??_C@_15EKOFJABL@?$AAe?$AAu@ 0045e400     libcpmt:winapinls.obj
 0002:00002408       ??_C@_15BGHADCNK@?$AAm?$AAk@ 0045e408     libcpmt:winapinls.obj
 0002:00002410       ??_C@_15JDNICKHM@?$AAa?$AAf@ 0045e410     libcpmt:winapinls.obj
 0002:00002418       ??_C@_15KPJEDBKD@?$AAk?$AAa@ 0045e418     libcpmt:winapinls.obj
 0002:00002420       ??_C@_15PDNFFFEO@?$AAf?$AAo@ 0045e420     libcpmt:winapinls.obj
 0002:00002428       ??_C@_15OMLEGLOC@?$AAh?$AAi@ 0045e428     libcpmt:winapinls.obj
 0002:00002430       ??_C@_15IDNNENKK@?$AAm?$AAs@ 0045e430     libcpmt:winapinls.obj
 0002:00002438       ??_C@_15MACJNBMH@?$AAk?$AAk@ 0045e438     libcpmt:winapinls.obj
 0002:00002440       ??_C@_15DKDJEOND@?$AAk?$AAy@ 0045e440     libcpmt:winapinls.obj
 0002:00002448       ??_C@_15DFGDLJBG@?$AAs?$AAw@ 0045e448     libcpmt:winapinls.obj
 0002:00002450       ??_C@_15BBFAICNG@?$AAu?$AAz@ 0045e450     libcpmt:winapinls.obj
 0002:00002458       ??_C@_15DKNDCGEA@?$AAt?$AAt@ 0045e458     libcpmt:winapinls.obj
 0002:00002460       ??_C@_15MGIFMDPL@?$AAp?$AAa@ 0045e460     libcpmt:winapinls.obj
 0002:00002468       ??_C@_15HCNDBBA@?$AAg?$AAu@ 0045e468     libcpmt:winapinls.obj
 0002:00002470       ??_C@_15FNBEIBON@?$AAt?$AAa@ 0045e470     libcpmt:winapinls.obj
 0002:00002478       ??_C@_15NCHGBGLK@?$AAt?$AAe@ 0045e478     libcpmt:winapinls.obj
 0002:00002480       ??_C@_15PHPHCBPF@?$AAk?$AAn@ 0045e480     libcpmt:winapinls.obj
 0002:00002488       ??_C@_15DLGBCKMP@?$AAm?$AAr@ 0045e488     libcpmt:winapinls.obj
 0002:00002490       ??_C@_15EABBLBFF@?$AAs?$AAa@ 0045e490     libcpmt:winapinls.obj
 0002:00002498       ??_C@_15CBKOMCOI@?$AAm?$AAn@ 0045e498     libcpmt:winapinls.obj
 0002:000024a0       ??_C@_15CKDMCJAF@?$AAg?$AAl@ 0045e4a0     libcpmt:winapinls.obj
 0002:000024a8       ??_C@_17CNJFBPG@?$AAk?$AAo?$AAk@ 0045e4a8     libcpmt:winapinls.obj
 0002:000024b0       ??_C@_17FFBJICPL@?$AAs?$AAy?$AAr@ 0045e4b0     libcpmt:winapinls.obj
 0002:000024b8       ??_C@_17KPNDCPAF@?$AAd?$AAi?$AAv@ 0045e4b8     libcpmt:winapinls.obj
 0002:000024c0       ??_C@_1M@OKAHONE@?$AAa?$AAr?$AA?9?$AAS?$AAA@ 0045e4c0     libcpmt:winapinls.obj
 0002:000024cc       ??_C@_1M@FFFIGIGK@?$AAb?$AAg?$AA?9?$AAB?$AAG@ 0045e4cc     libcpmt:winapinls.obj
 0002:000024d8       ??_C@_1M@BJNKEDC@?$AAc?$AAa?$AA?9?$AAE?$AAS@ 0045e4d8     libcpmt:winapinls.obj
 0002:000024e4       ??_C@_1M@CLNBBOPM@?$AAz?$AAh?$AA?9?$AAT?$AAW@ 0045e4e4     libcpmt:winapinls.obj
 0002:000024f0       ??_C@_1M@IJJHFJHA@?$AAc?$AAs?$AA?9?$AAC?$AAZ@ 0045e4f0     libcpmt:winapinls.obj
 0002:000024fc       ??_C@_1M@CLPEOBGI@?$AAd?$AAa?$AA?9?$AAD?$AAK@ 0045e4fc     libcpmt:winapinls.obj
 0002:00002508       ??_C@_1M@MCMADGCB@?$AAd?$AAe?$AA?9?$AAD?$AAE@ 0045e508     libcpmt:winapinls.obj
 0002:00002514       ??_C@_1M@OOCKEMAM@?$AAe?$AAl?$AA?9?$AAG?$AAR@ 0045e514     libcpmt:winapinls.obj
 0002:00002520       ??_C@_1M@BMHNFIME@?$AAe?$AAn?$AA?9?$AAU?$AAS@ 0045e520     libcpmt:winapinls.obj
 0002:0000252c       ??_C@_1M@DDNJFGID@?$AAf?$AAi?$AA?9?$AAF?$AAI@ 0045e52c     libcpmt:winapinls.obj
 0002:00002538       ??_C@_1M@GLIPPMAC@?$AAf?$AAr?$AA?9?$AAF?$AAR@ 0045e538     libcpmt:winapinls.obj
 0002:00002544       ??_C@_1M@GFMCHPE@?$AAh?$AAe?$AA?9?$AAI?$AAL@ 0045e544     libcpmt:winapinls.obj
 0002:00002550       ??_C@_1M@MHLPGNKM@?$AAh?$AAu?$AA?9?$AAH?$AAU@ 0045e550     libcpmt:winapinls.obj
 0002:0000255c       ??_C@_1M@LPDDNNPN@?$AAi?$AAs?$AA?9?$AAI?$AAS@ 0045e55c     libcpmt:winapinls.obj
 0002:00002568       ??_C@_1M@MADIPODN@?$AAi?$AAt?$AA?9?$AAI?$AAT@ 0045e568     libcpmt:winapinls.obj
 0002:00002574       ??_C@_1M@HPNHIDJI@?$AAj?$AAa?$AA?9?$AAJ?$AAP@ 0045e574     libcpmt:winapinls.obj
 0002:00002580       ??_C@_1M@JLOOOEGK@?$AAk?$AAo?$AA?9?$AAK?$AAR@ 0045e580     libcpmt:winapinls.obj
 0002:0000258c       ??_C@_1M@IHBJJGG@?$AAn?$AAl?$AA?9?$AAN?$AAL@ 0045e58c     libcpmt:winapinls.obj
 0002:00002598       ??_C@_1M@EANAGDL@?$AAn?$AAb?$AA?9?$AAN?$AAO@ 0045e598     libcpmt:winapinls.obj
 0002:000025a4       ??_C@_1M@NEIEMEGP@?$AAp?$AAl?$AA?9?$AAP?$AAL@ 0045e5a4     libcpmt:winapinls.obj
 0002:000025b0       ??_C@_1M@BOCFIGEP@?$AAp?$AAt?$AA?9?$AAB?$AAR@ 0045e5b0     libcpmt:winapinls.obj
 0002:000025bc       ??_C@_1M@IMPFOPBG@?$AAr?$AAo?$AA?9?$AAR?$AAO@ 0045e5bc     libcpmt:winapinls.obj
 0002:000025c8       ??_C@_1M@IDNNEJMM@?$AAr?$AAu?$AA?9?$AAR?$AAU@ 0045e5c8     libcpmt:winapinls.obj
 0002:000025d4       ??_C@_1M@LILEEOGM@?$AAh?$AAr?$AA?9?$AAH?$AAR@ 0045e5d4     libcpmt:winapinls.obj
 0002:000025e0       ??_C@_1M@FKIFEHPB@?$AAs?$AAk?$AA?9?$AAS?$AAK@ 0045e5e0     libcpmt:winapinls.obj
 0002:000025ec       ??_C@_1M@LJMAMNPJ@?$AAs?$AAq?$AA?9?$AAA?$AAL@ 0045e5ec     libcpmt:winapinls.obj
 0002:000025f8       ??_C@_1M@GIAKDKJK@?$AAs?$AAv?$AA?9?$AAS?$AAE@ 0045e5f8     libcpmt:winapinls.obj
 0002:00002604       ??_C@_1M@MKJKIKCL@?$AAt?$AAh?$AA?9?$AAT?$AAH@ 0045e604     libcpmt:winapinls.obj
 0002:00002610       ??_C@_1M@MFLCCMPB@?$AAt?$AAr?$AA?9?$AAT?$AAR@ 0045e610     libcpmt:winapinls.obj
 0002:0000261c       ??_C@_1M@OIJHDKJN@?$AAu?$AAr?$AA?9?$AAP?$AAK@ 0045e61c     libcpmt:winapinls.obj
 0002:00002628       ??_C@_1M@LHIPCIEK@?$AAi?$AAd?$AA?9?$AAI?$AAD@ 0045e628     libcpmt:winapinls.obj
 0002:00002634       ??_C@_1M@MFMOBGI@?$AAu?$AAk?$AA?9?$AAU?$AAA@ 0045e634     libcpmt:winapinls.obj
 0002:00002640       ??_C@_1M@OBGLJIPL@?$AAb?$AAe?$AA?9?$AAB?$AAY@ 0045e640     libcpmt:winapinls.obj
 0002:0000264c       ??_C@_1M@BCFAJEAD@?$AAs?$AAl?$AA?9?$AAS?$AAI@ 0045e64c     libcpmt:winapinls.obj
 0002:00002658       ??_C@_1M@FKFFEDDN@?$AAe?$AAt?$AA?9?$AAE?$AAE@ 0045e658     libcpmt:winapinls.obj
 0002:00002664       ??_C@_1M@KGKKAACI@?$AAl?$AAv?$AA?9?$AAL?$AAV@ 0045e664     libcpmt:winapinls.obj
 0002:00002670       ??_C@_1M@IFGBIJO@?$AAl?$AAt?$AA?9?$AAL?$AAT@ 0045e670     libcpmt:winapinls.obj
 0002:0000267c       ??_C@_1M@FGEAHEDM@?$AAf?$AAa?$AA?9?$AAI?$AAR@ 0045e67c     libcpmt:winapinls.obj
 0002:00002688       ??_C@_1M@KBMAIBFN@?$AAv?$AAi?$AA?9?$AAV?$AAN@ 0045e688     libcpmt:winapinls.obj
 0002:00002694       ??_C@_1M@GPCBKDJK@?$AAh?$AAy?$AA?9?$AAA?$AAM@ 0045e694     libcpmt:winapinls.obj
 0002:000026a0       ??_C@_1BG@BECMDDJB@?$AAa?$AAz?$AA?9?$AAA?$AAZ?$AA?9?$AAL?$AAa?$AAt?$AAn@ 0045e6a0     libcpmt:winapinls.obj
 0002:000026b8       ??_C@_1M@MAOFCAEA@?$AAe?$AAu?$AA?9?$AAE?$AAS@ 0045e6b8     libcpmt:winapinls.obj
 0002:000026c4       ??_C@_1M@IGHABKPI@?$AAm?$AAk?$AA?9?$AAM?$AAK@ 0045e6c4     libcpmt:winapinls.obj
 0002:000026d0       ??_C@_1M@IAIGNEJG@?$AAt?$AAn?$AA?9?$AAZ?$AAA@ 0045e6d0     libcpmt:winapinls.obj
 0002:000026dc       ??_C@_1M@IIJCOJFA@?$AAx?$AAh?$AA?9?$AAZ?$AAA@ 0045e6dc     libcpmt:winapinls.obj
 0002:000026e8       ??_C@_1M@LGPJHNJH@?$AAz?$AAu?$AA?9?$AAZ?$AAA@ 0045e6e8     libcpmt:winapinls.obj
 0002:000026f4       ??_C@_1M@HOKAOIO@?$AAa?$AAf?$AA?9?$AAZ?$AAA@ 0045e6f4     libcpmt:winapinls.obj
 0002:00002700       ??_C@_1M@DPCLHLIE@?$AAk?$AAa?$AA?9?$AAG?$AAE@ 0045e700     libcpmt:winapinls.obj
 0002:0000270c       ??_C@_1M@BLKMHJBI@?$AAf?$AAo?$AA?9?$AAF?$AAO@ 0045e70c     libcpmt:winapinls.obj
 0002:00002718       ??_C@_1M@LGGJAPPB@?$AAh?$AAi?$AA?9?$AAI?$AAN@ 0045e718     libcpmt:winapinls.obj
 0002:00002724       ??_C@_1M@FIKPIHFE@?$AAm?$AAt?$AA?9?$AAM?$AAT@ 0045e724     libcpmt:winapinls.obj
 0002:00002730       ??_C@_1M@HEGGPBFA@?$AAs?$AAe?$AA?9?$AAN?$AAO@ 0045e730     libcpmt:winapinls.obj
 0002:0000273c       ??_C@_1M@EIBJEEPA@?$AAm?$AAs?$AA?9?$AAM?$AAY@ 0045e73c     libcpmt:winapinls.obj
 0002:00002748       ??_C@_1M@FHLBGMPP@?$AAk?$AAk?$AA?9?$AAK?$AAZ@ 0045e748     libcpmt:winapinls.obj
 0002:00002754       ??_C@_1M@NGJJLCGI@?$AAk?$AAy?$AA?9?$AAK?$AAG@ 0045e754     libcpmt:winapinls.obj
 0002:00002760       ??_C@_1M@GIENNBFC@?$AAs?$AAw?$AA?9?$AAK?$AAE@ 0045e760     libcpmt:winapinls.obj
 0002:0000276c       ??_C@_1BG@NDGMJIMJ@?$AAu?$AAz?$AA?9?$AAU?$AAZ?$AA?9?$AAL?$AAa?$AAt?$AAn@ 0045e76c     libcpmt:winapinls.obj
 0002:00002784       ??_C@_1M@IDCCIHBC@?$AAt?$AAt?$AA?9?$AAR?$AAU@ 0045e784     libcpmt:winapinls.obj
 0002:00002790       ??_C@_1M@LOICPMOJ@?$AAb?$AAn?$AA?9?$AAI?$AAN@ 0045e790     libcpmt:winapinls.obj
 0002:0000279c       ??_C@_1M@KPKKNEAH@?$AAp?$AAa?$AA?9?$AAI?$AAN@ 0045e79c     libcpmt:winapinls.obj
 0002:000027a8       ??_C@_1M@PJGPPBOG@?$AAg?$AAu?$AA?9?$AAI?$AAN@ 0045e7a8     libcpmt:winapinls.obj
 0002:000027b4       ??_C@_1M@KMKMOPHI@?$AAt?$AAa?$AA?9?$AAI?$AAN@ 0045e7b4     libcpmt:winapinls.obj
 0002:000027c0       ??_C@_1M@KFEHEPAC@?$AAt?$AAe?$AA?9?$AAI?$AAN@ 0045e7c0     libcpmt:winapinls.obj
 0002:000027cc       ??_C@_1M@CDCLMGHI@?$AAk?$AAn?$AA?9?$AAI?$AAN@ 0045e7cc     libcpmt:winapinls.obj
 0002:000027d8       ??_C@_1M@MIODLDKF@?$AAm?$AAl?$AA?9?$AAI?$AAN@ 0045e7d8     libcpmt:winapinls.obj
 0002:000027e4       ??_C@_1M@PBIEACPO@?$AAm?$AAr?$AA?9?$AAI?$AAN@ 0045e7e4     libcpmt:winapinls.obj
 0002:000027f0       ??_C@_1M@NIDEAGPH@?$AAs?$AAa?$AA?9?$AAI?$AAN@ 0045e7f0     libcpmt:winapinls.obj
 0002:000027fc       ??_C@_1M@FHIHCBIO@?$AAm?$AAn?$AA?9?$AAM?$AAN@ 0045e7fc     libcpmt:winapinls.obj
 0002:00002808       ??_C@_1M@JAIJPENP@?$AAc?$AAy?$AA?9?$AAG?$AAB@ 0045e808     libcpmt:winapinls.obj
 0002:00002814       ??_C@_1M@PHGFBEPN@?$AAg?$AAl?$AA?9?$AAE?$AAS@ 0045e814     libcpmt:winapinls.obj
 0002:00002820       ??_C@_1O@KPIPDNCP@?$AAk?$AAo?$AAk?$AA?9?$AAI?$AAN@ 0045e820     libcpmt:winapinls.obj
 0002:00002830       ??_C@_1O@KNHJLDJA@?$AAs?$AAy?$AAr?$AA?9?$AAS?$AAY@ 0045e830     libcpmt:winapinls.obj
 0002:00002840       ??_C@_1O@MKEKBLAH@?$AAd?$AAi?$AAv?$AA?9?$AAM?$AAV@ 0045e840     libcpmt:winapinls.obj
 0002:00002850       ??_C@_1O@OHDCKDDF@?$AAq?$AAu?$AAz?$AA?9?$AAB?$AAO@ 0045e850     libcpmt:winapinls.obj
 0002:00002860       ??_C@_1M@LEPJNLFD@?$AAn?$AAs?$AA?9?$AAZ?$AAA@ 0045e860     libcpmt:winapinls.obj
 0002:0000286c       ??_C@_1M@OMLEIIJB@?$AAm?$AAi?$AA?9?$AAN?$AAZ@ 0045e86c     libcpmt:winapinls.obj
 0002:00002878       ??_C@_1M@PMPEAILG@?$AAa?$AAr?$AA?9?$AAI?$AAQ@ 0045e878     libcpmt:winapinls.obj
 0002:00002884       ??_C@_1M@BIBDDEMK@?$AAz?$AAh?$AA?9?$AAC?$AAN@ 0045e884     libcpmt:winapinls.obj
 0002:00002890       ??_C@_1M@CNKPNOEE@?$AAd?$AAe?$AA?9?$AAC?$AAH@ 0045e890     libcpmt:winapinls.obj
 0002:0000289c       ??_C@_1M@LKMGMLKO@?$AAe?$AAn?$AA?9?$AAG?$AAB@ 0045e89c     libcpmt:winapinls.obj
 0002:000028a8       ??_C@_1M@PGKJFFGL@?$AAe?$AAs?$AA?9?$AAM?$AAX@ 0045e8a8     libcpmt:winapinls.obj
 0002:000028b4       ??_C@_1M@DNNANBDC@?$AAf?$AAr?$AA?9?$AAB?$AAE@ 0045e8b4     libcpmt:winapinls.obj
 0002:000028c0       ??_C@_1M@HLGMDFHM@?$AAi?$AAt?$AA?9?$AAC?$AAH@ 0045e8c0     libcpmt:winapinls.obj
 0002:000028cc       ??_C@_1M@CLLBGJH@?$AAn?$AAl?$AA?9?$AAB?$AAE@ 0045e8cc     libcpmt:winapinls.obj
 0002:000028d8       ??_C@_1M@BODBOGLF@?$AAn?$AAn?$AA?9?$AAN?$AAO@ 0045e8d8     libcpmt:winapinls.obj
 0002:000028e4       ??_C@_1M@HFFAHKAD@?$AAp?$AAt?$AA?9?$AAP?$AAT@ 0045e8e4     libcpmt:winapinls.obj
 0002:000028f0       ??_C@_1BG@LNOAKHIE@?$AAs?$AAr?$AA?9?$AAS?$AAP?$AA?9?$AAL?$AAa?$AAt?$AAn@ 0045e8f0     libcpmt:winapinls.obj
 0002:00002908       ??_C@_1M@HBMHBGAK@?$AAs?$AAv?$AA?9?$AAF?$AAI@ 0045e908     libcpmt:winapinls.obj
 0002:00002914       ??_C@_1BG@DGCJGJBE@?$AAa?$AAz?$AA?9?$AAA?$AAZ?$AA?9?$AAC?$AAy?$AAr?$AAl@ 0045e914     libcpmt:winapinls.obj
 0002:0000292c       ??_C@_1M@KEJDAAHB@?$AAs?$AAe?$AA?9?$AAS?$AAE@ 0045e92c     libcpmt:winapinls.obj
 0002:00002938       ??_C@_1M@HEIBJJAD@?$AAm?$AAs?$AA?9?$AAB?$AAN@ 0045e938     libcpmt:winapinls.obj
 0002:00002944       ??_C@_1BG@PBGJMCEM@?$AAu?$AAz?$AA?9?$AAU?$AAZ?$AA?9?$AAC?$AAy?$AAr?$AAl@ 0045e944     libcpmt:winapinls.obj
 0002:0000295c       ??_C@_1O@LAOBCMDF@?$AAq?$AAu?$AAz?$AA?9?$AAE?$AAC@ 0045e95c     libcpmt:winapinls.obj
 0002:0000296c       ??_C@_1M@POEEMAIO@?$AAa?$AAr?$AA?9?$AAE?$AAG@ 0045e96c     libcpmt:winapinls.obj
 0002:00002978       ??_C@_1M@EFAKDEDL@?$AAz?$AAh?$AA?9?$AAH?$AAK@ 0045e978     libcpmt:winapinls.obj
 0002:00002984       ??_C@_1M@HKKIJHGI@?$AAd?$AAe?$AA?9?$AAA?$AAT@ 0045e984     libcpmt:winapinls.obj
 0002:00002990       ??_C@_1M@KBFBEHJF@?$AAe?$AAn?$AA?9?$AAA?$AAU@ 0045e990     libcpmt:winapinls.obj
 0002:0000299c       ??_C@_1M@MNPLFAAH@?$AAe?$AAs?$AA?9?$AAE?$AAS@ 0045e99c     libcpmt:winapinls.obj
 0002:000029a8       ??_C@_1M@HJOOJFMA@?$AAf?$AAr?$AA?9?$AAC?$AAA@ 0045e9a8     libcpmt:winapinls.obj
 0002:000029b4       ??_C@_1BG@JPOFPNAB@?$AAs?$AAr?$AA?9?$AAS?$AAP?$AA?9?$AAC?$AAy?$AAr?$AAl@ 0045e9b4     libcpmt:winapinls.obj
 0002:000029cc       ??_C@_1M@LNFOCMOB@?$AAs?$AAe?$AA?9?$AAF?$AAI@ 0045e9cc     libcpmt:winapinls.obj
 0002:000029d8       ??_C@_1O@MGJBOAMB@?$AAq?$AAu?$AAz?$AA?9?$AAP?$AAE@ 0045e9d8     libcpmt:winapinls.obj
 0002:000029e8       ??_C@_1M@GJINLBOK@?$AAa?$AAr?$AA?9?$AAL?$AAY@ 0045e9e8     libcpmt:winapinls.obj
 0002:000029f4       ??_C@_1M@GGMNHJNL@?$AAz?$AAh?$AA?9?$AAS?$AAG@ 0045e9f4     libcpmt:winapinls.obj
 0002:00002a00       ??_C@_1M@HOIKODND@?$AAd?$AAe?$AA?9?$AAL?$AAU@ 0045ea00     libcpmt:winapinls.obj
 0002:00002a0c       ??_C@_1M@DDOCCGFG@?$AAe?$AAn?$AA?9?$AAC?$AAA@ 0045ea0c     libcpmt:winapinls.obj
 0002:00002a18       ??_C@_1M@BNOEMJLF@?$AAe?$AAs?$AA?9?$AAG?$AAT@ 0045ea18     libcpmt:winapinls.obj
 0002:00002a24       ??_C@_1M@EOGNKEK@?$AAf?$AAr?$AA?9?$AAC?$AAH@ 0045ea24     libcpmt:winapinls.obj
 0002:00002a30       ??_C@_1M@FLIDJFHL@?$AAh?$AAr?$AA?9?$AAB?$AAA@ 0045ea30     libcpmt:winapinls.obj
 0002:00002a3c       ??_C@_1O@FMCELNAJ@?$AAs?$AAm?$AAj?$AA?9?$AAN?$AAO@ 0045ea3c     libcpmt:winapinls.obj
 0002:00002a4c       ??_C@_1M@JHGLJMGJ@?$AAa?$AAr?$AA?9?$AAD?$AAZ@ 0045ea4c     libcpmt:winapinls.obj
 0002:00002a58       ??_C@_1M@JKKFDCNP@?$AAz?$AAh?$AA?9?$AAM?$AAO@ 0045ea58     libcpmt:winapinls.obj
 0002:00002a64       ??_C@_1M@GEEFALPE@?$AAd?$AAe?$AA?9?$AAL?$AAI@ 0045ea64     libcpmt:winapinls.obj
 0002:00002a70       ??_C@_1M@IGEOFBG@?$AAe?$AAn?$AA?9?$AAN?$AAZ@ 0045ea70     libcpmt:winapinls.obj
 0002:00002a7c       ??_C@_1M@KDBONEHP@?$AAe?$AAs?$AA?9?$AAC?$AAR@ 0045ea7c     libcpmt:winapinls.obj
 0002:00002a88       ??_C@_1M@FHMDOHNN@?$AAf?$AAr?$AA?9?$AAL?$AAU@ 0045ea88     libcpmt:winapinls.obj
 0002:00002a94       ??_C@_1BG@NFKKMAFG@?$AAb?$AAs?$AA?9?$AAB?$AAA?$AA?9?$AAL?$AAa?$AAt?$AAn@ 0045ea94     libcpmt:winapinls.obj
 0002:00002aac       ??_C@_1O@IMNBEMCI@?$AAs?$AAm?$AAj?$AA?9?$AAS?$AAE@ 0045eaac     libcpmt:winapinls.obj
 0002:00002abc       ??_C@_1M@DHHMBNDP@?$AAa?$AAr?$AA?9?$AAM?$AAA@ 0045eabc     libcpmt:winapinls.obj
 0002:00002ac8       ??_C@_1M@BNBLJCGH@?$AAe?$AAn?$AA?9?$AAI?$AAE@ 0045eac8     libcpmt:winapinls.obj
 0002:00002ad4       ??_C@_1M@GEPAFMDL@?$AAe?$AAs?$AA?9?$AAP?$AAA@ 0045ead4     libcpmt:winapinls.obj
 0002:00002ae0       ??_C@_1M@OJONDMDL@?$AAf?$AAr?$AA?9?$AAM?$AAC@ 0045eae0     libcpmt:winapinls.obj
 0002:00002aec       ??_C@_1BG@OBCNFJB@?$AAs?$AAr?$AA?9?$AAB?$AAA?$AA?9?$AAL?$AAa?$AAt?$AAn@ 0045eaec     libcpmt:winapinls.obj
 0002:00002b04       ??_C@_1O@KEMEEGPO@?$AAs?$AAm?$AAa?$AA?9?$AAN?$AAO@ 0045eb04     libcpmt:winapinls.obj
 0002:00002b14       ??_C@_1M@ELMGFODK@?$AAa?$AAr?$AA?9?$AAT?$AAN@ 0045eb14     libcpmt:winapinls.obj
 0002:00002b20       ??_C@_1M@BHDLHFAF@?$AAe?$AAn?$AA?9?$AAZ?$AAA@ 0045eb20     libcpmt:winapinls.obj
 0002:00002b2c       ??_C@_1M@BMGIGLIF@?$AAe?$AAs?$AA?9?$AAD?$AAO@ 0045eb2c     libcpmt:winapinls.obj
 0002:00002b38       ??_C@_1BG@CMBHIPBE@?$AAs?$AAr?$AA?9?$AAB?$AAA?$AA?9?$AAC?$AAy?$AAr?$AAl@ 0045eb38     libcpmt:winapinls.obj
 0002:00002b50       ??_C@_1O@HEDBLHNP@?$AAs?$AAm?$AAa?$AA?9?$AAS?$AAE@ 0045eb50     libcpmt:winapinls.obj
 0002:00002b60       ??_C@_1M@DAGCADIM@?$AAa?$AAr?$AA?9?$AAO?$AAM@ 0045eb60     libcpmt:winapinls.obj
 0002:00002b6c       ??_C@_1M@FODLMICG@?$AAe?$AAn?$AA?9?$AAJ?$AAM@ 0045eb6c     libcpmt:winapinls.obj
 0002:00002b78       ??_C@_1M@DNMLCIHB@?$AAe?$AAs?$AA?9?$AAV?$AAE@ 0045eb78     libcpmt:winapinls.obj
 0002:00002b84       ??_C@_1O@EOKHMKJK@?$AAs?$AAm?$AAs?$AA?9?$AAF?$AAI@ 0045eb84     libcpmt:winapinls.obj
 0002:00002b94       ??_C@_1M@CAFJMKOF@?$AAa?$AAr?$AA?9?$AAY?$AAE@ 0045eb94     libcpmt:winapinls.obj
 0002:00002ba0       ??_C@_1M@CBFHIJLI@?$AAe?$AAn?$AA?9?$AAC?$AAB@ 0045eba0     libcpmt:winapinls.obj
 0002:00002bac       ??_C@_1M@BGNFLDN@?$AAe?$AAs?$AA?9?$AAC?$AAO@ 0045ebac     libcpmt:winapinls.obj
 0002:00002bb8       ??_C@_1O@JMPHMAMC@?$AAs?$AAm?$AAn?$AA?9?$AAF?$AAI@ 0045ebb8     libcpmt:winapinls.obj
 0002:00002bc8       ??_C@_1M@JLANABKE@?$AAa?$AAr?$AA?9?$AAS?$AAY@ 0045ebc8     libcpmt:winapinls.obj
 0002:00002bd4       ??_C@_1M@HPKGCFGN@?$AAe?$AAn?$AA?9?$AAB?$AAZ@ 0045ebd4     libcpmt:winapinls.obj
 0002:00002be0       ??_C@_1M@OLJCMLGM@?$AAe?$AAs?$AA?9?$AAP?$AAE@ 0045ebe0     libcpmt:winapinls.obj
 0002:00002bec       ??_C@_1M@MKKGFKLE@?$AAa?$AAr?$AA?9?$AAJ?$AAO@ 0045ebec     libcpmt:winapinls.obj
 0002:00002bf8       ??_C@_1M@EKPGLDNI@?$AAe?$AAn?$AA?9?$AAT?$AAT@ 0045ebf8     libcpmt:winapinls.obj
 0002:00002c04       ??_C@_1M@OONGHFHE@?$AAe?$AAs?$AA?9?$AAA?$AAR@ 0045ec04     libcpmt:winapinls.obj
 0002:00002c10       ??_C@_1M@OOJFGBHE@?$AAa?$AAr?$AA?9?$AAL?$AAB@ 0045ec10     libcpmt:winapinls.obj
 0002:00002c1c       ??_C@_1M@GCEJHNEG@?$AAe?$AAn?$AA?9?$AAZ?$AAW@ 0045ec1c     libcpmt:winapinls.obj
 0002:00002c28       ??_C@_1M@JNOCAHJI@?$AAe?$AAs?$AA?9?$AAE?$AAC@ 0045ec28     libcpmt:winapinls.obj
 0002:00002c34       ??_C@_1M@JEFHPGGB@?$AAa?$AAr?$AA?9?$AAK?$AAW@ 0045ec34     libcpmt:winapinls.obj
 0002:00002c40       ??_C@_1M@MLKIBJOJ@?$AAe?$AAn?$AA?9?$AAP?$AAH@ 0045ec40     libcpmt:winapinls.obj
 0002:00002c4c       ??_C@_1M@BDNIPEND@?$AAe?$AAs?$AA?9?$AAC?$AAL@ 0045ec4c     libcpmt:winapinls.obj
 0002:00002c58       ??_C@_1M@MPNMEKBD@?$AAa?$AAr?$AA?9?$AAA?$AAE@ 0045ec58     libcpmt:winapinls.obj
 0002:00002c64       ??_C@_1M@KBJALCPI@?$AAe?$AAs?$AA?9?$AAU?$AAY@ 0045ec64     libcpmt:winapinls.obj
 0002:00002c70       ??_C@_1M@LLCCOAGA@?$AAa?$AAr?$AA?9?$AAB?$AAH@ 0045ec70     libcpmt:winapinls.obj
 0002:00002c7c       ??_C@_1M@PBFNCDEL@?$AAe?$AAs?$AA?9?$AAP?$AAY@ 0045ec7c     libcpmt:winapinls.obj
 0002:00002c88       ??_C@_1M@EDGINPNP@?$AAa?$AAr?$AA?9?$AAQ?$AAA@ 0045ec88     libcpmt:winapinls.obj
 0002:00002c94       ??_C@_1M@MKDBIIJI@?$AAe?$AAs?$AA?9?$AAB?$AAO@ 0045ec94     libcpmt:winapinls.obj
 0002:00002ca0       ??_C@_1M@CPKKEBLD@?$AAe?$AAs?$AA?9?$AAS?$AAV@ 0045eca0     libcpmt:winapinls.obj
 0002:00002cac       ??_C@_1M@NDBGMMJL@?$AAe?$AAs?$AA?9?$AAH?$AAN@ 0045ecac     libcpmt:winapinls.obj
 0002:00002cb8       ??_C@_1M@JIJIBHDP@?$AAe?$AAs?$AA?9?$AAN?$AAI@ 0045ecb8     libcpmt:winapinls.obj
 0002:00002cc4       ??_C@_1M@CGFMKEEK@?$AAe?$AAs?$AA?9?$AAP?$AAR@ 0045ecc4     libcpmt:winapinls.obj
 0002:00002cd0       ??_C@_1O@ICJHKIIK@?$AAz?$AAh?$AA?9?$AAC?$AAH?$AAT@ 0045ecd0     libcpmt:winapinls.obj
 0002:00002ce0       ??_C@_15CLNEJCE@?$AAs?$AAr@ 0045ece0     libcpmt:winapinls.obj
 0002:00002ce8       ??_C@_1M@KAHEKEIG@?$AAa?$AAf?$AA?9?$AAz?$AAa@ 0045ece8     libcpmt:winapinls.obj
 0002:00002cf4       ??_C@_1M@GIECOABL@?$AAa?$AAr?$AA?9?$AAa?$AAe@ 0045ecf4     libcpmt:winapinls.obj
 0002:00002d00       ??_C@_1M@BMLMEKGI@?$AAa?$AAr?$AA?9?$AAb?$AAh@ 0045ed00     libcpmt:winapinls.obj
 0002:00002d0c       ??_C@_1M@DAPFDGGB@?$AAa?$AAr?$AA?9?$AAd?$AAz@ 0045ed0c     libcpmt:winapinls.obj
 0002:00002d18       ??_C@_1M@FJNKGKIG@?$AAa?$AAr?$AA?9?$AAe?$AAg@ 0045ed18     libcpmt:winapinls.obj
 0002:00002d24       ??_C@_1M@FLGKKCLO@?$AAa?$AAr?$AA?9?$AAi?$AAq@ 0045ed24     libcpmt:winapinls.obj
 0002:00002d30       ??_C@_1M@GNDIPALM@?$AAa?$AAr?$AA?9?$AAj?$AAo@ 0045ed30     libcpmt:winapinls.obj
 0002:00002d3c       ??_C@_1M@DDMJFMGJ@?$AAa?$AAr?$AA?9?$AAk?$AAw@ 0045ed3c     libcpmt:winapinls.obj
 0002:00002d48       ??_C@_1M@EJALMLHM@?$AAa?$AAr?$AA?9?$AAl?$AAb@ 0045ed48     libcpmt:winapinls.obj
 0002:00002d54       ??_C@_1M@MOBDBLOC@?$AAa?$AAr?$AA?9?$AAl?$AAy@ 0045ed54     libcpmt:winapinls.obj
 0002:00002d60       ??_C@_1M@JAOCLHDH@?$AAa?$AAr?$AA?9?$AAm?$AAa@ 0045ed60     libcpmt:winapinls.obj
 0002:00002d6c       ??_C@_1M@JHPMKJIE@?$AAa?$AAr?$AA?9?$AAo?$AAm@ 0045ed6c     libcpmt:winapinls.obj
 0002:00002d78       ??_C@_1M@OEPGHFNH@?$AAa?$AAr?$AA?9?$AAq?$AAa@ 0045ed78     libcpmt:winapinls.obj
 0002:00002d84       ??_C@_1M@KJDONENM@?$AAa?$AAr?$AA?9?$AAs?$AAa@ 0045ed84     libcpmt:winapinls.obj
 0002:00002d90       ??_C@_1M@DMJDKLKM@?$AAa?$AAr?$AA?9?$AAs?$AAy@ 0045ed90     libcpmt:winapinls.obj
 0002:00002d9c       ??_C@_1M@OMFIPEDC@?$AAa?$AAr?$AA?9?$AAt?$AAn@ 0045ed9c     libcpmt:winapinls.obj
 0002:00002da8       ??_C@_1M@IHMHGAON@?$AAa?$AAr?$AA?9?$AAy?$AAe@ 0045eda8     libcpmt:winapinls.obj
 0002:00002db4       ??_C@_1BG@KDCPGJGB@?$AAa?$AAz?$AA?9?$AAa?$AAz?$AA?9?$AAc?$AAy?$AAr?$AAl@ 0045edb4     libcpmt:winapinls.obj
 0002:00002dcc       ??_C@_1BG@IBCKDDOE@?$AAa?$AAz?$AA?9?$AAa?$AAz?$AA?9?$AAl?$AAa?$AAt?$AAn@ 0045edcc     libcpmt:winapinls.obj
 0002:00002de4       ??_C@_1M@EGPFDCPD@?$AAb?$AAe?$AA?9?$AAb?$AAy@ 0045ede4     libcpmt:winapinls.obj
 0002:00002df0       ??_C@_1M@PCMGMCGC@?$AAb?$AAg?$AA?9?$AAb?$AAg@ 0045edf0     libcpmt:winapinls.obj
 0002:00002dfc       ??_C@_1M@BJBMFGOB@?$AAb?$AAn?$AA?9?$AAi?$AAn@ 0045edfc     libcpmt:winapinls.obj
 0002:00002e08       ??_C@_1BG@EAKMMACD@?$AAb?$AAs?$AA?9?$AAb?$AAa?$AA?9?$AAl?$AAa?$AAt?$AAn@ 0045ee08     libcpmt:winapinls.obj
 0002:00002e20       ??_C@_1M@KGADAODK@?$AAc?$AAa?$AA?9?$AAe?$AAs@ 0045ee20     libcpmt:winapinls.obj
 0002:00002e2c       ??_C@_1M@COAJPDHI@?$AAc?$AAs?$AA?9?$AAc?$AAz@ 0045ee2c     libcpmt:winapinls.obj
 0002:00002e38       ??_C@_1M@DHBHFONH@?$AAc?$AAy?$AA?9?$AAg?$AAb@ 0045ee38     libcpmt:winapinls.obj
 0002:00002e44       ??_C@_1M@IMGKELGA@?$AAd?$AAa?$AA?9?$AAd?$AAk@ 0045ee44     libcpmt:winapinls.obj
 0002:00002e50       ??_C@_1M@NNDGDNGA@?$AAd?$AAe?$AA?9?$AAa?$AAt@ 0045ee50     libcpmt:winapinls.obj
 0002:00002e5c       ??_C@_1M@IKDBHEEM@?$AAd?$AAe?$AA?9?$AAc?$AAh@ 0045ee5c     libcpmt:winapinls.obj
 0002:00002e68       ??_C@_1M@GFFOJMCJ@?$AAd?$AAe?$AA?9?$AAd?$AAe@ 0045ee68     libcpmt:winapinls.obj
 0002:00002e74       ??_C@_1M@MDNLKBPM@?$AAd?$AAe?$AA?9?$AAl?$AAi@ 0045ee74     libcpmt:winapinls.obj
 0002:00002e80       ??_C@_1M@NJBEEJNL@?$AAd?$AAe?$AA?9?$AAl?$AAu@ 0045ee80     libcpmt:winapinls.obj
 0002:00002e8c       ??_C@_1O@GNNELBAP@?$AAd?$AAi?$AAv?$AA?9?$AAm?$AAv@ 0045ee8c     libcpmt:winapinls.obj
 0002:00002e9c       ??_C@_1M@EJLEOGAE@?$AAe?$AAl?$AA?9?$AAg?$AAr@ 0045ee9c     libcpmt:winapinls.obj
 0002:00002ea8       ??_C@_1M@GMPONJN@?$AAe?$AAn?$AA?9?$AAa?$AAu@ 0045eea8     libcpmt:winapinls.obj
 0002:00002eb4       ??_C@_1M@NIDIIPGF@?$AAe?$AAn?$AA?9?$AAb?$AAz@ 0045eeb4     libcpmt:winapinls.obj
 0002:00002ec0       ??_C@_1M@JEHMIMFO@?$AAe?$AAn?$AA?9?$AAc?$AAa@ 0045eec0     libcpmt:winapinls.obj
 0002:00002ecc       ??_C@_1M@IGMJCDLA@?$AAe?$AAn?$AA?9?$AAc?$AAb@ 0045eecc     libcpmt:winapinls.obj
 0002:00002ed8       ??_C@_1M@BNFIGBKG@?$AAe?$AAn?$AA?9?$AAg?$AAb@ 0045eed8     libcpmt:winapinls.obj
 0002:00002ee4       ??_C@_1M@LKIFDIGP@?$AAe?$AAn?$AA?9?$AAi?$AAe@ 0045eee4     libcpmt:winapinls.obj
 0002:00002ef0       ??_C@_1M@PJKFGCCO@?$AAe?$AAn?$AA?9?$AAj?$AAm@ 0045eef0     libcpmt:winapinls.obj
 0002:00002efc       ??_C@_1M@KPPKEPBO@?$AAe?$AAn?$AA?9?$AAn?$AAz@ 0045eefc     libcpmt:winapinls.obj
 0002:00002f08       ??_C@_1M@GMDGLDOB@?$AAe?$AAn?$AA?9?$AAp?$AAh@ 0045ef08     libcpmt:winapinls.obj
 0002:00002f14       ??_C@_1M@ONGIBJNA@?$AAe?$AAn?$AA?9?$AAt?$AAt@ 0045ef14     libcpmt:winapinls.obj
 0002:00002f20       ??_C@_1M@LLODPCMM@?$AAe?$AAn?$AA?9?$AAu?$AAs@ 0045ef20     libcpmt:winapinls.obj
 0002:00002f2c       ??_C@_1M@LAKFNPAN@?$AAe?$AAn?$AA?9?$AAz?$AAa@ 0045ef2c     libcpmt:winapinls.obj
 0002:00002f38       ??_C@_1M@MFNHNHEO@?$AAe?$AAn?$AA?9?$AAz?$AAw@ 0045ef38     libcpmt:winapinls.obj
 0002:00002f44       ??_C@_1M@EJEINPHM@?$AAe?$AAs?$AA?9?$AAa?$AAr@ 0045ef44     libcpmt:winapinls.obj
 0002:00002f50       ??_C@_1M@GNKPCCJA@?$AAe?$AAs?$AA?9?$AAb?$AAo@ 0045ef50     libcpmt:winapinls.obj
 0002:00002f5c       ??_C@_1M@LEEGFONL@?$AAe?$AAs?$AA?9?$AAc?$AAl@ 0045ef5c     libcpmt:winapinls.obj
 0002:00002f68       ??_C@_1M@KGPDPBDF@?$AAe?$AAs?$AA?9?$AAc?$AAo@ 0045ef68     libcpmt:winapinls.obj
 0002:00002f74       ??_C@_1M@EIAHOHH@?$AAe?$AAs?$AA?9?$AAc?$AAr@ 0045ef74     libcpmt:winapinls.obj
 0002:00002f80       ??_C@_1M@LLPGMBIN@?$AAe?$AAs?$AA?9?$AAd?$AAo@ 0045ef80     libcpmt:winapinls.obj
 0002:00002f8c       ??_C@_1M@DKHMKNJA@?$AAe?$AAs?$AA?9?$AAe?$AAc@ 0045ef8c     libcpmt:winapinls.obj
 0002:00002f98       ??_C@_1M@GKGFPKAP@?$AAe?$AAs?$AA?9?$AAe?$AAs@ 0045ef98     libcpmt:winapinls.obj
 0002:00002fa4       ??_C@_1M@LKHKGDLN@?$AAe?$AAs?$AA?9?$AAg?$AAt@ 0045efa4     libcpmt:winapinls.obj
 0002:00002fb0       ??_C@_1M@HEIIGGJD@?$AAe?$AAs?$AA?9?$AAh?$AAn@ 0045efb0     libcpmt:winapinls.obj
 0002:00002fbc       ??_C@_1M@FBDHPPGD@?$AAe?$AAs?$AA?9?$AAm?$AAx@ 0045efbc     libcpmt:winapinls.obj
 0002:00002fc8       ??_C@_1M@DPAGLNDH@?$AAe?$AAs?$AA?9?$AAn?$AAi@ 0045efc8     libcpmt:winapinls.obj
 0002:00002fd4       ??_C@_1M@MDGOPGDD@?$AAe?$AAs?$AA?9?$AAp?$AAa@ 0045efd4     libcpmt:winapinls.obj
 0002:00002fe0       ??_C@_1M@EMAMGBGE@?$AAe?$AAs?$AA?9?$AAp?$AAe@ 0045efe0     libcpmt:winapinls.obj
 0002:00002fec       ??_C@_1M@IBMCAOEC@?$AAe?$AAs?$AA?9?$AAp?$AAr@ 0045efec     libcpmt:winapinls.obj
 0002:00002ff8       ??_C@_1M@FGMDIJED@?$AAe?$AAs?$AA?9?$AAp?$AAy@ 0045eff8     libcpmt:winapinls.obj
 0002:00003004       ??_C@_1M@IIDEOLLL@?$AAe?$AAs?$AA?9?$AAs?$AAv@ 0045f004     libcpmt:winapinls.obj
 0002:00003010       ??_C@_1M@GAOBIPA@?$AAe?$AAs?$AA?9?$AAu?$AAy@ 0045f010     libcpmt:winapinls.obj
 0002:0000301c       ??_C@_1M@JKFFICHJ@?$AAe?$AAs?$AA?9?$AAv?$AAe@ 0045f01c     libcpmt:winapinls.obj
 0002:00003028       ??_C@_1M@PNMLOJDF@?$AAe?$AAt?$AA?9?$AAe?$AAe@ 0045f028     libcpmt:winapinls.obj
 0002:00003034       ??_C@_1M@GHHLIKEI@?$AAe?$AAu?$AA?9?$AAe?$AAs@ 0045f034     libcpmt:winapinls.obj
 0002:00003040       ??_C@_1M@PBNONODE@?$AAf?$AAa?$AA?9?$AAi?$AAr@ 0045f040     libcpmt:winapinls.obj
 0002:0000304c       ??_C@_1M@JEEHPMIL@?$AAf?$AAi?$AA?9?$AAf?$AAi@ 0045f04c     libcpmt:winapinls.obj
 0002:00003058       ??_C@_1M@LMDCNDBA@?$AAf?$AAo?$AA?9?$AAf?$AAo@ 0045f058     libcpmt:winapinls.obj
 0002:00003064       ??_C@_1M@JKEOHLDK@?$AAf?$AAr?$AA?9?$AAb?$AAe@ 0045f064     libcpmt:winapinls.obj
 0002:00003070       ??_C@_1M@NOHADPMI@?$AAf?$AAr?$AA?9?$AAc?$AAa@ 0045f070     libcpmt:winapinls.obj
 0002:0000307c       ??_C@_1M@KDHIHAEC@?$AAf?$AAr?$AA?9?$AAc?$AAh@ 0045f07c     libcpmt:winapinls.obj
 0002:00003088       ??_C@_1M@MMBBFGAK@?$AAf?$AAr?$AA?9?$AAf?$AAr@ 0045f088     libcpmt:winapinls.obj
 0002:00003094       ??_C@_1M@PAFNENNF@?$AAf?$AAr?$AA?9?$AAl?$AAu@ 0045f094     libcpmt:winapinls.obj
 0002:000030a0       ??_C@_1M@EOHDJGDD@?$AAf?$AAr?$AA?9?$AAm?$AAc@ 0045f0a0     libcpmt:winapinls.obj
 0002:000030ac       ??_C@_1M@FAPLLOPF@?$AAg?$AAl?$AA?9?$AAe?$AAs@ 0045f0ac     libcpmt:winapinls.obj
 0002:000030b8       ??_C@_1M@FOPBFLOO@?$AAg?$AAu?$AA?9?$AAi?$AAn@ 0045f0b8     libcpmt:winapinls.obj
 0002:000030c4       ??_C@_1M@KBMCINPM@?$AAh?$AAe?$AA?9?$AAi?$AAl@ 0045f0c4     libcpmt:winapinls.obj
 0002:000030d0       ??_C@_1M@BBPHKFPJ@?$AAh?$AAi?$AA?9?$AAi?$AAn@ 0045f0d0     libcpmt:winapinls.obj
 0002:000030dc       ??_C@_1M@PMBNDPHD@?$AAh?$AAr?$AA?9?$AAb?$AAa@ 0045f0dc     libcpmt:winapinls.obj
 0002:000030e8       ??_C@_1M@BPCKOEGE@?$AAh?$AAr?$AA?9?$AAh?$AAr@ 0045f0e8     libcpmt:winapinls.obj
 0002:000030f4       ??_C@_1M@GACBMHKE@?$AAh?$AAu?$AA?9?$AAh?$AAu@ 0045f0f4     libcpmt:winapinls.obj
 0002:00003100       ??_C@_1M@MILPAJJC@?$AAh?$AAy?$AA?9?$AAa?$AAm@ 0045f100     libcpmt:winapinls.obj
 0002:0000310c       ??_C@_1M@BABBICEC@?$AAi?$AAd?$AA?9?$AAi?$AAd@ 0045f10c     libcpmt:winapinls.obj
 0002:00003118       ??_C@_1M@BIKNHHPF@?$AAi?$AAs?$AA?9?$AAi?$AAs@ 0045f118     libcpmt:winapinls.obj
 0002:00003124       ??_C@_1M@NMPCJPHE@?$AAi?$AAt?$AA?9?$AAc?$AAh@ 0045f124     libcpmt:winapinls.obj
 0002:00003130       ??_C@_1M@GHKGFEDF@?$AAi?$AAt?$AA?9?$AAi?$AAt@ 0045f130     libcpmt:winapinls.obj
 0002:0000313c       ??_C@_1M@NIEJCJJA@?$AAj?$AAa?$AA?9?$AAj?$AAp@ 0045f13c     libcpmt:winapinls.obj
 0002:00003148       ??_C@_1M@JILFNBIM@?$AAk?$AAa?$AA?9?$AAg?$AAe@ 0045f148     libcpmt:winapinls.obj
 0002:00003154       ??_C@_1M@PACPMGPH@?$AAk?$AAk?$AA?9?$AAk?$AAz@ 0045f154     libcpmt:winapinls.obj
 0002:00003160       ??_C@_1M@IELFGMHA@?$AAk?$AAn?$AA?9?$AAi?$AAn@ 0045f160     libcpmt:winapinls.obj
 0002:0000316c       ??_C@_1M@DMHAEOGC@?$AAk?$AAo?$AA?9?$AAk?$AAr@ 0045f16c     libcpmt:winapinls.obj
 0002:00003178       ??_C@_1O@IBBJHCH@?$AAk?$AAo?$AAk?$AA?9?$AAi?$AAn@ 0045f178     libcpmt:winapinls.obj
 0002:00003188       ??_C@_1M@HBAHBIGA@?$AAk?$AAy?$AA?9?$AAk?$AAg@ 0045f188     libcpmt:winapinls.obj
 0002:00003194       ??_C@_1M@KPMILCJG@?$AAl?$AAt?$AA?9?$AAl?$AAt@ 0045f194     libcpmt:winapinls.obj
 0002:000031a0       ??_C@_1M@BDEKKCA@?$AAl?$AAv?$AA?9?$AAl?$AAv@ 0045f1a0     libcpmt:winapinls.obj
 0002:000031ac       ??_C@_1M@ELCKCCJJ@?$AAm?$AAi?$AA?9?$AAn?$AAz@ 0045f1ac     libcpmt:winapinls.obj
 0002:000031b8       ??_C@_1M@CBOOLAPA@?$AAm?$AAk?$AA?9?$AAm?$AAk@ 0045f1b8     libcpmt:winapinls.obj
 0002:000031c4       ??_C@_1M@GPHNBJKN@?$AAm?$AAl?$AA?9?$AAi?$AAn@ 0045f1c4     libcpmt:winapinls.obj
 0002:000031d0       ??_C@_1M@PABJILIG@?$AAm?$AAn?$AA?9?$AAm?$AAn@ 0045f1d0     libcpmt:winapinls.obj
 0002:000031dc       ??_C@_1M@FGBKKIPG@?$AAm?$AAr?$AA?9?$AAi?$AAn@ 0045f1dc     libcpmt:winapinls.obj
 0002:000031e8       ??_C@_1M@NDBPDDAL@?$AAm?$AAs?$AA?9?$AAb?$AAn@ 0045f1e8     libcpmt:winapinls.obj
 0002:000031f4       ??_C@_1M@OPIHOOPI@?$AAm?$AAs?$AA?9?$AAm?$AAy@ 0045f1f4     libcpmt:winapinls.obj
 0002:00003200       ??_C@_1M@PPDBCNFM@?$AAm?$AAt?$AA?9?$AAm?$AAt@ 0045f200     libcpmt:winapinls.obj
 0002:0000320c       ??_C@_1M@KDJDKMDD@?$AAn?$AAb?$AA?9?$AAn?$AAo@ 0045f20c     libcpmt:winapinls.obj
 0002:00003218       ??_C@_1M@KFCFLMJP@?$AAn?$AAl?$AA?9?$AAb?$AAe@ 0045f218     libcpmt:winapinls.obj
 0002:00003224       ??_C@_1M@KPOPDDGO@?$AAn?$AAl?$AA?9?$AAn?$AAl@ 0045f224     libcpmt:winapinls.obj
 0002:00003230       ??_C@_1M@LJKPEMLN@?$AAn?$AAn?$AA?9?$AAn?$AAo@ 0045f230     libcpmt:winapinls.obj
 0002:0000323c       ??_C@_1M@BDGHHBFL@?$AAn?$AAs?$AA?9?$AAz?$AAa@ 0045f23c     libcpmt:winapinls.obj
 0002:00003248       ??_C@_1M@IDEHOAP@?$AAp?$AAa?$AA?9?$AAi?$AAn@ 0045f248     libcpmt:winapinls.obj
 0002:00003254       ??_C@_1M@HDBKGOGH@?$AAp?$AAl?$AA?9?$AAp?$AAl@ 0045f254     libcpmt:winapinls.obj
 0002:00003260       ??_C@_1M@LJLLCMEH@?$AAp?$AAt?$AA?9?$AAb?$AAr@ 0045f260     libcpmt:winapinls.obj
 0002:0000326c       ??_C@_1M@NCMONAAL@?$AAp?$AAt?$AA?9?$AAp?$AAt@ 0045f26c     libcpmt:winapinls.obj
 0002:00003278       ??_C@_1O@EAKMAJDN@?$AAq?$AAu?$AAz?$AA?9?$AAb?$AAo@ 0045f278     libcpmt:winapinls.obj
 0002:00003288       ??_C@_1O@BHHPIGDN@?$AAq?$AAu?$AAz?$AA?9?$AAe?$AAc@ 0045f288     libcpmt:winapinls.obj
 0002:00003298       ??_C@_1O@GBAPEKMJ@?$AAq?$AAu?$AAz?$AA?9?$AAp?$AAe@ 0045f298     libcpmt:winapinls.obj
 0002:000032a8       ??_C@_1M@CLGLEFBO@?$AAr?$AAo?$AA?9?$AAr?$AAo@ 0045f2a8     libcpmt:winapinls.obj
 0002:000032b4       ??_C@_1M@CEEDODME@?$AAr?$AAu?$AA?9?$AAr?$AAu@ 0045f2b4     libcpmt:winapinls.obj
 0002:000032c0       ??_C@_1M@HPKKKMPP@?$AAs?$AAa?$AA?9?$AAi?$AAn@ 0045f2c0     libcpmt:winapinls.obj
 0002:000032cc       ??_C@_1M@BKMAIGOJ@?$AAs?$AAe?$AA?9?$AAf?$AAi@ 0045f2cc     libcpmt:winapinls.obj
 0002:000032d8       ??_C@_1M@NDPIFLFI@?$AAs?$AAe?$AA?9?$AAn?$AAo@ 0045f2d8     libcpmt:winapinls.obj
 0002:000032e4       ??_C@_1M@DANKKHJ@?$AAs?$AAe?$AA?9?$AAs?$AAe@ 0045f2e4     libcpmt:winapinls.obj
 0002:000032f0       ??_C@_1M@PNBLONPJ@?$AAs?$AAk?$AA?9?$AAs?$AAk@ 0045f2f0     libcpmt:winapinls.obj
 0002:000032fc       ??_C@_1M@LFMODOAL@?$AAs?$AAl?$AA?9?$AAs?$AAi@ 0045f2fc     libcpmt:winapinls.obj
 0002:00003308       ??_C@_1O@DFKOMPG@?$AAs?$AAm?$AAa?$AA?9?$AAn?$AAo@ 0045f308     libcpmt:winapinls.obj
 0002:00003318       ??_C@_1O@NDKPBNNH@?$AAs?$AAm?$AAa?$AA?9?$AAs?$AAe@ 0045f318     libcpmt:winapinls.obj
 0002:00003328       ??_C@_1O@PLLKBHAB@?$AAs?$AAm?$AAj?$AA?9?$AAn?$AAo@ 0045f328     libcpmt:winapinls.obj
 0002:00003338       ??_C@_1O@CLEPOGCA@?$AAs?$AAm?$AAj?$AA?9?$AAs?$AAe@ 0045f338     libcpmt:winapinls.obj
 0002:00003348       ??_C@_1O@DLGJGKMK@?$AAs?$AAm?$AAn?$AA?9?$AAf?$AAi@ 0045f348     libcpmt:winapinls.obj
 0002:00003358       ??_C@_1O@OJDJGAJC@?$AAs?$AAm?$AAs?$AA?9?$AAf?$AAi@ 0045f358     libcpmt:winapinls.obj
 0002:00003368       ??_C@_1M@BOFOGHPB@?$AAs?$AAq?$AA?9?$AAa?$AAl@ 0045f368     libcpmt:winapinls.obj
 0002:00003374       ??_C@_1BG@LJBBIPGB@?$AAs?$AAr?$AA?9?$AAb?$AAa?$AA?9?$AAc?$AAy?$AAr?$AAl@ 0045f374     libcpmt:winapinls.obj
 0002:0000338c       ??_C@_1BG@JLBENFOE@?$AAs?$AAr?$AA?9?$AAb?$AAa?$AA?9?$AAl?$AAa?$AAt?$AAn@ 0045f38c     libcpmt:winapinls.obj
 0002:000033a4       ??_C@_1BG@KODPNHE@?$AAs?$AAr?$AA?9?$AAs?$AAp?$AA?9?$AAc?$AAy?$AAr?$AAl@ 0045f3a4     libcpmt:winapinls.obj
 0002:000033bc       ??_C@_1BG@CIOGKHPB@?$AAs?$AAr?$AA?9?$AAs?$AAp?$AA?9?$AAl?$AAa?$AAt?$AAn@ 0045f3bc     libcpmt:winapinls.obj
 0002:000033d4       ??_C@_1M@NGFJLMAC@?$AAs?$AAv?$AA?9?$AAf?$AAi@ 0045f3d4     libcpmt:winapinls.obj
 0002:000033e0       ??_C@_1M@MPJEJAJC@?$AAs?$AAv?$AA?9?$AAs?$AAe@ 0045f3e0     libcpmt:winapinls.obj
 0002:000033ec       ??_C@_1M@MPNDHLFK@?$AAs?$AAw?$AA?9?$AAk?$AAe@ 0045f3ec     libcpmt:winapinls.obj
 0002:000033f8       ??_C@_1O@KOHBJJI@?$AAs?$AAy?$AAr?$AA?9?$AAs?$AAy@ 0045f3f8     libcpmt:winapinls.obj
 0002:00003408       ??_C@_1M@LDCEFHA@?$AAt?$AAa?$AA?9?$AAi?$AAn@ 0045f408     libcpmt:winapinls.obj
 0002:00003414       ??_C@_1M@CNJOFAK@?$AAt?$AAe?$AA?9?$AAi?$AAn@ 0045f414     libcpmt:winapinls.obj
 0002:00003420       ??_C@_1M@GNAECACD@?$AAt?$AAh?$AA?9?$AAt?$AAh@ 0045f420     libcpmt:winapinls.obj
 0002:0000342c       ??_C@_1M@CHBIHOJO@?$AAt?$AAn?$AA?9?$AAz?$AAa@ 0045f42c     libcpmt:winapinls.obj
 0002:00003438       ??_C@_1M@GCCMIGPJ@?$AAt?$AAr?$AA?9?$AAt?$AAr@ 0045f438     libcpmt:winapinls.obj
 0002:00003444       ??_C@_1M@CELMCNBK@?$AAt?$AAt?$AA?9?$AAr?$AAu@ 0045f444     libcpmt:winapinls.obj
 0002:00003450       ??_C@_1M@KLMCELGA@?$AAu?$AAk?$AA?9?$AAu?$AAa@ 0045f450     libcpmt:winapinls.obj
 0002:0000345c       ??_C@_1M@EPAJJAJF@?$AAu?$AAr?$AA?9?$AAp?$AAk@ 0045f45c     libcpmt:winapinls.obj
 0002:00003468       ??_C@_1BG@GEGPMCDJ@?$AAu?$AAz?$AA?9?$AAu?$AAz?$AA?9?$AAc?$AAy?$AAr?$AAl@ 0045f468     libcpmt:winapinls.obj
 0002:00003480       ??_C@_1BG@EGGKJILM@?$AAu?$AAz?$AA?9?$AAu?$AAz?$AA?9?$AAl?$AAa?$AAt?$AAn@ 0045f480     libcpmt:winapinls.obj
 0002:00003498       ??_C@_1M@GFOCLFF@?$AAv?$AAi?$AA?9?$AAv?$AAn@ 0045f498     libcpmt:winapinls.obj
 0002:000034a4       ??_C@_1M@CPAMEDFI@?$AAx?$AAh?$AA?9?$AAz?$AAa@ 0045f4a4     libcpmt:winapinls.obj
 0002:000034b0       ??_C@_1O@EBKIFIGN@?$AAz?$AAh?$AA?9?$AAc?$AAh?$AAs@ 0045f4b0     libcpmt:winapinls.obj
 0002:000034c0       ??_C@_1O@NMHPGANE@?$AAz?$AAh?$AA?9?$AAc?$AAh?$AAt@ 0045f4c0     libcpmt:winapinls.obj
 0002:000034d0       ??_C@_1M@LPINJOMC@?$AAz?$AAh?$AA?9?$AAc?$AAn@ 0045f4d0     libcpmt:winapinls.obj
 0002:000034dc       ??_C@_1M@OCJEJODD@?$AAz?$AAh?$AA?9?$AAh?$AAk@ 0045f4dc     libcpmt:winapinls.obj
 0002:000034e8       ??_C@_1M@DNDLJINH@?$AAz?$AAh?$AA?9?$AAm?$AAo@ 0045f4e8     libcpmt:winapinls.obj
 0002:000034f4       ??_C@_1M@MBFDNDND@?$AAz?$AAh?$AA?9?$AAs?$AAg@ 0045f4f4     libcpmt:winapinls.obj
 0002:00003500       ??_C@_1M@IMEPLEPE@?$AAz?$AAh?$AA?9?$AAt?$AAw@ 0045f500     libcpmt:winapinls.obj
 0002:0000350c       ??_C@_1M@BBGHNHJP@?$AAz?$AAu?$AA?9?$AAz?$AAa@ 0045f50c     libcpmt:winapinls.obj
 0002:00003518       ??_7_com_error@@6B@        0045f518     comsuppw:comraise.obj
 0002:00003520       ??_7type_info@@6B@         0045f520     LIBCMT:std_type_info_static.obj
 0002:00003530       ??_7bad_array_new_length@std@@6B@ 0045f530     LIBCMT:throw_bad_alloc.obj
 0002:00003538       ??_C@_0BF@KINCDENJ@bad?5array?5new?5length@ 0045f538     LIBCMT:throw_bad_alloc.obj
 0002:00003550       _GUID_ATLVer110            0045f550     atls:atlbase.obj
 0002:00003560       ??_C@_1IC@ONKHOIDK@?$AAE?$AAR?$AAR?$AAO?$AAR?$AA?5?$AA?3?$AA?5?$AAU?$AAn?$AAa?$AAb?$AAl?$AAe?$AA?5@ 0045f560     atls:atlbase.obj
 0002:00003604       __pDestructExceptionObject 0045f604     libvcruntime:ehhelpers.obj
 0002:0000360c       ??_7bad_exception@std@@6B@ 0045f60c     libvcruntime:frame.obj
 0002:00003614       ??_C@_0O@DPKOEFFH@bad?5exception@ 0045f614     libvcruntime:frame.obj
 0002:00003630       ??_C@_1DM@KHCHBNEB@?$AAa?$AAp?$AAi?$AA?9?$AAm?$AAs?$AA?9?$AAw?$AAi?$AAn?$AA?9?$AAc?$AAo?$AAr?$AAe@ 0045f630     libvcruntime:winapi_downlevel.obj
 0002:0000366c       ??_C@_1DK@LPPGFMPP@?$AAa?$AAp?$AAi?$AA?9?$AAm?$AAs?$AA?9?$AAw?$AAi?$AAn?$AA?9?$AAc?$AAo?$AAr?$AAe@ 0045f66c     libvcruntime:winapi_downlevel.obj
 0002:000036a8       ??_C@_1BC@GDMECMAK@?$AAk?$AAe?$AAr?$AAn?$AAe?$AAl?$AA3?$AA2@ 0045f6a8     libvcruntime:winapi_downlevel.obj
 0002:000036bc       ??_C@_1BA@PFFKHIOG@?$AAa?$AAp?$AAi?$AA?9?$AAm?$AAs?$AA?9@ 0045f6bc     libvcruntime:winapi_downlevel.obj
 0002:000036cc       ??_C@_1BA@IAIFMGEF@?$AAe?$AAx?$AAt?$AA?9?$AAm?$AAs?$AA?9@ 0045f6cc     libvcruntime:winapi_downlevel.obj
 0002:000038a4       ??_C@_08EHJDFFNH@__based?$CI@ 0045f8a4     libvcruntime:undname.obj
 0002:000038b0       ??_C@_07KOLFKCDI@__cdecl@  0045f8b0     libvcruntime:undname.obj
 0002:000038b8       ??_C@_08GHMPAG@__pascal@   0045f8b8     libvcruntime:undname.obj
 0002:000038c4       ??_C@_09IFJBGAPI@__stdcall@ 0045f8c4     libvcruntime:undname.obj
 0002:000038d0       ??_C@_0L@NPHFGOKO@__thiscall@ 0045f8d0     libvcruntime:undname.obj
 0002:000038dc       ??_C@_0L@JMKHOMEK@__fastcall@ 0045f8dc     libvcruntime:undname.obj
 0002:000038e8       ??_C@_0N@BCKKPABJ@__vectorcall@ 0045f8e8     libvcruntime:undname.obj
 0002:000038f8       ??_C@_09HIJEGCPM@__clrcall@ 0045f8f8     libvcruntime:undname.obj
 0002:00003904       ??_C@_06GHPCKEAG@__eabi@   0045f904     libvcruntime:undname.obj
 0002:0000390c       ??_C@_09IOPIDJLG@__swift_1@ 0045f90c     libvcruntime:undname.obj
 0002:00003918       ??_C@_09KFNFGKHF@__swift_2@ 0045f918     libvcruntime:undname.obj
 0002:00003924       ??_C@_07JOMMBBKO@__ptr64@  0045f924     libvcruntime:undname.obj
 0002:0000392c       ??_C@_0L@PILCLIHE@__restrict@ 0045f92c     libvcruntime:undname.obj
 0002:00003938       ??_C@_0M@GFIIJFMG@__unaligned@ 0045f938     libvcruntime:undname.obj
 0002:00003944       ??_C@_09DHDLOLLB@restrict?$CI@ 0045f944     libvcruntime:undname.obj
 0002:00003950       ??_C@_04NIHEBCM@?5new@     0045f950     libvcruntime:undname.obj
 0002:00003958       ??_C@_07FPCDHGMM@?5delete@ 0045f958     libvcruntime:undname.obj
 0002:00003960       ??_C@_01NEMOKFLO@?$DN@     0045f960     libvcruntime:undname.obj
 0002:00003964       ??_C@_02GPIOPFAK@?$DO?$DO@ 0045f964     libvcruntime:undname.obj
 0002:00003968       ??_C@_02FODMEDOG@?$DM?$DM@ 0045f968     libvcruntime:undname.obj
 0002:0000396c       ??_C@_01DCLJPIOD@?$CB@     0045f96c     libvcruntime:undname.obj
 0002:00003970       ??_C@_02EGOFBIJA@?$DN?$DN@ 0045f970     libvcruntime:undname.obj
 0002:00003974       ??_C@_02FDNJECIE@?$CB?$DN@ 0045f974     libvcruntime:undname.obj
 0002:00003978       ??_C@_02GPECMEKF@?$FL?$FN@ 0045f978     libvcruntime:undname.obj
 0002:0000397c       ??_C@_08LHJFAFGD@operator@ 0045f97c     libvcruntime:undname.obj
 0002:00003988       ??_C@_02HBOOOICD@?9?$DO@   0045f988     libvcruntime:undname.obj
 0002:0000398c       ??_C@_02ECNGHCIF@?$CL?$CL@ 0045f98c     libvcruntime:undname.obj
 0002:00003990       ??_C@_02BAABKJLB@?9?9@     0045f990     libvcruntime:undname.obj
 0002:00003994       ??_C@_01MIFGBAGJ@?$CL@     0045f994     libvcruntime:undname.obj
 0002:00003998       ??_C@_01HNPIGOCE@?$CG@     0045f998     libvcruntime:undname.obj
 0002:0000399c       ??_C@_03MNHNFDLC@?9?$DO?$CK@ 0045f99c     libvcruntime:undname.obj
 0002:000039a0       ??_C@_01KMDKNFGN@?1@       0045f9a0     libvcruntime:undname.obj
 0002:000039a4       ??_C@_01FGNFDNOH@?$CF@     0045f9a4     libvcruntime:undname.obj
 0002:000039a8       ??_C@_01MNNFJEPP@?$DM@     0045f9a8     libvcruntime:undname.obj
 0002:000039ac       ??_C@_02EHCHHCKH@?$DM?$DN@ 0045f9ac     libvcruntime:undname.obj
 0002:000039b0       ??_C@_02EEKDKGMJ@?$DO?$DN@ 0045f9b0     libvcruntime:undname.obj
 0002:000039b4       ??_C@_01IHBHIGKO@?0@       0045f9b4     libvcruntime:undname.obj
 0002:000039b8       ??_C@_02HCKGKOFO@?$CI?$CJ@ 0045f9b8     libvcruntime:undname.obj
 0002:000039bc       ??_C@_01PJKLJHI@?$HO@      0045f9bc     libvcruntime:undname.obj
 0002:000039c0       ??_C@_01JKBOJNNK@?$FO@     0045f9c0     libvcruntime:undname.obj
 0002:000039c4       ??_C@_01DNKMNLPK@?$HM@     0045f9c4     libvcruntime:undname.obj
 0002:000039c8       ??_C@_02PPKAJPJL@?$CG?$CG@ 0045f9c8     libvcruntime:undname.obj
 0002:000039cc       ??_C@_02NONPIBCD@?$HM?$HM@ 0045f9cc     libvcruntime:undname.obj
 0002:000039d0       ??_C@_02FPIMKNGF@?$CK?$DN@ 0045f9d0     libvcruntime:undname.obj
 0002:000039d4       ??_C@_02FOEOMHFC@?$CL?$DN@ 0045f9d4     libvcruntime:undname.obj
 0002:000039d8       ??_C@_02FKMDLLOA@?9?$DN@   0045f9d8     libvcruntime:undname.obj
 0002:000039dc       ??_C@_02FJEHGPIO@?1?$DN@   0045f9dc     libvcruntime:undname.obj
 0002:000039e0       ??_C@_02FENAOKFI@?$CF?$DN@ 0045f9e0     libvcruntime:undname.obj
 0002:000039e4       ??_C@_03IKFCCPFF@?$DO?$DO?$DN@ 0045f9e4     libvcruntime:undname.obj
 0002:000039e8       ??_C@_03CDNPDDLA@?$DM?$DM?$DN@ 0045f9e8     libvcruntime:undname.obj
 0002:000039ec       ??_C@_02FGJGFEAB@?$CG?$DN@ 0045f9ec     libvcruntime:undname.obj
 0002:000039f0       ??_C@_02DHLNPPGH@?$HM?$DN@ 0045f9f0     libvcruntime:undname.obj
 0002:000039f4       ??_C@_02MHEGNOJ@?$FO?$DN@  0045f9f4     libvcruntime:undname.obj
 0002:000039f8       ??_C@_09IFPLHPGF@?$GAvftable?8@ 0045f9f8     libvcruntime:undname.obj
 0002:00003a04       ??_C@_09BLBHBJP@?$GAvbtable?8@ 0045fa04     libvcruntime:undname.obj
 0002:00003a10       ??_C@_07FEEIOKP@?$GAvcall?8@ 0045fa10     libvcruntime:undname.obj
 0002:00003a18       ??_C@_08LLFFHHDJ@?$GAtypeof?8@ 0045fa18     libvcruntime:undname.obj
 0002:00003a24       ??_C@_0BF@KDPPACIK@?$GAlocal?5static?5guard?8@ 0045fa24     libvcruntime:undname.obj
 0002:00003a3c       ??_C@_08OBABFOLI@?$GAstring?8@ 0045fa3c     libvcruntime:undname.obj
 0002:00003a48       ??_C@_0BD@JDLKDPAB@?$GAvbase?5destructor?8@ 0045fa48     libvcruntime:undname.obj
 0002:00003a5c       ??_C@_0BN@DEGPLNFK@?$GAvector?5deleting?5destructor?8@ 0045fa5c     libvcruntime:undname.obj
 0002:00003a7c       ??_C@_0BO@OBMKPJIG@?$GAdefault?5constructor?5closure?8@ 0045fa7c     libvcruntime:undname.obj
 0002:00003a9c       ??_C@_0BN@IMDCHIKM@?$GAscalar?5deleting?5destructor?8@ 0045fa9c     libvcruntime:undname.obj
 0002:00003abc       ??_C@_0BO@PFGOCPJJ@?$GAvector?5constructor?5iterator?8@ 0045fabc     libvcruntime:undname.obj
 0002:00003adc       ??_C@_0BN@LFPFMEDL@?$GAvector?5destructor?5iterator?8@ 0045fadc     libvcruntime:undname.obj
 0002:00003afc       ??_C@_0CE@IKBNEHA@?$GAvector?5vbase?5constructor?5itera@ 0045fafc     libvcruntime:undname.obj
 0002:00003b20       ??_C@_0BL@NILFHHPC@?$GAvirtual?5displacement?5map?8@ 0045fb20     libvcruntime:undname.obj
 0002:00003b3c       ??_C@_0CB@JONCMFFK@?$GAeh?5vector?5constructor?5iterator@ 0045fb3c     libvcruntime:undname.obj
 0002:00003b60       ??_C@_0CA@GCEOPDGL@?$GAeh?5vector?5destructor?5iterator?8@ 0045fb60     libvcruntime:undname.obj
 0002:00003b80       ??_C@_0CH@OOJPLCPH@?$GAeh?5vector?5vbase?5constructor?5it@ 0045fb80     libvcruntime:undname.obj
 0002:00003ba8       ??_C@_0BL@LLKPOHJI@?$GAcopy?5constructor?5closure?8@ 0045fba8     libvcruntime:undname.obj
 0002:00003bc4       ??_C@_0BA@KBCDOMBN@?$GAudt?5returning?8@ 0045fbc4     libvcruntime:undname.obj
 0002:00003bd4       ??_C@_03KLGMFNMG@?$GAEH@   0045fbd4     libvcruntime:undname.obj
 0002:00003bd8       ??_C@_05KHLCHHI@?$GARTTI@  0045fbd8     libvcruntime:undname.obj
 0002:00003be0       ??_C@_0BA@KKLDJDLB@?$GAlocal?5vftable?8@ 0045fbe0     libvcruntime:undname.obj
 0002:00003bf0       ??_C@_0CE@IIHCMGGL@?$GAlocal?5vftable?5constructor?5clos@ 0045fbf0     libvcruntime:undname.obj
 0002:00003c14       ??_C@_06FHBGPFGH@?5new?$FL?$FN@ 0045fc14     libvcruntime:undname.obj
 0002:00003c1c       ??_C@_09LBNFPBCA@?5delete?$FL?$FN@ 0045fc1c     libvcruntime:undname.obj
 0002:00003c28       ??_C@_0P@HJKNJFNN@?$GAomni?5callsig?8@ 0045fc28     libvcruntime:undname.obj
 0002:00003c38       ??_C@_0BL@CNOONJFP@?$GAplacement?5delete?5closure?8@ 0045fc38     libvcruntime:undname.obj
 0002:00003c54       ??_C@_0BN@CKNJLHMB@?$GAplacement?5delete?$FL?$FN?5closure?8@ 0045fc54     libvcruntime:undname.obj
 0002:00003c74       ??_C@_0CG@CFDHKGGD@?$GAmanaged?5vector?5constructor?5ite@ 0045fc74     libvcruntime:undname.obj
 0002:00003c9c       ??_C@_0CF@IMGKMJNO@?$GAmanaged?5vector?5destructor?5iter@ 0045fc9c     libvcruntime:undname.obj
 0002:00003cc4       ??_C@_0CG@HLDDJMAG@?$GAeh?5vector?5copy?5constructor?5ite@ 0045fcc4     libvcruntime:undname.obj
 0002:00003cec       ??_C@_0CM@FCBBDIGB@?$GAeh?5vector?5vbase?5copy?5construct@ 0045fcec     libvcruntime:undname.obj
 0002:00003d18       ??_C@_0BL@CLIPGLGB@?$GAdynamic?5initializer?5for?5?8@ 0045fd18     libvcruntime:undname.obj
 0002:00003d34       ??_C@_0CB@PDBIFEP@?$GAdynamic?5atexit?5destructor?5for?5@ 0045fd34     libvcruntime:undname.obj
 0002:00003d58       ??_C@_0CD@CGAJBKEJ@?$GAvector?5copy?5constructor?5iterat@ 0045fd58     libvcruntime:undname.obj
 0002:00003d7c       ??_C@_0CJ@GJELGAMM@?$GAvector?5vbase?5copy?5constructor?5@ 0045fd7c     libvcruntime:undname.obj
 0002:00003da8       ??_C@_0CL@FGIJHLCE@?$GAmanaged?5vector?5copy?5constructo@ 0045fda8     libvcruntime:undname.obj
 0002:00003dd4       ??_C@_0BM@PMGGMLDN@?$GAlocal?5static?5thread?5guard?8@ 0045fdd4     libvcruntime:undname.obj
 0002:00003df0       ??_C@_0N@BDNMDMOL@operator?5?$CC?$CC?5@ 0045fdf0     libvcruntime:undname.obj
 0002:00003e00       ??_C@_0BC@GGEBGALA@operator?5co_await@ 0045fe00     libvcruntime:undname.obj
 0002:00003e14       ??_C@_0BC@DAFEJGAK@?5Type?5Descriptor?8@ 0045fe14     libvcruntime:undname.obj
 0002:00003e28       ??_C@_0BM@LDKODKLH@?5Base?5Class?5Descriptor?5at?5?$CI@ 0045fe28     libvcruntime:undname.obj
 0002:00003e44       ??_C@_0BD@LGICGFMM@?5Base?5Class?5Array?8@ 0045fe44     libvcruntime:undname.obj
 0002:00003e58       ??_C@_0BN@MECKDCOJ@?5Class?5Hierarchy?5Descriptor?8@ 0045fe58     libvcruntime:undname.obj
 0002:00003e78       ??_C@_0BK@CFCOFLF@?5Complete?5Object?5Locator?8@ 0045fe78     libvcruntime:undname.obj
 0002:00003e98       _standard_lookup_table     0045fe98     libucrt:output.obj
 0002:00003ef8       _format_validation_lookup_table 0045fef8     libucrt:output.obj
 0002:00003f54       ??_C@_1O@CEDCILHN@?$AA?$CI?$AAn?$AAu?$AAl?$AAl?$AA?$CJ?$AA?$AA@ 0045ff54     libucrt:output.obj
 0002:00003f64       ??_C@_06OJHGLDPL@?$CInull?$CJ?$AA@ 0045ff64     libucrt:output.obj
 0002:00003f70       __real@3ff0000000000000    0045ff70     libucrt:frexp.obj
 0002:00003f78       __real@8000000000000000    0045ff78     libucrt:frexp.obj
 0002:00003f80       ??_C@_1BI@BGOHAHKC@?$AAm?$AAs?$AAc?$AAo?$AAr?$AAe?$AAe?$AA?4?$AAd?$AAl?$AAl?$AA?$AA@ 0045ff80     libucrt:exit.obj
 0002:00003f98       ??_C@_0P@MIGLKIOC@CorExitProcess?$AA@ 0045ff98     libucrt:exit.obj
 0002:00004110       ___newctype                00460110     libucrt:ctype.obj
 0002:00004410       ___newclmap                00460410     libucrt:ctype.obj
 0002:00004590       ___newcumap                00460590     libucrt:ctype.obj
 0002:00004710       __wctype                   00460710     libucrt:ctype.obj
 0002:00004918       ?large_power_data@?1??multiply_by_power_of_ten@__crt_strtox@@YA_NAAUbig_integer@2@I@Z@4QBIB 00460918     libucrt:strtod.obj
 0002:00005220       ?large_power_indices@?1??multiply_by_power_of_ten@__crt_strtox@@YA_NAAUbig_integer@2@I@Z@4QBUunpack_index@?1??12@YA_N0I@Z@B 00461220     libucrt:strtod.obj
 0002:000052b8       ?small_powers_of_ten@?1??multiply_by_power_of_ten@__crt_strtox@@YA_NAAUbig_integer@2@I@Z@4QBIB 004612b8     libucrt:strtod.obj
 0002:000052e4       __half                     004612e4     libucrt:pow_impl.obj
 0002:000052f0       ___acrt_exception_action_table 004612f0     libucrt:exception_filter.obj
 0002:00005380       ___acrt_signal_action_table_count 00461380     libucrt:exception_filter.obj
 0002:00005384       ___acrt_signal_action_first_fpe_index 00461384     libucrt:exception_filter.obj
 0002:00005388       ___acrt_signal_action_fpe_count 00461388     libucrt:exception_filter.obj
 0002:00005490       ___lc_category             00461490     libucrt:wsetlocale.obj
 0002:000054d8       ??_C@_1O@GIFLHMA@?$AAL?$AAC?$AA_?$AAA?$AAL?$AAL?$AA?$AA@ 004614d8     libucrt:wsetlocale.obj
 0002:000054e8       ??_C@_1BG@PPOMIBNJ@?$AAL?$AAC?$AA_?$AAC?$AAO?$AAL?$AAL?$AAA?$AAT?$AAE?$AA?$AA@ 004614e8     libucrt:wsetlocale.obj
 0002:00005500       ??_C@_1BC@FFJGAPJM@?$AAL?$AAC?$AA_?$AAC?$AAT?$AAY?$AAP?$AAE?$AA?$AA@ 00461500     libucrt:wsetlocale.obj
 0002:00005514       ??_C@_1BI@PCKFNJFB@?$AAL?$AAC?$AA_?$AAM?$AAO?$AAN?$AAE?$AAT?$AAA?$AAR?$AAY?$AA?$AA@ 00461514     libucrt:wsetlocale.obj
 0002:0000552c       ??_C@_1BG@ENIEDKID@?$AAL?$AAC?$AA_?$AAN?$AAU?$AAM?$AAE?$AAR?$AAI?$AAC?$AA?$AA@ 0046152c     libucrt:wsetlocale.obj
 0002:00005544       ??_C@_1BA@HAAOMIIG@?$AAL?$AAC?$AA_?$AAT?$AAI?$AAM?$AAE?$AA?$AA@ 00461544     libucrt:wsetlocale.obj
 0002:00005554       ??_C@_15NBPDDFIP@?$AA?$DN?$AA?$DL?$AA?$AA@ 00461554     libucrt:wsetlocale.obj
 0002:0000555c       ??_C@_13PJJBFPED@?$AA?$DL?$AA?$AA@ 0046155c     libucrt:wsetlocale.obj
 0002:00005560       ??_C@_13NMPKAAJP@?$AA?$DN?$AA?$AA@ 00461560     libucrt:wsetlocale.obj
 0002:00005564       ??_C@_13FHBKNHDA@?$AAC?$AA?$AA@ 00461564     libucrt:wsetlocale.obj
 0002:00005568       ??_C@_19MPDNHKDG@?$AAu?$AAt?$AAf?$AA8?$AA?$AA@ 00461568     libucrt:wsetlocale.obj
 0002:00005574       ??_C@_1M@FPEIIFAM@?$AAu?$AAt?$AAf?$AA?9?$AA8?$AA?$AA@ 00461574     libucrt:wsetlocale.obj
 0002:00005580       ??_C@_17MBJJLFDM@?$AA_?$AA?4?$AA?0?$AA?$AA@ 00461580     libucrt:wsetlocale.obj
 0002:00005588       ??_C@_13ENNFDPBH@?$AA_?$AA?$AA@ 00461588     libucrt:wsetlocale.obj
 0002:0000558c       ??_C@_13JOFGPIOO@?$AA?4?$AA?$AA@ 0046158c     libucrt:wsetlocale.obj
 0002:00005590       ??_C@_03OEIAHPBN@INF?$AA@  00461590     libucrt:cvt.obj
 0002:00005594       ??_C@_03OJHLLCGB@inf?$AA@  00461594     libucrt:cvt.obj
 0002:00005598       ??_C@_03LKNCIKJB@NAN?$AA@  00461598     libucrt:cvt.obj
 0002:0000559c       ??_C@_03LHCJEHON@nan?$AA@  0046159c     libucrt:cvt.obj
 0002:000055a0       ??_C@_09OFJJIMPC@NAN?$CISNAN?$CJ?$AA@ 004615a0     libucrt:cvt.obj
 0002:000055ac       ??_C@_09IPFBKMDL@nan?$CIsnan?$CJ?$AA@ 004615ac     libucrt:cvt.obj
 0002:000055b8       ??_C@_08IKHNHAJ@NAN?$CIIND?$CJ?$AA@ 004615b8     libucrt:cvt.obj
 0002:000055c4       ??_C@_08OFCDMILK@nan?$CIind?$CJ?$AA@ 004615c4     libucrt:cvt.obj
 0002:000055d0       ??_C@_05KLBDPFGC@e?$CL000?$AA@ 004615d0     libucrt:cvt.obj
 0002:000055d8       ___lc_time_c               004615d8     libucrt:nlsdata.obj
 0002:0000573c       ??_C@_03KOEHGMDN@Sun?$AA@  0046173c     libucrt:nlsdata.obj
 0002:00005740       ??_C@_03PDAGKDH@Mon?$AA@   00461740     libucrt:nlsdata.obj
 0002:00005744       ??_C@_03NAGEINEP@Tue?$AA@  00461744     libucrt:nlsdata.obj
 0002:00005748       ??_C@_03MHOMLAJA@Wed?$AA@  00461748     libucrt:nlsdata.obj
 0002:0000574c       ??_C@_03IOFIKPDN@Thu?$AA@  0046174c     libucrt:nlsdata.obj
 0002:00005750       ??_C@_03IDIOELNC@Fri?$AA@  00461750     libucrt:nlsdata.obj
 0002:00005754       ??_C@_03FEFJNEK@Sat?$AA@   00461754     libucrt:nlsdata.obj
 0002:00005758       ??_C@_06OOPIFAJ@Sunday?$AA@ 00461758     libucrt:nlsdata.obj
 0002:00005760       ??_C@_06JLEDEDGH@Monday?$AA@ 00461760     libucrt:nlsdata.obj
 0002:00005768       ??_C@_07BAAGCFCM@Tuesday?$AA@ 00461768     libucrt:nlsdata.obj
 0002:00005770       ??_C@_09DLIGFAKA@Wednesday?$AA@ 00461770     libucrt:nlsdata.obj
 0002:0000577c       ??_C@_08HACCIKIA@Thursday?$AA@ 0046177c     libucrt:nlsdata.obj
 0002:00005788       ??_C@_06JECMNKMI@Friday?$AA@ 00461788     libucrt:nlsdata.obj
 0002:00005790       ??_C@_08INBOOONO@Saturday?$AA@ 00461790     libucrt:nlsdata.obj
 0002:0000579c       ??_C@_03JIHJHPIE@Jan?$AA@  0046179c     libucrt:nlsdata.obj
 0002:000057a0       ??_C@_03HJBDCHOM@Feb?$AA@  004617a0     libucrt:nlsdata.obj
 0002:000057a4       ??_C@_03ODNJBKGA@Mar?$AA@  004617a4     libucrt:nlsdata.obj
 0002:000057a8       ??_C@_03LEOLGMJP@Apr?$AA@  004617a8     libucrt:nlsdata.obj
 0002:000057ac       ??_C@_03CNMDKL@May?$AA@    004617ac     libucrt:nlsdata.obj
 0002:000057b0       ??_C@_03IDFGHECI@Jun?$AA@  004617b0     libucrt:nlsdata.obj
 0002:000057b4       ??_C@_03LBGABGKK@Jul?$AA@  004617b4     libucrt:nlsdata.obj
 0002:000057b8       ??_C@_03IFJFEIGA@Aug?$AA@  004617b8     libucrt:nlsdata.obj
 0002:000057bc       ??_C@_03GGCAPAJC@Sep?$AA@  004617bc     libucrt:nlsdata.obj
 0002:000057c0       ??_C@_03BMAOKBAD@Oct?$AA@  004617c0     libucrt:nlsdata.obj
 0002:000057c4       ??_C@_03JPJOFNIA@Nov?$AA@  004617c4     libucrt:nlsdata.obj
 0002:000057c8       ??_C@_03MKABNOCG@Dec?$AA@  004617c8     libucrt:nlsdata.obj
 0002:000057cc       ??_C@_07CGJPFGJA@January?$AA@ 004617cc     libucrt:nlsdata.obj
 0002:000057d4       ??_C@_08GNJGEPFN@February?$AA@ 004617d4     libucrt:nlsdata.obj
 0002:000057e0       ??_C@_05HPCKOFNC@March?$AA@ 004617e0     libucrt:nlsdata.obj
 0002:000057e8       ??_C@_05DMJDNLEJ@April?$AA@ 004617e8     libucrt:nlsdata.obj
 0002:000057f0       ??_C@_04CNLMGBGM@June?$AA@ 004617f0     libucrt:nlsdata.obj
 0002:000057f8       ??_C@_04MIEPOIFP@July?$AA@ 004617f8     libucrt:nlsdata.obj
 0002:00005800       ??_C@_06LBBHFDDG@August?$AA@ 00461800     libucrt:nlsdata.obj
 0002:00005808       ??_C@_09BHHEALKD@September?$AA@ 00461808     libucrt:nlsdata.obj
 0002:00005814       ??_C@_07JJNFCEND@October?$AA@ 00461814     libucrt:nlsdata.obj
 0002:0000581c       ??_C@_08HCHEGEOA@November?$AA@ 0046181c     libucrt:nlsdata.obj
 0002:00005828       ??_C@_08EDHMEBNP@December?$AA@ 00461828     libucrt:nlsdata.obj
 0002:00005834       ??_C@_02DEDBPAFC@AM?$AA@   00461834     libucrt:nlsdata.obj
 0002:00005838       ??_C@_02CJNFDJBF@PM?$AA@   00461838     libucrt:nlsdata.obj
 0002:0000583c       ??_C@_08BPBNCDIB@MM?1dd?1yy?$AA@ 0046183c     libucrt:nlsdata.obj
 0002:00005848       ??_C@_0BE@CKGJFCPC@dddd?0?5MMMM?5dd?0?5yyyy?$AA@ 00461848     libucrt:nlsdata.obj
 0002:0000585c       ??_C@_08JCCMCCIL@HH?3mm?3ss?$AA@ 0046185c     libucrt:nlsdata.obj
 0002:00005868       ??_C@_17MBGCMIPB@?$AAS?$AAu?$AAn?$AA?$AA@ 00461868     libucrt:nlsdata.obj
 0002:00005870       ??_C@_17KBOMKBF@?$AAM?$AAo?$AAn?$AA?$AA@ 00461870     libucrt:nlsdata.obj
 0002:00005878       ??_C@_17BMKGEGOJ@?$AAT?$AAu?$AAe?$AA?$AA@ 00461878     libucrt:nlsdata.obj
 0002:00005880       ??_C@_17CJEDCEPE@?$AAW?$AAe?$AAd?$AA?$AA@ 00461880     libucrt:nlsdata.obj
 0002:00005888       ??_C@_17PDPHAADD@?$AAT?$AAh?$AAu?$AA?$AA@ 00461888     libucrt:nlsdata.obj
 0002:00005890       ??_C@_17HFOLPPLP@?$AAF?$AAr?$AAi?$AA?$AA@ 00461890     libucrt:nlsdata.obj
 0002:00005898       ??_C@_17GGIBDPIH@?$AAS?$AAa?$AAt?$AA?$AA@ 00461898     libucrt:nlsdata.obj
 0002:000058a0       ??_C@_1O@IHNHDHPB@?$AAS?$AAu?$AAn?$AAd?$AAa?$AAy?$AA?$AA@ 004618a0     libucrt:nlsdata.obj
 0002:000058b0       ??_C@_1O@MMNBFLIA@?$AAM?$AAo?$AAn?$AAd?$AAa?$AAy?$AA?$AA@ 004618b0     libucrt:nlsdata.obj
 0002:000058c0       ??_C@_1BA@ENFBFFEK@?$AAT?$AAu?$AAe?$AAs?$AAd?$AAa?$AAy?$AA?$AA@ 004618c0     libucrt:nlsdata.obj
 0002:000058d0       ??_C@_1BE@EBOGMDOH@?$AAW?$AAe?$AAd?$AAn?$AAe?$AAs?$AAd?$AAa?$AAy?$AA?$AA@ 004618d0     libucrt:nlsdata.obj
 0002:000058e4       ??_C@_1BC@HHMNLIHE@?$AAT?$AAh?$AAu?$AAr?$AAs?$AAd?$AAa?$AAy?$AA?$AA@ 004618e4     libucrt:nlsdata.obj
 0002:000058f8       ??_C@_1O@PDICJHAG@?$AAF?$AAr?$AAi?$AAd?$AAa?$AAy?$AA?$AA@ 004618f8     libucrt:nlsdata.obj
 0002:00005908       ??_C@_1BC@ENMNNPAJ@?$AAS?$AAa?$AAt?$AAu?$AAr?$AAd?$AAa?$AAy?$AA?$AA@ 00461908     libucrt:nlsdata.obj
 0002:0000591c       ??_C@_17DKNBKCHM@?$AAJ?$AAa?$AAn?$AA?$AA@ 0046191c     libucrt:nlsdata.obj
 0002:00005924       ??_C@_17LMDJEKJN@?$AAF?$AAe?$AAb?$AA?$AA@ 00461924     libucrt:nlsdata.obj
 0002:0000592c       ??_C@_17CKNLEDEC@?$AAM?$AAa?$AAr?$AA?$AA@ 0046192c     libucrt:nlsdata.obj
 0002:00005934       ??_C@_17LFPOIHDD@?$AAA?$AAp?$AAr?$AA?$AA@ 00461934     libucrt:nlsdata.obj
 0002:0000593c       ??_C@_17PNNKMEED@?$AAM?$AAa?$AAy?$AA?$AA@ 0046193c     libucrt:nlsdata.obj
 0002:00005944       ??_C@_17KCJGOCPB@?$AAJ?$AAu?$AAn?$AA?$AA@ 00461944     libucrt:nlsdata.obj
 0002:0000594c       ??_C@_17IJPCKHK@?$AAJ?$AAu?$AAl?$AA?$AA@ 0046194c     libucrt:nlsdata.obj
 0002:00005954       ??_C@_17ICPELBCN@?$AAA?$AAu?$AAg?$AA?$AA@ 00461954     libucrt:nlsdata.obj
 0002:0000595c       ??_C@_17HCHCOKMG@?$AAS?$AAe?$AAp?$AA?$AA@ 0046195c     libucrt:nlsdata.obj
 0002:00005964       ??_C@_17FNLKOI@?$AAO?$AAc?$AAt?$AA?$AA@ 00461964     libucrt:nlsdata.obj
 0002:0000596c       ??_C@_17BBDMLCIG@?$AAN?$AAo?$AAv?$AA?$AA@ 0046196c     libucrt:nlsdata.obj
 0002:00005974       ??_C@_17EGKACKIF@?$AAD?$AAe?$AAc?$AA?$AA@ 00461974     libucrt:nlsdata.obj
 0002:0000597c       ??_C@_1BA@EFMEIEBA@?$AAJ?$AAa?$AAn?$AAu?$AAa?$AAr?$AAy?$AA?$AA@ 0046197c     libucrt:nlsdata.obj
 0002:0000598c       ??_C@_1BC@JGDDFFAM@?$AAF?$AAe?$AAb?$AAr?$AAu?$AAa?$AAr?$AAy?$AA?$AA@ 0046198c     libucrt:nlsdata.obj
 0002:000059a0       ??_C@_1M@IKEENEDF@?$AAM?$AAa?$AAr?$AAc?$AAh?$AA?$AA@ 004619a0     libucrt:nlsdata.obj
 0002:000059ac       ??_C@_1M@GJNLMHFD@?$AAA?$AAp?$AAr?$AAi?$AAl?$AA?$AA@ 004619ac     libucrt:nlsdata.obj
 0002:000059b8       ??_C@_19EPFLPGAP@?$AAJ?$AAu?$AAn?$AAe?$AA?$AA@ 004619b8     libucrt:nlsdata.obj
 0002:000059c4       ??_C@_19BIFMLPCD@?$AAJ?$AAu?$AAl?$AAy?$AA?$AA@ 004619c4     libucrt:nlsdata.obj
 0002:000059d0       ??_C@_1O@PAHLKOAC@?$AAA?$AAu?$AAg?$AAu?$AAs?$AAt?$AA?$AA@ 004619d0     libucrt:nlsdata.obj
 0002:000059e0       ??_C@_1BE@DKAAMBJL@?$AAS?$AAe?$AAp?$AAt?$AAe?$AAm?$AAb?$AAe?$AAr?$AA?$AA@ 004619e0     libucrt:nlsdata.obj
 0002:000059f4       ??_C@_1BA@EPANDLNG@?$AAO?$AAc?$AAt?$AAo?$AAb?$AAe?$AAr?$AA?$AA@ 004619f4     libucrt:nlsdata.obj
 0002:00005a04       ??_C@_1BC@BGLIFPF@?$AAN?$AAo?$AAv?$AAe?$AAm?$AAb?$AAe?$AAr?$AA?$AA@ 00461a04     libucrt:nlsdata.obj
 0002:00005a18       ??_C@_1BC@FEMKIFH@?$AAD?$AAe?$AAc?$AAe?$AAm?$AAb?$AAe?$AAr?$AA?$AA@ 00461a18     libucrt:nlsdata.obj
 0002:00005a2c       ??_C@_15ODEHAHHF@?$AAA?$AAM?$AA?$AA@ 00461a2c     libucrt:nlsdata.obj
 0002:00005a34       ??_C@_15CLMNNGEL@?$AAP?$AAM?$AA?$AA@ 00461a34     libucrt:nlsdata.obj
 0002:00005a3c       ??_C@_1BC@IEBCMHCM@?$AAM?$AAM?$AA?1?$AAd?$AAd?$AA?1?$AAy?$AAy?$AA?$AA@ 00461a3c     libucrt:nlsdata.obj
 0002:00005a50       ??_C@_1CI@KNAKOEBC@?$AAd?$AAd?$AAd?$AAd?$AA?0?$AA?5?$AAM?$AAM?$AAM?$AAM?$AA?5?$AAd?$AAd?$AA?0?$AA?5?$AAy?$AAy?$AAy?$AAy?$AA?$AA@ 00461a50     libucrt:nlsdata.obj
 0002:00005a78       ??_C@_1BC@GDGBMEMK@?$AAH?$AAH?$AA?3?$AAm?$AAm?$AA?3?$AAs?$AAs?$AA?$AA@ 00461a78     libucrt:nlsdata.obj
 0002:00005a8c       ??_C@_1M@BMHNFIME@?$AAe?$AAn?$AA?9?$AAU?$AAS?$AA?$AA@ 00461a8c     libucrt:nlsdata.obj
 0002:00005b80       ??_C@_03KHJOGHMM@exp?$AA@  00461b80     libucrt:fpexcept.obj
 0002:00005b84       ??_C@_03JGHBODFD@pow?$AA@  00461b84     libucrt:fpexcept.obj
 0002:00005b88       ??_C@_03MGHMBJCF@log?$AA@  00461b88     libucrt:fpexcept.obj
 0002:00005b8c       ??_C@_05HGHHAHAP@log10?$AA@ 00461b8c     libucrt:fpexcept.obj
 0002:00005b94       ??_C@_04COOMCNPB@sinh?$AA@ 00461b94     libucrt:fpexcept.obj
 0002:00005b9c       ??_C@_04HPJJNFIM@cosh?$AA@ 00461b9c     libucrt:fpexcept.obj
 0002:00005ba4       ??_C@_04FJHINJAO@tanh?$AA@ 00461ba4     libucrt:fpexcept.obj
 0002:00005bac       ??_C@_04FIHNOPOL@asin?$AA@ 00461bac     libucrt:fpexcept.obj
 0002:00005bb4       ??_C@_04PDIFKINK@acos?$AA@ 00461bb4     libucrt:fpexcept.obj
 0002:00005bbc       ??_C@_04MLLJIGOK@atan?$AA@ 00461bbc     libucrt:fpexcept.obj
 0002:00005bc4       ??_C@_05KNGEOGJB@atan2?$AA@ 00461bc4     libucrt:fpexcept.obj
 0002:00005bcc       ??_C@_04EIAKFFMI@sqrt?$AA@ 00461bcc     libucrt:fpexcept.obj
 0002:00005bd4       ??_C@_03BLEJJJBH@sin?$AA@  00461bd4     libucrt:fpexcept.obj
 0002:00005bd8       ??_C@_03LALBNOCG@cos?$AA@  00461bd8     libucrt:fpexcept.obj
 0002:00005bdc       ??_C@_03IIINPABG@tan?$AA@  00461bdc     libucrt:fpexcept.obj
 0002:00005be0       ??_C@_04GFPJNGEK@ceil?$AA@ 00461be0     libucrt:fpexcept.obj
 0002:00005be8       ??_C@_05PBJFFIGL@floor?$AA@ 00461be8     libucrt:fpexcept.obj
 0002:00005bf0       ??_C@_04ODHECPBC@fabs?$AA@ 00461bf0     libucrt:fpexcept.obj
 0002:00005bf8       ??_C@_04EHEDPDJG@modf?$AA@ 00461bf8     libucrt:fpexcept.obj
 0002:00005c00       ??_C@_05CEJMAHNP@ldexp?$AA@ 00461c00     libucrt:fpexcept.obj
 0002:00005c08       ??_C@_05KBKMEMPO@_cabs?$AA@ 00461c08     libucrt:fpexcept.obj
 0002:00005c10       ??_C@_06MEIMCGCF@_hypot?$AA@ 00461c10     libucrt:fpexcept.obj
 0002:00005c18       ??_C@_04KEPJIHGP@fmod?$AA@ 00461c18     libucrt:fpexcept.obj
 0002:00005c20       ??_C@_05GKKHEGJL@frexp?$AA@ 00461c20     libucrt:fpexcept.obj
 0002:00005c28       ??_C@_03MJLDFKDL@_y0?$AA@  00461c28     libucrt:fpexcept.obj
 0002:00005c2c       ??_C@_03NAKIGLHK@_y1?$AA@  00461c2c     libucrt:fpexcept.obj
 0002:00005c30       ??_C@_03ONILCKOB@_yn?$AA@  00461c30     libucrt:fpexcept.obj
 0002:00005c34       ??_C@_05JGDBENOH@_logb?$AA@ 00461c34     libucrt:fpexcept.obj
 0002:00005c3c       ??_C@_0L@KDOEJCKC@_nextafter?$AA@ 00461c3c     libucrt:fpexcept.obj
 0002:00005c48       __d_inf                    00461c48     libucrt:util.obj
 0002:00005c50       __d_max                    00461c50     libucrt:util.obj
 0002:00005c58       __d_mzero                  00461c58     libucrt:util.obj
 0002:00005cc8       ??_C@_1EA@JGEFHKEI@?$AAa?$AAp?$AAi?$AA?9?$AAm?$AAs?$AA?9?$AAw?$AAi?$AAn?$AA?9?$AAc?$AAo?$AAr?$AAe?$AA?9?$AAd?$AAa?$AAt?$AAe?$AAt?$AAi?$AAm?$AAe?$AA?9?$AAl?$AA1?$AA?9?$AA1?$AA?9?$AA1?$AA?$AA@ 00461cc8     libucrt:winapi_thunks.obj
 0002:00005d08       ??_C@_1DM@KHCHBNEB@?$AAa?$AAp?$AAi?$AA?9?$AAm?$AAs?$AA?9?$AAw?$AAi?$AAn?$AA?9?$AAc?$AAo?$AAr?$AAe?$AA?9?$AAf?$AAi?$AAb?$AAe?$AAr?$AAs?$AA?9?$AAl?$AA1?$AA?9?$AA1?$AA?9?$AA1?$AA?$AA@ 00461d08     libucrt:winapi_thunks.obj
 0002:00005d44       ??_C@_1DI@IJCEHOCB@?$AAa?$AAp?$AAi?$AA?9?$AAm?$AAs?$AA?9?$AAw?$AAi?$AAn?$AA?9?$AAc?$AAo?$AAr?$AAe?$AA?9?$AAf?$AAi?$AAl?$AAe?$AA?9?$AAl?$AA1?$AA?9?$AA2?$AA?9?$AA2?$AA?$AA@ 00461d44     libucrt:winapi_thunks.obj
 0002:00005d80       ??_C@_1EI@MPIAOHOC@?$AAa?$AAp?$AAi?$AA?9?$AAm?$AAs?$AA?9?$AAw?$AAi?$AAn?$AA?9?$AAc?$AAo?$AAr?$AAe?$AA?9?$AAl?$AAo?$AAc?$AAa?$AAl?$AAi?$AAz?$AAa?$AAt?$AAi?$AAo?$AAn?$AA?9?$AAl?$AA1?$AA?9@ 00461d80     libucrt:winapi_thunks.obj
 0002:00005dc8       ??_C@_1FK@FPHCKFIE@?$AAa?$AAp?$AAi?$AA?9?$AAm?$AAs?$AA?9?$AAw?$AAi?$AAn?$AA?9?$AAc?$AAo?$AAr?$AAe?$AA?9?$AAl?$AAo?$AAc?$AAa?$AAl?$AAi?$AAz?$AAa?$AAt?$AAi?$AAo?$AAn?$AA?9?$AAo?$AAb?$AAs@ 00461dc8     libucrt:winapi_thunks.obj
 0002:00005e28       ??_C@_1EM@DILCGIIO@?$AAa?$AAp?$AAi?$AA?9?$AAm?$AAs?$AA?9?$AAw?$AAi?$AAn?$AA?9?$AAc?$AAo?$AAr?$AAe?$AA?9?$AAp?$AAr?$AAo?$AAc?$AAe?$AAs?$AAs?$AAt?$AAh?$AAr?$AAe?$AAa?$AAd?$AAs?$AA?9?$AAl@ 00461e28     libucrt:winapi_thunks.obj
 0002:00005e74       ??_C@_1DM@LNCGDDPN@?$AAa?$AAp?$AAi?$AA?9?$AAm?$AAs?$AA?9?$AAw?$AAi?$AAn?$AA?9?$AAc?$AAo?$AAr?$AAe?$AA?9?$AAs?$AAt?$AAr?$AAi?$AAn?$AAg?$AA?9?$AAl?$AA1?$AA?9?$AA1?$AA?9?$AA0?$AA?$AA@ 00461e74     libucrt:winapi_thunks.obj
 0002:00005eb0       ??_C@_1DK@LPPGFMPP@?$AAa?$AAp?$AAi?$AA?9?$AAm?$AAs?$AA?9?$AAw?$AAi?$AAn?$AA?9?$AAc?$AAo?$AAr?$AAe?$AA?9?$AAs?$AAy?$AAn?$AAc?$AAh?$AA?9?$AAl?$AA1?$AA?9?$AA2?$AA?9?$AA0?$AA?$AA@ 00461eb0     libucrt:winapi_thunks.obj
 0002:00005eec       ??_C@_1DO@FPAPJEMD@?$AAa?$AAp?$AAi?$AA?9?$AAm?$AAs?$AA?9?$AAw?$AAi?$AAn?$AA?9?$AAc?$AAo?$AAr?$AAe?$AA?9?$AAs?$AAy?$AAs?$AAi?$AAn?$AAf?$AAo?$AA?9?$AAl?$AA1?$AA?9?$AA2?$AA?9?$AA1?$AA?$AA@ 00461eec     libucrt:winapi_thunks.obj
 0002:00005f2c       ??_C@_1DK@NDHNAHIO@?$AAa?$AAp?$AAi?$AA?9?$AAm?$AAs?$AA?9?$AAw?$AAi?$AAn?$AA?9?$AAc?$AAo?$AAr?$AAe?$AA?9?$AAw?$AAi?$AAn?$AAr?$AAt?$AA?9?$AAl?$AA1?$AA?9?$AA1?$AA?9?$AA0?$AA?$AA@ 00461f2c     libucrt:winapi_thunks.obj
 0002:00005f68       ??_C@_1DM@KGHDGBCM@?$AAa?$AAp?$AAi?$AA?9?$AAm?$AAs?$AA?9?$AAw?$AAi?$AAn?$AA?9?$AAc?$AAo?$AAr?$AAe?$AA?9?$AAx?$AAs?$AAt?$AAa?$AAt?$AAe?$AA?9?$AAl?$AA2?$AA?9?$AA1?$AA?9?$AA0?$AA?$AA@ 00461f68     libucrt:winapi_thunks.obj
 0002:00005fa8       ??_C@_1EO@IJIOEFOH@?$AAa?$AAp?$AAi?$AA?9?$AAm?$AAs?$AA?9?$AAw?$AAi?$AAn?$AA?9?$AAr?$AAt?$AAc?$AAo?$AAr?$AAe?$AA?9?$AAn?$AAt?$AAu?$AAs?$AAe?$AAr?$AA?9?$AAw?$AAi?$AAn?$AAd?$AAo?$AAw?$AA?9@ 00461fa8     libucrt:winapi_thunks.obj
 0002:00005ff8       ??_C@_1FG@HHGEKANL@?$AAa?$AAp?$AAi?$AA?9?$AAm?$AAs?$AA?9?$AAw?$AAi?$AAn?$AA?9?$AAs?$AAe?$AAc?$AAu?$AAr?$AAi?$AAt?$AAy?$AA?9?$AAs?$AAy?$AAs?$AAt?$AAe?$AAm?$AAf?$AAu?$AAn?$AAc?$AAt?$AAi@ 00461ff8     libucrt:winapi_thunks.obj
 0002:00006050       ??_C@_1EG@DBIOJECG@?$AAe?$AAx?$AAt?$AA?9?$AAm?$AAs?$AA?9?$AAw?$AAi?$AAn?$AA?9?$AAn?$AAt?$AAu?$AAs?$AAe?$AAr?$AA?9?$AAd?$AAi?$AAa?$AAl?$AAo?$AAg?$AAb?$AAo?$AAx?$AA?9?$AAl?$AA1?$AA?9?$AA1@ 00462050     libucrt:winapi_thunks.obj
 0002:00006098       ??_C@_1EO@FIHMJCLF@?$AAe?$AAx?$AAt?$AA?9?$AAm?$AAs?$AA?9?$AAw?$AAi?$AAn?$AA?9?$AAn?$AAt?$AAu?$AAs?$AAe?$AAr?$AA?9?$AAw?$AAi?$AAn?$AAd?$AAo?$AAw?$AAs?$AAt?$AAa?$AAt?$AAi?$AAo?$AAn?$AA?9@ 00462098     libucrt:winapi_thunks.obj
 0002:000060e8       ??_C@_1BC@DNHGCMLG@?$AAa?$AAd?$AAv?$AAa?$AAp?$AAi?$AA3?$AA2?$AA?$AA@ 004620e8     libucrt:winapi_thunks.obj
 0002:000060fc       ??_C@_1BC@GDMECMAK@?$AAk?$AAe?$AAr?$AAn?$AAe?$AAl?$AA3?$AA2?$AA?$AA@ 004620fc     libucrt:winapi_thunks.obj
 0002:00006110       ??_C@_1M@OAIMIKLP@?$AAn?$AAt?$AAd?$AAl?$AAl?$AA?$AA@ 00462110     libucrt:winapi_thunks.obj
 0002:00006120       ??_C@_1EG@DPGNFKGC@?$AAa?$AAp?$AAi?$AA?9?$AAm?$AAs?$AA?9?$AAw?$AAi?$AAn?$AA?9?$AAa?$AAp?$AAp?$AAm?$AAo?$AAd?$AAe?$AAl?$AA?9?$AAr?$AAu?$AAn?$AAt?$AAi?$AAm?$AAe?$AA?9?$AAl?$AA1?$AA?9?$AA1@ 00462120     libucrt:winapi_thunks.obj
 0002:00006168       ??_C@_1O@BCCLBEOE@?$AAu?$AAs?$AAe?$AAr?$AA3?$AA2?$AA?$AA@ 00462168     libucrt:winapi_thunks.obj
 0002:00006178       ??_C@_1BA@PFFKHIOG@?$AAa?$AAp?$AAi?$AA?9?$AAm?$AAs?$AA?9?$AA?$AA@ 00462178     libucrt:winapi_thunks.obj
 0002:00006188       ??_C@_1BA@IAIFMGEF@?$AAe?$AAx?$AAt?$AA?9?$AAm?$AAs?$AA?9?$AA?$AA@ 00462188     libucrt:winapi_thunks.obj
 0002:0000619c       ??_C@_0BA@FHFNEAED@AreFileApisANSI?$AA@ 0046219c     libucrt:winapi_thunks.obj
 0002:000061b4       ??_C@_0BA@IHGNDAEB@CompareStringEx?$AA@ 004621b4     libucrt:winapi_thunks.obj
 0002:000061cc       ??_C@_0BE@LJANKFHF@EnumSystemLocalesEx?$AA@ 004621cc     libucrt:winapi_thunks.obj
 0002:000061e8       ??_C@_08KNHFBNJ@FlsAlloc?$AA@ 004621e8     libucrt:winapi_thunks.obj
 0002:000061fc       ??_C@_07PEJMOBNF@FlsFree?$AA@ 004621fc     libucrt:winapi_thunks.obj
 0002:0000620c       ??_C@_0M@GDNOONDI@FlsGetValue?$AA@ 0046220c     libucrt:winapi_thunks.obj
 0002:00006220       ??_C@_0M@JCPCPOEF@FlsSetValue?$AA@ 00462220     libucrt:winapi_thunks.obj
 0002:00006234       ??_C@_0BA@EPCJIIPD@GetDateFormatEx?$AA@ 00462234     libucrt:winapi_thunks.obj
 0002:0000624c       ??_C@_0BA@ONOKGCMP@GetLocaleInfoEx?$AA@ 0046224c     libucrt:winapi_thunks.obj
 0002:00006264       ??_C@_0BA@CIJJKCJJ@GetTimeFormatEx?$AA@ 00462264     libucrt:winapi_thunks.obj
 0002:0000627c       ??_C@_0BJ@PBCCBIPI@GetUserDefaultLocaleName?$AA@ 0046227c     libucrt:winapi_thunks.obj
 0002:000062a0       ??_C@_0BM@HCFOFFN@InitializeCriticalSectionEx?$AA@ 004622a0     libucrt:winapi_thunks.obj
 0002:000062c4       ??_C@_0BC@CELBKLLA@IsValidLocaleName?$AA@ 004622c4     libucrt:winapi_thunks.obj
 0002:000062e0       ??_C@_0O@KKBNKAPF@LCMapStringEx?$AA@ 004622e0     libucrt:winapi_thunks.obj
 0002:000062f8       ??_C@_0BB@CDHDDLLP@LCIDToLocaleName?$AA@ 004622f8     libucrt:winapi_thunks.obj
 0002:00006314       ??_C@_0BB@HBDEELFH@LocaleNameToLCID?$AA@ 00462314     libucrt:winapi_thunks.obj
 0002:0000632c       ??_C@_0N@PPOMPGGK@RoInitialize?$AA@ 0046232c     libucrt:winapi_thunks.obj
 0002:00006340       ??_C@_0P@LLFHBIJD@RoUninitialize?$AA@ 00462340     libucrt:winapi_thunks.obj
 0002:00006354       ??_C@_0CF@OJOFEIGO@AppPolicyGetProcessTerminationMe@ 00462354     libucrt:winapi_thunks.obj
 0002:00006380       ??_C@_0CF@NNDFDCOC@AppPolicyGetThreadInitialization@ 00462380     libucrt:winapi_thunks.obj
 0002:000063a8       ?ccs@?1???$__acrt_stdio_parse_mode@D@@YA?AU__acrt_stdio_stream_mode@@QBD@Z@4QBDB 004623a8     libucrt:openfile.obj
 0002:000063ac       ?utf8_encoding@?1???$__acrt_stdio_parse_mode@D@@YA?AU__acrt_stdio_stream_mode@@QBD@Z@4QBDB 004623ac     libucrt:openfile.obj
 0002:000063b4       ?utf16_encoding@?1???$__acrt_stdio_parse_mode@D@@YA?AU__acrt_stdio_stream_mode@@QBD@Z@4QBDB 004623b4     libucrt:openfile.obj
 0002:000063bc       ?unicode_encoding@?1???$__acrt_stdio_parse_mode@D@@YA?AU__acrt_stdio_stream_mode@@QBD@Z@4QBDB 004623bc     libucrt:openfile.obj
 0002:00006490       __infinity                 00462490     libucrt:87tran.obj
 0002:0000649a       __minfinity                0046249a     libucrt:87tran.obj
 0002:000064a4       __logemax                  004624a4     libucrt:87tran.obj
 0002:000064ca       __OP_EXPjmptab             004624ca     libucrt:87tran.obj
 0002:000064f0       __indefinite               004624f0     libucrt:87disp.obj
 0002:000064fa       __piby2                    004624fa     libucrt:87disp.obj
 0002:00006504       __piby4                    00462504     libucrt:87disp.obj
 0002:00006538       __DEFAULT_CW_in_mem        00462538     libucrt:common.obj
 0002:0000653a       __pi_by_2_to_61            0046253a     libucrt:common.obj
 0002:00006584       ??_C@_1M@HPNHIDJI@?$AAj?$AAa?$AA?9?$AAJ?$AAP?$AA?$AA@ 00462584     libucrt:mbctype.obj
 0002:00006590       ??_C@_1M@BIBDDEMK@?$AAz?$AAh?$AA?9?$AAC?$AAN?$AA?$AA@ 00462590     libucrt:mbctype.obj
 0002:0000659c       ??_C@_1M@JLOOOEGK@?$AAk?$AAo?$AA?9?$AAK?$AAR?$AA?$AA@ 0046259c     libucrt:mbctype.obj
 0002:000065a8       ??_C@_1M@CLNBBOPM@?$AAz?$AAh?$AA?9?$AAT?$AAW?$AA?$AA@ 004625a8     libucrt:mbctype.obj
 0002:000065b8       ___acrt_rg_language        004625b8     libucrt:get_qualified_locale.obj
 0002:000068c4       ___acrt_rg_language_count  004628c4     libucrt:get_qualified_locale.obj
 0002:000068c8       ___acrt_rg_country         004628c8     libucrt:get_qualified_locale.obj
 0002:000069dc       ___acrt_rg_country_count   004629dc     libucrt:get_qualified_locale.obj
 0002:000069e0       ??_C@_1BC@LLOKLNP@?$AAa?$AAm?$AAe?$AAr?$AAi?$AAc?$AAa?$AAn?$AA?$AA@ 004629e0     libucrt:get_qualified_locale.obj
 0002:000069f4       ??_C@_1CC@HEIGCDGG@?$AAa?$AAm?$AAe?$AAr?$AAi?$AAc?$AAa?$AAn?$AA?5?$AAe?$AAn?$AAg?$AAl?$AAi?$AAs?$AAh?$AA?$AA@ 004629f4     libucrt:get_qualified_locale.obj
 0002:00006a18       ??_C@_1CC@IHCNOMIN@?$AAa?$AAm?$AAe?$AAr?$AAi?$AAc?$AAa?$AAn?$AA?9?$AAe?$AAn?$AAg?$AAl?$AAi?$AAs?$AAh?$AA?$AA@ 00462a18     libucrt:get_qualified_locale.obj
 0002:00006a3c       ??_C@_1BG@GKAGPCGG@?$AAa?$AAu?$AAs?$AAt?$AAr?$AAa?$AAl?$AAi?$AAa?$AAn?$AA?$AA@ 00462a3c     libucrt:get_qualified_locale.obj
 0002:00006a54       ??_C@_1BA@GMENCENF@?$AAb?$AAe?$AAl?$AAg?$AAi?$AAa?$AAn?$AA?$AA@ 00462a54     libucrt:get_qualified_locale.obj
 0002:00006a64       ??_C@_1BC@PJMIIAAN@?$AAc?$AAa?$AAn?$AAa?$AAd?$AAi?$AAa?$AAn?$AA?$AA@ 00462a64     libucrt:get_qualified_locale.obj
 0002:00006a78       ??_C@_17NOIMNFBF@?$AAc?$AAh?$AAh?$AA?$AA@ 00462a78     libucrt:get_qualified_locale.obj
 0002:00006a80       ??_C@_17GGDALCHA@?$AAc?$AAh?$AAi?$AA?$AA@ 00462a80     libucrt:get_qualified_locale.obj
 0002:00006a88       ??_C@_1BA@NPNJKIBL@?$AAc?$AAh?$AAi?$AAn?$AAe?$AAs?$AAe?$AA?$AA@ 00462a88     libucrt:get_qualified_locale.obj
 0002:00006a98       ??_C@_1CC@DINBAMMJ@?$AAc?$AAh?$AAi?$AAn?$AAe?$AAs?$AAe?$AA?9?$AAh?$AAo?$AAn?$AAg?$AAk?$AAo?$AAn?$AAg?$AA?$AA@ 00462a98     libucrt:get_qualified_locale.obj
 0002:00006abc       ??_C@_1CG@IOBJPACO@?$AAc?$AAh?$AAi?$AAn?$AAe?$AAs?$AAe?$AA?9?$AAs?$AAi?$AAm?$AAp?$AAl?$AAi?$AAf?$AAi?$AAe?$AAd?$AA?$AA@ 00462abc     libucrt:get_qualified_locale.obj
 0002:00006ae4       ??_C@_1CE@GAJNDCKG@?$AAc?$AAh?$AAi?$AAn?$AAe?$AAs?$AAe?$AA?9?$AAs?$AAi?$AAn?$AAg?$AAa?$AAp?$AAo?$AAr?$AAe?$AA?$AA@ 00462ae4     libucrt:get_qualified_locale.obj
 0002:00006b08       ??_C@_1CI@PAJPIOOD@?$AAc?$AAh?$AAi?$AAn?$AAe?$AAs?$AAe?$AA?9?$AAt?$AAr?$AAa?$AAd?$AAi?$AAt?$AAi?$AAo?$AAn?$AAa?$AAl?$AA?$AA@ 00462b08     libucrt:get_qualified_locale.obj
 0002:00006b30       ??_C@_1BM@NILJBMMD@?$AAd?$AAu?$AAt?$AAc?$AAh?$AA?9?$AAb?$AAe?$AAl?$AAg?$AAi?$AAa?$AAn?$AA?$AA@ 00462b30     libucrt:get_qualified_locale.obj
 0002:00006b4c       ??_C@_1CC@OOJPJNEJ@?$AAe?$AAn?$AAg?$AAl?$AAi?$AAs?$AAh?$AA?9?$AAa?$AAm?$AAe?$AAr?$AAi?$AAc?$AAa?$AAn?$AA?$AA@ 00462b4c     libucrt:get_qualified_locale.obj
 0002:00006b70       ??_C@_1BI@IOLFEEM@?$AAe?$AAn?$AAg?$AAl?$AAi?$AAs?$AAh?$AA?9?$AAa?$AAu?$AAs?$AA?$AA@ 00462b70     libucrt:get_qualified_locale.obj
 0002:00006b88       ??_C@_1BO@HFFNLENJ@?$AAe?$AAn?$AAg?$AAl?$AAi?$AAs?$AAh?$AA?9?$AAb?$AAe?$AAl?$AAi?$AAz?$AAe?$AA?$AA@ 00462b88     libucrt:get_qualified_locale.obj
 0002:00006ba8       ??_C@_1BI@HAPKJMPO@?$AAe?$AAn?$AAg?$AAl?$AAi?$AAs?$AAh?$AA?9?$AAc?$AAa?$AAn?$AA?$AA@ 00462ba8     libucrt:get_qualified_locale.obj
 0002:00006bc0       ??_C@_1CE@HLNDMIOJ@?$AAe?$AAn?$AAg?$AAl?$AAi?$AAs?$AAh?$AA?9?$AAc?$AAa?$AAr?$AAi?$AAb?$AAb?$AAe?$AAa?$AAn?$AA?$AA@ 00462bc0     libucrt:get_qualified_locale.obj
 0002:00006be4       ??_C@_1BI@LDHJHHAC@?$AAe?$AAn?$AAg?$AAl?$AAi?$AAs?$AAh?$AA?9?$AAi?$AAr?$AAe?$AA?$AA@ 00462be4     libucrt:get_qualified_locale.obj
 0002:00006bfc       ??_C@_1CA@NJMMCFOC@?$AAe?$AAn?$AAg?$AAl?$AAi?$AAs?$AAh?$AA?9?$AAj?$AAa?$AAm?$AAa?$AAi?$AAc?$AAa?$AA?$AA@ 00462bfc     libucrt:get_qualified_locale.obj
 0002:00006c1c       ??_C@_1BG@BHJEBBGG@?$AAe?$AAn?$AAg?$AAl?$AAi?$AAs?$AAh?$AA?9?$AAn?$AAz?$AA?$AA@ 00462c1c     libucrt:get_qualified_locale.obj
 0002:00006c34       ??_C@_1CK@FGOEJJCO@?$AAe?$AAn?$AAg?$AAl?$AAi?$AAs?$AAh?$AA?9?$AAs?$AAo?$AAu?$AAt?$AAh?$AA?5?$AAa?$AAf?$AAr?$AAi?$AAc?$AAa?$AA?$AA@ 00462c34     libucrt:get_qualified_locale.obj
 0002:00006c60       ??_C@_1DE@PDBJPCJ@?$AAe?$AAn?$AAg?$AAl?$AAi?$AAs?$AAh?$AA?9?$AAt?$AAr?$AAi?$AAn?$AAi?$AAd?$AAa?$AAd?$AA?5?$AAy?$AA?5?$AAt?$AAo?$AAb?$AAa?$AAg?$AAo?$AA?$AA@ 00462c60     libucrt:get_qualified_locale.obj
 0002:00006c94       ??_C@_1BG@JGCANDME@?$AAe?$AAn?$AAg?$AAl?$AAi?$AAs?$AAh?$AA?9?$AAu?$AAk?$AA?$AA@ 00462c94     libucrt:get_qualified_locale.obj
 0002:00006cac       ??_C@_1BG@DINKMLE@?$AAe?$AAn?$AAg?$AAl?$AAi?$AAs?$AAh?$AA?9?$AAu?$AAs?$AA?$AA@ 00462cac     libucrt:get_qualified_locale.obj
 0002:00006cc4       ??_C@_1BI@NMFDBHJE@?$AAe?$AAn?$AAg?$AAl?$AAi?$AAs?$AAh?$AA?9?$AAu?$AAs?$AAa?$AA?$AA@ 00462cc4     libucrt:get_qualified_locale.obj
 0002:00006cdc       ??_C@_1BO@OIHKJKII@?$AAf?$AAr?$AAe?$AAn?$AAc?$AAh?$AA?9?$AAb?$AAe?$AAl?$AAg?$AAi?$AAa?$AAn?$AA?$AA@ 00462cdc     libucrt:get_qualified_locale.obj
 0002:00006cfc       ??_C@_1CA@NKAELJKI@?$AAf?$AAr?$AAe?$AAn?$AAc?$AAh?$AA?9?$AAc?$AAa?$AAn?$AAa?$AAd?$AAi?$AAa?$AAn?$AA?$AA@ 00462cfc     libucrt:get_qualified_locale.obj
 0002:00006d1c       ??_C@_1CE@MGKCNLGN@?$AAf?$AAr?$AAe?$AAn?$AAc?$AAh?$AA?9?$AAl?$AAu?$AAx?$AAe?$AAm?$AAb?$AAo?$AAu?$AAr?$AAg?$AA?$AA@ 00462d1c     libucrt:get_qualified_locale.obj
 0002:00006d40       ??_C@_1BK@CEGEAILM@?$AAf?$AAr?$AAe?$AAn?$AAc?$AAh?$AA?9?$AAs?$AAw?$AAi?$AAs?$AAs?$AA?$AA@ 00462d40     libucrt:get_qualified_locale.obj
 0002:00006d5c       ??_C@_1CA@PAFKEOCC@?$AAg?$AAe?$AAr?$AAm?$AAa?$AAn?$AA?9?$AAa?$AAu?$AAs?$AAt?$AAr?$AAi?$AAa?$AAn?$AA?$AA@ 00462d5c     libucrt:get_qualified_locale.obj
 0002:00006d7c       ??_C@_1CI@HCFHGOFD@?$AAg?$AAe?$AAr?$AAm?$AAa?$AAn?$AA?9?$AAl?$AAi?$AAc?$AAh?$AAt?$AAe?$AAn?$AAs?$AAt?$AAe?$AAi?$AAn?$AA?$AA@ 00462d7c     libucrt:get_qualified_locale.obj
 0002:00006da4       ??_C@_1CE@FEDDNPDG@?$AAg?$AAe?$AAr?$AAm?$AAa?$AAn?$AA?9?$AAl?$AAu?$AAx?$AAe?$AAm?$AAb?$AAo?$AAu?$AAr?$AAg?$AA?$AA@ 00462da4     libucrt:get_qualified_locale.obj
 0002:00006dc8       ??_C@_1BK@LIMINNMN@?$AAg?$AAe?$AAr?$AAm?$AAa?$AAn?$AA?9?$AAs?$AAw?$AAi?$AAs?$AAs?$AA?$AA@ 00462dc8     libucrt:get_qualified_locale.obj
 0002:00006de4       ??_C@_1BM@LGMDBEPD@?$AAi?$AAr?$AAi?$AAs?$AAh?$AA?9?$AAe?$AAn?$AAg?$AAl?$AAi?$AAs?$AAh?$AA?$AA@ 00462de4     libucrt:get_qualified_locale.obj
 0002:00006e00       ??_C@_1BM@NNCFBAEE@?$AAi?$AAt?$AAa?$AAl?$AAi?$AAa?$AAn?$AA?9?$AAs?$AAw?$AAi?$AAs?$AAs?$AA?$AA@ 00462e00     libucrt:get_qualified_locale.obj
 0002:00006e1c       ??_C@_1BE@FEDJNPIB@?$AAn?$AAo?$AAr?$AAw?$AAe?$AAg?$AAi?$AAa?$AAn?$AA?$AA@ 00462e1c     libucrt:get_qualified_locale.obj
 0002:00006e30       ??_C@_1CC@CILKDEIE@?$AAn?$AAo?$AAr?$AAw?$AAe?$AAg?$AAi?$AAa?$AAn?$AA?9?$AAb?$AAo?$AAk?$AAm?$AAa?$AAl?$AA?$AA@ 00462e30     libucrt:get_qualified_locale.obj
 0002:00006e54       ??_C@_1CE@DHMMHEPL@?$AAn?$AAo?$AAr?$AAw?$AAe?$AAg?$AAi?$AAa?$AAn?$AA?9?$AAn?$AAy?$AAn?$AAo?$AAr?$AAs?$AAk?$AA?$AA@ 00462e54     libucrt:get_qualified_locale.obj
 0002:00006e78       ??_C@_1CK@OPNMHECD@?$AAp?$AAo?$AAr?$AAt?$AAu?$AAg?$AAu?$AAe?$AAs?$AAe?$AA?9?$AAb?$AAr?$AAa?$AAz?$AAi?$AAl?$AAi?$AAa?$AAn?$AA?$AA@ 00462e78     libucrt:get_qualified_locale.obj
 0002:00006ea4       ??_C@_1CE@KEEHCDB@?$AAs?$AAp?$AAa?$AAn?$AAi?$AAs?$AAh?$AA?9?$AAa?$AAr?$AAg?$AAe?$AAn?$AAt?$AAi?$AAn?$AAa?$AA?$AA@ 00462ea4     libucrt:get_qualified_locale.obj
 0002:00006ec8       ??_C@_1CA@GIAOLHJD@?$AAs?$AAp?$AAa?$AAn?$AAi?$AAs?$AAh?$AA?9?$AAb?$AAo?$AAl?$AAi?$AAv?$AAi?$AAa?$AA?$AA@ 00462ec8     libucrt:get_qualified_locale.obj
 0002:00006ee8       ??_C@_1BM@OJNDFNPD@?$AAs?$AAp?$AAa?$AAn?$AAi?$AAs?$AAh?$AA?9?$AAc?$AAh?$AAi?$AAl?$AAe?$AA?$AA@ 00462ee8     libucrt:get_qualified_locale.obj
 0002:00006f04       ??_C@_1CC@OCOLPALL@?$AAs?$AAp?$AAa?$AAn?$AAi?$AAs?$AAh?$AA?9?$AAc?$AAo?$AAl?$AAo?$AAm?$AAb?$AAi?$AAa?$AA?$AA@ 00462f04     libucrt:get_qualified_locale.obj
 0002:00006f28       ??_C@_1CG@BPOFMKBB@?$AAs?$AAp?$AAa?$AAn?$AAi?$AAs?$AAh?$AA?9?$AAc?$AAo?$AAs?$AAt?$AAa?$AA?5?$AAr?$AAi?$AAc?$AAa?$AA?$AA@ 00462f28     libucrt:get_qualified_locale.obj
 0002:00006f50       ??_C@_1DG@IGOBAPBB@?$AAs?$AAp?$AAa?$AAn?$AAi?$AAs?$AAh?$AA?9?$AAd?$AAo?$AAm?$AAi?$AAn?$AAi?$AAc?$AAa?$AAn?$AA?5?$AAr?$AAe?$AAp?$AAu?$AAb?$AAl?$AAi?$AAc?$AA?$AA@ 00462f50     libucrt:get_qualified_locale.obj
 0002:00006f88       ??_C@_1CA@JHAPGEGI@?$AAs?$AAp?$AAa?$AAn?$AAi?$AAs?$AAh?$AA?9?$AAe?$AAc?$AAu?$AAa?$AAd?$AAo?$AAr?$AA?$AA@ 00462f88     libucrt:get_qualified_locale.obj
 0002:00006fa8       ??_C@_1CI@LAPALJPP@?$AAs?$AAp?$AAa?$AAn?$AAi?$AAs?$AAh?$AA?9?$AAe?$AAl?$AA?5?$AAs?$AAa?$AAl?$AAv?$AAa?$AAd?$AAo?$AAr?$AA?$AA@ 00462fa8     libucrt:get_qualified_locale.obj
 0002:00006fd0       ??_C@_1CE@PDGBOFOM@?$AAs?$AAp?$AAa?$AAn?$AAi?$AAs?$AAh?$AA?9?$AAg?$AAu?$AAa?$AAt?$AAe?$AAm?$AAa?$AAl?$AAa?$AA?$AA@ 00462fd0     libucrt:get_qualified_locale.obj
 0002:00006ff4       ??_C@_1CC@NBEBAODI@?$AAs?$AAp?$AAa?$AAn?$AAi?$AAs?$AAh?$AA?9?$AAh?$AAo?$AAn?$AAd?$AAu?$AAr?$AAa?$AAs?$AA?$AA@ 00462ff4     libucrt:get_qualified_locale.obj
 0002:00007018       ??_C@_1CA@LLKGHBMF@?$AAs?$AAp?$AAa?$AAn?$AAi?$AAs?$AAh?$AA?9?$AAm?$AAe?$AAx?$AAi?$AAc?$AAa?$AAn?$AA?$AA@ 00463018     libucrt:get_qualified_locale.obj
 0002:00007038       ??_C@_1BO@LKNDOIGD@?$AAs?$AAp?$AAa?$AAn?$AAi?$AAs?$AAh?$AA?9?$AAm?$AAo?$AAd?$AAe?$AAr?$AAn?$AA?$AA@ 00463038     libucrt:get_qualified_locale.obj
 0002:00007058       ??_C@_1CE@NMDMOEEB@?$AAs?$AAp?$AAa?$AAn?$AAi?$AAs?$AAh?$AA?9?$AAn?$AAi?$AAc?$AAa?$AAr?$AAa?$AAg?$AAu?$AAa?$AA?$AA@ 00463058     libucrt:get_qualified_locale.obj
 0002:0000707c       ??_C@_1BO@LLCBEJGB@?$AAs?$AAp?$AAa?$AAn?$AAi?$AAs?$AAh?$AA?9?$AAp?$AAa?$AAn?$AAa?$AAm?$AAa?$AA?$AA@ 0046307c     libucrt:get_qualified_locale.obj
 0002:0000709c       ??_C@_1CC@FKPGGIHO@?$AAs?$AAp?$AAa?$AAn?$AAi?$AAs?$AAh?$AA?9?$AAp?$AAa?$AAr?$AAa?$AAg?$AAu?$AAa?$AAy?$AA?$AA@ 0046309c     libucrt:get_qualified_locale.obj
 0002:000070c0       ??_C@_1BK@CDEIHOOP@?$AAs?$AAp?$AAa?$AAn?$AAi?$AAs?$AAh?$AA?9?$AAp?$AAe?$AAr?$AAu?$AA?$AA@ 004630c0     libucrt:get_qualified_locale.obj
 0002:000070dc       ??_C@_1CI@GAHAKKGP@?$AAs?$AAp?$AAa?$AAn?$AAi?$AAs?$AAh?$AA?9?$AAp?$AAu?$AAe?$AAr?$AAt?$AAo?$AA?5?$AAr?$AAi?$AAc?$AAo?$AA?$AA@ 004630dc     libucrt:get_qualified_locale.obj
 0002:00007104       ??_C@_1CA@NKJBCAGP@?$AAs?$AAp?$AAa?$AAn?$AAi?$AAs?$AAh?$AA?9?$AAu?$AAr?$AAu?$AAg?$AAu?$AAa?$AAy?$AA?$AA@ 00463104     libucrt:get_qualified_locale.obj
 0002:00007124       ??_C@_1CE@ODILCONM@?$AAs?$AAp?$AAa?$AAn?$AAi?$AAs?$AAh?$AA?9?$AAv?$AAe?$AAn?$AAe?$AAz?$AAu?$AAe?$AAl?$AAa?$AA?$AA@ 00463124     libucrt:get_qualified_locale.obj
 0002:00007148       ??_C@_1CA@OBNMCGFO@?$AAs?$AAw?$AAe?$AAd?$AAi?$AAs?$AAh?$AA?9?$AAf?$AAi?$AAn?$AAl?$AAa?$AAn?$AAd?$AA?$AA@ 00463148     libucrt:get_qualified_locale.obj
 0002:00007168       ??_C@_1M@PIPDDPPI@?$AAs?$AAw?$AAi?$AAs?$AAs?$AA?$AA@ 00463168     libucrt:get_qualified_locale.obj
 0002:00007174       ??_C@_15PJPFLCCM@?$AAu?$AAk?$AA?$AA@ 00463174     libucrt:get_qualified_locale.obj
 0002:0000717c       ??_C@_15GMFIMNFM@?$AAu?$AAs?$AA?$AA@ 0046317c     libucrt:get_qualified_locale.obj
 0002:00007184       ??_C@_17HAEBFAGL@?$AAu?$AAs?$AAa?$AA?$AA@ 00463184     libucrt:get_qualified_locale.obj
 0002:0000718c       ??_C@_1BA@DPFJEPHB@?$AAa?$AAm?$AAe?$AAr?$AAi?$AAc?$AAa?$AA?$AA@ 0046318c     libucrt:get_qualified_locale.obj
 0002:0000719c       ??_C@_1BA@ELOGGFK@?$AAb?$AAr?$AAi?$AAt?$AAa?$AAi?$AAn?$AA?$AA@ 0046319c     libucrt:get_qualified_locale.obj
 0002:000071ac       ??_C@_1M@GHBGIGDA@?$AAc?$AAh?$AAi?$AAn?$AAa?$AA?$AA@ 004631ac     libucrt:get_qualified_locale.obj
 0002:000071b8       ??_C@_1M@NCHEJOPO@?$AAc?$AAz?$AAe?$AAc?$AAh?$AA?$AA@ 004631b8     libucrt:get_qualified_locale.obj
 0002:000071c4       ??_C@_1BA@BKPAPBLA@?$AAe?$AAn?$AAg?$AAl?$AAa?$AAn?$AAd?$AA?$AA@ 004631c4     libucrt:get_qualified_locale.obj
 0002:000071d4       ??_C@_1BM@HKBCKIPC@?$AAg?$AAr?$AAe?$AAa?$AAt?$AA?5?$AAb?$AAr?$AAi?$AAt?$AAa?$AAi?$AAn?$AA?$AA@ 004631d4     libucrt:get_qualified_locale.obj
 0002:000071f0       ??_C@_1BA@PPCHPGJB@?$AAh?$AAo?$AAl?$AAl?$AAa?$AAn?$AAd?$AA?$AA@ 004631f0     libucrt:get_qualified_locale.obj
 0002:00007200       ??_C@_1BE@JBMPEGDG@?$AAh?$AAo?$AAn?$AAg?$AA?9?$AAk?$AAo?$AAn?$AAg?$AA?$AA@ 00463200     libucrt:get_qualified_locale.obj
 0002:00007214       ??_C@_1BI@KOELBBPJ@?$AAn?$AAe?$AAw?$AA?9?$AAz?$AAe?$AAa?$AAl?$AAa?$AAn?$AAd?$AA?$AA@ 00463214     libucrt:get_qualified_locale.obj
 0002:0000722c       ??_C@_15HIEBHAIO@?$AAn?$AAz?$AA?$AA@ 0046322c     libucrt:get_qualified_locale.obj
 0002:00007234       ??_C@_1BC@CHBCPFPI@?$AAp?$AAr?$AA?5?$AAc?$AAh?$AAi?$AAn?$AAa?$AA?$AA@ 00463234     libucrt:get_qualified_locale.obj
 0002:00007248       ??_C@_1BC@JAOIIFKD@?$AAp?$AAr?$AA?9?$AAc?$AAh?$AAi?$AAn?$AAa?$AA?$AA@ 00463248     libucrt:get_qualified_locale.obj
 0002:0000725c       ??_C@_1BI@BEHPPHKC@?$AAp?$AAu?$AAe?$AAr?$AAt?$AAo?$AA?9?$AAr?$AAi?$AAc?$AAo?$AA?$AA@ 0046325c     libucrt:get_qualified_locale.obj
 0002:00007274       ??_C@_1O@PAEOFKDI@?$AAs?$AAl?$AAo?$AAv?$AAa?$AAk?$AA?$AA@ 00463274     libucrt:get_qualified_locale.obj
 0002:00007284       ??_C@_1BK@FIHMCKAM@?$AAs?$AAo?$AAu?$AAt?$AAh?$AA?5?$AAa?$AAf?$AAr?$AAi?$AAc?$AAa?$AA?$AA@ 00463284     libucrt:get_qualified_locale.obj
 0002:000072a0       ??_C@_1BI@NAEOODKB@?$AAs?$AAo?$AAu?$AAt?$AAh?$AA?5?$AAk?$AAo?$AAr?$AAe?$AAa?$AA?$AA@ 004632a0     libucrt:get_qualified_locale.obj
 0002:000072b8       ??_C@_1BK@FBDGGIFF@?$AAs?$AAo?$AAu?$AAt?$AAh?$AA?9?$AAa?$AAf?$AAr?$AAi?$AAc?$AAa?$AA?$AA@ 004632b8     libucrt:get_qualified_locale.obj
 0002:000072d4       ??_C@_1BI@GHLEJDPK@?$AAs?$AAo?$AAu?$AAt?$AAh?$AA?9?$AAk?$AAo?$AAr?$AAe?$AAa?$AA?$AA@ 004632d4     libucrt:get_qualified_locale.obj
 0002:000072ec       ??_C@_1CE@PLHLOMJF@?$AAt?$AAr?$AAi?$AAn?$AAi?$AAd?$AAa?$AAd?$AA?5?$AA?$CG?$AA?5?$AAt?$AAo?$AAb?$AAa?$AAg?$AAo?$AA?$AA@ 004632ec     libucrt:get_qualified_locale.obj
 0002:00007310       ??_C@_1BO@MODIMHHI@?$AAu?$AAn?$AAi?$AAt?$AAe?$AAd?$AA?9?$AAk?$AAi?$AAn?$AAg?$AAd?$AAo?$AAm?$AA?$AA@ 00463310     libucrt:get_qualified_locale.obj
 0002:00007330       ??_C@_1BM@FFHJONBJ@?$AAu?$AAn?$AAi?$AAt?$AAe?$AAd?$AA?9?$AAs?$AAt?$AAa?$AAt?$AAe?$AAs?$AA?$AA@ 00463330     libucrt:get_qualified_locale.obj
 0002:0000734c       ??_C@_17DNCLJFIF@?$AAA?$AAC?$AAP?$AA?$AA@ 0046334c     libucrt:get_qualified_locale.obj
 0002:00007354       ??_C@_17CIKBIHLH@?$AAO?$AAC?$AAP?$AA?$AA@ 00463354     libucrt:get_qualified_locale.obj
 0002:0000735c       ___rglangidNotDefault      0046335c     libucrt:getqloc_downlevel.obj
 0002:00007370       ??_C@_00CNPNBAHC@?$AA@     00463370     libucrt:mbrtowc.obj
 0002:00007374       ??_C@_01GBGANLPD@0?$AA@    00463374     libucrt:cfout.obj
 0002:00007378       ??_C@_05DNEBIAHO@1?$CDINF?$AA@ 00463378     libucrt:cfout.obj
 0002:00007380       ??_C@_06IMKFLFPG@1?$CDQNAN?$AA@ 00463380     libucrt:cfout.obj
 0002:00007388       ??_C@_06PGGFOGJG@1?$CDSNAN?$AA@ 00463388     libucrt:cfout.obj
 0002:00007390       ??_C@_05PHHOCPM@1?$CDIND?$AA@ 00463390     libucrt:cfout.obj
 0002:00007ab8       ??_C@_15EMKDOKLE@?$AAa?$AAr?$AA?$AA@ 00463ab8     libucrt:lcidtoname_downlevel.obj
 0002:00007ac0       ??_C@_15KNPADPLH@?$AAb?$AAg?$AA?$AA@ 00463ac0     libucrt:lcidtoname_downlevel.obj
 0002:00007ac8       ??_C@_15EDMHLDMO@?$AAc?$AAa?$AA?$AA@ 00463ac8     libucrt:lcidtoname_downlevel.obj
 0002:00007ad0       ??_C@_1O@BPEAJADD@?$AAz?$AAh?$AA?9?$AAC?$AAH?$AAS?$AA?$AA@ 00463ad0     libucrt:lcidtoname_downlevel.obj
 0002:00007ae0       ??_C@_15LJNHCMNK@?$AAc?$AAs?$AA?$AA@ 00463ae0     libucrt:lcidtoname_downlevel.obj
 0002:00007ae8       ??_C@_15FOMCIDHG@?$AAd?$AAa?$AA?$AA@ 00463ae8     libucrt:lcidtoname_downlevel.obj
 0002:00007af0       ??_C@_15NBKABECB@?$AAd?$AAe?$AA?$AA@ 00463af0     libucrt:lcidtoname_downlevel.obj
 0002:00007af8       ??_C@_15GHPEIIAO@?$AAe?$AAl?$AA?$AA@ 00463af8     libucrt:lcidtoname_downlevel.obj
 0002:00007b00       ??_C@_15MNPNEAIF@?$AAe?$AAn?$AA?$AA@ 00463b00     libucrt:lcidtoname_downlevel.obj
 0002:00007b08       ??_C@_15GPIOMPMH@?$AAe?$AAs?$AA?$AA@ 00463b08     libucrt:lcidtoname_downlevel.obj
 0002:00007b10       ??_C@_15NGLOAKJC@?$AAf?$AAi?$AA?$AA@ 00463b10     libucrt:lcidtoname_downlevel.obj
 0002:00007b18       ??_C@_15FBKGNKAM@?$AAf?$AAr?$AA?$AA@ 00463b18     libucrt:lcidtoname_downlevel.obj
 0002:00007b20       ??_C@_15KGGCNEFK@?$AAh?$AAe?$AA?$AA@ 00463b20     libucrt:lcidtoname_downlevel.obj
 0002:00007b28       ??_C@_15PGHLIDMF@?$AAh?$AAu?$AA?$AA@ 00463b28     libucrt:lcidtoname_downlevel.obj
 0002:00007b30       ??_C@_15BIEMAPLM@?$AAi?$AAs?$AA?$AA@ 00463b30     libucrt:lcidtoname_downlevel.obj
 0002:00007b38       ??_C@_15IFJLDHAF@?$AAi?$AAt?$AA?$AA@ 00463b38     libucrt:lcidtoname_downlevel.obj
 0002:00007b40       ??_C@_15GEMIOCAG@?$AAj?$AAa?$AA?$AA@ 00463b40     libucrt:lcidtoname_downlevel.obj
 0002:00007b48       ??_C@_15EPELEGJA@?$AAk?$AAo?$AA?$AA@ 00463b48     libucrt:lcidtoname_downlevel.obj
 0002:00007b50       ??_C@_15NDDHIMN@?$AAn?$AAl?$AA?$AA@ 00463b50     libucrt:lcidtoname_downlevel.obj
 0002:00007b58       ??_C@_15BPIGNHCD@?$AAn?$AAo?$AA?$AA@ 00463b58     libucrt:lcidtoname_downlevel.obj
 0002:00007b60       ??_C@_15DEOPBLCG@?$AAp?$AAl?$AA?$AA@ 00463b60     libucrt:lcidtoname_downlevel.obj
 0002:00007b68       ??_C@_15KBECGEFG@?$AAp?$AAt?$AA?$AA@ 00463b68     libucrt:lcidtoname_downlevel.obj
 0002:00007b70       ??_C@_15GLJCBFMD@?$AAr?$AAo?$AA?$AA@ 00463b70     libucrt:lcidtoname_downlevel.obj
 0002:00007b78       ??_C@_15FEDGKCDI@?$AAr?$AAu?$AA?$AA@ 00463b78     libucrt:lcidtoname_downlevel.obj
 0002:00007b80       ??_C@_15GLKMLLHM@?$AAh?$AAr?$AA?$AA@ 00463b80     libucrt:lcidtoname_downlevel.obj
 0002:00007b88       ??_C@_15CPKMFBDB@?$AAs?$AAk?$AA?$AA@ 00463b88     libucrt:lcidtoname_downlevel.obj
 0002:00007b90       ??_C@_15BAAIOGMK@?$AAs?$AAq?$AA?$AA@ 00463b90     libucrt:lcidtoname_downlevel.obj
 0002:00007b98       ??_C@_15INNPNOHD@?$AAs?$AAv?$AA?$AA@ 00463b98     libucrt:lcidtoname_downlevel.obj
 0002:00007ba0       ??_C@_15CABMMOGH@?$AAt?$AAh?$AA?$AA@ 00463ba0     libucrt:lcidtoname_downlevel.obj
 0002:00007ba8       ??_C@_15BPLIHJJM@?$AAt?$AAr?$AA?$AA@ 00463ba8     libucrt:lcidtoname_downlevel.obj
 0002:00007bb0       ??_C@_15NEOEKKDJ@?$AAu?$AAr?$AA?$AA@ 00463bb0     libucrt:lcidtoname_downlevel.obj
 0002:00007bb8       ??_C@_15NFICGAJK@?$AAi?$AAd?$AA?$AA@ 00463bb8     libucrt:lcidtoname_downlevel.obj
 0002:00007bc0       ??_C@_15HPJPHDM@?$AAb?$AAe?$AA?$AA@ 00463bc0     libucrt:lcidtoname_downlevel.obj
 0002:00007bc8       ??_C@_15LCHLGJII@?$AAs?$AAl?$AA?$AA@ 00463bc8     libucrt:lcidtoname_downlevel.obj
 0002:00007bd0       ??_C@_15PCFJPHHO@?$AAe?$AAt?$AA?$AA@ 00463bd0     libucrt:lcidtoname_downlevel.obj
 0002:00007bd8       ??_C@_15HPFPGODN@?$AAl?$AAv?$AA?$AA@ 00463bd8     libucrt:lcidtoname_downlevel.obj
 0002:00007be0       ??_C@_15NFFGKGLG@?$AAl?$AAt?$AA?$AA@ 00463be0     libucrt:lcidtoname_downlevel.obj
 0002:00007be8       ??_C@_15BDAKCCHN@?$AAf?$AAa?$AA?$AA@ 00463be8     libucrt:lcidtoname_downlevel.obj
 0002:00007bf0       ??_C@_15NFGIAIAJ@?$AAv?$AAi?$AA?$AA@ 00463bf0     libucrt:lcidtoname_downlevel.obj
 0002:00007bf8       ??_C@_15LMKNDMHN@?$AAh?$AAy?$AA?$AA@ 00463bf8     libucrt:lcidtoname_downlevel.obj
 0002:00007c00       ??_C@_15IJBHMCFL@?$AAa?$AAz?$AA?$AA@ 00463c00     libucrt:lcidtoname_downlevel.obj
 0002:00007c08       ??_C@_15EKOFJABL@?$AAe?$AAu?$AA?$AA@ 00463c08     libucrt:lcidtoname_downlevel.obj
 0002:00007c10       ??_C@_15BGHADCNK@?$AAm?$AAk?$AA?$AA@ 00463c10     libucrt:lcidtoname_downlevel.obj
 0002:00007c18       ??_C@_15JDNICKHM@?$AAa?$AAf?$AA?$AA@ 00463c18     libucrt:lcidtoname_downlevel.obj
 0002:00007c20       ??_C@_15KPJEDBKD@?$AAk?$AAa?$AA?$AA@ 00463c20     libucrt:lcidtoname_downlevel.obj
 0002:00007c28       ??_C@_15PDNFFFEO@?$AAf?$AAo?$AA?$AA@ 00463c28     libucrt:lcidtoname_downlevel.obj
 0002:00007c30       ??_C@_15OMLEGLOC@?$AAh?$AAi?$AA?$AA@ 00463c30     libucrt:lcidtoname_downlevel.obj
 0002:00007c38       ??_C@_15IDNNENKK@?$AAm?$AAs?$AA?$AA@ 00463c38     libucrt:lcidtoname_downlevel.obj
 0002:00007c40       ??_C@_15MACJNBMH@?$AAk?$AAk?$AA?$AA@ 00463c40     libucrt:lcidtoname_downlevel.obj
 0002:00007c48       ??_C@_15DKDJEOND@?$AAk?$AAy?$AA?$AA@ 00463c48     libucrt:lcidtoname_downlevel.obj
 0002:00007c50       ??_C@_15DFGDLJBG@?$AAs?$AAw?$AA?$AA@ 00463c50     libucrt:lcidtoname_downlevel.obj
 0002:00007c58       ??_C@_15BBFAICNG@?$AAu?$AAz?$AA?$AA@ 00463c58     libucrt:lcidtoname_downlevel.obj
 0002:00007c60       ??_C@_15DKNDCGEA@?$AAt?$AAt?$AA?$AA@ 00463c60     libucrt:lcidtoname_downlevel.obj
 0002:00007c68       ??_C@_15MGIFMDPL@?$AAp?$AAa?$AA?$AA@ 00463c68     libucrt:lcidtoname_downlevel.obj
 0002:00007c70       ??_C@_15HCNDBBA@?$AAg?$AAu?$AA?$AA@ 00463c70     libucrt:lcidtoname_downlevel.obj
 0002:00007c78       ??_C@_15FNBEIBON@?$AAt?$AAa?$AA?$AA@ 00463c78     libucrt:lcidtoname_downlevel.obj
 0002:00007c80       ??_C@_15NCHGBGLK@?$AAt?$AAe?$AA?$AA@ 00463c80     libucrt:lcidtoname_downlevel.obj
 0002:00007c88       ??_C@_15PHPHCBPF@?$AAk?$AAn?$AA?$AA@ 00463c88     libucrt:lcidtoname_downlevel.obj
 0002:00007c90       ??_C@_15DLGBCKMP@?$AAm?$AAr?$AA?$AA@ 00463c90     libucrt:lcidtoname_downlevel.obj
 0002:00007c98       ??_C@_15EABBLBFF@?$AAs?$AAa?$AA?$AA@ 00463c98     libucrt:lcidtoname_downlevel.obj
 0002:00007ca0       ??_C@_15CBKOMCOI@?$AAm?$AAn?$AA?$AA@ 00463ca0     libucrt:lcidtoname_downlevel.obj
 0002:00007ca8       ??_C@_15CKDMCJAF@?$AAg?$AAl?$AA?$AA@ 00463ca8     libucrt:lcidtoname_downlevel.obj
 0002:00007cb0       ??_C@_17CNJFBPG@?$AAk?$AAo?$AAk?$AA?$AA@ 00463cb0     libucrt:lcidtoname_downlevel.obj
 0002:00007cb8       ??_C@_17FFBJICPL@?$AAs?$AAy?$AAr?$AA?$AA@ 00463cb8     libucrt:lcidtoname_downlevel.obj
 0002:00007cc0       ??_C@_17KPNDCPAF@?$AAd?$AAi?$AAv?$AA?$AA@ 00463cc0     libucrt:lcidtoname_downlevel.obj
 0002:00007cc8       ??_C@_11LOCGONAA@?$AA?$AA@ 00463cc8     libucrt:lcidtoname_downlevel.obj
 0002:00007ccc       ??_C@_1M@OKAHONE@?$AAa?$AAr?$AA?9?$AAS?$AAA?$AA?$AA@ 00463ccc     libucrt:lcidtoname_downlevel.obj
 0002:00007cd8       ??_C@_1M@FFFIGIGK@?$AAb?$AAg?$AA?9?$AAB?$AAG?$AA?$AA@ 00463cd8     libucrt:lcidtoname_downlevel.obj
 0002:00007ce4       ??_C@_1M@BJNKEDC@?$AAc?$AAa?$AA?9?$AAE?$AAS?$AA?$AA@ 00463ce4     libucrt:lcidtoname_downlevel.obj
 0002:00007cf0       ??_C@_1M@IJJHFJHA@?$AAc?$AAs?$AA?9?$AAC?$AAZ?$AA?$AA@ 00463cf0     libucrt:lcidtoname_downlevel.obj
 0002:00007cfc       ??_C@_1M@CLPEOBGI@?$AAd?$AAa?$AA?9?$AAD?$AAK?$AA?$AA@ 00463cfc     libucrt:lcidtoname_downlevel.obj
 0002:00007d08       ??_C@_1M@MCMADGCB@?$AAd?$AAe?$AA?9?$AAD?$AAE?$AA?$AA@ 00463d08     libucrt:lcidtoname_downlevel.obj
 0002:00007d14       ??_C@_1M@OOCKEMAM@?$AAe?$AAl?$AA?9?$AAG?$AAR?$AA?$AA@ 00463d14     libucrt:lcidtoname_downlevel.obj
 0002:00007d20       ??_C@_1M@DDNJFGID@?$AAf?$AAi?$AA?9?$AAF?$AAI?$AA?$AA@ 00463d20     libucrt:lcidtoname_downlevel.obj
 0002:00007d2c       ??_C@_1M@GLIPPMAC@?$AAf?$AAr?$AA?9?$AAF?$AAR?$AA?$AA@ 00463d2c     libucrt:lcidtoname_downlevel.obj
 0002:00007d38       ??_C@_1M@GFMCHPE@?$AAh?$AAe?$AA?9?$AAI?$AAL?$AA?$AA@ 00463d38     libucrt:lcidtoname_downlevel.obj
 0002:00007d44       ??_C@_1M@MHLPGNKM@?$AAh?$AAu?$AA?9?$AAH?$AAU?$AA?$AA@ 00463d44     libucrt:lcidtoname_downlevel.obj
 0002:00007d50       ??_C@_1M@LPDDNNPN@?$AAi?$AAs?$AA?9?$AAI?$AAS?$AA?$AA@ 00463d50     libucrt:lcidtoname_downlevel.obj
 0002:00007d5c       ??_C@_1M@MADIPODN@?$AAi?$AAt?$AA?9?$AAI?$AAT?$AA?$AA@ 00463d5c     libucrt:lcidtoname_downlevel.obj
 0002:00007d68       ??_C@_1M@IHBJJGG@?$AAn?$AAl?$AA?9?$AAN?$AAL?$AA?$AA@ 00463d68     libucrt:lcidtoname_downlevel.obj
 0002:00007d74       ??_C@_1M@EANAGDL@?$AAn?$AAb?$AA?9?$AAN?$AAO?$AA?$AA@ 00463d74     libucrt:lcidtoname_downlevel.obj
 0002:00007d80       ??_C@_1M@NEIEMEGP@?$AAp?$AAl?$AA?9?$AAP?$AAL?$AA?$AA@ 00463d80     libucrt:lcidtoname_downlevel.obj
 0002:00007d8c       ??_C@_1M@BOCFIGEP@?$AAp?$AAt?$AA?9?$AAB?$AAR?$AA?$AA@ 00463d8c     libucrt:lcidtoname_downlevel.obj
 0002:00007d98       ??_C@_1M@IMPFOPBG@?$AAr?$AAo?$AA?9?$AAR?$AAO?$AA?$AA@ 00463d98     libucrt:lcidtoname_downlevel.obj
 0002:00007da4       ??_C@_1M@IDNNEJMM@?$AAr?$AAu?$AA?9?$AAR?$AAU?$AA?$AA@ 00463da4     libucrt:lcidtoname_downlevel.obj
 0002:00007db0       ??_C@_1M@LILEEOGM@?$AAh?$AAr?$AA?9?$AAH?$AAR?$AA?$AA@ 00463db0     libucrt:lcidtoname_downlevel.obj
 0002:00007dbc       ??_C@_1M@FKIFEHPB@?$AAs?$AAk?$AA?9?$AAS?$AAK?$AA?$AA@ 00463dbc     libucrt:lcidtoname_downlevel.obj
 0002:00007dc8       ??_C@_1M@LJMAMNPJ@?$AAs?$AAq?$AA?9?$AAA?$AAL?$AA?$AA@ 00463dc8     libucrt:lcidtoname_downlevel.obj
 0002:00007dd4       ??_C@_1M@GIAKDKJK@?$AAs?$AAv?$AA?9?$AAS?$AAE?$AA?$AA@ 00463dd4     libucrt:lcidtoname_downlevel.obj
 0002:00007de0       ??_C@_1M@MKJKIKCL@?$AAt?$AAh?$AA?9?$AAT?$AAH?$AA?$AA@ 00463de0     libucrt:lcidtoname_downlevel.obj
 0002:00007dec       ??_C@_1M@MFLCCMPB@?$AAt?$AAr?$AA?9?$AAT?$AAR?$AA?$AA@ 00463dec     libucrt:lcidtoname_downlevel.obj
 0002:00007df8       ??_C@_1M@OIJHDKJN@?$AAu?$AAr?$AA?9?$AAP?$AAK?$AA?$AA@ 00463df8     libucrt:lcidtoname_downlevel.obj
 0002:00007e04       ??_C@_1M@LHIPCIEK@?$AAi?$AAd?$AA?9?$AAI?$AAD?$AA?$AA@ 00463e04     libucrt:lcidtoname_downlevel.obj
 0002:00007e10       ??_C@_1M@MFMOBGI@?$AAu?$AAk?$AA?9?$AAU?$AAA?$AA?$AA@ 00463e10     libucrt:lcidtoname_downlevel.obj
 0002:00007e1c       ??_C@_1M@OBGLJIPL@?$AAb?$AAe?$AA?9?$AAB?$AAY?$AA?$AA@ 00463e1c     libucrt:lcidtoname_downlevel.obj
 0002:00007e28       ??_C@_1M@BCFAJEAD@?$AAs?$AAl?$AA?9?$AAS?$AAI?$AA?$AA@ 00463e28     libucrt:lcidtoname_downlevel.obj
 0002:00007e34       ??_C@_1M@FKFFEDDN@?$AAe?$AAt?$AA?9?$AAE?$AAE?$AA?$AA@ 00463e34     libucrt:lcidtoname_downlevel.obj
 0002:00007e40       ??_C@_1M@KGKKAACI@?$AAl?$AAv?$AA?9?$AAL?$AAV?$AA?$AA@ 00463e40     libucrt:lcidtoname_downlevel.obj
 0002:00007e4c       ??_C@_1M@IFGBIJO@?$AAl?$AAt?$AA?9?$AAL?$AAT?$AA?$AA@ 00463e4c     libucrt:lcidtoname_downlevel.obj
 0002:00007e58       ??_C@_1M@FGEAHEDM@?$AAf?$AAa?$AA?9?$AAI?$AAR?$AA?$AA@ 00463e58     libucrt:lcidtoname_downlevel.obj
 0002:00007e64       ??_C@_1M@KBMAIBFN@?$AAv?$AAi?$AA?9?$AAV?$AAN?$AA?$AA@ 00463e64     libucrt:lcidtoname_downlevel.obj
 0002:00007e70       ??_C@_1M@GPCBKDJK@?$AAh?$AAy?$AA?9?$AAA?$AAM?$AA?$AA@ 00463e70     libucrt:lcidtoname_downlevel.obj
 0002:00007e7c       ??_C@_1BG@BECMDDJB@?$AAa?$AAz?$AA?9?$AAA?$AAZ?$AA?9?$AAL?$AAa?$AAt?$AAn?$AA?$AA@ 00463e7c     libucrt:lcidtoname_downlevel.obj
 0002:00007e94       ??_C@_1M@MAOFCAEA@?$AAe?$AAu?$AA?9?$AAE?$AAS?$AA?$AA@ 00463e94     libucrt:lcidtoname_downlevel.obj
 0002:00007ea0       ??_C@_1M@IGHABKPI@?$AAm?$AAk?$AA?9?$AAM?$AAK?$AA?$AA@ 00463ea0     libucrt:lcidtoname_downlevel.obj
 0002:00007eac       ??_C@_1M@IAIGNEJG@?$AAt?$AAn?$AA?9?$AAZ?$AAA?$AA?$AA@ 00463eac     libucrt:lcidtoname_downlevel.obj
 0002:00007eb8       ??_C@_1M@IIJCOJFA@?$AAx?$AAh?$AA?9?$AAZ?$AAA?$AA?$AA@ 00463eb8     libucrt:lcidtoname_downlevel.obj
 0002:00007ec4       ??_C@_1M@LGPJHNJH@?$AAz?$AAu?$AA?9?$AAZ?$AAA?$AA?$AA@ 00463ec4     libucrt:lcidtoname_downlevel.obj
 0002:00007ed0       ??_C@_1M@HOKAOIO@?$AAa?$AAf?$AA?9?$AAZ?$AAA?$AA?$AA@ 00463ed0     libucrt:lcidtoname_downlevel.obj
 0002:00007edc       ??_C@_1M@DPCLHLIE@?$AAk?$AAa?$AA?9?$AAG?$AAE?$AA?$AA@ 00463edc     libucrt:lcidtoname_downlevel.obj
 0002:00007ee8       ??_C@_1M@BLKMHJBI@?$AAf?$AAo?$AA?9?$AAF?$AAO?$AA?$AA@ 00463ee8     libucrt:lcidtoname_downlevel.obj
 0002:00007ef4       ??_C@_1M@LGGJAPPB@?$AAh?$AAi?$AA?9?$AAI?$AAN?$AA?$AA@ 00463ef4     libucrt:lcidtoname_downlevel.obj
 0002:00007f00       ??_C@_1M@FIKPIHFE@?$AAm?$AAt?$AA?9?$AAM?$AAT?$AA?$AA@ 00463f00     libucrt:lcidtoname_downlevel.obj
 0002:00007f0c       ??_C@_1M@HEGGPBFA@?$AAs?$AAe?$AA?9?$AAN?$AAO?$AA?$AA@ 00463f0c     libucrt:lcidtoname_downlevel.obj
 0002:00007f18       ??_C@_1M@EIBJEEPA@?$AAm?$AAs?$AA?9?$AAM?$AAY?$AA?$AA@ 00463f18     libucrt:lcidtoname_downlevel.obj
 0002:00007f24       ??_C@_1M@FHLBGMPP@?$AAk?$AAk?$AA?9?$AAK?$AAZ?$AA?$AA@ 00463f24     libucrt:lcidtoname_downlevel.obj
 0002:00007f30       ??_C@_1M@NGJJLCGI@?$AAk?$AAy?$AA?9?$AAK?$AAG?$AA?$AA@ 00463f30     libucrt:lcidtoname_downlevel.obj
 0002:00007f3c       ??_C@_1M@GIENNBFC@?$AAs?$AAw?$AA?9?$AAK?$AAE?$AA?$AA@ 00463f3c     libucrt:lcidtoname_downlevel.obj
 0002:00007f48       ??_C@_1BG@NDGMJIMJ@?$AAu?$AAz?$AA?9?$AAU?$AAZ?$AA?9?$AAL?$AAa?$AAt?$AAn?$AA?$AA@ 00463f48     libucrt:lcidtoname_downlevel.obj
 0002:00007f60       ??_C@_1M@IDCCIHBC@?$AAt?$AAt?$AA?9?$AAR?$AAU?$AA?$AA@ 00463f60     libucrt:lcidtoname_downlevel.obj
 0002:00007f6c       ??_C@_1M@LOICPMOJ@?$AAb?$AAn?$AA?9?$AAI?$AAN?$AA?$AA@ 00463f6c     libucrt:lcidtoname_downlevel.obj
 0002:00007f78       ??_C@_1M@KPKKNEAH@?$AAp?$AAa?$AA?9?$AAI?$AAN?$AA?$AA@ 00463f78     libucrt:lcidtoname_downlevel.obj
 0002:00007f84       ??_C@_1M@PJGPPBOG@?$AAg?$AAu?$AA?9?$AAI?$AAN?$AA?$AA@ 00463f84     libucrt:lcidtoname_downlevel.obj
 0002:00007f90       ??_C@_1M@KMKMOPHI@?$AAt?$AAa?$AA?9?$AAI?$AAN?$AA?$AA@ 00463f90     libucrt:lcidtoname_downlevel.obj
 0002:00007f9c       ??_C@_1M@KFEHEPAC@?$AAt?$AAe?$AA?9?$AAI?$AAN?$AA?$AA@ 00463f9c     libucrt:lcidtoname_downlevel.obj
 0002:00007fa8       ??_C@_1M@CDCLMGHI@?$AAk?$AAn?$AA?9?$AAI?$AAN?$AA?$AA@ 00463fa8     libucrt:lcidtoname_downlevel.obj
 0002:00007fb4       ??_C@_1M@MIODLDKF@?$AAm?$AAl?$AA?9?$AAI?$AAN?$AA?$AA@ 00463fb4     libucrt:lcidtoname_downlevel.obj
 0002:00007fc0       ??_C@_1M@PBIEACPO@?$AAm?$AAr?$AA?9?$AAI?$AAN?$AA?$AA@ 00463fc0     libucrt:lcidtoname_downlevel.obj
 0002:00007fcc       ??_C@_1M@NIDEAGPH@?$AAs?$AAa?$AA?9?$AAI?$AAN?$AA?$AA@ 00463fcc     libucrt:lcidtoname_downlevel.obj
 0002:00007fd8       ??_C@_1M@FHIHCBIO@?$AAm?$AAn?$AA?9?$AAM?$AAN?$AA?$AA@ 00463fd8     libucrt:lcidtoname_downlevel.obj
 0002:00007fe4       ??_C@_1M@JAIJPENP@?$AAc?$AAy?$AA?9?$AAG?$AAB?$AA?$AA@ 00463fe4     libucrt:lcidtoname_downlevel.obj
 0002:00007ff0       ??_C@_1M@PHGFBEPN@?$AAg?$AAl?$AA?9?$AAE?$AAS?$AA?$AA@ 00463ff0     libucrt:lcidtoname_downlevel.obj
 0002:00007ffc       ??_C@_1O@KPIPDNCP@?$AAk?$AAo?$AAk?$AA?9?$AAI?$AAN?$AA?$AA@ 00463ffc     libucrt:lcidtoname_downlevel.obj
 0002:0000800c       ??_C@_1O@KNHJLDJA@?$AAs?$AAy?$AAr?$AA?9?$AAS?$AAY?$AA?$AA@ 0046400c     libucrt:lcidtoname_downlevel.obj
 0002:0000801c       ??_C@_1O@MKEKBLAH@?$AAd?$AAi?$AAv?$AA?9?$AAM?$AAV?$AA?$AA@ 0046401c     libucrt:lcidtoname_downlevel.obj
 0002:0000802c       ??_C@_1O@OHDCKDDF@?$AAq?$AAu?$AAz?$AA?9?$AAB?$AAO?$AA?$AA@ 0046402c     libucrt:lcidtoname_downlevel.obj
 0002:0000803c       ??_C@_1M@LEPJNLFD@?$AAn?$AAs?$AA?9?$AAZ?$AAA?$AA?$AA@ 0046403c     libucrt:lcidtoname_downlevel.obj
 0002:00008048       ??_C@_1M@OMLEIIJB@?$AAm?$AAi?$AA?9?$AAN?$AAZ?$AA?$AA@ 00464048     libucrt:lcidtoname_downlevel.obj
 0002:00008054       ??_C@_1M@PMPEAILG@?$AAa?$AAr?$AA?9?$AAI?$AAQ?$AA?$AA@ 00464054     libucrt:lcidtoname_downlevel.obj
 0002:00008060       ??_C@_1M@CNKPNOEE@?$AAd?$AAe?$AA?9?$AAC?$AAH?$AA?$AA@ 00464060     libucrt:lcidtoname_downlevel.obj
 0002:0000806c       ??_C@_1M@LKMGMLKO@?$AAe?$AAn?$AA?9?$AAG?$AAB?$AA?$AA@ 0046406c     libucrt:lcidtoname_downlevel.obj
 0002:00008078       ??_C@_1M@PGKJFFGL@?$AAe?$AAs?$AA?9?$AAM?$AAX?$AA?$AA@ 00464078     libucrt:lcidtoname_downlevel.obj
 0002:00008084       ??_C@_1M@DNNANBDC@?$AAf?$AAr?$AA?9?$AAB?$AAE?$AA?$AA@ 00464084     libucrt:lcidtoname_downlevel.obj
 0002:00008090       ??_C@_1M@HLGMDFHM@?$AAi?$AAt?$AA?9?$AAC?$AAH?$AA?$AA@ 00464090     libucrt:lcidtoname_downlevel.obj
 0002:0000809c       ??_C@_1M@CLLBGJH@?$AAn?$AAl?$AA?9?$AAB?$AAE?$AA?$AA@ 0046409c     libucrt:lcidtoname_downlevel.obj
 0002:000080a8       ??_C@_1M@BODBOGLF@?$AAn?$AAn?$AA?9?$AAN?$AAO?$AA?$AA@ 004640a8     libucrt:lcidtoname_downlevel.obj
 0002:000080b4       ??_C@_1M@HFFAHKAD@?$AAp?$AAt?$AA?9?$AAP?$AAT?$AA?$AA@ 004640b4     libucrt:lcidtoname_downlevel.obj
 0002:000080c0       ??_C@_1BG@LNOAKHIE@?$AAs?$AAr?$AA?9?$AAS?$AAP?$AA?9?$AAL?$AAa?$AAt?$AAn?$AA?$AA@ 004640c0     libucrt:lcidtoname_downlevel.obj
 0002:000080d8       ??_C@_1M@HBMHBGAK@?$AAs?$AAv?$AA?9?$AAF?$AAI?$AA?$AA@ 004640d8     libucrt:lcidtoname_downlevel.obj
 0002:000080e4       ??_C@_1BG@DGCJGJBE@?$AAa?$AAz?$AA?9?$AAA?$AAZ?$AA?9?$AAC?$AAy?$AAr?$AAl?$AA?$AA@ 004640e4     libucrt:lcidtoname_downlevel.obj
 0002:000080fc       ??_C@_1M@KEJDAAHB@?$AAs?$AAe?$AA?9?$AAS?$AAE?$AA?$AA@ 004640fc     libucrt:lcidtoname_downlevel.obj
 0002:00008108       ??_C@_1M@HEIBJJAD@?$AAm?$AAs?$AA?9?$AAB?$AAN?$AA?$AA@ 00464108     libucrt:lcidtoname_downlevel.obj
 0002:00008114       ??_C@_1BG@PBGJMCEM@?$AAu?$AAz?$AA?9?$AAU?$AAZ?$AA?9?$AAC?$AAy?$AAr?$AAl?$AA?$AA@ 00464114     libucrt:lcidtoname_downlevel.obj
 0002:0000812c       ??_C@_1O@LAOBCMDF@?$AAq?$AAu?$AAz?$AA?9?$AAE?$AAC?$AA?$AA@ 0046412c     libucrt:lcidtoname_downlevel.obj
 0002:0000813c       ??_C@_1M@POEEMAIO@?$AAa?$AAr?$AA?9?$AAE?$AAG?$AA?$AA@ 0046413c     libucrt:lcidtoname_downlevel.obj
 0002:00008148       ??_C@_1M@EFAKDEDL@?$AAz?$AAh?$AA?9?$AAH?$AAK?$AA?$AA@ 00464148     libucrt:lcidtoname_downlevel.obj
 0002:00008154       ??_C@_1M@HKKIJHGI@?$AAd?$AAe?$AA?9?$AAA?$AAT?$AA?$AA@ 00464154     libucrt:lcidtoname_downlevel.obj
 0002:00008160       ??_C@_1M@KBFBEHJF@?$AAe?$AAn?$AA?9?$AAA?$AAU?$AA?$AA@ 00464160     libucrt:lcidtoname_downlevel.obj
 0002:0000816c       ??_C@_1M@MNPLFAAH@?$AAe?$AAs?$AA?9?$AAE?$AAS?$AA?$AA@ 0046416c     libucrt:lcidtoname_downlevel.obj
 0002:00008178       ??_C@_1M@HJOOJFMA@?$AAf?$AAr?$AA?9?$AAC?$AAA?$AA?$AA@ 00464178     libucrt:lcidtoname_downlevel.obj
 0002:00008184       ??_C@_1BG@JPOFPNAB@?$AAs?$AAr?$AA?9?$AAS?$AAP?$AA?9?$AAC?$AAy?$AAr?$AAl?$AA?$AA@ 00464184     libucrt:lcidtoname_downlevel.obj
 0002:0000819c       ??_C@_1M@LNFOCMOB@?$AAs?$AAe?$AA?9?$AAF?$AAI?$AA?$AA@ 0046419c     libucrt:lcidtoname_downlevel.obj
 0002:000081a8       ??_C@_1O@MGJBOAMB@?$AAq?$AAu?$AAz?$AA?9?$AAP?$AAE?$AA?$AA@ 004641a8     libucrt:lcidtoname_downlevel.obj
 0002:000081b8       ??_C@_1M@GJINLBOK@?$AAa?$AAr?$AA?9?$AAL?$AAY?$AA?$AA@ 004641b8     libucrt:lcidtoname_downlevel.obj
 0002:000081c4       ??_C@_1M@GGMNHJNL@?$AAz?$AAh?$AA?9?$AAS?$AAG?$AA?$AA@ 004641c4     libucrt:lcidtoname_downlevel.obj
 0002:000081d0       ??_C@_1M@HOIKODND@?$AAd?$AAe?$AA?9?$AAL?$AAU?$AA?$AA@ 004641d0     libucrt:lcidtoname_downlevel.obj
 0002:000081dc       ??_C@_1M@DDOCCGFG@?$AAe?$AAn?$AA?9?$AAC?$AAA?$AA?$AA@ 004641dc     libucrt:lcidtoname_downlevel.obj
 0002:000081e8       ??_C@_1M@BNOEMJLF@?$AAe?$AAs?$AA?9?$AAG?$AAT?$AA?$AA@ 004641e8     libucrt:lcidtoname_downlevel.obj
 0002:000081f4       ??_C@_1M@EOGNKEK@?$AAf?$AAr?$AA?9?$AAC?$AAH?$AA?$AA@ 004641f4     libucrt:lcidtoname_downlevel.obj
 0002:00008200       ??_C@_1M@FLIDJFHL@?$AAh?$AAr?$AA?9?$AAB?$AAA?$AA?$AA@ 00464200     libucrt:lcidtoname_downlevel.obj
 0002:0000820c       ??_C@_1O@FMCELNAJ@?$AAs?$AAm?$AAj?$AA?9?$AAN?$AAO?$AA?$AA@ 0046420c     libucrt:lcidtoname_downlevel.obj
 0002:0000821c       ??_C@_1M@JHGLJMGJ@?$AAa?$AAr?$AA?9?$AAD?$AAZ?$AA?$AA@ 0046421c     libucrt:lcidtoname_downlevel.obj
 0002:00008228       ??_C@_1M@JKKFDCNP@?$AAz?$AAh?$AA?9?$AAM?$AAO?$AA?$AA@ 00464228     libucrt:lcidtoname_downlevel.obj
 0002:00008234       ??_C@_1M@GEEFALPE@?$AAd?$AAe?$AA?9?$AAL?$AAI?$AA?$AA@ 00464234     libucrt:lcidtoname_downlevel.obj
 0002:00008240       ??_C@_1M@IGEOFBG@?$AAe?$AAn?$AA?9?$AAN?$AAZ?$AA?$AA@ 00464240     libucrt:lcidtoname_downlevel.obj
 0002:0000824c       ??_C@_1M@KDBONEHP@?$AAe?$AAs?$AA?9?$AAC?$AAR?$AA?$AA@ 0046424c     libucrt:lcidtoname_downlevel.obj
 0002:00008258       ??_C@_1M@FHMDOHNN@?$AAf?$AAr?$AA?9?$AAL?$AAU?$AA?$AA@ 00464258     libucrt:lcidtoname_downlevel.obj
 0002:00008264       ??_C@_1BG@NFKKMAFG@?$AAb?$AAs?$AA?9?$AAB?$AAA?$AA?9?$AAL?$AAa?$AAt?$AAn?$AA?$AA@ 00464264     libucrt:lcidtoname_downlevel.obj
 0002:0000827c       ??_C@_1O@IMNBEMCI@?$AAs?$AAm?$AAj?$AA?9?$AAS?$AAE?$AA?$AA@ 0046427c     libucrt:lcidtoname_downlevel.obj
 0002:0000828c       ??_C@_1M@DHHMBNDP@?$AAa?$AAr?$AA?9?$AAM?$AAA?$AA?$AA@ 0046428c     libucrt:lcidtoname_downlevel.obj
 0002:00008298       ??_C@_1M@BNBLJCGH@?$AAe?$AAn?$AA?9?$AAI?$AAE?$AA?$AA@ 00464298     libucrt:lcidtoname_downlevel.obj
 0002:000082a4       ??_C@_1M@GEPAFMDL@?$AAe?$AAs?$AA?9?$AAP?$AAA?$AA?$AA@ 004642a4     libucrt:lcidtoname_downlevel.obj
 0002:000082b0       ??_C@_1M@OJONDMDL@?$AAf?$AAr?$AA?9?$AAM?$AAC?$AA?$AA@ 004642b0     libucrt:lcidtoname_downlevel.obj
 0002:000082bc       ??_C@_1BG@OBCNFJB@?$AAs?$AAr?$AA?9?$AAB?$AAA?$AA?9?$AAL?$AAa?$AAt?$AAn?$AA?$AA@ 004642bc     libucrt:lcidtoname_downlevel.obj
 0002:000082d4       ??_C@_1O@KEMEEGPO@?$AAs?$AAm?$AAa?$AA?9?$AAN?$AAO?$AA?$AA@ 004642d4     libucrt:lcidtoname_downlevel.obj
 0002:000082e4       ??_C@_1M@ELMGFODK@?$AAa?$AAr?$AA?9?$AAT?$AAN?$AA?$AA@ 004642e4     libucrt:lcidtoname_downlevel.obj
 0002:000082f0       ??_C@_1M@BHDLHFAF@?$AAe?$AAn?$AA?9?$AAZ?$AAA?$AA?$AA@ 004642f0     libucrt:lcidtoname_downlevel.obj
 0002:000082fc       ??_C@_1M@BMGIGLIF@?$AAe?$AAs?$AA?9?$AAD?$AAO?$AA?$AA@ 004642fc     libucrt:lcidtoname_downlevel.obj
 0002:00008308       ??_C@_1BG@CMBHIPBE@?$AAs?$AAr?$AA?9?$AAB?$AAA?$AA?9?$AAC?$AAy?$AAr?$AAl?$AA?$AA@ 00464308     libucrt:lcidtoname_downlevel.obj
 0002:00008320       ??_C@_1O@HEDBLHNP@?$AAs?$AAm?$AAa?$AA?9?$AAS?$AAE?$AA?$AA@ 00464320     libucrt:lcidtoname_downlevel.obj
 0002:00008330       ??_C@_1M@DAGCADIM@?$AAa?$AAr?$AA?9?$AAO?$AAM?$AA?$AA@ 00464330     libucrt:lcidtoname_downlevel.obj
 0002:0000833c       ??_C@_1M@FODLMICG@?$AAe?$AAn?$AA?9?$AAJ?$AAM?$AA?$AA@ 0046433c     libucrt:lcidtoname_downlevel.obj
 0002:00008348       ??_C@_1M@DNMLCIHB@?$AAe?$AAs?$AA?9?$AAV?$AAE?$AA?$AA@ 00464348     libucrt:lcidtoname_downlevel.obj
 0002:00008354       ??_C@_1O@EOKHMKJK@?$AAs?$AAm?$AAs?$AA?9?$AAF?$AAI?$AA?$AA@ 00464354     libucrt:lcidtoname_downlevel.obj
 0002:00008364       ??_C@_1M@CAFJMKOF@?$AAa?$AAr?$AA?9?$AAY?$AAE?$AA?$AA@ 00464364     libucrt:lcidtoname_downlevel.obj
 0002:00008370       ??_C@_1M@CBFHIJLI@?$AAe?$AAn?$AA?9?$AAC?$AAB?$AA?$AA@ 00464370     libucrt:lcidtoname_downlevel.obj
 0002:0000837c       ??_C@_1M@BGNFLDN@?$AAe?$AAs?$AA?9?$AAC?$AAO?$AA?$AA@ 0046437c     libucrt:lcidtoname_downlevel.obj
 0002:00008388       ??_C@_1O@JMPHMAMC@?$AAs?$AAm?$AAn?$AA?9?$AAF?$AAI?$AA?$AA@ 00464388     libucrt:lcidtoname_downlevel.obj
 0002:00008398       ??_C@_1M@JLANABKE@?$AAa?$AAr?$AA?9?$AAS?$AAY?$AA?$AA@ 00464398     libucrt:lcidtoname_downlevel.obj
 0002:000083a4       ??_C@_1M@HPKGCFGN@?$AAe?$AAn?$AA?9?$AAB?$AAZ?$AA?$AA@ 004643a4     libucrt:lcidtoname_downlevel.obj
 0002:000083b0       ??_C@_1M@OLJCMLGM@?$AAe?$AAs?$AA?9?$AAP?$AAE?$AA?$AA@ 004643b0     libucrt:lcidtoname_downlevel.obj
 0002:000083bc       ??_C@_1M@MKKGFKLE@?$AAa?$AAr?$AA?9?$AAJ?$AAO?$AA?$AA@ 004643bc     libucrt:lcidtoname_downlevel.obj
 0002:000083c8       ??_C@_1M@EKPGLDNI@?$AAe?$AAn?$AA?9?$AAT?$AAT?$AA?$AA@ 004643c8     libucrt:lcidtoname_downlevel.obj
 0002:000083d4       ??_C@_1M@OONGHFHE@?$AAe?$AAs?$AA?9?$AAA?$AAR?$AA?$AA@ 004643d4     libucrt:lcidtoname_downlevel.obj
 0002:000083e0       ??_C@_1M@OOJFGBHE@?$AAa?$AAr?$AA?9?$AAL?$AAB?$AA?$AA@ 004643e0     libucrt:lcidtoname_downlevel.obj
 0002:000083ec       ??_C@_1M@GCEJHNEG@?$AAe?$AAn?$AA?9?$AAZ?$AAW?$AA?$AA@ 004643ec     libucrt:lcidtoname_downlevel.obj
 0002:000083f8       ??_C@_1M@JNOCAHJI@?$AAe?$AAs?$AA?9?$AAE?$AAC?$AA?$AA@ 004643f8     libucrt:lcidtoname_downlevel.obj
 0002:00008404       ??_C@_1M@JEFHPGGB@?$AAa?$AAr?$AA?9?$AAK?$AAW?$AA?$AA@ 00464404     libucrt:lcidtoname_downlevel.obj
 0002:00008410       ??_C@_1M@MLKIBJOJ@?$AAe?$AAn?$AA?9?$AAP?$AAH?$AA?$AA@ 00464410     libucrt:lcidtoname_downlevel.obj
 0002:0000841c       ??_C@_1M@BDNIPEND@?$AAe?$AAs?$AA?9?$AAC?$AAL?$AA?$AA@ 0046441c     libucrt:lcidtoname_downlevel.obj
 0002:00008428       ??_C@_1M@MPNMEKBD@?$AAa?$AAr?$AA?9?$AAA?$AAE?$AA?$AA@ 00464428     libucrt:lcidtoname_downlevel.obj
 0002:00008434       ??_C@_1M@KBJALCPI@?$AAe?$AAs?$AA?9?$AAU?$AAY?$AA?$AA@ 00464434     libucrt:lcidtoname_downlevel.obj
 0002:00008440       ??_C@_1M@LLCCOAGA@?$AAa?$AAr?$AA?9?$AAB?$AAH?$AA?$AA@ 00464440     libucrt:lcidtoname_downlevel.obj
 0002:0000844c       ??_C@_1M@PBFNCDEL@?$AAe?$AAs?$AA?9?$AAP?$AAY?$AA?$AA@ 0046444c     libucrt:lcidtoname_downlevel.obj
 0002:00008458       ??_C@_1M@EDGINPNP@?$AAa?$AAr?$AA?9?$AAQ?$AAA?$AA?$AA@ 00464458     libucrt:lcidtoname_downlevel.obj
 0002:00008464       ??_C@_1M@MKDBIIJI@?$AAe?$AAs?$AA?9?$AAB?$AAO?$AA?$AA@ 00464464     libucrt:lcidtoname_downlevel.obj
 0002:00008470       ??_C@_1M@CPKKEBLD@?$AAe?$AAs?$AA?9?$AAS?$AAV?$AA?$AA@ 00464470     libucrt:lcidtoname_downlevel.obj
 0002:0000847c       ??_C@_1M@NDBGMMJL@?$AAe?$AAs?$AA?9?$AAH?$AAN?$AA?$AA@ 0046447c     libucrt:lcidtoname_downlevel.obj
 0002:00008488       ??_C@_1M@JIJIBHDP@?$AAe?$AAs?$AA?9?$AAN?$AAI?$AA?$AA@ 00464488     libucrt:lcidtoname_downlevel.obj
 0002:00008494       ??_C@_1M@CGFMKEEK@?$AAe?$AAs?$AA?9?$AAP?$AAR?$AA?$AA@ 00464494     libucrt:lcidtoname_downlevel.obj
 0002:000084a0       ??_C@_1O@ICJHKIIK@?$AAz?$AAh?$AA?9?$AAC?$AAH?$AAT?$AA?$AA@ 004644a0     libucrt:lcidtoname_downlevel.obj
 0002:000084b0       ??_C@_15CLNEJCE@?$AAs?$AAr?$AA?$AA@ 004644b0     libucrt:lcidtoname_downlevel.obj
 0002:00008bd8       ??_C@_1M@KAHEKEIG@?$AAa?$AAf?$AA?9?$AAz?$AAa?$AA?$AA@ 00464bd8     libucrt:lcidtoname_downlevel.obj
 0002:00008be4       ??_C@_1M@GIECOABL@?$AAa?$AAr?$AA?9?$AAa?$AAe?$AA?$AA@ 00464be4     libucrt:lcidtoname_downlevel.obj
 0002:00008bf0       ??_C@_1M@BMLMEKGI@?$AAa?$AAr?$AA?9?$AAb?$AAh?$AA?$AA@ 00464bf0     libucrt:lcidtoname_downlevel.obj
 0002:00008bfc       ??_C@_1M@DAPFDGGB@?$AAa?$AAr?$AA?9?$AAd?$AAz?$AA?$AA@ 00464bfc     libucrt:lcidtoname_downlevel.obj
 0002:00008c08       ??_C@_1M@FJNKGKIG@?$AAa?$AAr?$AA?9?$AAe?$AAg?$AA?$AA@ 00464c08     libucrt:lcidtoname_downlevel.obj
 0002:00008c14       ??_C@_1M@FLGKKCLO@?$AAa?$AAr?$AA?9?$AAi?$AAq?$AA?$AA@ 00464c14     libucrt:lcidtoname_downlevel.obj
 0002:00008c20       ??_C@_1M@GNDIPALM@?$AAa?$AAr?$AA?9?$AAj?$AAo?$AA?$AA@ 00464c20     libucrt:lcidtoname_downlevel.obj
 0002:00008c2c       ??_C@_1M@DDMJFMGJ@?$AAa?$AAr?$AA?9?$AAk?$AAw?$AA?$AA@ 00464c2c     libucrt:lcidtoname_downlevel.obj
 0002:00008c38       ??_C@_1M@EJALMLHM@?$AAa?$AAr?$AA?9?$AAl?$AAb?$AA?$AA@ 00464c38     libucrt:lcidtoname_downlevel.obj
 0002:00008c44       ??_C@_1M@MOBDBLOC@?$AAa?$AAr?$AA?9?$AAl?$AAy?$AA?$AA@ 00464c44     libucrt:lcidtoname_downlevel.obj
 0002:00008c50       ??_C@_1M@JAOCLHDH@?$AAa?$AAr?$AA?9?$AAm?$AAa?$AA?$AA@ 00464c50     libucrt:lcidtoname_downlevel.obj
 0002:00008c5c       ??_C@_1M@JHPMKJIE@?$AAa?$AAr?$AA?9?$AAo?$AAm?$AA?$AA@ 00464c5c     libucrt:lcidtoname_downlevel.obj
 0002:00008c68       ??_C@_1M@OEPGHFNH@?$AAa?$AAr?$AA?9?$AAq?$AAa?$AA?$AA@ 00464c68     libucrt:lcidtoname_downlevel.obj
 0002:00008c74       ??_C@_1M@KJDONENM@?$AAa?$AAr?$AA?9?$AAs?$AAa?$AA?$AA@ 00464c74     libucrt:lcidtoname_downlevel.obj
 0002:00008c80       ??_C@_1M@DMJDKLKM@?$AAa?$AAr?$AA?9?$AAs?$AAy?$AA?$AA@ 00464c80     libucrt:lcidtoname_downlevel.obj
 0002:00008c8c       ??_C@_1M@OMFIPEDC@?$AAa?$AAr?$AA?9?$AAt?$AAn?$AA?$AA@ 00464c8c     libucrt:lcidtoname_downlevel.obj
 0002:00008c98       ??_C@_1M@IHMHGAON@?$AAa?$AAr?$AA?9?$AAy?$AAe?$AA?$AA@ 00464c98     libucrt:lcidtoname_downlevel.obj
 0002:00008ca4       ??_C@_1BG@KDCPGJGB@?$AAa?$AAz?$AA?9?$AAa?$AAz?$AA?9?$AAc?$AAy?$AAr?$AAl?$AA?$AA@ 00464ca4     libucrt:lcidtoname_downlevel.obj
 0002:00008cbc       ??_C@_1BG@IBCKDDOE@?$AAa?$AAz?$AA?9?$AAa?$AAz?$AA?9?$AAl?$AAa?$AAt?$AAn?$AA?$AA@ 00464cbc     libucrt:lcidtoname_downlevel.obj
 0002:00008cd4       ??_C@_1M@EGPFDCPD@?$AAb?$AAe?$AA?9?$AAb?$AAy?$AA?$AA@ 00464cd4     libucrt:lcidtoname_downlevel.obj
 0002:00008ce0       ??_C@_1M@PCMGMCGC@?$AAb?$AAg?$AA?9?$AAb?$AAg?$AA?$AA@ 00464ce0     libucrt:lcidtoname_downlevel.obj
 0002:00008cec       ??_C@_1M@BJBMFGOB@?$AAb?$AAn?$AA?9?$AAi?$AAn?$AA?$AA@ 00464cec     libucrt:lcidtoname_downlevel.obj
 0002:00008cf8       ??_C@_1BG@EAKMMACD@?$AAb?$AAs?$AA?9?$AAb?$AAa?$AA?9?$AAl?$AAa?$AAt?$AAn?$AA?$AA@ 00464cf8     libucrt:lcidtoname_downlevel.obj
 0002:00008d10       ??_C@_1M@KGADAODK@?$AAc?$AAa?$AA?9?$AAe?$AAs?$AA?$AA@ 00464d10     libucrt:lcidtoname_downlevel.obj
 0002:00008d1c       ??_C@_1M@COAJPDHI@?$AAc?$AAs?$AA?9?$AAc?$AAz?$AA?$AA@ 00464d1c     libucrt:lcidtoname_downlevel.obj
 0002:00008d28       ??_C@_1M@DHBHFONH@?$AAc?$AAy?$AA?9?$AAg?$AAb?$AA?$AA@ 00464d28     libucrt:lcidtoname_downlevel.obj
 0002:00008d34       ??_C@_1M@IMGKELGA@?$AAd?$AAa?$AA?9?$AAd?$AAk?$AA?$AA@ 00464d34     libucrt:lcidtoname_downlevel.obj
 0002:00008d40       ??_C@_1M@NNDGDNGA@?$AAd?$AAe?$AA?9?$AAa?$AAt?$AA?$AA@ 00464d40     libucrt:lcidtoname_downlevel.obj
 0002:00008d4c       ??_C@_1M@IKDBHEEM@?$AAd?$AAe?$AA?9?$AAc?$AAh?$AA?$AA@ 00464d4c     libucrt:lcidtoname_downlevel.obj
 0002:00008d58       ??_C@_1M@GFFOJMCJ@?$AAd?$AAe?$AA?9?$AAd?$AAe?$AA?$AA@ 00464d58     libucrt:lcidtoname_downlevel.obj
 0002:00008d64       ??_C@_1M@MDNLKBPM@?$AAd?$AAe?$AA?9?$AAl?$AAi?$AA?$AA@ 00464d64     libucrt:lcidtoname_downlevel.obj
 0002:00008d70       ??_C@_1M@NJBEEJNL@?$AAd?$AAe?$AA?9?$AAl?$AAu?$AA?$AA@ 00464d70     libucrt:lcidtoname_downlevel.obj
 0002:00008d7c       ??_C@_1O@GNNELBAP@?$AAd?$AAi?$AAv?$AA?9?$AAm?$AAv?$AA?$AA@ 00464d7c     libucrt:lcidtoname_downlevel.obj
 0002:00008d8c       ??_C@_1M@EJLEOGAE@?$AAe?$AAl?$AA?9?$AAg?$AAr?$AA?$AA@ 00464d8c     libucrt:lcidtoname_downlevel.obj
 0002:00008d98       ??_C@_1M@GMPONJN@?$AAe?$AAn?$AA?9?$AAa?$AAu?$AA?$AA@ 00464d98     libucrt:lcidtoname_downlevel.obj
 0002:00008da4       ??_C@_1M@NIDIIPGF@?$AAe?$AAn?$AA?9?$AAb?$AAz?$AA?$AA@ 00464da4     libucrt:lcidtoname_downlevel.obj
 0002:00008db0       ??_C@_1M@JEHMIMFO@?$AAe?$AAn?$AA?9?$AAc?$AAa?$AA?$AA@ 00464db0     libucrt:lcidtoname_downlevel.obj
 0002:00008dbc       ??_C@_1M@IGMJCDLA@?$AAe?$AAn?$AA?9?$AAc?$AAb?$AA?$AA@ 00464dbc     libucrt:lcidtoname_downlevel.obj
 0002:00008dc8       ??_C@_1M@BNFIGBKG@?$AAe?$AAn?$AA?9?$AAg?$AAb?$AA?$AA@ 00464dc8     libucrt:lcidtoname_downlevel.obj
 0002:00008dd4       ??_C@_1M@LKIFDIGP@?$AAe?$AAn?$AA?9?$AAi?$AAe?$AA?$AA@ 00464dd4     libucrt:lcidtoname_downlevel.obj
 0002:00008de0       ??_C@_1M@PJKFGCCO@?$AAe?$AAn?$AA?9?$AAj?$AAm?$AA?$AA@ 00464de0     libucrt:lcidtoname_downlevel.obj
 0002:00008dec       ??_C@_1M@KPPKEPBO@?$AAe?$AAn?$AA?9?$AAn?$AAz?$AA?$AA@ 00464dec     libucrt:lcidtoname_downlevel.obj
 0002:00008df8       ??_C@_1M@GMDGLDOB@?$AAe?$AAn?$AA?9?$AAp?$AAh?$AA?$AA@ 00464df8     libucrt:lcidtoname_downlevel.obj
 0002:00008e04       ??_C@_1M@ONGIBJNA@?$AAe?$AAn?$AA?9?$AAt?$AAt?$AA?$AA@ 00464e04     libucrt:lcidtoname_downlevel.obj
 0002:00008e10       ??_C@_1M@LLODPCMM@?$AAe?$AAn?$AA?9?$AAu?$AAs?$AA?$AA@ 00464e10     libucrt:lcidtoname_downlevel.obj
 0002:00008e1c       ??_C@_1M@LAKFNPAN@?$AAe?$AAn?$AA?9?$AAz?$AAa?$AA?$AA@ 00464e1c     libucrt:lcidtoname_downlevel.obj
 0002:00008e28       ??_C@_1M@MFNHNHEO@?$AAe?$AAn?$AA?9?$AAz?$AAw?$AA?$AA@ 00464e28     libucrt:lcidtoname_downlevel.obj
 0002:00008e34       ??_C@_1M@EJEINPHM@?$AAe?$AAs?$AA?9?$AAa?$AAr?$AA?$AA@ 00464e34     libucrt:lcidtoname_downlevel.obj
 0002:00008e40       ??_C@_1M@GNKPCCJA@?$AAe?$AAs?$AA?9?$AAb?$AAo?$AA?$AA@ 00464e40     libucrt:lcidtoname_downlevel.obj
 0002:00008e4c       ??_C@_1M@LEEGFONL@?$AAe?$AAs?$AA?9?$AAc?$AAl?$AA?$AA@ 00464e4c     libucrt:lcidtoname_downlevel.obj
 0002:00008e58       ??_C@_1M@KGPDPBDF@?$AAe?$AAs?$AA?9?$AAc?$AAo?$AA?$AA@ 00464e58     libucrt:lcidtoname_downlevel.obj
 0002:00008e64       ??_C@_1M@EIAHOHH@?$AAe?$AAs?$AA?9?$AAc?$AAr?$AA?$AA@ 00464e64     libucrt:lcidtoname_downlevel.obj
 0002:00008e70       ??_C@_1M@LLPGMBIN@?$AAe?$AAs?$AA?9?$AAd?$AAo?$AA?$AA@ 00464e70     libucrt:lcidtoname_downlevel.obj
 0002:00008e7c       ??_C@_1M@DKHMKNJA@?$AAe?$AAs?$AA?9?$AAe?$AAc?$AA?$AA@ 00464e7c     libucrt:lcidtoname_downlevel.obj
 0002:00008e88       ??_C@_1M@GKGFPKAP@?$AAe?$AAs?$AA?9?$AAe?$AAs?$AA?$AA@ 00464e88     libucrt:lcidtoname_downlevel.obj
 0002:00008e94       ??_C@_1M@LKHKGDLN@?$AAe?$AAs?$AA?9?$AAg?$AAt?$AA?$AA@ 00464e94     libucrt:lcidtoname_downlevel.obj
 0002:00008ea0       ??_C@_1M@HEIIGGJD@?$AAe?$AAs?$AA?9?$AAh?$AAn?$AA?$AA@ 00464ea0     libucrt:lcidtoname_downlevel.obj
 0002:00008eac       ??_C@_1M@FBDHPPGD@?$AAe?$AAs?$AA?9?$AAm?$AAx?$AA?$AA@ 00464eac     libucrt:lcidtoname_downlevel.obj
 0002:00008eb8       ??_C@_1M@DPAGLNDH@?$AAe?$AAs?$AA?9?$AAn?$AAi?$AA?$AA@ 00464eb8     libucrt:lcidtoname_downlevel.obj
 0002:00008ec4       ??_C@_1M@MDGOPGDD@?$AAe?$AAs?$AA?9?$AAp?$AAa?$AA?$AA@ 00464ec4     libucrt:lcidtoname_downlevel.obj
 0002:00008ed0       ??_C@_1M@EMAMGBGE@?$AAe?$AAs?$AA?9?$AAp?$AAe?$AA?$AA@ 00464ed0     libucrt:lcidtoname_downlevel.obj
 0002:00008edc       ??_C@_1M@IBMCAOEC@?$AAe?$AAs?$AA?9?$AAp?$AAr?$AA?$AA@ 00464edc     libucrt:lcidtoname_downlevel.obj
 0002:00008ee8       ??_C@_1M@FGMDIJED@?$AAe?$AAs?$AA?9?$AAp?$AAy?$AA?$AA@ 00464ee8     libucrt:lcidtoname_downlevel.obj
 0002:00008ef4       ??_C@_1M@IIDEOLLL@?$AAe?$AAs?$AA?9?$AAs?$AAv?$AA?$AA@ 00464ef4     libucrt:lcidtoname_downlevel.obj
 0002:00008f00       ??_C@_1M@GAOBIPA@?$AAe?$AAs?$AA?9?$AAu?$AAy?$AA?$AA@ 00464f00     libucrt:lcidtoname_downlevel.obj
 0002:00008f0c       ??_C@_1M@JKFFICHJ@?$AAe?$AAs?$AA?9?$AAv?$AAe?$AA?$AA@ 00464f0c     libucrt:lcidtoname_downlevel.obj
 0002:00008f18       ??_C@_1M@PNMLOJDF@?$AAe?$AAt?$AA?9?$AAe?$AAe?$AA?$AA@ 00464f18     libucrt:lcidtoname_downlevel.obj
 0002:00008f24       ??_C@_1M@GHHLIKEI@?$AAe?$AAu?$AA?9?$AAe?$AAs?$AA?$AA@ 00464f24     libucrt:lcidtoname_downlevel.obj
 0002:00008f30       ??_C@_1M@PBNONODE@?$AAf?$AAa?$AA?9?$AAi?$AAr?$AA?$AA@ 00464f30     libucrt:lcidtoname_downlevel.obj
 0002:00008f3c       ??_C@_1M@JEEHPMIL@?$AAf?$AAi?$AA?9?$AAf?$AAi?$AA?$AA@ 00464f3c     libucrt:lcidtoname_downlevel.obj
 0002:00008f48       ??_C@_1M@LMDCNDBA@?$AAf?$AAo?$AA?9?$AAf?$AAo?$AA?$AA@ 00464f48     libucrt:lcidtoname_downlevel.obj
 0002:00008f54       ??_C@_1M@JKEOHLDK@?$AAf?$AAr?$AA?9?$AAb?$AAe?$AA?$AA@ 00464f54     libucrt:lcidtoname_downlevel.obj
 0002:00008f60       ??_C@_1M@NOHADPMI@?$AAf?$AAr?$AA?9?$AAc?$AAa?$AA?$AA@ 00464f60     libucrt:lcidtoname_downlevel.obj
 0002:00008f6c       ??_C@_1M@KDHIHAEC@?$AAf?$AAr?$AA?9?$AAc?$AAh?$AA?$AA@ 00464f6c     libucrt:lcidtoname_downlevel.obj
 0002:00008f78       ??_C@_1M@MMBBFGAK@?$AAf?$AAr?$AA?9?$AAf?$AAr?$AA?$AA@ 00464f78     libucrt:lcidtoname_downlevel.obj
 0002:00008f84       ??_C@_1M@PAFNENNF@?$AAf?$AAr?$AA?9?$AAl?$AAu?$AA?$AA@ 00464f84     libucrt:lcidtoname_downlevel.obj
 0002:00008f90       ??_C@_1M@EOHDJGDD@?$AAf?$AAr?$AA?9?$AAm?$AAc?$AA?$AA@ 00464f90     libucrt:lcidtoname_downlevel.obj
 0002:00008f9c       ??_C@_1M@FAPLLOPF@?$AAg?$AAl?$AA?9?$AAe?$AAs?$AA?$AA@ 00464f9c     libucrt:lcidtoname_downlevel.obj
 0002:00008fa8       ??_C@_1M@FOPBFLOO@?$AAg?$AAu?$AA?9?$AAi?$AAn?$AA?$AA@ 00464fa8     libucrt:lcidtoname_downlevel.obj
 0002:00008fb4       ??_C@_1M@KBMCINPM@?$AAh?$AAe?$AA?9?$AAi?$AAl?$AA?$AA@ 00464fb4     libucrt:lcidtoname_downlevel.obj
 0002:00008fc0       ??_C@_1M@BBPHKFPJ@?$AAh?$AAi?$AA?9?$AAi?$AAn?$AA?$AA@ 00464fc0     libucrt:lcidtoname_downlevel.obj
 0002:00008fcc       ??_C@_1M@PMBNDPHD@?$AAh?$AAr?$AA?9?$AAb?$AAa?$AA?$AA@ 00464fcc     libucrt:lcidtoname_downlevel.obj
 0002:00008fd8       ??_C@_1M@BPCKOEGE@?$AAh?$AAr?$AA?9?$AAh?$AAr?$AA?$AA@ 00464fd8     libucrt:lcidtoname_downlevel.obj
 0002:00008fe4       ??_C@_1M@GACBMHKE@?$AAh?$AAu?$AA?9?$AAh?$AAu?$AA?$AA@ 00464fe4     libucrt:lcidtoname_downlevel.obj
 0002:00008ff0       ??_C@_1M@MILPAJJC@?$AAh?$AAy?$AA?9?$AAa?$AAm?$AA?$AA@ 00464ff0     libucrt:lcidtoname_downlevel.obj
 0002:00008ffc       ??_C@_1M@BABBICEC@?$AAi?$AAd?$AA?9?$AAi?$AAd?$AA?$AA@ 00464ffc     libucrt:lcidtoname_downlevel.obj
 0002:00009008       ??_C@_1M@BIKNHHPF@?$AAi?$AAs?$AA?9?$AAi?$AAs?$AA?$AA@ 00465008     libucrt:lcidtoname_downlevel.obj
 0002:00009014       ??_C@_1M@NMPCJPHE@?$AAi?$AAt?$AA?9?$AAc?$AAh?$AA?$AA@ 00465014     libucrt:lcidtoname_downlevel.obj
 0002:00009020       ??_C@_1M@GHKGFEDF@?$AAi?$AAt?$AA?9?$AAi?$AAt?$AA?$AA@ 00465020     libucrt:lcidtoname_downlevel.obj
 0002:0000902c       ??_C@_1M@NIEJCJJA@?$AAj?$AAa?$AA?9?$AAj?$AAp?$AA?$AA@ 0046502c     libucrt:lcidtoname_downlevel.obj
 0002:00009038       ??_C@_1M@JILFNBIM@?$AAk?$AAa?$AA?9?$AAg?$AAe?$AA?$AA@ 00465038     libucrt:lcidtoname_downlevel.obj
 0002:00009044       ??_C@_1M@PACPMGPH@?$AAk?$AAk?$AA?9?$AAk?$AAz?$AA?$AA@ 00465044     libucrt:lcidtoname_downlevel.obj
 0002:00009050       ??_C@_1M@IELFGMHA@?$AAk?$AAn?$AA?9?$AAi?$AAn?$AA?$AA@ 00465050     libucrt:lcidtoname_downlevel.obj
 0002:0000905c       ??_C@_1O@IBBJHCH@?$AAk?$AAo?$AAk?$AA?9?$AAi?$AAn?$AA?$AA@ 0046505c     libucrt:lcidtoname_downlevel.obj
 0002:0000906c       ??_C@_1M@DMHAEOGC@?$AAk?$AAo?$AA?9?$AAk?$AAr?$AA?$AA@ 0046506c     libucrt:lcidtoname_downlevel.obj
 0002:00009078       ??_C@_1M@HBAHBIGA@?$AAk?$AAy?$AA?9?$AAk?$AAg?$AA?$AA@ 00465078     libucrt:lcidtoname_downlevel.obj
 0002:00009084       ??_C@_1M@KPMILCJG@?$AAl?$AAt?$AA?9?$AAl?$AAt?$AA?$AA@ 00465084     libucrt:lcidtoname_downlevel.obj
 0002:00009090       ??_C@_1M@BDEKKCA@?$AAl?$AAv?$AA?9?$AAl?$AAv?$AA?$AA@ 00465090     libucrt:lcidtoname_downlevel.obj
 0002:0000909c       ??_C@_1M@ELCKCCJJ@?$AAm?$AAi?$AA?9?$AAn?$AAz?$AA?$AA@ 0046509c     libucrt:lcidtoname_downlevel.obj
 0002:000090a8       ??_C@_1M@CBOOLAPA@?$AAm?$AAk?$AA?9?$AAm?$AAk?$AA?$AA@ 004650a8     libucrt:lcidtoname_downlevel.obj
 0002:000090b4       ??_C@_1M@GPHNBJKN@?$AAm?$AAl?$AA?9?$AAi?$AAn?$AA?$AA@ 004650b4     libucrt:lcidtoname_downlevel.obj
 0002:000090c0       ??_C@_1M@PABJILIG@?$AAm?$AAn?$AA?9?$AAm?$AAn?$AA?$AA@ 004650c0     libucrt:lcidtoname_downlevel.obj
 0002:000090cc       ??_C@_1M@FGBKKIPG@?$AAm?$AAr?$AA?9?$AAi?$AAn?$AA?$AA@ 004650cc     libucrt:lcidtoname_downlevel.obj
 0002:000090d8       ??_C@_1M@NDBPDDAL@?$AAm?$AAs?$AA?9?$AAb?$AAn?$AA?$AA@ 004650d8     libucrt:lcidtoname_downlevel.obj
 0002:000090e4       ??_C@_1M@OPIHOOPI@?$AAm?$AAs?$AA?9?$AAm?$AAy?$AA?$AA@ 004650e4     libucrt:lcidtoname_downlevel.obj
 0002:000090f0       ??_C@_1M@PPDBCNFM@?$AAm?$AAt?$AA?9?$AAm?$AAt?$AA?$AA@ 004650f0     libucrt:lcidtoname_downlevel.obj
 0002:000090fc       ??_C@_1M@KDJDKMDD@?$AAn?$AAb?$AA?9?$AAn?$AAo?$AA?$AA@ 004650fc     libucrt:lcidtoname_downlevel.obj
 0002:00009108       ??_C@_1M@KFCFLMJP@?$AAn?$AAl?$AA?9?$AAb?$AAe?$AA?$AA@ 00465108     libucrt:lcidtoname_downlevel.obj
 0002:00009114       ??_C@_1M@KPOPDDGO@?$AAn?$AAl?$AA?9?$AAn?$AAl?$AA?$AA@ 00465114     libucrt:lcidtoname_downlevel.obj
 0002:00009120       ??_C@_1M@LJKPEMLN@?$AAn?$AAn?$AA?9?$AAn?$AAo?$AA?$AA@ 00465120     libucrt:lcidtoname_downlevel.obj
 0002:0000912c       ??_C@_1M@BDGHHBFL@?$AAn?$AAs?$AA?9?$AAz?$AAa?$AA?$AA@ 0046512c     libucrt:lcidtoname_downlevel.obj
 0002:00009138       ??_C@_1M@IDEHOAP@?$AAp?$AAa?$AA?9?$AAi?$AAn?$AA?$AA@ 00465138     libucrt:lcidtoname_downlevel.obj
 0002:00009144       ??_C@_1M@HDBKGOGH@?$AAp?$AAl?$AA?9?$AAp?$AAl?$AA?$AA@ 00465144     libucrt:lcidtoname_downlevel.obj
 0002:00009150       ??_C@_1M@LJLLCMEH@?$AAp?$AAt?$AA?9?$AAb?$AAr?$AA?$AA@ 00465150     libucrt:lcidtoname_downlevel.obj
 0002:0000915c       ??_C@_1M@NCMONAAL@?$AAp?$AAt?$AA?9?$AAp?$AAt?$AA?$AA@ 0046515c     libucrt:lcidtoname_downlevel.obj
 0002:00009168       ??_C@_1O@EAKMAJDN@?$AAq?$AAu?$AAz?$AA?9?$AAb?$AAo?$AA?$AA@ 00465168     libucrt:lcidtoname_downlevel.obj
 0002:00009178       ??_C@_1O@BHHPIGDN@?$AAq?$AAu?$AAz?$AA?9?$AAe?$AAc?$AA?$AA@ 00465178     libucrt:lcidtoname_downlevel.obj
 0002:00009188       ??_C@_1O@GBAPEKMJ@?$AAq?$AAu?$AAz?$AA?9?$AAp?$AAe?$AA?$AA@ 00465188     libucrt:lcidtoname_downlevel.obj
 0002:00009198       ??_C@_1M@CLGLEFBO@?$AAr?$AAo?$AA?9?$AAr?$AAo?$AA?$AA@ 00465198     libucrt:lcidtoname_downlevel.obj
 0002:000091a4       ??_C@_1M@CEEDODME@?$AAr?$AAu?$AA?9?$AAr?$AAu?$AA?$AA@ 004651a4     libucrt:lcidtoname_downlevel.obj
 0002:000091b0       ??_C@_1M@HPKKKMPP@?$AAs?$AAa?$AA?9?$AAi?$AAn?$AA?$AA@ 004651b0     libucrt:lcidtoname_downlevel.obj
 0002:000091bc       ??_C@_1M@BKMAIGOJ@?$AAs?$AAe?$AA?9?$AAf?$AAi?$AA?$AA@ 004651bc     libucrt:lcidtoname_downlevel.obj
 0002:000091c8       ??_C@_1M@NDPIFLFI@?$AAs?$AAe?$AA?9?$AAn?$AAo?$AA?$AA@ 004651c8     libucrt:lcidtoname_downlevel.obj
 0002:000091d4       ??_C@_1M@DANKKHJ@?$AAs?$AAe?$AA?9?$AAs?$AAe?$AA?$AA@ 004651d4     libucrt:lcidtoname_downlevel.obj
 0002:000091e0       ??_C@_1M@PNBLONPJ@?$AAs?$AAk?$AA?9?$AAs?$AAk?$AA?$AA@ 004651e0     libucrt:lcidtoname_downlevel.obj
 0002:000091ec       ??_C@_1M@LFMODOAL@?$AAs?$AAl?$AA?9?$AAs?$AAi?$AA?$AA@ 004651ec     libucrt:lcidtoname_downlevel.obj
 0002:000091f8       ??_C@_1O@DFKOMPG@?$AAs?$AAm?$AAa?$AA?9?$AAn?$AAo?$AA?$AA@ 004651f8     libucrt:lcidtoname_downlevel.obj
 0002:00009208       ??_C@_1O@NDKPBNNH@?$AAs?$AAm?$AAa?$AA?9?$AAs?$AAe?$AA?$AA@ 00465208     libucrt:lcidtoname_downlevel.obj
 0002:00009218       ??_C@_1O@PLLKBHAB@?$AAs?$AAm?$AAj?$AA?9?$AAn?$AAo?$AA?$AA@ 00465218     libucrt:lcidtoname_downlevel.obj
 0002:00009228       ??_C@_1O@CLEPOGCA@?$AAs?$AAm?$AAj?$AA?9?$AAs?$AAe?$AA?$AA@ 00465228     libucrt:lcidtoname_downlevel.obj
 0002:00009238       ??_C@_1O@DLGJGKMK@?$AAs?$AAm?$AAn?$AA?9?$AAf?$AAi?$AA?$AA@ 00465238     libucrt:lcidtoname_downlevel.obj
 0002:00009248       ??_C@_1O@OJDJGAJC@?$AAs?$AAm?$AAs?$AA?9?$AAf?$AAi?$AA?$AA@ 00465248     libucrt:lcidtoname_downlevel.obj
 0002:00009258       ??_C@_1M@BOFOGHPB@?$AAs?$AAq?$AA?9?$AAa?$AAl?$AA?$AA@ 00465258     libucrt:lcidtoname_downlevel.obj
 0002:00009264       ??_C@_1BG@LJBBIPGB@?$AAs?$AAr?$AA?9?$AAb?$AAa?$AA?9?$AAc?$AAy?$AAr?$AAl?$AA?$AA@ 00465264     libucrt:lcidtoname_downlevel.obj
 0002:0000927c       ??_C@_1BG@JLBENFOE@?$AAs?$AAr?$AA?9?$AAb?$AAa?$AA?9?$AAl?$AAa?$AAt?$AAn?$AA?$AA@ 0046527c     libucrt:lcidtoname_downlevel.obj
 0002:00009294       ??_C@_1BG@KODPNHE@?$AAs?$AAr?$AA?9?$AAs?$AAp?$AA?9?$AAc?$AAy?$AAr?$AAl?$AA?$AA@ 00465294     libucrt:lcidtoname_downlevel.obj
 0002:000092ac       ??_C@_1BG@CIOGKHPB@?$AAs?$AAr?$AA?9?$AAs?$AAp?$AA?9?$AAl?$AAa?$AAt?$AAn?$AA?$AA@ 004652ac     libucrt:lcidtoname_downlevel.obj
 0002:000092c4       ??_C@_1M@NGFJLMAC@?$AAs?$AAv?$AA?9?$AAf?$AAi?$AA?$AA@ 004652c4     libucrt:lcidtoname_downlevel.obj
 0002:000092d0       ??_C@_1M@MPJEJAJC@?$AAs?$AAv?$AA?9?$AAs?$AAe?$AA?$AA@ 004652d0     libucrt:lcidtoname_downlevel.obj
 0002:000092dc       ??_C@_1M@MPNDHLFK@?$AAs?$AAw?$AA?9?$AAk?$AAe?$AA?$AA@ 004652dc     libucrt:lcidtoname_downlevel.obj
 0002:000092e8       ??_C@_1O@KOHBJJI@?$AAs?$AAy?$AAr?$AA?9?$AAs?$AAy?$AA?$AA@ 004652e8     libucrt:lcidtoname_downlevel.obj
 0002:000092f8       ??_C@_1M@LDCEFHA@?$AAt?$AAa?$AA?9?$AAi?$AAn?$AA?$AA@ 004652f8     libucrt:lcidtoname_downlevel.obj
 0002:00009304       ??_C@_1M@CNJOFAK@?$AAt?$AAe?$AA?9?$AAi?$AAn?$AA?$AA@ 00465304     libucrt:lcidtoname_downlevel.obj
 0002:00009310       ??_C@_1M@GNAECACD@?$AAt?$AAh?$AA?9?$AAt?$AAh?$AA?$AA@ 00465310     libucrt:lcidtoname_downlevel.obj
 0002:0000931c       ??_C@_1M@CHBIHOJO@?$AAt?$AAn?$AA?9?$AAz?$AAa?$AA?$AA@ 0046531c     libucrt:lcidtoname_downlevel.obj
 0002:00009328       ??_C@_1M@GCCMIGPJ@?$AAt?$AAr?$AA?9?$AAt?$AAr?$AA?$AA@ 00465328     libucrt:lcidtoname_downlevel.obj
 0002:00009334       ??_C@_1M@CELMCNBK@?$AAt?$AAt?$AA?9?$AAr?$AAu?$AA?$AA@ 00465334     libucrt:lcidtoname_downlevel.obj
 0002:00009340       ??_C@_1M@KLMCELGA@?$AAu?$AAk?$AA?9?$AAu?$AAa?$AA?$AA@ 00465340     libucrt:lcidtoname_downlevel.obj
 0002:0000934c       ??_C@_1M@EPAJJAJF@?$AAu?$AAr?$AA?9?$AAp?$AAk?$AA?$AA@ 0046534c     libucrt:lcidtoname_downlevel.obj
 0002:00009358       ??_C@_1BG@GEGPMCDJ@?$AAu?$AAz?$AA?9?$AAu?$AAz?$AA?9?$AAc?$AAy?$AAr?$AAl?$AA?$AA@ 00465358     libucrt:lcidtoname_downlevel.obj
 0002:00009370       ??_C@_1BG@EGGKJILM@?$AAu?$AAz?$AA?9?$AAu?$AAz?$AA?9?$AAl?$AAa?$AAt?$AAn?$AA?$AA@ 00465370     libucrt:lcidtoname_downlevel.obj
 0002:00009388       ??_C@_1M@GFOCLFF@?$AAv?$AAi?$AA?9?$AAv?$AAn?$AA?$AA@ 00465388     libucrt:lcidtoname_downlevel.obj
 0002:00009394       ??_C@_1M@CPAMEDFI@?$AAx?$AAh?$AA?9?$AAz?$AAa?$AA?$AA@ 00465394     libucrt:lcidtoname_downlevel.obj
 0002:000093a0       ??_C@_1O@EBKIFIGN@?$AAz?$AAh?$AA?9?$AAc?$AAh?$AAs?$AA?$AA@ 004653a0     libucrt:lcidtoname_downlevel.obj
 0002:000093b0       ??_C@_1O@NMHPGANE@?$AAz?$AAh?$AA?9?$AAc?$AAh?$AAt?$AA?$AA@ 004653b0     libucrt:lcidtoname_downlevel.obj
 0002:000093c0       ??_C@_1M@LPINJOMC@?$AAz?$AAh?$AA?9?$AAc?$AAn?$AA?$AA@ 004653c0     libucrt:lcidtoname_downlevel.obj
 0002:000093cc       ??_C@_1M@OCJEJODD@?$AAz?$AAh?$AA?9?$AAh?$AAk?$AA?$AA@ 004653cc     libucrt:lcidtoname_downlevel.obj
 0002:000093d8       ??_C@_1M@DNDLJINH@?$AAz?$AAh?$AA?9?$AAm?$AAo?$AA?$AA@ 004653d8     libucrt:lcidtoname_downlevel.obj
 0002:000093e4       ??_C@_1M@MBFDNDND@?$AAz?$AAh?$AA?9?$AAs?$AAg?$AA?$AA@ 004653e4     libucrt:lcidtoname_downlevel.obj
 0002:000093f0       ??_C@_1M@IMEPLEPE@?$AAz?$AAh?$AA?9?$AAt?$AAw?$AA?$AA@ 004653f0     libucrt:lcidtoname_downlevel.obj
 0002:000093fc       ??_C@_1M@BBGHNHJP@?$AAz?$AAu?$AA?9?$AAz?$AAa?$AA?$AA@ 004653fc     libucrt:lcidtoname_downlevel.obj
 0002:00009408       ___acrt_pow_rcp_t1         00465408     libucrt:pow_tables.obj
 0002:00009820       ___acrt_pow_log2_t1        00465820     libucrt:pow_tables.obj
 0002:0000a030       ___acrt_pow_rcp_t2         00466030     libucrt:pow_tables.obj
 0002:0000a440       ___acrt_pow_log2_t2        00466440     libucrt:pow_tables.obj
 0002:0000ac50       ___acrt_pow_rcp_t3         00466c50     libucrt:pow_tables.obj
 0002:0000b460       ___acrt_pow_log2_t3        00467460     libucrt:pow_tables.obj
 0002:0000c470       ___acrt_pow_clv            00468470     libucrt:pow_tables.obj
 0002:0000c490       ___acrt_pow_exp2_tbl       00468490     libucrt:pow_tables.obj
 0002:0000cdf0       ??_C@_1BA@BALFACEM@?$AAC?$AAO?$AAN?$AAO?$AAU?$AAT?$AA$?$AA?$AA@ 00468df0     libucrt:initcon.obj
 0002:0000ce00       ___acrt_log10_table_t      00468e00     libucrt:log10_tables.obj
 0002:0000d210       ___acrt_log10_table_cb     00469210     libucrt:log10_tables.obj
 0002:0000d620       ??_C@_0BC@EOODALEL@Unknown?5exception@ 00469620     MonitorIPs.obj
 0002:0000d634       ??_C@_0BA@ELKIONDK@bad?5locale?5name@ 00469634     MonitorIPs.obj
 0002:0000d644       ??_C@_05LAPONLG@false@     00469644     MonitorIPs.obj
 0002:0000d64c       ??_C@_04LOAJBDKD@true@     0046964c     MonitorIPs.obj
 0002:0000d651       ??_C@_00CNPNBAHC@@         00469651     MonitorIPs.obj
 0002:0000d654       ??_C@_02LMMGGCAJ@?3?5@     00469654     MonitorIPs.obj
 0002:0000d658       ??_C@_08LLGCOLLL@iostream@ 00469658     MonitorIPs.obj
 0002:0000d664       ??_C@_0BG@PADBLCHM@iostream?5stream?5error@ 00469664     MonitorIPs.obj
 0002:0000d67c       ??_C@_0BF@PHHKMMFD@ios_base?3?3badbit?5set@ 0046967c     MonitorIPs.obj
 0002:0000d694       ??_C@_0BG@FMKFHCIL@ios_base?3?3failbit?5set@ 00469694     MonitorIPs.obj
 0002:0000d6ac       ??_C@_0BF@OOHOMBOF@ios_base?3?3eofbit?5set@ 004696ac     MonitorIPs.obj
 0002:0000d6c4       ??_C@_0BM@JCKHFAHN@?9?9?5MonIPs?4OnChng?0?50x?$CFp?5?$CF?42X@ 004696c4     MonitorIPs.obj
 0002:0000d6e0       ??_C@_0P@DNHLOBGB@?$DO?$DO?5MonIPs?4Init@ 004696e0     MonitorIPs.obj
 0002:0000d6f0       ??_C@_0BM@LPPKJDAO@?$DM?$DM?5MonIPs?4Init?0?5Sync?5Obj?5?$CFu@ 004696f0     MonitorIPs.obj
 0002:0000d70c       ??_C@_0BM@EDMNPOCE@?$DM?$DM?5MonIPs?4Init?0?5CreateEv?5?$CFu@ 0046970c     MonitorIPs.obj
 0002:0000d728       ??_C@_0CF@HDGCLEAK@?$DM?$DM?5MonIPs?4Init?0?5RegWaitForSnglO@ 00469728     MonitorIPs.obj
 0002:0000d750       ??_C@_0CC@DBAGDPMP@?$DM?$DM?5MonIPs?4Init?0?5Ev?50x?$CFp?0?5ret?5Tr@ 00469750     MonitorIPs.obj
 0002:0000d774       ??_C@_0BF@PFFODCIL@?$DO?$DO?5MonIPs?4ChkIPAddrs@ 00469774     MonitorIPs.obj
 0002:0000d78c       ??_C@_08MIAEGNMG@?0?5Index?5@ 0046978c     MonitorIPs.obj
 0002:0000d798       ??_C@_08FGMGJDIM@Address?5@ 00469798     MonitorIPs.obj
 0002:0000d7a4       ??_C@_0P@KJAMIPJI@?0?5Subnet?5Mask?5@ 004697a4     MonitorIPs.obj
 0002:0000d7b4       ??_C@_08GAGFLDJJ@?0?5Reasm?5@ 004697b4     MonitorIPs.obj
 0002:0000d7c0       ??_C@_0N@MPOMCOMF@?0?5BroadCast?5@ 004697c0     MonitorIPs.obj
 0002:0000d7d0       ??_C@_02DNOHDIJJ@?$CI?4@   004697d0     MonitorIPs.obj
 0002:0000d7d4       ??_C@_07CIMDCLLJ@?0?5Type?5@ 004697d4     MonitorIPs.obj
 0002:0000d7dc       ??_C@_08BKNGEFGB@Primary?4@ 004697dc     MonitorIPs.obj
 0002:0000d7e8       ??_C@_08FHKMKPIG@Dynamic?4@ 004697e8     MonitorIPs.obj
 0002:0000d7f4       ??_C@_0O@HGEAPED@Disconnected?4@ 004697f4     MonitorIPs.obj
 0002:0000d804       ??_C@_08FCNPIEBD@Deleted?4@ 00469804     MonitorIPs.obj
 0002:0000d810       ??_C@_0L@HFLHPH@Transient?4@ 00469810     MonitorIPs.obj
 0002:0000d81c       ??_C@_0BC@PFKLNNIM@Published?5in?5DNS?4@ 0046981c     MonitorIPs.obj
 0002:0000d830       ??_C@_01PKGAHCOL@?$CJ@     00469830     MonitorIPs.obj
 0002:0000d834       ??_C@_0BF@NLFEEFHK@?$DM?$DM?5MonIPs?4ChkIPAddrs@ 00469834     MonitorIPs.obj
 0002:0000d84c       ??_C@_02BBAHNLBA@?$CFp@    0046984c     MonitorIPs.obj
 0002:0000d850       ??_C@_02CLHGNPPK@Lu@       00469850     MonitorIPs.obj
 0002:0000d854       ??_C@_02HIKPPMOK@Ld@       00469854     MonitorIPs.obj
 0002:0000d858       ??_C@_02BDDLJJBK@lu@       00469858     MonitorIPs.obj
 0002:0000d85c       ??_C@_02EAOCLKAK@ld@       0046985c     MonitorIPs.obj
 0002:0000d860       ??_C@_02MDKMJEGG@eE@       00469860     MonitorIPs.obj
 0002:0000d864       ??_C@_02OOPEBDOJ@pP@       00469864     MonitorIPs.obj
 0002:0000d868       ??_C@_01LFCBOECM@?4@       00469868     MonitorIPs.obj
 0002:0000d86c       ??_C@_0BI@CFPLBAOH@invalid?5string?5position@ 0046986c     MonitorIPs.obj
 0002:0000d884       ??_C@_0BD@OLBABOEK@vector?$DMT?$DO?5too?5long@ 00469884     MonitorIPs.obj
 0002:0000d898       ??_C@_0BA@JFNIOLAK@string?5too?5long@ 00469898     MonitorIPs.obj
 0002:0000d8ac       ??_7?$basic_streambuf@DU?$char_traits@D@std@@@std@@6B@ 004698ac     MonitorIPs.obj
 0002:0000d8ec       ??_7_Iostream_error_category@std@@6B@ 004698ec     MonitorIPs.obj
 0002:0000d908       ??_7ios_base@std@@6B@      00469908     MonitorIPs.obj
 0002:0000d90c       ??_8?$basic_stringstream@DU?$char_traits@D@std@@V?$allocator@D@2@@std@@7B?$basic_ostream@DU?$char_traits@D@std@@@1@@ 0046990c     MonitorIPs.obj
 0002:0000d918       ??_7?$basic_ios@DU?$char_traits@D@std@@@std@@6B@ 00469918     MonitorIPs.obj
 0002:0000d920       ??_7?$basic_iostream@DU?$char_traits@D@std@@@std@@6B@ 00469920     MonitorIPs.obj
 0002:0000d928       ??_7?$basic_stringbuf@DU?$char_traits@D@std@@V?$allocator@D@2@@std@@6B@ 00469928     MonitorIPs.obj
 0002:0000d968       ??_7?$basic_stringstream@DU?$char_traits@D@std@@V?$allocator@D@2@@std@@6B@ 00469968     MonitorIPs.obj
 0002:0000d970       ??_7?$basic_istream@DU?$char_traits@D@std@@@std@@6B@ 00469970     MonitorIPs.obj
 0002:0000d974       _GUID_DEVINTERFACE_USB_HUB 00469974     MonitorIPs.obj
 0002:0000d984       ??_8?$basic_stringstream@DU?$char_traits@D@std@@V?$allocator@D@2@@std@@7B?$basic_istream@DU?$char_traits@D@std@@@1@@ 00469984     MonitorIPs.obj
 0002:0000d990       ??_7?$basic_ostream@DU?$char_traits@D@std@@@std@@6B@ 00469990     MonitorIPs.obj
 0002:0000d994       _GUID_DEVINTERFACE_USB_DEVICE 00469994     MonitorIPs.obj
 0002:0000d9a8       ??_7failure@ios_base@std@@6B@ 004699a8     MonitorIPs.obj
 0002:0000d9b0       ??_C@_0BH@DPNNDOEK@invalid?5stoul?5argument@ 004699b0     SysStatus.obj
 0002:0000d9c8       ??_C@_0BM@MOLGGFGJ@stoul?5argument?5out?5of?5range@ 004699c8     SysStatus.obj
 0002:0000d9e4       ??_C@_0CE@OFCPEEHM@YUEN?5DA?5ELECTRONIC?5PRODUCTS?5FAC@ 004699e4     SysStatus.obj
 0002:0000da08       ??_C@_0CA@ODKDPALJ@Xiaomi?5Communications?5Co?4?0?5Ltd?4@ 00469a08     SysStatus.obj
 0002:0000da28       ??_C@_0DC@JKOIBOJG@Gionee?5Communication?5Equipment?5@ 00469a28     SysStatus.obj
 0002:0000da5c       ??_C@_06ELILDEDB@TRANIT@   00469a5c     SysStatus.obj
 0002:0000da64       ??_C@_07LAHLPDGH@Mitsumi@  00469a64     SysStatus.obj
 0002:0000da6c       ??_C@_07ILFANDBC@HP?5Inc?4@ 00469a6c     SysStatus.obj
 0002:0000da74       ??_C@_0BF@CMFLPPM@M31?5Technology?5Corp?4@ 00469a74     SysStatus.obj
 0002:0000da8c       ??_C@_0CM@FLONKIJ@Sanwin?5?$CIHK?$CJ?5Electronic?5Technolo@ 00469a8c     SysStatus.obj
 0002:0000dab8       ??_C@_0CO@FLHPAOCE@Suzhou?5WEIJU?5Electronics?5Techno@ 00469ab8     SysStatus.obj
 0002:0000dae8       ??_C@_0BG@DEOCBHFP@Advantest?5Corporation@ 00469ae8     SysStatus.obj
 0002:0000db00       ??_C@_0BD@JJJMEBLG@iRobot?5Corporation@ 00469b00     SysStatus.obj
 0002:0000db14       ??_C@_0CB@PAKBJBHB@Just?5Connector?5Kunshan?5Co?4?0?5Ltd@ 00469b14     SysStatus.obj
 0002:0000db38       ??_C@_0CF@LNNLJKDF@Shenzhen?5Huiding?5Technology?5Co?4@ 00469b38     SysStatus.obj
 0002:0000db60       ??_C@_0BM@MEJFLCNJ@Elitegroup?5Computer?5Systems@ 00469b60     SysStatus.obj
 0002:0000db7c       ??_C@_0M@HMBJIBHA@Xilinx?5Inc?4@ 00469b7c     SysStatus.obj
 0002:0000db88       ??_C@_0BG@CHMOKOCH@Sibridge?5Technologies@ 00469b88     SysStatus.obj
 0002:0000dba0       ??_C@_0BA@EIHKDABC@ALi?5Corporation@ 00469ba0     SysStatus.obj
 0002:0000dbb0       ??_C@_0DA@NLEDAFLA@Future?5Technology?5Devices?5Inter@ 00469bb0     SysStatus.obj
 0002:0000dbe0       ??_C@_0CG@KFBEECHP@Dongguan?5Jiumutong?5Industry?5Co?4@ 00469be0     SysStatus.obj
 0002:0000dc08       ??_C@_0L@CPKMOPGJ@Aevoe?5Inc?4@ 00469c08     SysStatus.obj
 0002:0000dc14       ??_C@_0BD@FGPOPKKG@Power?5Integrations@ 00469c14     SysStatus.obj
 0002:0000dc28       ??_C@_0O@PPNLIHLM@Oculus?5VR?5LLC@ 00469c28     SysStatus.obj
 0002:0000dc38       ??_C@_0CG@GMANIEBL@HIGH?5TEK?5HARNESS?5ENTERPRISE?5CO?4@ 00469c38     SysStatus.obj
 0002:0000dc60       ??_C@_0BH@KGNDOHL@Full?5in?5Hope?5Co?4?0?5Ltd?4@ 00469c60     SysStatus.obj
 0002:0000dc78       ??_C@_0BF@PKMDPELO@Quanta?5Computer?5Inc?4@ 00469c78     SysStatus.obj
 0002:0000dc90       ??_C@_0BA@KPLBOCAE@NEC?5Corporation@ 00469c90     SysStatus.obj
 0002:0000dca0       ??_C@_0BH@JCNGEJDK@Weltrend?5Semiconductor@ 00469ca0     SysStatus.obj
 0002:0000dcb8       ??_C@_0BH@LEHBDMGE@VIA?5Technologies?0?5Inc?4@ 00469cb8     SysStatus.obj
 0002:0000dcd0       ??_C@_0BL@GLAIPGJA@Seeed?5Technology?5Co?4?0?5Ltd?4@ 00469cd0     SysStatus.obj
 0002:0000dcec       ??_C@_09ILDBIJFO@Specwerkz@ 00469cec     SysStatus.obj
 0002:0000dcf8       ??_C@_0BB@DMJKNCDK@MCCI?5Corporation@ 00469cf8     SysStatus.obj
 0002:0000dd0c       ??_C@_0BH@CAOGFENG@Voxx?5Accessories?5Corp?4@ 00469d0c     SysStatus.obj
 0002:0000dd24       ??_C@_0N@HBBMPLAJ@BUFFALO?5INC?4@ 00469d24     SysStatus.obj
 0002:0000dd34       ??_C@_0BP@EJPGPDCC@Giga?9Byte?5Technology?5Co?4?0?5Ltd?4@ 00469d34     SysStatus.obj
 0002:0000dd54       ??_C@_0BJ@BBLEBCKI@Nuvoton?5Technology?5Corp?4@ 00469d54     SysStatus.obj
 0002:0000dd70       ??_C@_0BC@DCODMMHE@Valve?5Corporation@ 00469d70     SysStatus.obj
 0002:0000dd84       ??_C@_0CI@PBJBEILB@Surplus?5Electronic?5Technology?5C@ 00469d84     SysStatus.obj
 0002:0000ddac       ??_C@_0O@FGAHHGKD@BIAMP?5SYSTEMS@ 00469dac     SysStatus.obj
 0002:0000ddbc       ??_C@_0CC@POBIGKND@Dongguan?5Vast?5Electronics?5Co?4?0L@ 00469dbc     SysStatus.obj
 0002:0000dde0       ??_C@_0DE@MBFKODKB@SHEN?5ZHEN?5SHI?5YUAN?5AI?5HARDWARE?5@ 00469de0     SysStatus.obj
 0002:0000de14       ??_C@_0CJ@HIEOMNPE@IBCONN?5Technologies?5?$CIShenzhen?$CJ?5@ 00469e14     SysStatus.obj
 0002:0000de40       ??_C@_0CI@HPLDADLK@Pan?5Xin?5Precision?5Electronics?5C@ 00469e40     SysStatus.obj
 0002:0000de68       ??_C@_0BK@PLGMBAEC@Anker?5Innovations?5Limited@ 00469e68     SysStatus.obj
 0002:0000de84       ??_C@_0O@CDIDDBG@Creative?5Labs@ 00469e84     SysStatus.obj
 0002:0000de94       ??_C@_0BK@KLIICOHE@Peraso?5Technologies?0?5Inc?4@ 00469e94     SysStatus.obj
 0002:0000deb0       ??_C@_0CH@LCOLLFLN@Nanjing?5Magewell?5Electronics?5Co@ 00469eb0     SysStatus.obj
 0002:0000ded8       ??_C@_0BM@NGDLAMGP@BIO?9key?5International?0?5Inc?4@ 00469ed8     SysStatus.obj
 0002:0000def4       ??_C@_0P@GCMABGEN@Microchip?9SMSC@ 00469ef4     SysStatus.obj
 0002:0000df04       ??_C@_0BC@CHFHJJHL@Xacti?5Corporation@ 00469f04     SysStatus.obj
 0002:0000df18       ??_C@_0CE@MAEFHCII@Shenzhen?5Zowee?5Technology?5Co?4?0?5@ 00469f18     SysStatus.obj
 0002:0000df3c       ??_C@_0BN@MAFKEILE@Integrated?5Device?5Technology@ 00469f3c     SysStatus.obj
 0002:0000df5c       ??_C@_0BL@ENHANOON@ADPlaus?5Technology?5Limited@ 00469f5c     SysStatus.obj
 0002:0000df78       ??_C@_0BC@CEAFLDIF@Cirrus?5Logic?5Inc?4@ 00469f78     SysStatus.obj
 0002:0000df8c       ??_C@_0CG@NHGMKJBI@Union?5Electric?5Plug?5?$CG?5Connector@ 00469f8c     SysStatus.obj
 0002:0000dfb4       ??_C@_0M@HIPFEPEC@Canova?5Tech@ 00469fb4     SysStatus.obj
 0002:0000dfc0       ??_C@_0O@MCBAPFNP@Silicon?5Works@ 00469fc0     SysStatus.obj
 0002:0000dfd0       ??_C@_0CD@CCJOOIOC@HANRICO?5ANFU?5ELECTRONICS?5CO?4?0?5L@ 00469fd0     SysStatus.obj
 0002:0000dff4       ??_C@_0N@LCFLMOEL@Kodak?5Alaris@ 00469ff4     SysStatus.obj
 0002:0000e004       ??_C@_0BP@HMEABDKN@Richtek?5Technology?5Corporation@ 0046a004     SysStatus.obj
 0002:0000e024       ??_C@_09PPIHKMBF@Molex?5LLC@ 0046a024     SysStatus.obj
 0002:0000e030       ??_C@_0CF@FNPHKDLG@Shenzhen?5iBoard?5Technology?5Co?4?0@ 0046a030     SysStatus.obj
 0002:0000e058       ??_C@_0BB@HKMBBPHD@SMIT?$CIHK?$CJ?5Limited@ 0046a058     SysStatus.obj
 0002:0000e06c       ??_C@_0BK@BGJHIBOH@Fujitsu?5Component?5Limited@ 0046a06c     SysStatus.obj
 0002:0000e088       ??_C@_0DC@GPCAKLAL@Dongguan?5Kechenda?5Electronic?5Te@ 0046a088     SysStatus.obj
 0002:0000e0bc       ??_C@_0CM@LNNAFMPA@Fengshun?5Peiying?5Electro?9Acoust@ 0046a0bc     SysStatus.obj
 0002:0000e0e8       ??_C@_0BD@MFHFJMGD@MD?5ELEKTRONIK?5GmbH@ 0046a0e8     SysStatus.obj
 0002:0000e0fc       ??_C@_0BE@NGMFFAHI@Namsung?5Corporation@ 0046a0fc     SysStatus.obj
 0002:0000e110       ??_C@_0N@IGDLEFN@Bad?5Elf?0?5LLC@ 0046a110     SysStatus.obj
 0002:0000e120       ??_C@_05PNPDIAAL@Kanex@    0046a120     SysStatus.obj
 0002:0000e128       ??_C@_0BN@IBCBCBNB@Oxford?5Nanopore?5Technologies@ 0046a128     SysStatus.obj
 0002:0000e148       ??_C@_0CD@CLOPGLKP@Lucent?5Trans?5Electronics?5Co?4?0?5L@ 0046a148     SysStatus.obj
 0002:0000e16c       ??_C@_0BJ@LOKMNIBG@GUOGUANG?5GROUP?5CO?4?0?5LTD?4@ 0046a16c     SysStatus.obj
 0002:0000e188       ??_C@_06DABCOOPL@CNPLUS@   0046a188     SysStatus.obj
 0002:0000e190       ??_C@_0P@IHDCOFB@Fourstar?5Group@ 0046a190     SysStatus.obj
 0002:0000e1a0       ??_C@_0CA@BECABIBB@Tragant?5International?5Co?4?0?5Ltd?4@ 0046a1a0     SysStatus.obj
 0002:0000e1c0       ??_C@_0DG@JLJLPMN@DongGuan?5LianGang?5Optoelectroni@ 0046a1c0     SysStatus.obj
 0002:0000e1f8       ??_C@_0BG@PHHOJNEG@Atrust?5Computer?5Corp?4@ 0046a1f8     SysStatus.obj
 0002:0000e210       ??_C@_0CI@LPEJEGHN@Shanghai?5Zhaoxin?5Semiconductor?5@ 0046a210     SysStatus.obj
 0002:0000e238       ??_C@_0BH@PDGAJDKJ@Advanced?5Micro?5Devices@ 0046a238     SysStatus.obj
 0002:0000e250       ??_C@_0CA@PAIKCFMH@RTD?5Embedded?5Technologies?0?5Inc?4@ 0046a250     SysStatus.obj
 0002:0000e270       ??_C@_0CG@FFEEONBI@Shenzhen?5Choseal?5Industrial?5Co?4@ 0046a270     SysStatus.obj
 0002:0000e298       ??_C@_0BF@HIHOEHDP@Canyon?5Semiconductor@ 0046a298     SysStatus.obj
 0002:0000e2b0       ??_C@_0BM@OKAPOPFL@Spectra7?5Microsystems?5Corp?4@ 0046a2b0     SysStatus.obj
 0002:0000e2cc       ??_C@_0BL@JKGOBHKI@Meizu?5Technology?5Co?4?0?5Ltd?4@ 0046a2cc     SysStatus.obj
 0002:0000e2e8       ??_C@_0BE@NHMOPNIL@Wilder?5Technologies@ 0046a2e8     SysStatus.obj
 0002:0000e2fc       ??_C@_0BF@KDFJNPFG@The?5Chemours?5Company@ 0046a2fc     SysStatus.obj
 0002:0000e314       ??_C@_0BL@KCFEHCNK@Lexmark?5International?5Inc?4@ 0046a314     SysStatus.obj
 0002:0000e330       ??_C@_0BM@CDELBNCM@Bellwether?5Electronic?5Corp?4@ 0046a330     SysStatus.obj
 0002:0000e34c       ??_C@_0BB@IGCMEMJO@VAIO?5Corporation@ 0046a34c     SysStatus.obj
 0002:0000e360       ??_C@_0BF@OFEBIEEK@Perixx?5Computer?5GmbH@ 0046a360     SysStatus.obj
 0002:0000e378       ??_C@_0BK@HKJIDICK@HANK?5ELECTRONICS?5CO?4?0?5LTD@ 0046a378     SysStatus.obj
 0002:0000e394       ??_C@_0BL@IENCEEHL@Keysight?5Technologies?5Inc?4@ 0046a394     SysStatus.obj
 0002:0000e3b0       ??_C@_0BD@CNCHCMJJ@G2?5Touch?5Co?4?0?5Ltd?4@ 0046a3b0     SysStatus.obj
 0002:0000e3c4       ??_C@_0BF@HKLHKOKA@SEIKO?5SOLUTIONS?5Inc?4@ 0046a3c4     SysStatus.obj
 0002:0000e3dc       ??_C@_0BJ@HMAGDCBI@Virtium?5Technology?0?5Inc?4@ 0046a3dc     SysStatus.obj
 0002:0000e3f8       ??_C@_0CE@IBJFENFI@GM?5Global?5Technology?5Operations@ 0046a3f8     SysStatus.obj
 0002:0000e41c       ??_C@_0P@LCAGNMLM@Revolabs?0?5Inc?4@ 0046a41c     SysStatus.obj
 0002:0000e42c       ??_C@_0O@EKOBDIOB@Silergy?5Corp?4@ 0046a42c     SysStatus.obj
 0002:0000e43c       ??_C@_0BH@FPLHNLIP@I?9PEX?5?$CIDai?9ichi?5Seiko?$CJ@ 0046a43c     SysStatus.obj
 0002:0000e454       ??_C@_0BJ@JDAPMLIH@SEE?9PLUS?5INDUSTRIAL?5LTD?4@ 0046a454     SysStatus.obj
 0002:0000e470       ??_C@_0CJ@HINGIDLP@Zhejiang?5Yuesui?5Electron?5Stock?5@ 0046a470     SysStatus.obj
 0002:0000e49c       ??_C@_0O@PHLGNADA@Libratone?5A?1S@ 0046a49c     SysStatus.obj
 0002:0000e4ac       ??_C@_0DG@NAKOHCKK@Shenzhen?5Hazens?5Automotive?5Elec@ 0046a4ac     SysStatus.obj
 0002:0000e4e4       ??_C@_0DC@PBFFOKHI@Jiangsu?5Toppower?5Automotive?5Ele@ 0046a4e4     SysStatus.obj
 0002:0000e518       ??_C@_0CI@FPECBEIL@Drapho?5Electronics?5Technology?5C@ 0046a518     SysStatus.obj
 0002:0000e540       ??_C@_0BI@LOPMEJIG@Alps?5Electric?5Co?4?0?5Ltd?4@ 0046a540     SysStatus.obj
 0002:0000e558       ??_C@_0DI@OJMFGLA@Le?5Shi?5Zhi?5Xin?5Electronic?5Techn@ 0046a558     SysStatus.obj
 0002:0000e590       ??_C@_0CD@HOOMBHPA@EverPro?5Technologies?5Company?0?5L@ 0046a590     SysStatus.obj
 0002:0000e5b4       ??_C@_0CA@CLCHGIO@Rosenberger?5Hochfrequenztechnik@ 0046a5b4     SysStatus.obj
 0002:0000e5d4       ??_C@_0CK@FKHGJPDB@Dongguan?5City?5Sanji?5Electronics@ 0046a5d4     SysStatus.obj
 0002:0000e600       ??_C@_0BM@EHCLPMCH@Lintes?5Technology?5Co?4?0?5Ltd?4@ 0046a600     SysStatus.obj
 0002:0000e61c       ??_C@_0O@DDNNGELD@KinnexA?0?5Inc?4@ 0046a61c     SysStatus.obj
 0002:0000e62c       ??_C@_0BI@LLGLLOPF@Metra?5Electronics?5Corp?4@ 0046a62c     SysStatus.obj
 0002:0000e644       ??_C@_0O@HIGHOFLP@Red?5Hat?0?5Inc?4@ 0046a644     SysStatus.obj
 0002:0000e654       ??_C@_0BG@CMOOIIE@FluxData?5Incorporated@ 0046a654     SysStatus.obj
 0002:0000e66c       ??_C@_0BC@NEDOGEDE@Texas?5Instruments@ 0046a66c     SysStatus.obj
 0002:0000e680       ??_C@_0BL@NFOOAPLE@Assem?5Technology?5Co?4?0?5Ltd?4@ 0046a680     SysStatus.obj
 0002:0000e69c       ??_C@_0CN@PLDHBNLC@Dongguan?5City?5Jianghan?5Electron@ 0046a69c     SysStatus.obj
 0002:0000e6cc       ??_C@_0CG@BILDCLBK@Huizhou?5Desay?5SV?5Automotive?5Co?4@ 0046a6cc     SysStatus.obj
 0002:0000e6f4       ??_C@_0CE@MCPGLJIM@Ningbo?5Rixing?5Electronics?5Co?4?0?5@ 0046a6f4     SysStatus.obj
 0002:0000e718       ??_C@_0DD@EBFCNIP@GuangDong?5YuanFeng?5Automotive?5E@ 0046a718     SysStatus.obj
 0002:0000e74c       ??_C@_0CO@CDGODHFO@Huizhou?5Aorora?5Science?5?$CG?5Techno@ 0046a74c     SysStatus.obj
 0002:0000e77c       ??_C@_0CC@DEAMOIDP@Sounding?5Audio?5Industrial?5Limit@ 0046a77c     SysStatus.obj
 0002:0000e7a0       ??_C@_0CE@NMOOHFGL@Yueqing?5Huaxin?5Electronic?5Co?4?0?5@ 0046a7a0     SysStatus.obj
 0002:0000e7c4       ??_C@_0DC@DNALOLCI@Dongguan?5Evermax?5Electronics?5Te@ 0046a7c4     SysStatus.obj
 0002:0000e7f8       ??_C@_0BG@JDKHIMFB@Universal?5Audio?0?5Inc?4@ 0046a7f8     SysStatus.obj
 0002:0000e810       ??_C@_0BL@HEMBIMPE@Humax?5Automotive?5Co?4?0?5Ltd?4@ 0046a810     SysStatus.obj
 0002:0000e82c       ??_C@_0BH@CILJACNB@Pioneer?5DJ?5Corporation@ 0046a82c     SysStatus.obj
 0002:0000e844       ??_C@_0BN@BBFDGEKF@Ever?5Win?5International?5Corp?4@ 0046a844     SysStatus.obj
 0002:0000e864       ??_C@_0P@NOAHIGCF@Socionext?5Inc?4@ 0046a864     SysStatus.obj
 0002:0000e874       ??_C@_0BF@OPMIJNAA@Ugreen?5Group?5Limited@ 0046a874     SysStatus.obj
 0002:0000e88c       ??_C@_0DD@CCDMAGFE@Shanghai?5Pateo?5Electronic?5Equip@ 0046a88c     SysStatus.obj
 0002:0000e8c0       ??_C@_0BK@EAFCJGLH@Renesas?5Electronics?5Corp?4@ 0046a8c0     SysStatus.obj
 0002:0000e8dc       ??_C@_0P@IBEADLJN@i?9BLADES?0?5Inc?4@ 0046a8dc     SysStatus.obj
 0002:0000e8ec       ??_C@_0CJ@CCCCMKOD@ShenZhen?5Baoyuanda?5Electronics?5@ 0046a8ec     SysStatus.obj
 0002:0000e918       ??_C@_0CJ@NDDDNPM@iST?5?9?5Integrated?5Service?5Techno@ 0046a918     SysStatus.obj
 0002:0000e944       ??_C@_0BI@HDDNPIFN@HYUNDAI?5MOBIS?5Co?4?0?5Ltd?4@ 0046a944     SysStatus.obj
 0002:0000e95c       ??_C@_0CA@LJDNKLEF@YUDU?5EASON?5ELECTRONIC?5CO?4?0?5LTD?4@ 0046a95c     SysStatus.obj
 0002:0000e97c       ??_C@_0BG@EOBPLLNH@Microsoft?5Corporation@ 0046a97c     SysStatus.obj
 0002:0000e994       ??_C@_0BI@LPPABEJC@XinJi?5Technologies?5Ltd?4@ 0046a994     SysStatus.obj
 0002:0000e9ac       ??_C@_0CC@NAKLHHAP@OCC?5?$CIZhuhai?$CJ?5Electronic?5Co?4?0?5Lt@ 0046a9ac     SysStatus.obj
 0002:0000e9d0       ??_C@_0CI@OAMAINPM@Zhongshan?5Sinseader?5Electronic?5@ 0046a9d0     SysStatus.obj
 0002:0000e9f8       ??_C@_0CL@MFONLGJD@DONGGUAN?5YELLOW?5KNIFE?5Industria@ 0046a9f8     SysStatus.obj
 0002:0000ea24       ??_C@_0BC@FGOGCEOK@RF?5Creations?5Ltd?4@ 0046aa24     SysStatus.obj
 0002:0000ea38       ??_C@_0CM@KCEDMKPN@Chengyi?5Semiconductors?5?$CIShangha@ 0046aa38     SysStatus.obj
 0002:0000ea64       ??_C@_0CH@GHDIKEJJ@Shenzhen?5Shinning?5Electronic?5Co@ 0046aa64     SysStatus.obj
 0002:0000ea8c       ??_C@_0CJ@JMDAOEAA@Dongguan?5Sino?5Syncs?5Industrial?5@ 0046aa8c     SysStatus.obj
 0002:0000eab8       ??_C@_0P@CPDFNDAN@JNTC?5Co?4?0?5Ltd?4@ 0046aab8     SysStatus.obj
 0002:0000eac8       ??_C@_0CB@CENEEEJH@Tama?5Electric?5?$CISuzhou?$CJ?5Co?4?0?5Ltd@ 0046aac8     SysStatus.obj
 0002:0000eaec       ??_C@_0BD@CABKABLN@Primax?5Electronics@ 0046aaec     SysStatus.obj
 0002:0000eb00       ??_C@_0P@GLDIBGGK@Exvision?0?5Inc?4@ 0046ab00     SysStatus.obj
 0002:0000eb10       ??_C@_0DC@JNPCOKEE@Dongguan?5ULT?9unite?5electronic?5t@ 0046ab10     SysStatus.obj
 0002:0000eb44       ??_C@_0BD@FDHJLGGM@Cable?5Matters?5Inc?4@ 0046ab44     SysStatus.obj
 0002:0000eb58       ??_C@_0BE@FDMJMFMH@Charm?5Sciences?5Inc?4@ 0046ab58     SysStatus.obj
 0002:0000eb6c       ??_C@_05CFGIIEPJ@EATON@    0046ab6c     SysStatus.obj
 0002:0000eb74       ??_C@_0BN@GJBAJHA@Pickering?5Interfaces?5Limited@ 0046ab74     SysStatus.obj
 0002:0000eb94       ??_C@_0DA@NDBGMAEL@Hangzhou?5Hikvision?5Digital?5Tech@ 0046ab94     SysStatus.obj
 0002:0000ebc4       ??_C@_0BM@IHPNLBPE@Fullink?5Technology?5Co?4?0?5Ltd@ 0046abc4     SysStatus.obj
 0002:0000ebe0       ??_C@_0CI@EBLMKLMO@Electric?5Connector?5Technology?5C@ 0046abe0     SysStatus.obj
 0002:0000ec08       ??_C@_0CG@LMCHNBEA@Dongguan?5KaiWin?5Electronics?5Co?4@ 0046ac08     SysStatus.obj
 0002:0000ec30       ??_C@_0BA@JDHEPKGJ@Archisite?0?5Inc?4@ 0046ac30     SysStatus.obj
 0002:0000ec40       ??_C@_0O@CNHODA@Ventev?5Mobile@ 0046ac40     SysStatus.obj
 0002:0000ec50       ??_C@_0BE@CDJNPKOM@Quanta?5Storage?5Inc?4@ 0046ac50     SysStatus.obj
 0002:0000ec64       ??_C@_0CG@BBJGGOEE@Shenzhen?5Sinotek?5Technology?5Co?4@ 0046ac64     SysStatus.obj
 0002:0000ec8c       ??_C@_0CP@HPBKMFEJ@Dongguan?5Arin?5Electronics?5Techn@ 0046ac8c     SysStatus.obj
 0002:0000ecbc       ??_C@_0CM@HJMJIIHG@DongGuan?5City?5JianNuo?5Electroni@ 0046acbc     SysStatus.obj
 0002:0000ece8       ??_C@_0CD@IHHLLIMO@Shenzhen?5XOX?5Electronics?5Co?4?0?5L@ 0046ace8     SysStatus.obj
 0002:0000ed0c       ??_C@_0BK@EPJCOFBH@Protop?5International?5Inc?4@ 0046ad0c     SysStatus.obj
 0002:0000ed28       ??_C@_0CC@CDDHDHPA@Microsemi?5Semiconductor?5?$CIUS?$CJ?5In@ 0046ad28     SysStatus.obj
 0002:0000ed4c       ??_C@_0N@LLBDLJHN@INVECAS?5INC?4@ 0046ad4c     SysStatus.obj
 0002:0000ed5c       ??_C@_0CK@JLMCPDDE@Triple?5Win?5Precision?5Technology@ 0046ad5c     SysStatus.obj
 0002:0000ed88       ??_C@_0BO@JJGMGNMK@Wieson?5Technologies?5Co?4?0?5Ltd?4@ 0046ad88     SysStatus.obj
 0002:0000eda8       ??_C@_0CJ@OMJOIMCB@ALLBEST?5ELECTRONICS?5TECHNOLOGY?5@ 0046ada8     SysStatus.obj
 0002:0000edd4       ??_C@_0BJ@HILLIJIO@Buffalo?5Memory?5Co?4?0?5Ltd?4@ 0046add4     SysStatus.obj
 0002:0000edf0       ??_C@_0BB@DKIJINPN@Xentris?5Wireless@ 0046adf0     SysStatus.obj
 0002:0000ee04       ??_C@_0BN@NLLJAIMO@Sunlike?5Technology?5Co?4?0?5Ltd?4@ 0046ae04     SysStatus.obj
 0002:0000ee24       ??_C@_0CF@JOEEEHPJ@Young?5Fast?5Optoelectronics?5Co?4?0@ 0046ae24     SysStatus.obj
 0002:0000ee4c       ??_C@_0P@CDEOCILD@Qanba?5USA?0?5LLC@ 0046ae4c     SysStatus.obj
 0002:0000ee5c       ??_C@_0BE@JEFPHDAK@American?5Megatrends@ 0046ae5c     SysStatus.obj
 0002:0000ee70       ??_C@_0CE@NOPPPJKO@Hualun?5Technology?5Co?4?0?5Ltd?4?5?9?5L@ 0046ae70     SysStatus.obj
 0002:0000ee94       ??_C@_0CF@JIBCINJG@JIB?5Electronics?5Technology?5Co?4?0@ 0046ae94     SysStatus.obj
 0002:0000eebc       ??_C@_0CL@NFDKMDEH@Shenzhen?5Hangsheng?5Electronics?5@ 0046aebc     SysStatus.obj
 0002:0000eee8       ??_C@_09LBDOMPFP@Leadtrend@ 0046aee8     SysStatus.obj
 0002:0000eef4       ??_C@_0O@NMJDEFAN@Logitech?5Inc?4@ 0046aef4     SysStatus.obj
 0002:0000ef04       ??_C@_0CE@OPCGHFPE@Feature?5Integration?5Technology?5@ 0046af04     SysStatus.obj
 0002:0000ef28       ??_C@_0CP@NDHEONJM@Delphi?5Electrical?5Centers?5?$CIShan@ 0046af28     SysStatus.obj
 0002:0000ef58       ??_C@_0CN@OGKLOPNP@Huizhou?5Foryou?5General?5Electron@ 0046af58     SysStatus.obj
 0002:0000ef88       ??_C@_0BM@DNAANFII@Shenglan?5Technology?5Co?4?5Ltd@ 0046af88     SysStatus.obj
 0002:0000efa4       ??_C@_0BE@MBJBPOAM@Neusoft?5Corporation@ 0046afa4     SysStatus.obj
 0002:0000efb8       ??_C@_0BD@LBNLCEA@Gibson?5Innovations@ 0046afb8     SysStatus.obj
 0002:0000efcc       ??_C@_0CI@FMBKDJNC@Shen?5Zhen?5Xian?5Shuo?5Technology?5@ 0046afcc     SysStatus.obj
 0002:0000eff4       ??_C@_0L@MLFPCAKA@BRAGI?5GmbH@ 0046aff4     SysStatus.obj
 0002:0000f000       ??_C@_0CG@EIMPFJCL@Shenzhen?5D?9VITEC?5Industrial?5Co?4@ 0046b000     SysStatus.obj
 0002:0000f028       ??_C@_0BP@GJPLDHGD@PowerCenter?5Technology?5Limited@ 0046b028     SysStatus.obj
 0002:0000f048       ??_C@_0BK@EEGPMNM@Mizco?5International?0?5Inc?4@ 0046b048     SysStatus.obj
 0002:0000f064       ??_C@_0P@NODKIBPO@Corigine?0?5Inc?4@ 0046b064     SysStatus.obj
 0002:0000f074       ??_C@_0BG@OPCAMB@Prusa?5Research?5s?4r?4o?4@ 0046b074     SysStatus.obj
 0002:0000f08c       ??_C@_0CG@KPGNCHGA@Leagtech?5Jiangxi?5Electronic?5Co?4@ 0046b08c     SysStatus.obj
 0002:0000f0b4       ??_C@_0BN@OILOHGB@Veetone?5Technologies?5Limited@ 0046b0b4     SysStatus.obj
 0002:0000f0d4       ??_C@_0BJ@MAGNEPGM@DJI?5Technology?5Co?4?0?5Ltd?4@ 0046b0d4     SysStatus.obj
 0002:0000f0f0       ??_C@_0CD@JPBDNOKB@Shenzhen?5Alex?5Technology?5Co?4?0?5L@ 0046b0f0     SysStatus.obj
 0002:0000f114       ??_C@_0CN@LINGMNGG@Ava?5Enterprises?0?5Inc?4?5dba?5Boss?5@ 0046b114     SysStatus.obj
 0002:0000f144       ??_C@_0CL@NIIHGCJE@On?9Bright?5Electronics?5?$CIShanghai@ 0046b144     SysStatus.obj
 0002:0000f170       ??_C@_0CD@KPNJDODK@Dongguan?5Puxu?5Industrial?5Co?4?0?5L@ 0046b170     SysStatus.obj
 0002:0000f194       ??_C@_0CF@IICIKNAG@Shenzhen?5Soling?5Indusrtial?5Co?4?0@ 0046b194     SysStatus.obj
 0002:0000f1bc       ??_C@_0BE@FBFHEDN@Semtech?5Corporation@ 0046b1bc     SysStatus.obj
 0002:0000f1d0       ??_C@_0BL@GDAADFIM@Hewlett?5Packard?5Enterprise@ 0046b1d0     SysStatus.obj
 0002:0000f1ec       ??_C@_0BO@NEDOEENG@Monolithic?5Power?5Systems?5Inc?4@ 0046b1ec     SysStatus.obj
 0002:0000f20c       ??_C@_0BD@MMLLGNFB@Silicon?5Mitus?5Inc?4@ 0046b20c     SysStatus.obj
 0002:0000f220       ??_C@_0BJ@KLNJFLOK@Cosemi?5Technologies?5Inc?4@ 0046b220     SysStatus.obj
 0002:0000f23c       ??_C@_0P@BJPMNDLE@Cambrionix?5Ltd@ 0046b23c     SysStatus.obj
 0002:0000f24c       ??_C@_0O@GENDIOFK@CXUN?5Co?4?5Ltd?4@ 0046b24c     SysStatus.obj
 0002:0000f25c       ??_C@_0O@GAGLIHNN@China?5Tsp?5Inc@ 0046b25c     SysStatus.obj
 0002:0000f26c       ??_C@_0L@LLMLOCHH@Kensington@ 0046b26c     SysStatus.obj
 0002:0000f278       ??_C@_0DG@PAADLJKP@Yanfeng?5Visteon?5?$CIChongqing?$CJ?5Aut@ 0046b278     SysStatus.obj
 0002:0000f2b0       ??_C@_0BA@CIBIOAAD@Alcorlink?5Corp?4@ 0046b2b0     SysStatus.obj
 0002:0000f2c0       ??_C@_0DE@FDBCEAKG@Lemobile?5Information?5Technology@ 0046b2c0     SysStatus.obj
 0002:0000f2f4       ??_C@_0DG@FFKIBGAN@DongGuan?5Hongweixiang?5Electroni@ 0046b2f4     SysStatus.obj
 0002:0000f32c       ??_C@_0CO@PDHADDLM@Suzhu?5Jingshi?5Electronic?5Techno@ 0046b32c     SysStatus.obj
 0002:0000f35c       ??_C@_0DF@CGKLDFK@Zhong?5Shan?5City?5Richsound?5Elect@ 0046b35c     SysStatus.obj
 0002:0000f394       ??_C@_0CJ@DFFMGPM@Dongguang?5Kangbang?5Electronics?5@ 0046b394     SysStatus.obj
 0002:0000f3c0       ??_C@_0CH@NHFPPOHA@Winpower?5?$CG?5Qmadix?5Technology?5Co@ 0046b3c0     SysStatus.obj
 0002:0000f3e8       ??_C@_09LPAOEEIP@DTS?0?5Inc?4@ 0046b3e8     SysStatus.obj
 0002:0000f3f4       ??_C@_0CN@ELGJLDDL@KUNSHAN?5DLK?5Electronics?5Technol@ 0046b3f4     SysStatus.obj
 0002:0000f424       ??_C@_0BC@JKCENOI@Plantronics?0?5Inc?4@ 0046b424     SysStatus.obj
 0002:0000f438       ??_C@_05BDPLOBNE@Itron@    0046b438     SysStatus.obj
 0002:0000f440       ??_C@_0N@OAIOCOJG@Meta?5Company@ 0046b440     SysStatus.obj
 0002:0000f450       ??_C@_0CH@GCFFHKPN@Nanchang?5Haozhun?5Electronics?5Co@ 0046b450     SysStatus.obj
 0002:0000f478       ??_C@_0BM@OBJOEKEK@Alpha?5Data?5Parallel?5Systems@ 0046b478     SysStatus.obj
 0002:0000f494       ??_C@_0BE@KBGMLIIK@Gopod?5Group?5Limited@ 0046b494     SysStatus.obj
 0002:0000f4a8       ??_C@_0CK@FLJLINKJ@Dongguan?5Evervictory?5Electronic@ 0046b4a8     SysStatus.obj
 0002:0000f4d4       ??_C@_0CA@IGBFJBHE@Kingsignal?5Technology?5Co?4?0?5Ltd?4@ 0046b4d4     SysStatus.obj
 0002:0000f4f4       ??_C@_0CB@GNDJLIIP@Linxee?5?$CIBeijing?$CJ?5Technology?5LTD@ 0046b4f4     SysStatus.obj
 0002:0000f518       ??_C@_0BA@CKDJICMG@M8TRIX?5TECH?5LLC@ 0046b518     SysStatus.obj
 0002:0000f528       ??_C@_0CN@FHNLCAG@Shenzhen?5San?5Guan?5Si?5Yuan?5Techn@ 0046b528     SysStatus.obj
 0002:0000f558       ??_C@_0CD@LKAJDFPM@DONG?5GUAN?5EBEN?5ELECTRONIC?5CO?4?0?5@ 0046b558     SysStatus.obj
 0002:0000f57c       ??_C@_0BE@OKFLBHJF@Kyocera?5Corporation@ 0046b57c     SysStatus.obj
 0002:0000f590       ??_C@_0BH@JCFLCGEH@Palit?5Microsystems?5Ltd@ 0046b590     SysStatus.obj
 0002:0000f5a8       ??_C@_0CL@CMEOKEMH@TECHVIWIN?5INTERNATIONAL?5?$CIHONGKO@ 0046b5a8     SysStatus.obj
 0002:0000f5d4       ??_C@_0CG@IDADAAHN@Hui?5Zhou?5Kai?5Yue?5Electronics?5Co@ 0046b5d4     SysStatus.obj
 0002:0000f5fc       ??_C@_0CH@GMADILLN@Suzhou?5Yourfriend?5Electronic?5Co@ 0046b5fc     SysStatus.obj
 0002:0000f624       ??_C@_0L@OHBOEKAL@Club?53D?5BV@ 0046b624     SysStatus.obj
 0002:0000f630       ??_C@_0BE@HLNLHFNK@Design?5Pool?5Limited@ 0046b630     SysStatus.obj
 0002:0000f644       ??_C@_0BD@KBJBCOHP@STMicroelectronics@ 0046b644     SysStatus.obj
 0002:0000f658       ??_C@_06NJDDIMGF@UL?5LLC@  0046b658     SysStatus.obj
 0002:0000f660       ??_C@_0BH@IPBGDHOH@STYL?5Solutions?5Pte?5Ltd@ 0046b660     SysStatus.obj
 0002:0000f678       ??_C@_0BP@KGNNIHAN@Tankya?5Developing?5Co?4?0?5Limited@ 0046b678     SysStatus.obj
 0002:0000f698       ??_C@_0CL@OOPFMMEA@Hieyoung?5International?5?$CIHong?5Ko@ 0046b698     SysStatus.obj
 0002:0000f6c4       ??_C@_0BE@FNGIIHNK@PT?5Phototechnics?5AG@ 0046b6c4     SysStatus.obj
 0002:0000f6d8       ??_C@_0BF@OEKPFDJ@JR?5Technik?5Co?4?0?5Ltd?4@ 0046b6d8     SysStatus.obj
 0002:0000f6f0       ??_C@_0CC@PEGHLIOG@Roofer?5Cable?5?$CIBao?5Shan?$CJ?5Co?4?0?5Lt@ 0046b6f0     SysStatus.obj
 0002:0000f714       ??_C@_0BO@DCIOLNHH@Lencheng?5Electronics?5Co?4?0?5Ltd@ 0046b714     SysStatus.obj
 0002:0000f734       ??_C@_0L@GFDMKFGE@FOVE?0?5Inc?4@ 0046b734     SysStatus.obj
 0002:0000f740       ??_C@_0CJ@HFCJMCPC@Protech?5Electronics?5?$CG?5Technolog@ 0046b740     SysStatus.obj
 0002:0000f76c       ??_C@_0CG@EAJEMIB@Dongguan?5Hongwei?5Electronics?5Co@ 0046b76c     SysStatus.obj
 0002:0000f794       ??_C@_0DA@KNNDJKPJ@Dongguan?5Hanker?5Electronic?5Tech@ 0046b794     SysStatus.obj
 0002:0000f7c4       ??_C@_0BK@OKMKHOAG@YiQin?5Electronics?5Co?4?0Ltd@ 0046b7c4     SysStatus.obj
 0002:0000f7e0       ??_C@_0DD@LAFCAOCH@DongGuan?5Kelta?5Electro?5Mechanic@ 0046b7e0     SysStatus.obj
 0002:0000f814       ??_C@_0CA@EDCEGDNA@Lyra?5Semiconductor?5Incorporated@ 0046b814     SysStatus.obj
 0002:0000f834       ??_C@_0BN@BFJNNMFH@Sunyking?5Technology?5Co?4?0?5Ltd@ 0046b834     SysStatus.obj
 0002:0000f854       ??_C@_0BC@OEHDDJBP@Foxconn?5?1?5Hon?5Hai@ 0046b854     SysStatus.obj
 0002:0000f868       ??_C@_0CM@GLIEJDCH@Shenzhen?5YAAN?5Precision?5Connect@ 0046b868     SysStatus.obj
 0002:0000f894       ??_C@_0DB@GEGHNMG@SunTo?5Technology?5?$CIShen?5Zhen?$CJ?5Co@ 0046b894     SysStatus.obj
 0002:0000f8c8       ??_C@_0BM@BBKMGNDN@Daiwoo?5Electronics?5Co?4?0?5LTD@ 0046b8c8     SysStatus.obj
 0002:0000f8e4       ??_C@_0BH@NCOJKANO@Cable?5Technology?5Corp?4@ 0046b8e4     SysStatus.obj
 0002:0000f8fc       ??_C@_0BA@OCBLFBEN@DPA?5Microphones@ 0046b8fc     SysStatus.obj
 0002:0000f90c       ??_C@_0DA@BGNCIFAC@Zhongshan?5Winner?5Electronic?5Tec@ 0046b90c     SysStatus.obj
 0002:0000f93c       ??_C@_0CF@JJCODFBL@Shenzhen?5Taiji?5Electronics?5Co?4?0@ 0046b93c     SysStatus.obj
 0002:0000f964       ??_C@_0CC@DENIAHG@SiliConch?5Systems?5Private?5Limit@ 0046b964     SysStatus.obj
 0002:0000f988       ??_C@_0O@GKKMPOEO@SweDeltaco?5AB@ 0046b988     SysStatus.obj
 0002:0000f998       ??_C@_0CK@MJBBPIAD@Shenzhen?5Legendary?5Technologies@ 0046b998     SysStatus.obj
 0002:0000f9c4       ??_C@_0DC@IGAPFOPN@Dongguan?5JingFeng?5Electronics?5T@ 0046b9c4     SysStatus.obj
 0002:0000f9f8       ??_C@_0CK@GBEIKGLD@Dongguan?5City?5Qingda?5Electronic@ 0046b9f8     SysStatus.obj
 0002:0000fa24       ??_C@_0O@KONCBIDB@ITE?5Tech?5Inc?4@ 0046ba24     SysStatus.obj
 0002:0000fa34       ??_C@_0CI@OKPDAIC@Dongguan?5Team?5Force?5Electronic?5@ 0046ba34     SysStatus.obj
 0002:0000fa5c       ??_C@_0CL@JMONGKEP@Zhuhai?5Spark?5Electronic?5Equipme@ 0046ba5c     SysStatus.obj
 0002:0000fa88       ??_C@_0CL@OHKLDCIL@I?9O?5Conn?5?$CIGuangDong?$CJ?5Technologi@ 0046ba88     SysStatus.obj
 0002:0000fab4       ??_C@_0CH@PAIHBMNH@Hongrida?5Electronic?5Technology?5@ 0046bab4     SysStatus.obj
 0002:0000fadc       ??_C@_0CO@ECIHOIJA@Shenzhen?5Bing?5Chuang?5Wei?5Techno@ 0046badc     SysStatus.obj
 0002:0000fb0c       ??_C@_0CE@BAOAOHKP@Vivo?5Mobile?5Communication?5Co?4?0?5@ 0046bb0c     SysStatus.obj
 0002:0000fb30       ??_C@_0DC@MHPBMNBP@SHENZHEN?5WAMAXLINK?5ELECTRONIC?5T@ 0046bb30     SysStatus.obj
 0002:0000fb64       ??_C@_0DB@BAFPAFFA@Dong?5Guan?5JingHe?5Electronics?5Te@ 0046bb64     SysStatus.obj
 0002:0000fb98       ??_C@_0BO@OEJPFIMK@Edifier?5International?5Limited@ 0046bb98     SysStatus.obj
 0002:0000fbb8       ??_C@_0DB@CKIDKBLO@Dongguan?5Suntes?5Electronics?5Tec@ 0046bbb8     SysStatus.obj
 0002:0000fbec       ??_C@_07KLFCANCH@SABRENT@  0046bbec     SysStatus.obj
 0002:0000fbf4       ??_C@_0BI@NPFFCHAJ@Superior?5Communications@ 0046bbf4     SysStatus.obj
 0002:0000fc0c       ??_C@_0BE@LHMHCDGM@Topland?5Corporation@ 0046bc0c     SysStatus.obj
 0002:0000fc20       ??_C@_0CM@KDOAHNGO@Shenzhen?5Jing?5Tuo?5Jin?5Electroni@ 0046bc20     SysStatus.obj
 0002:0000fc4c       ??_C@_0CF@KOIKGGHI@CYD?5Electronics?5?$CIShenzhen?$CJ?5Co?4?0@ 0046bc4c     SysStatus.obj
 0002:0000fc74       ??_C@_0CN@DNCNIJKK@Shenzhen?5YZB?5Electronics?5Techno@ 0046bc74     SysStatus.obj
 0002:0000fca4       ??_C@_0BK@BICPKOPM@GoerTek?5Dynaudio?5Co?4?0?5Ltd@ 0046bca4     SysStatus.obj
 0002:0000fcc0       ??_C@_0BP@MFNOLJNJ@IF?5Link?5Electronics?5Co?5Limited@ 0046bcc0     SysStatus.obj
 0002:0000fce0       ??_C@_0CB@GPNIFKCG@Shenzhen?5Welltech?5Cable?5Co?4?0?5Lt@ 0046bce0     SysStatus.obj
 0002:0000fd04       ??_C@_0BG@HKAAGFAI@i?5Digital?5Galaxy?5Ltd?4@ 0046bd04     SysStatus.obj
 0002:0000fd1c       ??_C@_0DA@PACJHINC@Dongguan?5Changtuo?5Hardware?5Tech@ 0046bd1c     SysStatus.obj
 0002:0000fd4c       ??_C@_0BA@OKHCALEJ@Tul?5Corporation@ 0046bd4c     SysStatus.obj
 0002:0000fd5c       ??_C@_0BO@LDJAEIIO@Action?5Industries?5?$CIM?$CJ?5SDN?5BHD@ 0046bd5c     SysStatus.obj
 0002:0000fd7c       ??_C@_0DD@GKNHLFHE@Dongguan?5Kingtron?5Electronics?5T@ 0046bd7c     SysStatus.obj
 0002:0000fdb0       ??_C@_0BD@MKCFEICF@Yeonho?5Electronics@ 0046bdb0     SysStatus.obj
 0002:0000fdc4       ??_C@_0CJ@ICBCKHDA@Shen?5Zhen?5Farmer?5Technology?5Co?4@ 0046bdc4     SysStatus.obj
 0002:0000fdf0       ??_C@_0BO@MOAECPO@Dialog?5Semiconductor?5?$CIUK?$CJ?5Ltd@ 0046bdf0     SysStatus.obj
 0002:0000fe10       ??_C@_0BA@OPLPEOO@iBaby?5Labs?0?5Inc@ 0046be10     SysStatus.obj
 0002:0000fe20       ??_C@_0CI@PACEAHOE@Dong?5Guan?5Fei?5Tai?5Electronics?5C@ 0046be20     SysStatus.obj
 0002:0000fe48       ??_C@_0CB@JICAOIIA@Shenzhen?5DAK?5Technology?5Co?4?0?5Lt@ 0046be48     SysStatus.obj
 0002:0000fe6c       ??_C@_0BD@PBDJBFFG@Audiolink?5Co?4?0?5Ltd@ 0046be6c     SysStatus.obj
 0002:0000fe80       ??_C@_0CG@FJAMIBEI@Princeton?5Infrared?5Technologies@ 0046be80     SysStatus.obj
 0002:0000fea8       ??_C@_0BB@LAFKEJCL@Active?9semi?0?5Inc@ 0046bea8     SysStatus.obj
 0002:0000febc       ??_C@_0DC@GJPGNKOL@Jiang?5Su?5Denseting?5Precision?5Te@ 0046bebc     SysStatus.obj
 0002:0000fef0       ??_C@_0BC@NMPGMBHH@The?5LightCo?0?5Inc?4@ 0046bef0     SysStatus.obj
 0002:0000ff04       ??_C@_0DE@OONBKCAD@Aquil?5Star?5Precision?5Industrial@ 0046bf04     SysStatus.obj
 0002:0000ff38       ??_C@_0P@ENMBGIMC@Inovonics?5Corp@ 0046bf38     SysStatus.obj
 0002:0000ff48       ??_C@_0CJ@KHJCJABF@LongSung?5Technology?5?$CIShanghai?$CJ?5@ 0046bf48     SysStatus.obj
 0002:0000ff74       ??_C@_0BN@CPFIBBJP@Jumplux?5Technology?5Co?4?0?5Ltd?4@ 0046bf74     SysStatus.obj
 0002:0000ff94       ??_C@_0BD@LBNNEMMM@Yamaha?5Corporation@ 0046bf94     SysStatus.obj
 0002:0000ffa8       ??_C@_0BB@LHIIJKGP@CIB?5Security?5Inc@ 0046bfa8     SysStatus.obj
 0002:0000ffbc       ??_C@_0CE@GNOOPNKF@Zhejiang?5Dahua?5Technology?5Co?4?0?5@ 0046bfbc     SysStatus.obj
 0002:0000ffe0       ??_C@_0BP@JNKFANPJ@Shenzhen?5Junlan?5Electronic?5Ltd@ 0046bfe0     SysStatus.obj
 0002:00010000       ??_C@_0CP@IPDKEBAP@ShenZhen?5ShenTai?5WeiXiang?5Elect@ 0046c000     SysStatus.obj
 0002:00010030       ??_C@_0CK@FBKJCJGP@Hongkong?5Chenyang?5Electronic?5Co@ 0046c030     SysStatus.obj
 0002:0001005c       ??_C@_0M@NFGCEAJL@Glosys?5Inc?4@ 0046c05c     SysStatus.obj
 0002:00010068       ??_C@_0BN@NLOFNCDI@Clarion?5?$CIMalaysia?$CJ?5Sdn?4?5Bhd?4@ 0046c068     SysStatus.obj
 0002:00010088       ??_C@_0BK@LCBEDPCL@Guangzhou?5Long?5Do?5Co?4?0Ltd@ 0046c088     SysStatus.obj
 0002:000100a4       ??_C@_0BD@FKHNGDGP@Lion?5Semiconductor@ 0046c0a4     SysStatus.obj
 0002:000100b8       ??_C@_0P@ENOEDNCO@Clas?5Ohlson?5AB@ 0046c0b8     SysStatus.obj
 0002:000100c8       ??_C@_0CF@DBOHKJPD@Shenzhen?5Qinps?5Technology?5Co?5Li@ 0046c0c8     SysStatus.obj
 0002:000100f0       ??_C@_0BM@JJAPEGGG@Dashine?5Electronics?5Co?0?5Ltd@ 0046c0f0     SysStatus.obj
 0002:0001010c       ??_C@_0BI@GGGPMHOD@Thine?5Electronics?0?5Inc?4@ 0046c10c     SysStatus.obj
 0002:00010124       ??_C@_0M@LADIIKPP@ALLDATA?5LLC@ 0046c124     SysStatus.obj
 0002:00010130       ??_C@_0CB@GCPBPKAK@Shenzhen?5PYS?5Industrial?5Co?4?0?5LT@ 0046c130     SysStatus.obj
 0002:00010154       ??_C@_0BJ@FMDJLLFH@Depo?5Electronics?5Limited@ 0046c154     SysStatus.obj
 0002:00010170       ??_C@_0BL@ECIAAFAB@IRISO?5ELECTRONICS?5CO?4?0?5LTD@ 0046c170     SysStatus.obj
 0002:0001018c       ??_C@_0CC@NJFPGLKC@Nanaboshi?5Electric?5Mfg?4?5Co?4?0?5Lt@ 0046c18c     SysStatus.obj
 0002:000101b0       ??_C@_0CI@DJCBIEBE@Hunan?5Ronghe?5Microelectronics?5C@ 0046c1b0     SysStatus.obj
 0002:000101d8       ??_C@_0CA@CPOENKOD@Mobileconn?5Technology?5Co?4?0?5Ltd?4@ 0046c1d8     SysStatus.obj
 0002:000101f8       ??_C@_07MBBIIPCG@ART?5SPA@ 0046c1f8     SysStatus.obj
 0002:00010200       ??_C@_0BM@DOMKPIBE@Mysher?5Technology?5Co?4?0?5Ltd?4@ 0046c200     SysStatus.obj
 0002:0001021c       ??_C@_0CF@BAMJALNK@Fitipower?5Integrated?5Technology@ 0046c21c     SysStatus.obj
 0002:00010244       ??_C@_0BM@CKMNELII@Will?5Semiconductor?5Co?4?0?5LTD@ 0046c244     SysStatus.obj
 0002:00010260       ??_C@_0BP@ICHPKIBM@Polaris?9Labs?5Shenzhen?5Co?4?0?5Ltd@ 0046c260     SysStatus.obj
 0002:00010280       ??_C@_0CF@DMEEEGKJ@Shenzhen?5Kaibao?5Technology?5Co?4?0@ 0046c280     SysStatus.obj
 0002:000102a8       ??_C@_0DA@CNBAEEJE@Kunshan?5Xintaili?5Precision?5Comp@ 0046c2a8     SysStatus.obj
 0002:000102d8       ??_C@_0O@EDCNNFOI@Hitachi?0?5Ltd?4@ 0046c2d8     SysStatus.obj
 0002:000102e8       ??_C@_0BI@NJMIINNM@DMX?0?5LLC?5dba?5Mood?5Media@ 0046c2e8     SysStatus.obj
 0002:00010300       ??_C@_0CG@IJMNKDCM@DongGuan?5YongHao?5Electronics?5Co@ 0046c300     SysStatus.obj
 0002:00010328       ??_C@_08GILNHFPJ@Rylo?5Inc@ 0046c328     SysStatus.obj
 0002:00010334       ??_C@_0CH@FOOGNKOA@Guangdong?5Jinrun?5Electronics?5Co@ 0046c334     SysStatus.obj
 0002:0001035c       ??_C@_0CM@KKOHHKNC@Shenzhen?5Xin?5Yong?5Yang?5Technolo@ 0046c35c     SysStatus.obj
 0002:00010388       ??_C@_0DM@GIILHAJP@Aries?5Manufacturing?5?9?5a?5divisio@ 0046c388     SysStatus.obj
 0002:000103c4       ??_C@_0BM@BBOPPLHC@Sapphire?5Technology?5Limited@ 0046c3c4     SysStatus.obj
 0002:000103e0       ??_C@_0CM@BDEHDNKG@Sheng?5San?5Electronics?5?$CIShen?5Zhe@ 0046c3e0     SysStatus.obj
 0002:0001040c       ??_C@_07LOKFIKKP@Verizon@  0046c40c     SysStatus.obj
 0002:00010414       ??_C@_09OEADKIBB@Visioneer@ 0046c414     SysStatus.obj
 0002:00010420       ??_C@_0CH@JLKFCBCF@Shenzhen?5Injoinic?5Technology?5Co@ 0046c420     SysStatus.obj
 0002:00010448       ??_C@_0BC@IEIPBGLH@Group?5Dekko?0?5Inc?4@ 0046c448     SysStatus.obj
 0002:0001045c       ??_C@_0O@LPBNPKEI@Nekteck?0?5Inc?4@ 0046c45c     SysStatus.obj
 0002:0001046c       ??_C@_0BP@MFIBAGCK@Hynetek?5Semiconductor?5Co?4?0?5Ltd@ 0046c46c     SysStatus.obj
 0002:0001048c       ??_C@_0L@GLDEECEB@Canon?5Inc?4@ 0046c48c     SysStatus.obj
 0002:00010498       ??_C@_0BH@LDEFCJF@MS?5Solutions?5Co?4?0?5Ltd?4@ 0046c498     SysStatus.obj
 0002:000104b0       ??_C@_0CG@FGBFLDLB@Shenzhen?5Silkway?5Technology?5Co?4@ 0046c4b0     SysStatus.obj
 0002:000104d8       ??_C@_0BO@KHEFCECP@EyeTech?5Digital?5Systems?0?5Inc?4@ 0046c4d8     SysStatus.obj
 0002:000104f8       ??_C@_0CD@NJDJOHPC@Ningbo?5Kangda?5Electronic?5Co?4?0?5L@ 0046c4f8     SysStatus.obj
 0002:00010520       ??_C@_0EA@BLKDNEOJ@Hubbell?5Incorporated?5?$CIDelaware?$CJ@ 0046c520     SysStatus.obj
 0002:00010560       ??_C@_0CM@GGDFEADF@Dongguanshi?5Qitaiprecision?5Moul@ 0046c560     SysStatus.obj
 0002:0001058c       ??_C@_0CJ@JCBLMJOH@Foreign?5Trade?5Corporation?5dba?4?5@ 0046c58c     SysStatus.obj
 0002:000105b8       ??_C@_0CA@NCMHMFAN@Zong?5Cable?5Technology?5Co?4?0?5Ltd?4@ 0046c5b8     SysStatus.obj
 0002:000105d8       ??_C@_0CK@OOBLADJM@Jia?5Yang?5Electronics?5?$CIDongguan?$CJ@ 0046c5d8     SysStatus.obj
 0002:00010604       ??_C@_0CF@CDFNLDJG@Shenzhen?5TOMTOP?5Technology?5Co?4?0@ 0046c604     SysStatus.obj
 0002:0001062c       ??_C@_0BE@GICCJNJN@Samsung?5SmartThings@ 0046c62c     SysStatus.obj
 0002:00010640       ??_C@_0CO@BINBMFGL@Shenzhen?5Tokwa?5Precision?5Techno@ 0046c640     SysStatus.obj
 0002:00010670       ??_C@_0DE@IOOHMIDD@Dongguan?5HengYue?5Communication?5@ 0046c670     SysStatus.obj
 0002:000106a4       ??_C@_0BG@MMKJMGEP@The?5Vehicle?5Group?5LTD@ 0046c6a4     SysStatus.obj
 0002:000106bc       ??_C@_0CO@DMHIMFNC@Yueqing?5Nuode?5Electronic?5Techno@ 0046c6bc     SysStatus.obj
 0002:000106ec       ??_C@_0BD@KKFDDMKG@SSI?5Computer?5Corp?4@ 0046c6ec     SysStatus.obj
 0002:00010700       ??_C@_0DH@DNNPHNEO@Shenzhen?5He?5Xing?5Sheng?5Smart?5Li@ 0046c700     SysStatus.obj
 0002:00010738       ??_C@_0BH@OHHCCCJC@RAIDON?5Technology?5Inc?4@ 0046c738     SysStatus.obj
 0002:00010750       ??_C@_0BN@IOCKICGC@Netstor?5Technology?5Co?4?0?5Ltd?4@ 0046c750     SysStatus.obj
 0002:00010770       ??_C@_0BP@DOAHHEJB@Delphi?5Automotive?5Systems?0?5LLC@ 0046c770     SysStatus.obj
 0002:00010790       ??_C@_0CB@DFCMHNMG@Shenzhen?5D?$CGD?5Technology?5Co?4?0?5Lt@ 0046c790     SysStatus.obj
 0002:000107b4       ??_C@_09BEJNLKKJ@GuideTech@ 0046c7b4     SysStatus.obj
 0002:000107c0       ??_C@_0CE@CPCMKJOB@Shenzhen?5Huntkey?5Electric?5Co?4?0?5@ 0046c7c0     SysStatus.obj
 0002:000107e4       ??_C@_0BL@HPALAHLL@Ariba?5Technology?5Co?4?0?5LTD?4@ 0046c7e4     SysStatus.obj
 0002:00010800       ??_C@_0CC@KGEHJFPD@Ningbo?5Prime?5Electronic?5Co?4?0?5Lt@ 0046c800     SysStatus.obj
 0002:00010824       ??_C@_0O@IIKJJOLO@AQuantia?5Corp@ 0046c824     SysStatus.obj
 0002:00010834       ??_C@_0DB@JGLJBNFN@Zhejiang?5Quzhou?5Gelinte?5Wire?5an@ 0046c834     SysStatus.obj
 0002:00010868       ??_C@_0BM@OHDPFJLL@E?9Lead?5Electronic?5Co?4?0?5Ltd?4@ 0046c868     SysStatus.obj
 0002:00010884       ??_C@_0BH@EPGHAOC@QBit?5Semiconductor?5LTD@ 0046c884     SysStatus.obj
 0002:0001089c       ??_C@_0CL@MGFKGGNB@Shenzhen?5Xinhongya?5Electronics?5@ 0046c89c     SysStatus.obj
 0002:000108c8       ??_C@_0BG@DKOBPKOL@QSAN?5Technology?0?5Inc?4@ 0046c8c8     SysStatus.obj
 0002:000108e0       ??_C@_0BN@MGDGHCIK@Shenzhen?5Xinliyang?5Co?4?0?5Ltd?4@ 0046c8e0     SysStatus.obj
 0002:00010900       ??_C@_0N@HGLNPNPL@Libratel?5Inc@ 0046c900     SysStatus.obj
 0002:00010910       ??_C@_0CG@CACJAFDJ@Dongguan?5Lontion?5Industrial?5Co?4@ 0046c910     SysStatus.obj
 0002:00010938       ??_C@_0BP@BHEBNKFL@Microscopes?5International?0?5LLC@ 0046c938     SysStatus.obj
 0002:00010958       ??_C@_0DE@FCCPDDBP@Wenzhou?5Haitong?5Communication?5E@ 0046c958     SysStatus.obj
 0002:0001098c       ??_C@_0CD@KOIEJGPA@Technik?5Industrial?5Company?5Limi@ 0046c98c     SysStatus.obj
 0002:000109b0       ??_C@_0CL@NMAKMKPG@Huizhou?5Wealth?5Metal?5Micro?5Cont@ 0046c9b0     SysStatus.obj
 0002:000109dc       ??_C@_0BC@GNNADKEG@Nikon?5Corporation@ 0046c9dc     SysStatus.obj
 0002:000109f0       ??_C@_0N@LNPOAICG@Pogotec?5Inc?4@ 0046c9f0     SysStatus.obj
 0002:00010a00       ??_C@_0O@ODJHKKOO@Safetrust?5Inc@ 0046ca00     SysStatus.obj
 0002:00010a10       ??_C@_0BE@OENCHBM@Kashimura?5Co?4?0?5Ltd?4@ 0046ca10     SysStatus.obj
 0002:00010a24       ??_C@_0BP@KHKNEEHL@Kin?5Keung?5Electrical?5Mfg?4?5Ltd?4@ 0046ca24     SysStatus.obj
 0002:00010a44       ??_C@_0BI@EPFHDNLC@Hisense?5USA?5Corporation@ 0046ca44     SysStatus.obj
 0002:00010a5c       ??_C@_0BF@DBDCEMBK@GOOGFIT?5TECH?5LIMITED@ 0046ca5c     SysStatus.obj
 0002:00010a74       ??_C@_0BC@HJPMHLJH@Pan?5International@ 0046ca74     SysStatus.obj
 0002:00010a88       ??_C@_0CJ@POHEEAAC@Jianduan?5Technology?5?$CIShenzhen?$CJ?5@ 0046ca88     SysStatus.obj
 0002:00010ab4       ??_C@_0BK@NIDLKED@Sensor?5Industries?5Limited@ 0046cab4     SysStatus.obj
 0002:00010ad0       ??_C@_0DD@CIPPBOJD@Beijing?5Qunli?5Tiancheng?5Network@ 0046cad0     SysStatus.obj
 0002:00010b04       ??_C@_0DA@HMKBEPH@Zhongshan?5Auxus?5Electronic?5Tech@ 0046cb04     SysStatus.obj
 0002:00010b34       ??_C@_0CC@NOCJDPPN@Tatvik?5Biosystems?5Private?5Limit@ 0046cb34     SysStatus.obj
 0002:00010b58       ??_C@_0CG@BJLHALCO@Shenzhen?5Goodwin?5Technology?5Co?4@ 0046cb58     SysStatus.obj
 0002:00010b80       ??_C@_0CJ@PJNCEGEM@Hopewin?5Electronic?5Material?5Co?4@ 0046cb80     SysStatus.obj
 0002:00010bac       ??_C@_08DFCOMEMG@pureLiFi@ 0046cbac     SysStatus.obj
 0002:00010bb8       ??_C@_0BI@BIDDJNKO@SHING?5ECOBLUE?5CO?4?0?5LTD?4@ 0046cbb8     SysStatus.obj
 0002:00010bd0       ??_C@_0CD@HNMMHID@Shenzhen?5DBK?5Electronics?5Co?4?0?5L@ 0046cbd0     SysStatus.obj
 0002:00010bf4       ??_C@_0CN@DAEGJGIO@BDStar?5?$CIChongqing?$CJ?5Auto?5Electro@ 0046cbf4     SysStatus.obj
 0002:00010c24       ??_C@_0CJ@LGPGMKGP@Dongguan?5Xcomm?5Electronic?5Tech?5@ 0046cc24     SysStatus.obj
 0002:00010c50       ??_C@_0CH@MLNBFMPD@Shen?5Zhen?5GLGNET?5Electronics?5Co@ 0046cc50     SysStatus.obj
 0002:00010c78       ??_C@_0BG@HKOAOGIK@Rapid?5Power?5Co?4?0?5Ltd?4@ 0046cc78     SysStatus.obj
 0002:00010c90       ??_C@_0CE@NKGMNMEH@Shenzhen?5jiayz?5photo?5industrial@ 0046cc90     SysStatus.obj
 0002:00010cb4       ??_C@_06ODKNODPO@Qmadix@   0046ccb4     SysStatus.obj
 0002:00010cbc       ??_C@_0BG@FGCLJBBL@Cypress?5Semiconductor@ 0046ccbc     SysStatus.obj
 0002:00010cd4       ??_C@_0CG@HCGIEMEA@Shenzhen?5Techoss?5Technology?5Co?4@ 0046ccd4     SysStatus.obj
 0002:00010cfc       ??_C@_0BO@JGAEFIDA@JOLANYEE?5Technology?5Co?4?0?5Ltd?4@ 0046ccfc     SysStatus.obj
 0002:00010d1c       ??_C@_0O@LHACCCGD@Landis?$CLGyr?5AG@ 0046cd1c     SysStatus.obj
 0002:00010d2c       ??_C@_0CH@KILIMEPB@Shenzhen?5RoadRover?5Technology?5C@ 0046cd2c     SysStatus.obj
 0002:00010d54       ??_C@_0L@EGJMBONJ@1MORE?5INC?4@ 0046cd54     SysStatus.obj
 0002:00010d60       ??_C@_0CP@HDLBGPKA@Shenzhen?5LVSUN?5Electronics?5Tech@ 0046cd60     SysStatus.obj
 0002:00010d90       ??_C@_0P@POFNKNIM@ROHM?5Co?4?0?5Ltd?4@ 0046cd90     SysStatus.obj
 0002:00010da0       ??_C@_0BE@HKFDBEKA@Enovate?5Medical?5LLC@ 0046cda0     SysStatus.obj
 0002:00010db4       ??_C@_0BJ@LHICFEEG@Shell?5Electronic?5Limited@ 0046cdb4     SysStatus.obj
 0002:00010dd0       ??_C@_0CO@LIGAICNF@Shenzhen?5Zhiyou?5Precise?5Electro@ 0046cdd0     SysStatus.obj
 0002:00010e00       ??_C@_0CF@MMMOCHOF@Liyang?5Sino?5Cable?5Electronics?5C@ 0046ce00     SysStatus.obj
 0002:00010e28       ??_C@_0CD@CDKNHILD@Shenzhen?5HSY?5Electronics?5Co?4?0?5L@ 0046ce28     SysStatus.obj
 0002:00010e4c       ??_C@_0CD@EDHAFCBB@Byrne?5Electrical?5Specialists?0?5I@ 0046ce4c     SysStatus.obj
 0002:00010e70       ??_C@_0DC@GOCOEEKN@Shenzhen?5Taildie?5Science?5and?5Te@ 0046ce70     SysStatus.obj
 0002:00010ea4       ??_C@_0BJ@IBBFBLCL@Compal?5Electronics?0?5Inc?4@ 0046cea4     SysStatus.obj
 0002:00010ec0       ??_C@_0BG@CPEKDNKG@Launch?5Tech?5Co?4?0?5Ltd?4@ 0046cec0     SysStatus.obj
 0002:00010ed8       ??_C@_0BE@LJLMLHNF@DAS?5Companies?0?5Inc?4@ 0046ced8     SysStatus.obj
 0002:00010eec       ??_C@_0BE@LOEBGJOJ@Owltech?5Corporation@ 0046ceec     SysStatus.obj
 0002:00010f00       ??_C@_0BN@PNCBKNNA@Armoya?5Yuksek?5Teknoloji?5A?4S?4@ 0046cf00     SysStatus.obj
 0002:00010f20       ??_C@_0CP@MIGNPKKA@Shenzhen?5Genius?5Fashion?5Technol@ 0046cf20     SysStatus.obj
 0002:00010f50       ??_C@_0BC@LODEJCJJ@Seiko?5Epson?5Corp?4@ 0046cf50     SysStatus.obj
 0002:00010f64       ??_C@_0BB@DFNAEMHA@Cepa?5Taiwan?5Ltd?4@ 0046cf64     SysStatus.obj
 0002:00010f78       ??_C@_0DD@EEIAJEC@Jiangsu?5East?5Century?5Network?5In@ 0046cf78     SysStatus.obj
 0002:00010fac       ??_C@_0BC@FPLFAD@Scy?5Manufacturing@ 0046cfac     SysStatus.obj
 0002:00010fc0       ??_C@_0DJ@HDJHMOM@Easepower?5Microelectronics?5Tech@ 0046cfc0     SysStatus.obj
 0002:00010ffc       ??_C@_0DB@BJIIHPAJ@Shenzhen?5Junyang?5Investment?5Tec@ 0046cffc     SysStatus.obj
 0002:00011030       ??_C@_0CG@OAOPPKHC@Shanghai?5Fuyulong?5Auto?5Tech?5Co?4@ 0046d030     SysStatus.obj
 0002:00011058       ??_C@_0CE@FICHCFMO@Dongguan?5Yubao?5Electronic?5Co?4?0?5@ 0046d058     SysStatus.obj
 0002:0001107c       ??_C@_0DD@FDEGCKMA@Shanghai?5IC?5Technology?5?$CG?5Indust@ 0046d07c     SysStatus.obj
 0002:000110b0       ??_C@_0BC@ILJOHFNG@ZPE?5Systems?0?5Inc?4@ 0046d0b0     SysStatus.obj
 0002:000110c4       ??_C@_0CE@NPEEBNIM@Shenzhen?5Aukey?5E?5Business?5Co?4?0?5@ 0046d0c4     SysStatus.obj
 0002:000110e8       ??_C@_0BG@JPMOFDBN@Tzumi?5Electronics?5LLC@ 0046d0e8     SysStatus.obj
 0002:00011100       ??_C@_0DD@LOHOAODN@Shanghai?5Oceanhood?5Opto?9Electro@ 0046d100     SysStatus.obj
 0002:00011134       ??_C@_08LJOGNEHO@COLORFUL@ 0046d134     SysStatus.obj
 0002:00011140       ??_C@_0BP@IAGCDMCP@JDCS?5SVAHA?5TECHNOLOGY?5CO?4?0?5LTD@ 0046d140     SysStatus.obj
 0002:00011160       ??_C@_0BG@NAOBNEME@I?9O?5Data?5Device?0?5Inc?4@ 0046d160     SysStatus.obj
 0002:00011178       ??_C@_0BN@HNMCMKHO@Wei?5Sheng?5Industrial?5Company@ 0046d178     SysStatus.obj
 0002:00011198       ??_C@_0BD@KFAIPEPN@Iconic?5Corporation@ 0046d198     SysStatus.obj
 0002:000111ac       ??_C@_0BK@MKLOEJGF@Electronique?5Bluewave?5Inc@ 0046d1ac     SysStatus.obj
 0002:000111c8       ??_C@_0DC@OHAOAFFP@Dongguan?5Qishi?5Yongkang?5Hardwar@ 0046d1c8     SysStatus.obj
 0002:000111fc       ??_C@_0CC@NLNNKDAG@SuZhou?5QIWEI?5Electronic?5Co?4?0?5Lt@ 0046d1fc     SysStatus.obj
 0002:00011220       ??_C@_0EN@KNALBHMG@China?5Aviation?5Optical?9Electric@ 0046d220     SysStatus.obj
 0002:00011270       ??_C@_0DG@CEHPCCLM@DongGuan?5City?5GuangJie?5Electron@ 0046d270     SysStatus.obj
 0002:000112a8       ??_C@_0DG@LPELIOMJ@Dongguan?5Yudianming?5Communicati@ 0046d2a8     SysStatus.obj
 0002:000112e0       ??_C@_0BJ@FEBJLCGL@KAB?5Enterprise?5Co?4?0?5Ltd?4@ 0046d2e0     SysStatus.obj
 0002:000112fc       ??_C@_0CD@DFDJCINA@DONGGUAN?5NOONE?5TECHNOLOGY?5CO?4?0?5@ 0046d2fc     SysStatus.obj
 0002:00011320       ??_C@_0CE@FMNDDOBA@Changzhou?5Comp?5Electronic?5Co?4?0?5@ 0046d320     SysStatus.obj
 0002:00011344       ??_C@_0CC@BAMJPFNP@Lontium?5Semiconductor?5Corporati@ 0046d344     SysStatus.obj
 0002:00011368       ??_C@_0DC@BOBNCMFD@Dongguan?5Zhaobang?5Electronic?5Te@ 0046d368     SysStatus.obj
 0002:0001139c       ??_C@_0DL@DAMELOLA@Shenzhen?5Pu?5Ying?5Innovation?5Tec@ 0046d39c     SysStatus.obj
 0002:000113d8       ??_C@_0BA@FNOLFMIJ@Omnicharge?5Inc?4@ 0046d3d8     SysStatus.obj
 0002:000113e8       ??_C@_0CC@KPOOHBBE@Zhuhai?5Hoksi?5Technology?5Co?4?0?5Lt@ 0046d3e8     SysStatus.obj
 0002:0001140c       ??_C@_09PFILNHJG@DAQRI?5LLC@ 0046d40c     SysStatus.obj
 0002:00011418       ??_C@_0CG@JGHHOMDJ@Zhejiang?5Uniview?5Technology?5Co?4@ 0046d418     SysStatus.obj
 0002:00011440       ??_C@_0DC@DAPMAENB@Aute?5?$CIZhongshan?$CJ?5Electronics?5Te@ 0046d440     SysStatus.obj
 0002:00011474       ??_C@_0CJ@JBHEOGLL@SMMMPLUS?5ELECTRONIC?5TECHNOLOGY?5@ 0046d474     SysStatus.obj
 0002:000114a0       ??_C@_0BF@JMLJNGIC@Avantree?5Corporation@ 0046d4a0     SysStatus.obj
 0002:000114b8       ??_C@_0DA@HMBFJMMK@Dong?5Guan?5Cita?5Intelligent?5Tech@ 0046d4b8     SysStatus.obj
 0002:000114e8       ??_C@_0CE@MEBMIPCE@Shuzhou?5Huajie?5Electronic?5Co?4?0?5@ 0046d4e8     SysStatus.obj
 0002:0001150c       ??_C@_0BA@EPAOBDKH@Diebold?5Nixdorf@ 0046d50c     SysStatus.obj
 0002:0001151c       ??_C@_0BI@JPMGPFFE@Leader?5Electronics?5Inc?4@ 0046d51c     SysStatus.obj
 0002:00011534       ??_C@_0CH@DGLEFCBO@Shenzhen?5Tuoshuo?5Electronics?5Co@ 0046d534     SysStatus.obj
 0002:0001155c       ??_C@_0O@KAMDILMM@Kandou?5Bus?5SA@ 0046d55c     SysStatus.obj
 0002:0001156c       ??_C@_0DG@BOMFNKLB@Guizhou?5Huaxintong?5Semiconducto@ 0046d56c     SysStatus.obj
 0002:000115a4       ??_C@_0CG@MDKIGAFE@Shenzhen?5Reflying?5Electronic?5Co@ 0046d5a4     SysStatus.obj
 0002:000115cc       ??_C@_0CF@ILNFIBEC@UWE?5?$CIWeihai?$CJ?5Technologies?5Corp?4@ 0046d5cc     SysStatus.obj
 0002:000115f4       ??_C@_0CH@DBLFCBJC@Guangzhou?5Walkera?5Technology?5Co@ 0046d5f4     SysStatus.obj
 0002:0001161c       ??_C@_0BM@LDLOOMIM@E?9Link?5Technology?5Co?4?0?5Ltd?4@ 0046d61c     SysStatus.obj
 0002:00011638       ??_C@_0BK@IHFKAHBN@Lenjoy?5Technology?5Limited@ 0046d638     SysStatus.obj
 0002:00011654       ??_C@_0BF@OMALANND@Idea?5Electronics?5Inc@ 0046d654     SysStatus.obj
 0002:0001166c       ??_C@_0CM@FANAJKLI@Shanghai?5Yanying?5Electronic?5Tec@ 0046d66c     SysStatus.obj
 0002:00011698       ??_C@_0O@DLIAEDBK@Antlion?5Audio@ 0046d698     SysStatus.obj
 0002:000116a8       ??_C@_0CB@KEJNGCFH@VogDUO?5International?5Corporatio@ 0046d6a8     SysStatus.obj
 0002:000116cc       ??_C@_09DNNANIEC@Qomo?0?5LLC@ 0046d6cc     SysStatus.obj
 0002:000116d8       ??_C@_0BM@FCHHFLBP@Minwa?5Electronics?5Co?4?0?5Ltd?4@ 0046d6d8     SysStatus.obj
 0002:000116f4       ??_C@_0CG@LAFKCGAI@Fortune?5Advanced?5Technology?5Co?4@ 0046d6f4     SysStatus.obj
 0002:0001171c       ??_C@_0DB@CCNDJAMF@Dongguan?5IRice?5Electronics?5Deve@ 0046d71c     SysStatus.obj
 0002:00011750       ??_C@_0P@ECEIFALG@Epiq?5Solutions@ 0046d750     SysStatus.obj
 0002:00011760       ??_C@_0CA@OLIMILKO@Shenzhen?5Jinlai?5Cable?5Co?4?0?5Ltd?4@ 0046d760     SysStatus.obj
 0002:00011780       ??_C@_0BG@JIBDMOEM@Darkglass?5Electronics@ 0046d780     SysStatus.obj
 0002:00011798       ??_C@_0CF@EAFCDFAH@Dongguan?5Huiyan?5Electronic?5Co?4?0@ 0046d798     SysStatus.obj
 0002:000117c0       ??_C@_0BN@NIADNMOF@Hon?9Kwang?5Electric?5Co?4?0?5Ltd?4@ 0046d7c0     SysStatus.obj
 0002:000117e0       ??_C@_0BH@HOBLJFHE@Clear?5Signal?5Solutions@ 0046d7e0     SysStatus.obj
 0002:000117f8       ??_C@_0CP@OOEMEGOM@Shenzhen?5Ruiba?5New?5Energy?5Techn@ 0046d7f8     SysStatus.obj
 0002:00011828       ??_C@_0BO@EENGEAH@Definium?5Technologies?5Pty?5Ltd@ 0046d828     SysStatus.obj
 0002:00011848       ??_C@_0BK@NPBPKKOO@Totoku?5Electric?5Co?4?0?5Ltd?4@ 0046d848     SysStatus.obj
 0002:00011864       ??_C@_0N@MFGIPGKK@Fujitsu?5Ltd?4@ 0046d864     SysStatus.obj
 0002:00011874       ??_C@_08FKEKHKI@OLEDCOMM@  0046d874     SysStatus.obj
 0002:00011880       ??_C@_0DE@HCIKBDMC@American?5Crystal?5Group?5Trading?5@ 0046d880     SysStatus.obj
 0002:000118b4       ??_C@_0BH@CBJGHNMF@INNO?5INSTRUMENT?4?0?5INC?4@ 0046d8b4     SysStatus.obj
 0002:000118cc       ??_C@_0BA@MCGHJNFB@64seconds?0?5Inc?4@ 0046d8cc     SysStatus.obj
 0002:000118dc       ??_C@_0M@LBGHGOJD@SiOnyx?0?5LLC@ 0046d8dc     SysStatus.obj
 0002:000118e8       ??_C@_0CF@JHCLJEBF@Shenzhen?5Theone?5Electronic?5Co?4?0@ 0046d8e8     SysStatus.obj
 0002:00011910       ??_C@_0BA@GJMDGPHL@M?5W?5Electronics@ 0046d910     SysStatus.obj
 0002:00011920       ??_C@_04DGGEBHIF@Flex@     0046d920     SysStatus.obj
 0002:00011928       ??_C@_0O@JGMHECMG@YET?5Co?4?0?5Ltd?4@ 0046d928     SysStatus.obj
 0002:00011938       ??_C@_0CC@NJCFMNGC@Amphenol?5LTW?5Technology?5Co?4?0?5Lt@ 0046d938     SysStatus.obj
 0002:0001195c       ??_C@_0BJ@NMPGAGDC@Megavision?5Focus?5Sdn?5Bhd@ 0046d95c     SysStatus.obj
 0002:00011978       ??_C@_0BD@HFIJNHGB@Product?5Works?0?5LLC@ 0046d978     SysStatus.obj
 0002:0001198c       ??_C@_0DA@JDKLKHBA@Dongguan?5Baolaipo?5Plastic?5Elect@ 0046d98c     SysStatus.obj
 0002:000119bc       ??_C@_0CD@ODDHIGEP@Dongguan?5Arun?5Industrial?5CO?4?0?5L@ 0046d9bc     SysStatus.obj
 0002:000119e0       ??_C@_0CG@NGDNBGJ@Changzhou?5Wistar?5Electronics?5Co@ 0046d9e0     SysStatus.obj
 0002:00011a08       ??_C@_0CE@BBIPNCOI@Jiangsu?5Tenwei?5Electronic?5Co?4?0?5@ 0046da08     SysStatus.obj
 0002:00011a2c       ??_C@_0CM@CDFOIOKG@Shenzhen?5SuperElectron?5Technolo@ 0046da2c     SysStatus.obj
 0002:00011a58       ??_C@_0DA@CLFNAGOF@Shenzhen?5Shenghongwei?5Precision@ 0046da58     SysStatus.obj
 0002:00011a88       ??_C@_0BM@BLENMKEA@Matrix?5Electronics?5Co?4?0?5Ltd@ 0046da88     SysStatus.obj
 0002:00011aa4       ??_C@_0BF@LOPNFLME@Keyssa?5Systems?0?5Inc?4@ 0046daa4     SysStatus.obj
 0002:00011abc       ??_C@_0DB@MCFLJCMH@Shenzhen?5Baisitai?5Computer?5Acce@ 0046dabc     SysStatus.obj
 0002:00011af0       ??_C@_0CE@OGPFJANH@Tianjin?5C?9Core?5Technology?5Co?4?0?5@ 0046daf0     SysStatus.obj
 0002:00011b14       ??_C@_0BD@FCANBOOC@Digital?5Depth?0?5Inc@ 0046db14     SysStatus.obj
 0002:00011b28       ??_C@_0CK@NFFJHMKI@Shenzhen?5Shadow?5Crown?5Technolog@ 0046db28     SysStatus.obj
 0002:00011b54       ??_C@_0BF@ODDNDLHD@inMusic?5Brands?0?5Inc?4@ 0046db54     SysStatus.obj
 0002:00011b6c       ??_C@_0CG@LMIKNNGG@Ningbo?5Mainning?5Electronics?5Co?4@ 0046db6c     SysStatus.obj
 0002:00011b94       ??_C@_0BE@JEANHBGL@APE?5Technology?5Ltd?4@ 0046db94     SysStatus.obj
 0002:00011ba8       ??_C@_0BH@MJFIBMLG@Kaicap?5Investments?5Ltd@ 0046dba8     SysStatus.obj
 0002:00011bc0       ??_C@_0CE@CKHLLPG@Fine?5Triumph?5Technology?5Corp?4?0?5@ 0046dbc0     SysStatus.obj
 0002:00011be4       ??_C@_0DF@NJKAENN@Shen?5Zhen?5Shi?5Jue?5Bao?5Dong?5Li?5K@ 0046dbe4     SysStatus.obj
 0002:00011c1c       ??_C@_0BJ@NGOIGNGL@Timecode?5Systems?5Limited@ 0046dc1c     SysStatus.obj
 0002:00011c38       ??_C@_0CH@EOEFMDBA@Zhuhai?5Ismartware?5Technology?5Co@ 0046dc38     SysStatus.obj
 0002:00011c60       ??_C@_0BC@HCMALGME@O?9JIN?5Corporation@ 0046dc60     SysStatus.obj
 0002:00011c74       ??_C@_0CK@EIHEBMAO@Shenzhen?5Xinshenghua?5Electronic@ 0046dc74     SysStatus.obj
 0002:00011ca0       ??_C@_0BH@FMDBGPJJ@Appcessori?5Corporation@ 0046dca0     SysStatus.obj
 0002:00011cb8       ??_C@_0BD@PBKCCACE@Herbert?5Retail?5Ltd@ 0046dcb8     SysStatus.obj
 0002:00011ccc       ??_C@_0BF@DGJHAIHG@FUJIFILM?5Corporation@ 0046dccc     SysStatus.obj
 0002:00011ce4       ??_C@_0CJ@NJLODJBB@ShenZhen?5KingQuality?5Technology@ 0046dce4     SysStatus.obj
 0002:00011d10       ??_C@_0BG@PCNDCDCM@Red?5Technologies?0?5LLC@ 0046dd10     SysStatus.obj
 0002:00011d28       ??_C@_0M@PMMOMPDO@Sentio?0?5LLC@ 0046dd28     SysStatus.obj
 0002:00011d34       ??_C@_0DB@INMPPLPO@Tongling?5Tongfeng?5Precision?5Tec@ 0046dd34     SysStatus.obj
 0002:00011d68       ??_C@_0CJ@LGLEKFBG@Keytech?5Intelligent?5Technologie@ 0046dd68     SysStatus.obj
 0002:00011d94       ??_C@_0CI@IJPAKDBN@Hui?5Zhou?5Gaoshengda?5Technology?5@ 0046dd94     SysStatus.obj
 0002:00011dbc       ??_C@_0CF@INFCIOEC@Shenzhen?5Tommox?5Technology?5Co?4?0@ 0046ddbc     SysStatus.obj
 0002:00011de4       ??_C@_0CK@PPKFHFAK@Guangzhou?5Haokai?5Electron?5Compa@ 0046dde4     SysStatus.obj
 0002:00011e10       ??_C@_0BH@POJBCLBE@LINKUP?5Technology?5Inc?4@ 0046de10     SysStatus.obj
 0002:00011e28       ??_C@_0DC@LJHNHEBG@Shenzhen?5Wisepower?5Innovation?5T@ 0046de28     SysStatus.obj
 0002:00011e5c       ??_C@_0BE@MDHNPLD@Racal?5Acoustics?5Ltd@ 0046de5c     SysStatus.obj
 0002:00011e70       ??_C@_0BE@BBABEHCA@Navajo?5Incorporated@ 0046de70     SysStatus.obj
 0002:00011e84       ??_C@_0M@JOBHJAGE@Fluid?5Audio@ 0046de84     SysStatus.obj
 0002:00011e90       ??_C@_0CJ@IOCEIPJL@Dongguan?5Sheng?5Kun?5Electronics?5@ 0046de90     SysStatus.obj
 0002:00011ebc       ??_C@_0BD@MCEHNAJO@Japan?5Display?5Inc?4@ 0046debc     SysStatus.obj
 0002:00011ed0       ??_C@_0CF@OFCDOFJC@Ningbo?5Litesun?5Electronics?5Co?4?0@ 0046ded0     SysStatus.obj
 0002:00011ef8       ??_C@_0BF@EPKHEEBM@Agile?5Innovative?5Ltd@ 0046def8     SysStatus.obj
 0002:00011f10       ??_C@_0BN@ENEFJJA@NextVPU?5?$CIShanghai?$CJ?5Co?4?0?5Ltd?4@ 0046df10     SysStatus.obj
 0002:00011f30       ??_C@_0BD@MNJGIPGJ@Polaris?5Industries@ 0046df30     SysStatus.obj
 0002:00011f44       ??_C@_0CK@GFABNMD@Dongguan?5City?5Xuming?5Electronic@ 0046df44     SysStatus.obj
 0002:00011f70       ??_C@_0DD@EGHFOJKH@Hostop?5Intelligent?5Technology?5?$CI@ 0046df70     SysStatus.obj
 0002:00011fa4       ??_C@_0BK@GLLPJAAH@Microchip?5Technology?5Inc?4@ 0046dfa4     SysStatus.obj
 0002:00011fc0       ??_C@_0BL@BJMPMCDF@Holtek?5Semiconductor?0?5Inc?4@ 0046dfc0     SysStatus.obj
 0002:00011fdc       ??_C@_0BG@HPBJICLA@Panasonic?5Corporation@ 0046dfdc     SysStatus.obj
 0002:00011ff4       ??_C@_0BC@NGIIFMHF@Sharp?5Corporation@ 0046dff4     SysStatus.obj
 0002:00012008       ??_C@_0O@BINCICOO@Identiv?0?5Inc?4@ 0046e008     SysStatus.obj
 0002:00012018       ??_C@_0BO@CGAOADOO@Samsung?5Electronics?5Co?4?0?5Ltd?4@ 0046e018     SysStatus.obj
 0002:00012038       ??_C@_0BO@EFCPDDGG@Tokyo?5Electron?5Device?5Limited@ 0046e038     SysStatus.obj
 0002:00012058       ??_C@_0BO@DEPAFADD@Chicony?5Electronics?5Co?4?0?5Ltd?4@ 0046e058     SysStatus.obj
 0002:00012078       ??_C@_0BI@JIJDPPMO@Newnex?5Technology?5Corp?4@ 0046e078     SysStatus.obj
 0002:00012090       ??_C@_0BJ@LIIOOGBH@Brother?5Industries?0?5Ltd?4@ 0046e090     SysStatus.obj
 0002:000120ac       ??_C@_0BN@EENPEENP@SUNPLUS?5TECHNOLOGY?5CO?4?0?5LTD?4@ 0046e0ac     SysStatus.obj
 0002:000120cc       ??_C@_0M@LAOEDIBA@PFU?5Limited@ 0046e0cc     SysStatus.obj
 0002:000120d8       ??_C@_0N@HPKDLJPE@Fujikura?1DDK@ 0046e0d8     SysStatus.obj
 0002:000120e8       ??_C@_0L@IBNCPFMK@Acer?0?5Inc?4@ 0046e0e8     SysStatus.obj
 0002:000120f4       ??_C@_0BE@OMIFCFDP@Hosiden?5Corporation@ 0046e0f4     SysStatus.obj
 0002:00012108       ??_C@_0BL@EOOICECH@Belkin?5International?0?5Inc?4@ 0046e108     SysStatus.obj
 0002:00012124       ??_C@_0CG@MHMGALMF@Longwell?5Electronics?1Longwell?5C@ 0046e124     SysStatus.obj
 0002:0001214c       ??_C@_0BI@IEJECICL@Star?5Micronics?5Co?4?0?5LTD@ 0046e14c     SysStatus.obj
 0002:00012164       ??_C@_0BK@CJECLAIC@American?5Power?5Conversion@ 0046e164     SysStatus.obj
 0002:00012180       ??_C@_0BP@MPHIFDML@ACON?0?5Advanced?9Connectek?0?5Inc?4@ 0046e180     SysStatus.obj
 0002:000121a0       ??_C@_0P@JMAENH@Synopsys?0?5Inc?4@ 0046e1a0     SysStatus.obj
 0002:000121b0       ??_C@_0BB@FOPBDEC@Sony?5Corporation@ 0046e1b0     SysStatus.obj
 0002:000121c4       ??_C@_0BF@BLKLAKEJ@Fuji?5Xerox?5Co?4?0?5Ltd?4@ 0046e1c4     SysStatus.obj
 0002:000121dc       ??_C@_0BM@FGPDBDMF@ATEN?5International?5Co?4?5Ltd?4@ 0046e1dc     SysStatus.obj
 0002:000121f8       ??_C@_0BN@LLCBPJLE@Cadence?5Design?5Systems?0?5Inc?4@ 0046e1f8     SysStatus.obj
 0002:00012218       ??_C@_0BA@PCAMLHGM@WACOM?5Co?4?0?5Ltd?4@ 0046e218     SysStatus.obj
 0002:00012228       ??_C@_0BB@OEOLOEBO@EIZO?5Corporation@ 0046e228     SysStatus.obj
 0002:0001223c       ??_C@_0BB@LBOBFJIK@Elecom?5Co?4?0?5Ltd?4@ 0046e23c     SysStatus.obj
 0002:00012250       ??_C@_0BH@BPNCPPJL@Conexant?5Systems?0?5Inc?4@ 0046e250     SysStatus.obj
 0002:00012268       ??_C@_0P@DLENFJNK@Y?9E?5Data?0?5Inc?4@ 0046e268     SysStatus.obj
 0002:00012278       ??_C@_08DBEKGGBP@AVM?5GmbH@ 0046e278     SysStatus.obj
 0002:00012284       ??_C@_0BD@CDPILELF@Roland?5Corporation@ 0046e284     SysStatus.obj
 0002:00012298       ??_C@_0BE@PNCFOBBM@RATOC?5Systems?0?5Inc?4@ 0046e298     SysStatus.obj
 0002:000122ac       ??_C@_0BG@EMPKDOFH@Infineon?5Technologies@ 0046e2ac     SysStatus.obj
 0002:000122c4       ??_C@_0BD@CKEFINHN@Alcor?5Micro?0?5Corp?4@ 0046e2c4     SysStatus.obj
 0002:000122d8       ??_C@_0BC@LGOLJEOJ@OMRON?5Corporation@ 0046e2d8     SysStatus.obj
 0002:000122ec       ??_C@_0BB@GBDDABHO@Bose?5Corporation@ 0046e2ec     SysStatus.obj
 0002:00012300       ??_C@_0BO@PALNNPFJ@OmniVision?5Technologies?0?5Inc?4@ 0046e300     SysStatus.obj
 0002:00012320       ??_C@_05EBJDGKGA@Apple@    0046e320     SysStatus.obj
 0002:00012328       ??_C@_0BH@BEKADALE@Y?4C?4?5Cable?5U?4S?4A?4?0?5Inc@ 0046e328     SysStatus.obj
 0002:00012340       ??_C@_0BF@DJDIGDEG@National?5Instruments@ 0046e340     SysStatus.obj
 0002:00012358       ??_C@_0DH@GPJFFKGK@Tyco?5Electronics?5Corp?4?0?5a?5TE?5Co@ 0046e358     SysStatus.obj
 0002:00012390       ??_C@_0BG@DEENCECE@MegaChips?5Corporation@ 0046e390     SysStatus.obj
 0002:000123a8       ??_C@_0O@JJANANCF@Qualcomm?0?5Inc@ 0046e3a8     SysStatus.obj
 0002:000123b8       ??_C@_0CO@DIDMLNJB@Foxlink?1Cheng?5Uei?5Precision?5Ind@ 0046e3b8     SysStatus.obj
 0002:000123e8       ??_C@_0BD@DNOMCPDN@Ricoh?5Company?5Ltd?4@ 0046e3e8     SysStatus.obj
 0002:000123fc       ??_C@_0BM@OADDMKLB@Microtek?5International?5Inc?4@ 0046e3fc     SysStatus.obj
 0002:00012418       ??_C@_0BH@GAABCJO@Delta?5Electronics?5Inc?4@ 0046e418     SysStatus.obj
 0002:00012430       ??_C@_0BE@JPKFBBCH@Symbol?5Technologies@ 0046e430     SysStatus.obj
 0002:00012444       ??_C@_0BE@CKIEML@Genesys?5Logic?0?5Inc?4@ 0046e444     SysStatus.obj
 0002:00012458       ??_C@_0BI@KBGKOOGJ@Fuji?5Electric?5Co?4?0?5Ltd?4@ 0046e458     SysStatus.obj
 0002:00012470       ??_C@_0BI@NBAANMIA@Unixtar?5Technology?5Inc?4@ 0046e470     SysStatus.obj
 0002:00012488       ??_C@_0O@DHDFMBHC@Datalogic?5srl@ 0046e488     SysStatus.obj
 0002:00012498       ??_C@_0BD@PJDPEADK@LeCroy?5Corporation@ 0046e498     SysStatus.obj
 0002:000124ac       ??_C@_0BP@HAMNADII@Novatek?5Microelectronics?5Corp?4@ 0046e4ac     SysStatus.obj
 0002:000124cc       ??_C@_0BH@LJAJLGJE@SMK?5Manufacturing?5Inc?4@ 0046e4cc     SysStatus.obj
 0002:000124e4       ??_C@_0CE@IBGJKEKA@Joinsoon?5Electronics?5Mfg?4?5Co?4?0?5@ 0046e4e4     SysStatus.obj
 0002:00012508       ??_C@_0CD@BNDJFIFN@TransAct?5Technologies?5Incorpora@ 0046e508     SysStatus.obj
 0002:0001252c       ??_C@_0BH@OFHNPHHH@Seiko?5Instruments?5Inc?4@ 0046e52c     SysStatus.obj
 0002:00012544       ??_C@_0BE@JFDOJFNF@JPC?9MAIN?5SUPER?5Inc?4@ 0046e544     SysStatus.obj
 0002:00012558       ??_C@_0CC@COKBMNFE@Sin?5Sheng?5Terminal?5?$CG?5Machine?5In@ 0046e558     SysStatus.obj
 0002:0001257c       ??_C@_0P@GAMNDPPF@Chrontel?0?5Inc?4@ 0046e57c     SysStatus.obj
 0002:0001258c       ??_C@_0BL@EBDNAMPI@Ji?9Haw?5Industrial?5Co?4?0?5Ltd@ 0046e58c     SysStatus.obj
 0002:000125a8       ??_C@_0BC@HBOMJHJG@Suyin?5Corporation@ 0046e5a8     SysStatus.obj
 0002:000125bc       ??_C@_0BA@BPHBIEFO@WIBU?9Systems?5AG@ 0046e5bc     SysStatus.obj
 0002:000125cc       ??_C@_0BP@BBNBDGIM@Space?5Shuttle?5Hi?9Tech?5Co?4?0Ltd?4@ 0046e5cc     SysStatus.obj
 0002:000125ec       ??_C@_0BL@JPOIGLAH@Glory?5Mark?5Electronic?5Ltd?4@ 0046e5ec     SysStatus.obj
 0002:00012608       ??_C@_0BJ@HLMOOHDB@Tekcon?5Electronics?5Corp?4@ 0046e608     SysStatus.obj
 0002:00012624       ??_C@_0DD@MJJJJEAM@Good?5Way?5Technology?5Co?4?0?5Ltd?4?5?$CG@ 0046e624     SysStatus.obj
 0002:00012658       ??_C@_0CA@PAFBBAIH@TSAY?9E?5?$CIBVI?$CJ?5International?5Inc?4@ 0046e658     SysStatus.obj
 0002:00012678       ??_C@_0BJ@PKNBNCAJ@Hamamatsu?5Photonics?5K?4K?4@ 0046e678     SysStatus.obj
 0002:00012694       ??_C@_0BJ@BPDLABPC@Total?5Technologies?0?5Ltd?4@ 0046e694     SysStatus.obj
 0002:000126b0       ??_C@_0BK@PDKHMLGO@Prolific?5Technology?0?5Inc?4@ 0046e6b0     SysStatus.obj
 0002:000126cc       ??_C@_09JOKCKELG@Dell?5Inc?4@ 0046e6cc     SysStatus.obj
 0002:000126d8       ??_C@_0BM@LFPCEBHN@Golden?5Bridge?5Electech?5Inc?4@ 0046e6d8     SysStatus.obj
 0002:000126f4       ??_C@_0BA@EMAGANPI@Tektronix?0?5Inc?4@ 0046e6f4     SysStatus.obj
 0002:00012704       ??_C@_0BL@NDJHBKAO@Askey?5Computer?5Corporation@ 0046e704     SysStatus.obj
 0002:00012720       ??_C@_0CC@NHGJCBNO@Greatland?5Electronics?5Taiwan?5Lt@ 0046e720     SysStatus.obj
 0002:00012744       ??_C@_0CB@CBCOMILN@Eurofins?5Digital?5Testing?5Belgiu@ 0046e744     SysStatus.obj
 0002:00012768       ??_C@_0BD@MFHNCDAI@Pixela?5Corporation@ 0046e768     SysStatus.obj
 0002:0001277c       ??_C@_0BF@KBMIOCIB@Oki?5Data?5Corporation@ 0046e77c     SysStatus.obj
 0002:00012794       ??_C@_0BC@PBNHDNIB@Leoco?5Corporation@ 0046e794     SysStatus.obj
 0002:000127a8       ??_C@_0BJ@IAMJELKE@Bizlink?5Technology?0?5Inc?4@ 0046e7a8     SysStatus.obj
 0002:000127c4       ??_C@_0L@IGNPDHHH@SIIG?0?5Inc?4@ 0046e7c4     SysStatus.obj
 0002:000127d0       ??_C@_0P@OJHCGLE@Synaptics?5Inc?4@ 0046e7d0     SysStatus.obj
 0002:000127e0       ??_C@_0CA@FPPDHAGC@Mitsubishi?5Electric?5Corporation@ 0046e7e0     SysStatus.obj
 0002:00012800       ??_C@_0BM@BIPBCEJB@Heisei?5Technology?5Co?4?0?5Ltd?4@ 0046e800     SysStatus.obj
 0002:0001281c       ??_C@_0CA@MKILJNBK@Oki?5Electric?5Industry?5Co?4?0?5Ltd?4@ 0046e81c     SysStatus.obj
 0002:0001283c       ??_C@_0BM@JIAGMEHO@Comoss?5Electronic?5Co?4?0?5Ltd?4@ 0046e83c     SysStatus.obj
 0002:00012858       ??_C@_0BP@JCFMJDGG@Magic?5Control?5Technology?5Corp?4@ 0046e858     SysStatus.obj
 0002:00012878       ??_C@_0BI@MKABCAGD@Western?5Digital?0?5G?9Tech@ 0046e878     SysStatus.obj
 0002:00012890       ??_C@_0BA@IFGJOCOG@Sunix?5Co?4?0?5Ltd?4@ 0046e890     SysStatus.obj
 0002:000128a0       ??_C@_0BL@PJBMJABB@Lorom?5Industrial?5Co?4?0?5Ltd?4@ 0046e8a0     SysStatus.obj
 0002:000128bc       ??_C@_0BK@PCICHEDF@Cyber?5Power?5Systems?0?5Inc?4@ 0046e8bc     SysStatus.obj
 0002:000128d8       ??_C@_0BA@FCBANMAL@HID?5Global?5GmbH@ 0046e8d8     SysStatus.obj
 0002:000128e8       ??_C@_0BC@MIMJNFD@Denso?5Corporation@ 0046e8e8     SysStatus.obj
 0002:000128fc       ??_C@_0BH@FFNPBCAI@Griffin?5Technology?5LLC@ 0046e8fc     SysStatus.obj
 0002:00012914       ??_C@_0BJ@MOGNACPM@Western?5Digital?0?5Sandisk@ 0046e914     SysStatus.obj
 0002:00012930       ??_C@_0CB@LGBOFDFN@Copartner?5Technology?5Corporatio@ 0046e930     SysStatus.obj
 0002:00012954       ??_C@_0BL@MPFKAMGD@National?5Technical?5Systems@ 0046e954     SysStatus.obj
 0002:00012970       ??_C@_0O@OCMFCBHB@Plustek?0?5Inc?4@ 0046e970     SysStatus.obj
 0002:00012980       ??_C@_0BE@NJLEDFOB@OLYMPUS?5CORPORATION@ 0046e980     SysStatus.obj
 0002:00012994       ??_C@_0BH@MGBHEDBN@TIME?5Interconnect?5Ltd?4@ 0046e994     SysStatus.obj
 0002:000129ac       ??_C@_0BD@EIIMJKNI@Allied?5Telesis?5Inc@ 0046e9ac     SysStatus.obj
 0002:000129c0       ??_C@_0BN@EGFACLDP@AVerMedia?5Technologies?0?5Inc?4@ 0046e9c0     SysStatus.obj
 0002:000129e0       ??_C@_0BJ@JKHOIPCI@Casio?5Computer?5Co?4?0?5Ltd?4@ 0046e9e0     SysStatus.obj
 0002:000129fc       ??_C@_0CA@BNLONGOH@David?5Electronics?5Company?0?5Ltd?4@ 0046e9fc     SysStatus.obj
 0002:00012a1c       ??_C@_0BE@OPFGKFFJ@Century?5Corporation@ 0046ea1c     SysStatus.obj
 0002:00012a30       ??_C@_0BO@CAINGGKC@Evermuch?5Technology?5Co?4?0?5Ltd?4@ 0046ea30     SysStatus.obj
 0002:00012a50       ??_C@_0CB@HEGJGHPA@Action?5Star?5Technology?5Co?4?0?5Ltd@ 0046ea50     SysStatus.obj
 0002:00012a74       ??_C@_0BF@DELPFPOB@Argosy?5Research?5Inc?4@ 0046ea74     SysStatus.obj
 0002:00012a8c       ??_C@_0O@COHJMHME@Wipro?5Limited@ 0046ea8c     SysStatus.obj
 0002:00012a9c       ??_C@_0BB@FOGENENM@MEC?5IMEX?5INC?9HPT@ 0046ea9c     SysStatus.obj
 0002:00012ab0       ??_C@_0BO@JNLBBKDI@TAI?5TWUN?5ENTERPRISE?5CO?4?0?5LTD?4@ 0046eab0     SysStatus.obj
 0002:00012ad0       ??_C@_0BE@PMKDDGDC@Pioneer?5Corporation@ 0046ead0     SysStatus.obj
 0002:00012ae4       ??_C@_0L@NMFIDNE@Gemalto?5SA@ 0046eae4     SysStatus.obj
 0002:00012af0       ??_C@_0BJ@DEEADHEC@FARADAY?5Technology?5Corp?4@ 0046eaf0     SysStatus.obj
 0002:00012b0c       ??_C@_0BF@DGGIOLK@Audio?9Technica?5Corp?4@ 0046eb0c     SysStatus.obj
 0002:00012b24       ??_C@_0BO@BNPBHCJB@Silicon?5Motion?0?5Inc?4?5?9?5Taiwan@ 0046eb24     SysStatus.obj
 0002:00012b44       ??_C@_0BF@OCKCLCDJ@Garmin?5International@ 0046eb44     SysStatus.obj
 0002:00012b5c       ??_C@_0BE@JMAMIBAH@Toshiba?5Corporation@ 0046eb5c     SysStatus.obj
 0002:00012b70       ??_C@_0BF@FDMCHING@Pixart?5Imaging?0?5Inc?4@ 0046eb70     SysStatus.obj
 0002:00012b88       ??_C@_0M@DPPDGGNF@Plextor?5LLC@ 0046eb88     SysStatus.obj
 0002:00012b94       ??_C@_0BG@PLHGNMC@J?4S?4T?4?5Mfg?4?5Co?4?0?5Ltd?4@ 0046eb94     SysStatus.obj
 0002:00012bac       ??_C@_0BM@LKMMOGNE@Kingston?5Technology?5Company@ 0046ebac     SysStatus.obj
 0002:00012bc8       ??_C@_06HLMMPIBG@NVIDIA@   0046ebc8     SysStatus.obj
 0002:00012bd0       ??_C@_0BH@DIONPOBP@Medialogic?5Corporation@ 0046ebd0     SysStatus.obj
 0002:00012be8       ??_C@_0O@LKCCNLNO@Polycom?0?5Inc?4@ 0046ebe8     SysStatus.obj
 0002:00012bf8       ??_C@_08DJJPOCMK@Apricorn@ 0046ebf8     SysStatus.obj
 0002:00012c04       ??_C@_0BH@NHOGNCFH@Contech?5Research?0?5Inc?4@ 0046ec04     SysStatus.obj
 0002:00012c1c       ??_C@_0CA@NGELPCKK@Lin?5Shiung?5Enterprise?5Co?4?0?5Ltd?4@ 0046ec1c     SysStatus.obj
 0002:00012c3c       ??_C@_0BN@OHPOFJEM@Japan?5Cash?5Machine?5Co?4?0?5Ltd?4@ 0046ec3c     SysStatus.obj
 0002:00012c5c       ??_C@_0L@IJKIJEMN@Tripp?5Lite@ 0046ec5c     SysStatus.obj
 0002:00012c68       ??_C@_0BC@JHLIIJEE@NISCA?5Corporation@ 0046ec68     SysStatus.obj
 0002:00012c7c       ??_C@_0CD@HNEJNPKP@Electronics?5Testing?5Center?0?5Tai@ 0046ec7c     SysStatus.obj
 0002:00012ca0       ??_C@_0BG@LAHNEDCJ@A?9FOUR?5TECH?5CO?4?0?5LTD?4@ 0046eca0     SysStatus.obj
 0002:00012cb8       ??_C@_0BB@HPCCBBBB@HOYA?5Corporation@ 0046ecb8     SysStatus.obj
 0002:00012ccc       ??_C@_0BK@IKEGAKKP@Hirose?5Electric?5Co?4?0?5Ltd?4@ 0046eccc     SysStatus.obj
 0002:00012ce8       ??_C@_0BD@LHJHCFAG@COMPUTEX?5Co?4?0?5Ltd?4@ 0046ece8     SysStatus.obj
 0002:00012cfc       ??_C@_0P@KBOGHGP@Broadcom?5Corp?4@ 0046ecfc     SysStatus.obj
 0002:00012d0c       ??_C@_0BG@IJFMHNNO@Green?5House?5Co?4?0?5Ltd?4@ 0046ed0c     SysStatus.obj
 0002:00012d24       ??_C@_0CP@BLIFGEAH@Japan?5Aviation?5Electronics?5Indu@ 0046ed24     SysStatus.obj
 0002:00012d54       ??_C@_0BO@IKBKKFPF@Rohde?5?$CG?5Schwarz?5GmbH?5?$CG?5Co?4?5KG@ 0046ed54     SysStatus.obj
 0002:00012d74       ??_C@_0BC@MFIELINC@Allion?5Labs?0?5Inc?4@ 0046ed74     SysStatus.obj
 0002:00012d88       ??_C@_0BG@HEOGBEPO@ASUSTek?5Computer?5Inc?4@ 0046ed88     SysStatus.obj
 0002:00012da0       ??_C@_0BO@KKOFHFLP@Yokogawa?5Electric?5Corporation@ 0046eda0     SysStatus.obj
 0002:00012dc0       ??_C@_0BP@IGDJFEE@Pan?9Asia?5Electronics?5Co?4?0?5Ltd?4@ 0046edc0     SysStatus.obj
 0002:00012de0       ??_C@_0BE@IFLMIMNA@Anritsu?5Corporation@ 0046ede0     SysStatus.obj
 0002:00012df4       ??_C@_0BK@DICOBJHO@Maxim?5Integrated?5Products@ 0046edf4     SysStatus.obj
 0002:00012e10       ??_C@_0BN@DBGBIANO@ASIX?5Electronics?5Corporation@ 0046ee10     SysStatus.obj
 0002:00012e30       ??_C@_0O@PGGKPFEM@O2Micro?0?5Inc?4@ 0046ee30     SysStatus.obj
 0002:00012e40       ??_C@_0BP@JGDEFBDO@Murata?5Manufacturing?5Co?4?0?5Ltd?4@ 0046ee40     SysStatus.obj
 0002:00012e60       ??_C@_0BH@PKPGHPEE@Seagate?5Technology?5LLC@ 0046ee60     SysStatus.obj
 0002:00012e78       ??_C@_0BM@OODBLDMG@Realtek?5Semiconductor?5Corp?4@ 0046ee78     SysStatus.obj
 0002:00012e94       ??_C@_0M@PBGCMNLB@Ericsson?5AB@ 0046ee94     SysStatus.obj
 0002:00012ea0       ??_C@_0BI@GAPKJOJF@Elka?5International?5Ltd?4@ 0046eea0     SysStatus.obj
 0002:00012eb8       ??_C@_0BG@BDCJOHPC@Taiyo?5Yuden?5Co?4?0?5Ltd?4@ 0046eeb8     SysStatus.obj
 0002:00012ed0       ??_C@_08EDJBOCE@Aeroflex@  0046eed0     SysStatus.obj
 0002:00012edc       ??_C@_0BB@IPNFABII@Radius?5Co?4?0?5Ltd?4@ 0046eedc     SysStatus.obj
 0002:00012ef0       ??_C@_0BL@IIBBHDLP@Sonix?5Technology?5Co?4?0?5Ltd?4@ 0046eef0     SysStatus.obj
 0002:00012f0c       ??_C@_0CI@NFHHHBFN@Billion?5Bright?5?$CIHK?$CJ?5Corporation@ 0046ef0c     SysStatus.obj
 0002:00012f34       ??_C@_0CA@KMAKLJKD@Dong?5Guan?5Shinko?5Wire?5Co?4?0?5Ltd?4@ 0046ef34     SysStatus.obj
 0002:00012f54       ??_C@_0BH@FHGKBINA@Chant?5Sincere?5Co?4?0?5Ltd@ 0046ef54     SysStatus.obj
 0002:00012f6c       ??_C@_0BN@KANEMGNF@Whanam?5Electronics?5Co?4?0?5Ltd?4@ 0046ef6c     SysStatus.obj
 0002:00012f8c       ??_C@_0BN@PNHCHLDH@Solid?5State?5System?5Co?4?0?5Ltd?4@ 0046ef8c     SysStatus.obj
 0002:00012fac       ??_C@_0BN@KPNGPOOH@Honda?5Tsushin?5Kogyo?5Co?4?0?5Ltd@ 0046efac     SysStatus.obj
 0002:00012fcc       ??_C@_0BO@DKFGFGHA@Singatron?5Enterprise?5Co?4?5Ltd?4@ 0046efcc     SysStatus.obj
 0002:00012fec       ??_C@_0BP@KHNEOKDK@Union?5Genius?5Computer?5Co?4?0?5Ltd@ 0046efec     SysStatus.obj
 0002:0001300c       ??_C@_0BM@NGPEIKDH@emsys?5Embedded?5Systems?5GmbH@ 0046f00c     SysStatus.obj
 0002:00013028       ??_C@_0BF@JMHKNMDG@Amphenol?5Corporation@ 0046f028     SysStatus.obj
 0002:00013040       ??_C@_0BC@ECMAKMHG@Intel?5Corporation@ 0046f040     SysStatus.obj
 0002:00013054       ??_C@_0L@OACAMJJG@Z?9Com?5INC?4@ 0046f054     SysStatus.obj
 0002:00013060       ??_C@_0BM@OOCFEMN@e?9CONN?5ELECTRONIC?5CO?4?0?5LTD?4@ 0046f060     SysStatus.obj
 0002:0001307c       ??_C@_0BE@KPNEJJKA@ENE?5Technology?5Inc?4@ 0046f07c     SysStatus.obj
 0002:00013090       ??_C@_0N@IDKBGBCG@NALTEC?0?5Inc?4@ 0046f090     SysStatus.obj
 0002:000130a0       ??_C@_0P@MAHCGCHE@NF?5Corporation@ 0046f0a0     SysStatus.obj
 0002:000130b0       ??_C@_0BD@KEPOILEK@Grape?5Systems?5Inc?4@ 0046f0b0     SysStatus.obj
 0002:000130c4       ??_C@_0CH@DILBGHLF@MEILU?5ELECTRONICS?5?$CISHENZHEN?$CJ?5CO@ 0046f0c4     SysStatus.obj
 0002:000130ec       ??_C@_0BH@JNDMIFOJ@Hirakawa?5Hewtech?5Corp?4@ 0046f0ec     SysStatus.obj
 0002:00013104       ??_C@_0CF@DEKDBPDL@Taiwan?5Line?5Tek?5Electronic?5Co?4?0@ 0046f104     SysStatus.obj
 0002:0001312c       ??_C@_0BJ@ICKBMN@C?9MEDIA?5ELECTRONICS?5INC?4@ 0046f12c     SysStatus.obj
 0002:00013148       ??_C@_0CB@CBEHKKIA@Sure?9Fire?5Electrical?5Corporatio@ 0046f148     SysStatus.obj
 0002:0001316c       ??_C@_0BC@MANDAFLC@Sanwa?5Supply?5Inc?4@ 0046f16c     SysStatus.obj
 0002:00013180       ??_C@_0N@BBFDLJEL@IOGEAR?0?5Inc?4@ 0046f180     SysStatus.obj
 0002:00013190       ??_C@_0CD@LDGCJJON@Micro?9Star?5International?5Co?4?0?5L@ 0046f190     SysStatus.obj
 0002:000131b4       ??_C@_0BI@PGMKHMFI@Knowles?5Electronics?5LLC@ 0046f1b4     SysStatus.obj
 0002:000131cc       ??_C@_0BN@MEJNGPFO@Contek?5Electronics?5Co?4?0?5Ltd?4@ 0046f1cc     SysStatus.obj
 0002:000131ec       ??_C@_0BH@JAOPMIJP@Custom?5Engineering?5SPA@ 0046f1ec     SysStatus.obj
 0002:00013204       ??_C@_0CB@BNIAIBOP@Smart?5Modular?5Technologies?0?5Inc@ 0046f204     SysStatus.obj
 0002:00013228       ??_C@_0BN@DKLMDFEK@Neltron?5Industrial?5Co?4?0?5Ltd?4@ 0046f228     SysStatus.obj
 0002:00013248       ??_C@_0BN@PNJNPPHF@Megawin?5Technology?5Co?4?0?5Ltd?4@ 0046f248     SysStatus.obj
 0002:00013268       ??_C@_0BP@FIEIALAE@Hsi?9Chin?5Electronics?5Co?4?0?5Ltd?4@ 0046f268     SysStatus.obj
 0002:00013288       ??_C@_0O@DBHJNIK@MediaTek?5Inc?4@ 0046f288     SysStatus.obj
 0002:00013298       ??_C@_03PPOOIEPP@CRU@      0046f298     SysStatus.obj
 0002:0001329c       ??_C@_0BF@LFNPLID@Ours?5Technology?5Inc?4@ 0046f29c     SysStatus.obj
 0002:000132b4       ??_C@_0BG@MFMAEIPG@MSL?5Enterprises?5Corp?4@ 0046f2b4     SysStatus.obj
 0002:000132cc       ??_C@_0BJ@FFOINCNP@Y?9S?5ELECTRONIC?5CO?4?0?5LTD?4@ 0046f2cc     SysStatus.obj
 0002:000132e8       ??_C@_0BJ@EEJFEJAC@Sweetray?5Industrial?5Ltd?4@ 0046f2e8     SysStatus.obj
 0002:00013304       ??_C@_0BC@NLMJJEGP@Axell?5Corporation@ 0046f304     SysStatus.obj
 0002:00013318       ??_C@_0BO@HGLIFDP@InnoVISION?5Multimedia?5Limited@ 0046f318     SysStatus.obj
 0002:00013338       ??_C@_0BN@LAJGACMM@TaiSol?5Electronics?5Co?4?0?5Ltd?4@ 0046f338     SysStatus.obj
 0002:00013358       ??_C@_0BP@OLFMJOLO@Sunrich?5Technology?5?$CIH?4K?4?$CJ?5Ltd?4@ 0046f358     SysStatus.obj
 0002:00013378       ??_C@_0CE@LHKAEIDJ@CSL?5Wire?5?$CG?5Plug?5?$CIShen?5Zhen?$CJ?5Com@ 0046f378     SysStatus.obj
 0002:0001339c       ??_C@_0BJ@BFCEICOB@Funai?5Electric?5Co?4?0?5Ltd?4@ 0046f39c     SysStatus.obj
 0002:000133b8       ??_C@_0BL@JNIPFKPA@IOI?5Technology?5Corporation@ 0046f3b8     SysStatus.obj
 0002:000133d4       ??_C@_0CA@JKBEBDIB@YFC?9BonEagle?5Electric?5Co?4?0?5Ltd?4@ 0046f3d4     SysStatus.obj
 0002:000133f4       ??_C@_0BJ@KJGCCIGG@Nien?9Yi?5Industrial?5Corp?4@ 0046f3f4     SysStatus.obj
 0002:00013410       ??_C@_0BL@PCHAGLHO@WORLDWIDE?5CABLE?5OPTO?5CORP?4@ 0046f410     SysStatus.obj
 0002:0001342c       ??_C@_0CA@JJBCDJBC@Taiyo?5Cable?5?$CIDongguan?$CJ?5Co?4?5Ltd?4@ 0046f42c     SysStatus.obj
 0002:0001344c       ??_C@_0CJ@GLJCMOOM@Kawai?5Musical?5Instruments?5Mfg?4?5@ 0046f44c     SysStatus.obj
 0002:00013478       ??_C@_0N@CHAEBCC@UQUEST?0?5LTD?4@ 0046f478     SysStatus.obj
 0002:00013488       ??_C@_0BD@NPCAKEK@CviLux?5Corporation@ 0046f488     SysStatus.obj
 0002:0001349c       ??_C@_0BL@OGPLHBON@Sony?5Mobile?5Communications@ 0046f49c     SysStatus.obj
 0002:000134b8       ??_C@_0CJ@MNOHKIGC@CHI?5SHING?5COMPUTER?5ACCESSORIES?5@ 0046f4b8     SysStatus.obj
 0002:000134e4       ??_C@_0BB@FNNKEBO@Speed?5Tech?5Corp?4@ 0046f4e4     SysStatus.obj
 0002:000134f8       ??_C@_0BE@PPCAGGEP@LG?5Electronics?5Inc?4@ 0046f4f8     SysStatus.obj
 0002:0001350c       ??_C@_0BH@NLKKALNF@Apacer?5Technology?5Inc?4@ 0046f50c     SysStatus.obj
 0002:00013524       ??_C@_0BJ@PLIKKMJN@Targus?5International?5LLC@ 0046f524     SysStatus.obj
 0002:00013540       ??_C@_0BM@NOLLDIAK@AMCO?5TEC?5International?5Inc?4@ 0046f540     SysStatus.obj
 0002:0001355c       ??_C@_0BB@MCAPDOMI@ON?5Semiconductor@ 0046f55c     SysStatus.obj
 0002:00013570       ??_C@_0BJ@POPFAELO@Western?5Digital?0?5Branded@ 0046f570     SysStatus.obj
 0002:0001358c       ??_C@_0BH@GGINDOFM@CANON?5ELECTRONICS?5INC?4@ 0046f58c     SysStatus.obj
 0002:000135a4       ??_C@_0BP@HEECLKMJ@Grand?9tek?5Technology?5Co?4?0?5Ltd?4@ 0046f5a4     SysStatus.obj
 0002:000135c4       ??_C@_0BC@MMEHCLPH@Robert?5Bosch?5GmbH@ 0046f5c4     SysStatus.obj
 0002:000135d8       ??_C@_0BA@JBGEKCBJ@Lotes?5Co?4?0?5Ltd?4@ 0046f5d8     SysStatus.obj
 0002:000135e8       ??_C@_0N@MADBCNBC@Cables?5To?5Go@ 0046f5e8     SysStatus.obj
 0002:000135f8       ??_C@_0DB@OABIDDLN@Universal?5Global?5Scientific?5Ind@ 0046f5f8     SysStatus.obj
 0002:0001362c       ??_C@_0BL@BEPCHFBK@Silicon?5Laboratories?0?5Inc?4@ 0046f62c     SysStatus.obj
 0002:00013648       ??_C@_0L@BEMBIFEP@Kycon?5Inc?4@ 0046f648     SysStatus.obj
 0002:00013654       ??_C@_09GOLPFLPD@Moxa?5Inc?4@ 0046f654     SysStatus.obj
 0002:00013660       ??_C@_0DF@NDHMOMGK@Golden?5Bright?5?$CISichuan?$CJ?5Electro@ 0046f660     SysStatus.obj
 0002:00013698       ??_C@_0BK@DEMMBJPB@VSO?5ELECTRONICS?5CO?4?0?5LTD?4@ 0046f698     SysStatus.obj
 0002:000136b4       ??_C@_0CO@HLACDLIC@Master?5Hill?5Electric?5Wire?5and?5C@ 0046f6b4     SysStatus.obj
 0002:000136e4       ??_C@_0BG@BALKNAEF@Santa?5Electronic?5Inc?4@ 0046f6e4     SysStatus.obj
 0002:000136fc       ??_C@_0BF@FDIEEFFD@Sierra?5Wireless?5Inc?4@ 0046f6fc     SysStatus.obj
 0002:00013714       ??_C@_0BH@LNLMLHPJ@GlobalMedia?5Group?0?5LLC@ 0046f714     SysStatus.obj
 0002:0001372c       ??_C@_0BH@HFAICOFB@ATECH?5FLASH?5TECHNOLOGY@ 0046f72c     SysStatus.obj
 0002:00013744       ??_C@_0BO@MNCEAPFD@SKYCABLE?5ENTERPRISE?5CO?4?0?5LTD?4@ 0046f744     SysStatus.obj
 0002:00013764       ??_C@_0BL@FCGNNKPJ@ADATA?5Technology?5Co?4?0?5Ltd?4@ 0046f764     SysStatus.obj
 0002:00013780       ??_C@_0BI@BANJHMOB@Aristocrat?5Technologies@ 0046f780     SysStatus.obj
 0002:00013798       ??_C@_0BM@FDHCJPEM@MARVELL?5SEMICONDUCTOR?0?5INC?4@ 0046f798     SysStatus.obj
 0002:000137b4       ??_C@_0BC@CDINJBKA@RISO?5KAGAKU?5CORP?4@ 0046f7b4     SysStatus.obj
 0002:000137c8       ??_C@_0CP@OPCIAOPO@Zhejiang?5Xinya?5Electronic?5Techn@ 0046f7c8     SysStatus.obj
 0002:000137f8       ??_C@_0BO@PCALMJMN@Huawei?5Technologies?5Co?4?0?5Ltd?4@ 0046f7f8     SysStatus.obj
 0002:00013818       ??_C@_0BF@FPEFMCEM@Konica?5Minolta?0?5Inc?4@ 0046f818     SysStatus.obj
 0002:00013830       ??_C@_0BH@IGGHMHJA@Jasco?5Products?5Company@ 0046f830     SysStatus.obj
 0002:00013848       ??_C@_0M@IPAHGEJP@Swissbit?5AG@ 0046f848     SysStatus.obj
 0002:00013854       ??_C@_0BE@OCMGADHD@Diodes?5Incorporated@ 0046f854     SysStatus.obj
 0002:00013868       ??_C@_0BK@LJKDAPJK@TomTom?5International?5B?4V?4@ 0046f868     SysStatus.obj
 0002:00013884       ??_C@_0BN@BNPLLCII@AzureWave?5Technologies?0?5Inc?4@ 0046f884     SysStatus.obj
 0002:000138a4       ??_C@_0CA@JADJMDJN@Initio?5?$CIHK?$CJ?5Corporation?5Limited@ 0046f8a4     SysStatus.obj
 0002:000138c4       ??_C@_0BJ@PODMPDKE@Phison?5Electronics?5Corp?4@ 0046f8c4     SysStatus.obj
 0002:000138e0       ??_C@_0BA@EBAJJPHC@Telechips?0?5Inc?4@ 0046f8e0     SysStatus.obj
 0002:000138f0       ??_C@_0BN@KECIKNAF@ABILITY?5ENTERPRISE?5CO?4?0?5LTD?4@ 0046f8f0     SysStatus.obj
 0002:00013910       ??_C@_0BH@BDFMJCOJ@Panstrong?5Company?5Ltd?4@ 0046f910     SysStatus.obj
 0002:00013928       ??_C@_0BA@GIDLPKMM@CTK?5Corporation@ 0046f928     SysStatus.obj
 0002:00013938       ??_C@_0BC@LNFIEHCE@StarTech?4com?5Ltd?4@ 0046f938     SysStatus.obj
 0002:0001394c       ??_C@_07HKBKGGAL@Ellisys@  0046f94c     SysStatus.obj
 0002:00013954       ??_C@_0BJ@NNBEAIKI@JMicron?5Technology?5Corp?4@ 0046f954     SysStatus.obj
 0002:00013970       ??_C@_0CF@KFFNHPKK@HLDS?5?$CIHitachi?9LG?5Data?5Storage?0?5@ 0046f970     SysStatus.obj
 0002:00013998       ??_C@_0BN@PJAMMHJM@Phihong?5Technology?5Co?4?0?5Ltd?4@ 0046f998     SysStatus.obj
 0002:000139b8       ??_C@_0BG@FDFFBPKH@PNY?5Technologies?5Inc?4@ 0046f9b8     SysStatus.obj
 0002:000139d0       ??_C@_0CI@PJGLCGBH@Rapid?5Conn?0?5Connect?5County?5Hold@ 0046f9d0     SysStatus.obj
 0002:000139f8       ??_C@_0BF@KCLHJFIN@D?5?$CG?5M?5Holdings?0?5Inc?4@ 0046f9f8     SysStatus.obj
 0002:00013a10       ??_C@_0CJ@BMNNADLC@Sunf?5Pu?5Technology?5?$CIDong?9Guan?$CJ?5@ 0046fa10     SysStatus.obj
 0002:00013a3c       ??_C@_0BM@PJFBNPPK@ALLTOP?5TECHNOLOGY?5CO?4?0?5LTD?4@ 0046fa3c     SysStatus.obj
 0002:00013a58       ??_C@_0BN@MGGPMLNL@Palconn?5Technology?5Co?4?0?5Ltd?4@ 0046fa58     SysStatus.obj
 0002:00013a78       ??_C@_0CG@PMMBMBA@GuangDong?5Ya?5Lian?5Technology?5Co@ 0046fa78     SysStatus.obj
 0002:00013aa0       ??_C@_06DGDFLKMM@Samtec@   0046faa0     SysStatus.obj
 0002:00013aa8       ??_C@_0DB@PHGPMLJG@Dezhou?5HongJu?5Communication?5Tec@ 0046faa8     SysStatus.obj
 0002:00013adc       ??_C@_0M@OMFDOLIG@Total?5Phase@ 0046fadc     SysStatus.obj
 0002:00013ae8       ??_C@_0BB@PACCMCDL@ZOOM?5Corporation@ 0046fae8     SysStatus.obj
 0002:00013afc       ??_C@_0CK@GHEMOGNO@Dongguan?5ChingLung?5Wire?5?$CG?5Cable@ 0046fafc     SysStatus.obj
 0002:00013b28       ??_C@_0BH@EKGKEMKL@silex?5technology?0?5Inc?4@ 0046fb28     SysStatus.obj
 0002:00013b40       ??_C@_0BI@FOKIOAF@F?4?5Hoffmann?9La?5Roche?5AG@ 0046fb40     SysStatus.obj
 0002:00013b58       ??_C@_0BF@BACBMICM@MQP?5Electronics?5Ltd?4@ 0046fb58     SysStatus.obj
 0002:00013b70       ??_C@_0BI@EFCFBFPB@ASMedia?5Technology?5Inc?4@ 0046fb70     SysStatus.obj
 0002:00013b88       ??_C@_09CIDMGMMG@Lantronix@ 0046fb88     SysStatus.obj
 0002:00013b94       ??_C@_0BE@LLHADAIP@UD?5electronic?5corp?4@ 0046fb94     SysStatus.obj
 0002:00013ba8       ??_C@_0CC@KBPLCNPO@Shenzhen?5Alex?5Connector?5Co?4?0?5Lt@ 0046fba8     SysStatus.obj
 0002:00013bcc       ??_C@_0BN@MGLGHCII@System?5Level?5Solutions?0?5Inc?4@ 0046fbcc     SysStatus.obj
 0002:00013bec       ??_C@_0BN@HBGELLHJ@Spreadtrum?5Hong?5Kong?5Limited@ 0046fbec     SysStatus.obj
 0002:00013c0c       ??_C@_0CH@GLPFKNO@ShenZhen?5Litkconn?5Technology?5Co@ 0046fc0c     SysStatus.obj
 0002:00013c34       ??_C@_0CE@FMNDGFCO@Advanced?5Connection?5Technology?5@ 0046fc34     SysStatus.obj
 0002:00013c58       ??_C@_0DI@DPFEGAEM@Dongguan?5Yangming?5Precision?5of?5@ 0046fc58     SysStatus.obj
 0002:00013c90       ??_C@_0BG@PLILAAEO@DisplayLink?5?$CIUK?$CJ?5Ltd?4@ 0046fc90     SysStatus.obj
 0002:00013ca8       ??_C@_06EOFPOMJG@Lenovo@   0046fca8     SysStatus.obj
 0002:00013cb0       ??_C@_0L@IGMLMAAK@K?4K?4?5Rocky@ 0046fcb0     SysStatus.obj
 0002:00013cbc       ??_C@_0BN@EHODKKAD@Wanshih?5Electronic?5Co?4?0?5Ltd?4@ 0046fcbc     SysStatus.obj
 0002:00013cdc       ??_C@_0CF@KAKIFJIN@Dongguan?5YuQiu?5Electronics?5Co?4?0@ 0046fcdc     SysStatus.obj
 0002:00013d04       ??_C@_0BO@DPMJHMBK@Gwo?5Jinn?5Industries?5Co?4?0?5Ltd?4@ 0046fd04     SysStatus.obj
 0002:00013d24       ??_C@_0M@INPJKDFM@Google?5Inc?4@ 0046fd24     SysStatus.obj
 0002:00013d30       ??_C@_0CI@NCCLCDI@Kuang?5Ying?5Computer?5Equipment?5C@ 0046fd30     SysStatus.obj
 0002:00013d58       ??_C@_0BJ@FNMFPLIK@Nordic?5Semiconductor?5ASA@ 0046fd58     SysStatus.obj
 0002:00013d74       ??_C@_0BL@HIOJCDGJ@Power?57?5Technologies?5Corp?4@ 0046fd74     SysStatus.obj
 0002:00013d90       ??_C@_0CF@NLNPHLHC@Shenzhen?5Xianhe?5Technology?5Co?4?0@ 0046fd90     SysStatus.obj
 0002:00013db8       ??_C@_0CJ@FJMLIAEB@Ningbo?5Broad?5Telecommunication?5@ 0046fdb8     SysStatus.obj
 0002:00013de4       ??_C@_0BB@PCAKKDFD@Irisguard?5UK?5Ltd@ 0046fde4     SysStatus.obj
 0002:00013df8       ??_C@_06CHAGPIBB@Lab126@   0046fdf8     SysStatus.obj
 0002:00013e00       ??_C@_0BA@FPFCCPOD@Hyperstone?5GmbH@ 0046fe00     SysStatus.obj
 0002:00013e10       ??_C@_0BB@PPNLBENA@BIOS?5Corporation@ 0046fe10     SysStatus.obj
 0002:00013e24       ??_C@_0O@ICKPBEAD@Dexxon?5Groupe@ 0046fe24     SysStatus.obj
 0002:00013e34       ??_C@_0CJ@GONBANIC@Pak?5Heng?5Technology?5?$CIShenzhen?$CJ?5@ 0046fe34     SysStatus.obj
 0002:00013e60       ??_C@_0BE@PPEHNAPN@Best?5Buy?5China?5Ltd?4@ 0046fe60     SysStatus.obj
 0002:00013e74       ??_C@_0CF@CPPPDBKP@Polymax?5Precision?5Industry?5Co?4?0@ 0046fe74     SysStatus.obj
 0002:00013e9c       ??_C@_0BE@BIONMJOM@USB?9IF?5non?9workshop@ 0046fe9c     SysStatus.obj
 0002:00013eb0       ??_C@_0BK@PJBAGNMH@Artesyn?5Technologies?5Inc?4@ 0046feb0     SysStatus.obj
 0002:00013ecc       ??_C@_0BJ@KAKHDDLA@TERMINUS?5TECHNOLOGY?5INC?4@ 0046fecc     SysStatus.obj
 0002:00013ee8       ??_C@_0BN@GMHKDAOP@Proconn?5Technology?5Co?4?0?5Ltd?4@ 0046fee8     SysStatus.obj
 0002:00013f08       ??_C@_0BH@HJFKHBGL@Simula?5Technology?5Inc?4@ 0046ff08     SysStatus.obj
 0002:00013f20       ??_C@_0BA@KBMPMKDN@SGS?5Taiwan?5Ltd?4@ 0046ff20     SysStatus.obj
 0002:00013f30       ??_C@_0CH@LANMGAIF@Harman?5Becker?5Automotive?5System@ 0046ff30     SysStatus.obj
 0002:00013f58       ??_C@_0CJ@EENODCNA@Johnson?5Component?5?$CG?5Equipments?5@ 0046ff58     SysStatus.obj
 0002:00013f84       ??_C@_0CA@KDBDJMKB@Allied?5Vision?5Technologies?5GmbH@ 0046ff84     SysStatus.obj
 0002:00013fa4       ??_C@_0M@BNPJBJHO@Salcomp?5Plc@ 0046ffa4     SysStatus.obj
 0002:00013fb0       ??_C@_0CI@ENEIOO@High?5Top?5Precision?5Electronic?5C@ 0046ffb0     SysStatus.obj
 0002:00013fd8       ??_C@_0BI@BAHHJBOM@Octekconn?5Incorporation@ 0046ffd8     SysStatus.obj
 0002:00013ff0       ??_C@_0BK@FLEFAHEK@MStar?5Semiconductor?0?5Inc?4@ 0046fff0     SysStatus.obj
 0002:0001400c       ??_C@_0BN@ODKKJGBD@Plastron?5Precision?5Co?4?0?5Ltd?4@ 0047000c     SysStatus.obj
 0002:0001402c       ??_C@_0DA@EOOOBNLE@The?5Hong?5Kong?5Standards?5and?5Tes@ 0047002c     SysStatus.obj
 0002:0001405c       ??_C@_0CI@GNFBMNPP@ShenMing?5Electron?5?$CIDong?5Guan?$CJ?5C@ 0047005c     SysStatus.obj
 0002:00014084       ??_C@_0O@IPLHGMF@Amlogic?0?5Inc?4@ 00470084     SysStatus.obj
 0002:00014094       ??_C@_0BC@CCKODFFJ@Vuzix?5Corporation@ 00470094     SysStatus.obj
 0002:000140a8       ??_C@_0P@JGHIOJAI@Ford?5Motor?5Co?4@ 004700a8     SysStatus.obj
 0002:000140b8       ??_C@_0CA@FCJOHAEE@Contac?5Cable?5Industrial?5Limited@ 004700b8     SysStatus.obj
 0002:000140d8       ??_C@_0CD@HFOIMFJ@Sunplus?5Innovation?5Technology?5I@ 004700d8     SysStatus.obj
 0002:000140fc       ??_C@_0BH@DGGINAPB@P?9TWO?5INDUSTRIES?0?5INC?4@ 004700fc     SysStatus.obj
 0002:00014114       ??_C@_0CH@KIMIGBPK@Orient?5Semiconductor?5Electronic@ 00470114     SysStatus.obj
 0002:0001413c       ??_C@_0CC@GEFGPOJP@SHENZHEN?5DNS?5INDUSTRIES?5CO?4?0?5LT@ 0047013c     SysStatus.obj
 0002:00014160       ??_C@_0O@DNDLJCDA@LS?5Mtron?5Ltd?4@ 00470160     SysStatus.obj
 0002:00014170       ??_C@_0DA@PPLCBMMB@Philips?5?$CG?5Lite?9ON?5Digital?5Solut@ 00470170     SysStatus.obj
 0002:000141a0       ??_C@_0BL@NCJEDCIM@ASTRON?5INTERNATIONAL?5CORP?4@ 004701a0     SysStatus.obj
 0002:000141bc       ??_C@_0BJ@GEGPHPDK@ALPINE?5ELECTRONICS?0?5INC?4@ 004701bc     SysStatus.obj
 0002:000141d8       ??_C@_0BL@CHCFPHFA@Aces?5Electronics?5Co?4?0?5Ltd?4@ 004701d8     SysStatus.obj
 0002:000141f4       ??_C@_0BB@EIGDHDFJ@OPEX?5CORPORATION@ 004701f4     SysStatus.obj
 0002:00014208       ??_C@_0DA@BKKOBFJG@Telecommunications?5Technology?5A@ 00470208     SysStatus.obj
 0002:00014238       ??_C@_0BE@EEOPBIIG@Visteon?5Corporation@ 00470238     SysStatus.obj
 0002:0001424c       ??_C@_0CA@GDMPIAIK@Horng?5Tong?5Enterprise?5Co?4?0?5Ltd?4@ 0047024c     SysStatus.obj
 0002:0001426c       ??_C@_0BF@EEHMEIJP@Pegatron?5Corporation@ 0047026c     SysStatus.obj
 0002:00014284       ??_C@_0BC@HAMMCKPN@Fresco?5Logic?5Inc?4@ 00470284     SysStatus.obj
 0002:00014298       ??_C@_0BL@NKBOOFNF@Walta?5Electronic?5Co?4?0?5Ltd?4@ 00470298     SysStatus.obj
 0002:000142b4       ??_C@_0DE@IMGLKMI@Yueqing?5Changling?5Electronic?5In@ 004702b4     SysStatus.obj
 0002:000142e8       ??_C@_0BK@FNCNBIIF@Parade?5Technologies?0?5Inc?4@ 004702e8     SysStatus.obj
 0002:00014304       ??_C@_0CD@BBLGIHKL@Actions?5Microelectronics?5Co?4?0?5L@ 00470304     SysStatus.obj
 0002:00014328       ??_C@_0DE@JOHIKOGB@China?5Telecommunication?5Technol@ 00470328     SysStatus.obj
 0002:0001435c       ??_C@_0CO@IHINPAOL@SHEN?5ZHEN?5FORMAN?5PRECISION?5INDU@ 0047035c     SysStatus.obj
 0002:0001438c       ??_C@_0CC@DBPMBKKE@FLIR?5Integrated?5Imaging?5Solutio@ 0047038c     SysStatus.obj
 0002:000143b0       ??_C@_0CB@BKOLJNN@HUNG?5TA?5H?4T?4ENTERPRISE?5CO?4?0?5LTD@ 004703b0     SysStatus.obj
 0002:000143d4       ??_C@_0BH@JAAJJDAF@Etron?5Technology?0?5Inc?4@ 004703d4     SysStatus.obj
 0002:000143ec       ??_C@_0BO@OPAJPFGF@COMLINK?5ELECTRONICS?5CO?4?0?5LTD?4@ 004703ec     SysStatus.obj
 0002:0001440c       ??_C@_0CH@JAHIBMAB@HIBEST?5Electronic?5?$CIDongGuan?$CJ?5Co@ 0047040c     SysStatus.obj
 0002:00014434       ??_C@_0BG@EHNBGDFF@Other?5World?5Computing@ 00470434     SysStatus.obj
 0002:0001444c       ??_C@_0CH@IFPLLPOK@WIN?5WIN?5PRECISION?5INDUSTRIAL?5CO@ 0047044c     SysStatus.obj
 0002:00014474       ??_C@_0L@PIBOCPGJ@Gefen?5Inc?4@ 00470474     SysStatus.obj
 0002:00014480       ??_C@_0BJ@IADLJBAM@MOSER?5BAER?5INDIA?5LIMITED@ 00470480     SysStatus.obj
 0002:0001449c       ??_C@_0DA@BPEFDKAJ@SHENZHEN?5EVERWIN?5PRECISION?5TECH@ 0047049c     SysStatus.obj
 0002:000144cc       ??_C@_0CD@IALAEKLI@JIANGXI?5SHIP?5ELECTRONICS?5CO?4?0?5L@ 004704cc     SysStatus.obj
 0002:000144f0       ??_C@_0BD@DEFAOMGF@Scosche?5Industries@ 004704f0     SysStatus.obj
 0002:00014504       ??_C@_0BN@COMGKDHO@Analogix?5Semiconductor?0?5Inc?4@ 00470504     SysStatus.obj
 0002:00014524       ??_C@_0CE@MEDMJIF@Chang?5Yang?5Electronics?5Company?5@ 00470524     SysStatus.obj
 0002:00014548       ??_C@_0BD@GGCBPHPK@Innostor?5Co?4?0?5Ltd?4@ 00470548     SysStatus.obj
 0002:0001455c       ??_C@_0DC@HMMGMJCB@Dongguan?5Goldconn?5Precision?5Ele@ 0047055c     SysStatus.obj
 0002:00014590       ??_C@_0CC@LPIGCLDE@Morning?5Star?5Industrial?5Co?4?0?5Lt@ 00470590     SysStatus.obj
 0002:000145b4       ??_C@_0CL@FAEGJHDE@Unify?5Software?5and?5Solutions?5Gm@ 004705b4     SysStatus.obj
 0002:000145e0       ??_C@_0BD@GMPBKEIC@NXP?5Semiconductors@ 004705e0     SysStatus.obj
 0002:000145f4       ??_C@_0DB@KONADFN@Changzhou?5Wujin?5BEST?5Electronic@ 004705f4     SysStatus.obj
 0002:00014628       ??_C@_0CI@GOBPPKNF@Belkin?5Electronic?5?$CIChangzhou?$CJ?5C@ 00470628     SysStatus.obj
 0002:00014650       ??_C@_0CF@DHGBCKNB@Freeport?5Resources?5Enterprises?5@ 00470650     SysStatus.obj
 0002:00014678       ??_C@_0CI@FBHBCILE@Shenzhen?5Tronixin?5Electronics?5C@ 00470678     SysStatus.obj
 0002:000146a0       ??_C@_0CJ@OEPJLPBL@Unicorn?5Electronics?5Components?5@ 004706a0     SysStatus.obj
 0002:000146cc       ??_C@_0BK@DJALMDKA@CESI?5Technology?5Co?4?0?5Ltd?4@ 004706cc     SysStatus.obj
 0002:000146e8       ??_C@_0N@JJLIGBFN@Luxshare?9ICT@ 004706e8     SysStatus.obj
 0002:000146f8       ??_C@_0BA@CFCNDLPN@CE?5LINK?5LIMITED@ 004706f8     SysStatus.obj
 0002:00014708       ??_C@_0DI@DDLAAOCL@Shenzhen?5Microconn?5Investment?5a@ 00470708     SysStatus.obj
 0002:00014740       ??_C@_0BD@HMKPCFOM@BURY?5GmbH?5?$CG?5Co?4?5KG@ 00470740     SysStatus.obj
 0002:00014754       ??_C@_0BK@EIBNNPGD@FENGHUA?5KINGSUN?5CO?4?0?5LTD?4@ 00470754     SysStatus.obj
 0002:00014770       ??_C@_0DE@EMOPPBDG@Sumitomo?5Electric?5Ind?4?0?5Ltd?4?0?5O@ 00470770     SysStatus.obj
 0002:000147a4       ??_C@_0N@DAENHNHN@XIMEA?5s?4r?4o?4@ 004707a4     SysStatus.obj
 0002:000147b4       ??_C@_08ILFGDKBA@Tobii?5AB@ 004707b4     SysStatus.obj
 0002:000147c0       ??_C@_0P@GBIKBMAL@VIA?5Labs?0?5Inc?4@ 004707c0     SysStatus.obj
 0002:000147d0       ??_C@_0CG@KNEFPAOB@Dongguan?5Linoya?5Wire?5?$CG?5Cable?5Co@ 004707d0     SysStatus.obj
 0002:000147f8       ??_C@_0CJ@CNOJBLBI@Amphenol?5AssembleTech?5?$CIXiamen?$CJ?5@ 004707f8     SysStatus.obj
 0002:00014824       ??_C@_0BD@LDDEGFID@Y?5Soft?5Corporation@ 00470824     SysStatus.obj
 0002:00014838       ??_C@_0BI@FBCKNBLM@JVC?5KENWOOD?5Corporation@ 00470838     SysStatus.obj
 0002:00014850       ??_C@_0DA@NEMALCAO@Zhejiang?5Fousine?5Science?5?$CG?5Tech@ 00470850     SysStatus.obj
 0002:00014880       ??_C@_0BM@BKHGEKPK@Transcend?5Information?0?5Inc?4@ 00470880     SysStatus.obj
 0002:0001489c       ??_C@_0BN@GLPIEJCM@Genesis?5Technology?5USA?0?5Inc?4@ 0047089c     SysStatus.obj
 0002:000148bc       ??_C@_0BP@DKOMKBKO@GE?5Intelligent?5Platforms?0?5GmbH@ 004708bc     SysStatus.obj
 0002:000148dc       ??_C@_0DB@LAFBKCJH@Dongguan?5Teconn?5Electronics?5Tec@ 004708dc     SysStatus.obj
 0002:00014910       ??_C@_0CD@JOBONOAA@Longsys?5Electronics?5?$CIHK?$CJ?5Co?4?0?5L@ 00470910     SysStatus.obj
 0002:00014934       ??_C@_0BP@FAJGPKNC@Compupack?5Technology?5Co?4?0?5Ltd?4@ 00470934     SysStatus.obj
 0002:00014954       ??_C@_0BL@DBHKFLNC@G?9Max?5Technology?5Co?4?0?5Ltd?4@ 00470954     SysStatus.obj
 0002:00014970       ??_C@_0BH@EPJIBNCE@Sagemcom?5Broadband?5SAS@ 00470970     SysStatus.obj
 0002:00014988       ??_C@_0CG@OHNMOHEM@Wuerth?9Elektronik?5eiSos?5GmbH?5?$CG?5@ 00470988     SysStatus.obj
 0002:000149b0       ??_C@_0BE@BEMCGCHG@Shin?5Shin?5Co?4?0?5Ltd?4@ 004709b0     SysStatus.obj
 0002:000149c4       ??_C@_0CB@CHMCCAAM@3eYamaichi?5Electronics?5Co?4?0?5Ltd@ 004709c4     SysStatus.obj
 0002:000149e8       ??_C@_0CG@NEPAELKJ@Wiretek?5International?5Investmen@ 004709e8     SysStatus.obj
 0002:00014a10       ??_C@_0CG@JPBOIAIN@Fuzhou?5Rockchip?5Electronics?5Co?4@ 00470a10     SysStatus.obj
 0002:00014a38       ??_C@_0BG@FFGBANPN@Plugable?5Technologies@ 00470a38     SysStatus.obj
 0002:00014a50       ??_C@_0BN@DJPOBBOH@T?9CONN?5PRECISION?5CORPORATION@ 00470a50     SysStatus.obj
 0002:00014a70       ??_C@_0BD@PEIOBOIA@Granite?5River?5Labs@ 00470a70     SysStatus.obj
 0002:00014a84       ??_C@_0CK@CALPCKLP@Shenzhen?5Oversea?5Win?5Technology@ 00470a84     SysStatus.obj
 0002:00014ab0       ??_C@_0CH@JIBHMNOD@Hotron?5Precision?5Electronic?5Ind@ 00470ab0     SysStatus.obj
 0002:00014ad8       ??_C@_0BN@LAOLKJDB@Trigence?5Semiconductor?0?5Inc?4@ 00470ad8     SysStatus.obj
 0002:00014af8       ??_C@_0CK@KGLFFKMJ@Shenzhen?5Xinerchang?5Electronics@ 00470af8     SysStatus.obj
 0002:00014b24       ??_C@_0CF@DNEMFNPO@Kunshan?5Jiahua?5Electronics?5Co?4?0@ 00470b24     SysStatus.obj
 0002:00014b4c       ??_C@_0BL@CONNOJEO@Avery?5Design?5Systems?0?5Inc?4@ 00470b4c     SysStatus.obj
 0002:00014b68       ??_C@_0BA@PALMMNGG@Tensorcom?0?5Inc?4@ 00470b68     SysStatus.obj
 0002:00014b78       ??_C@_0CJ@EBAAAKHK@ZheJiang?5Chunsheng?5Electronics?5@ 00470b78     SysStatus.obj
 0002:00014ba4       ??_C@_0BJ@JOFNJPAE@DOK?5?$CIHK?$CJ?5Trading?5Limited@ 00470ba4     SysStatus.obj
 0002:00014bc0       ??_C@_0BJ@OHNJGPJN@Marunix?5Electron?5Limited@ 00470bc0     SysStatus.obj
 0002:00014bdc       ??_C@_0CF@CFJNEAJP@BitifEye?5Digital?5Test?5Solutions@ 00470bdc     SysStatus.obj
 0002:00014c04       ??_C@_0CK@KMKPCMKD@Shenzhen?5Chuangyitong?5Technolog@ 00470c04     SysStatus.obj
 0002:00014c30       ??_C@_07DEDNHJPJ@WIseKey@  00470c30     SysStatus.obj
 0002:00014c38       ??_C@_0BM@GMFHMCEF@The?5Silanna?5Group?5Pty?4?5Ltd?4@ 00470c38     SysStatus.obj
 0002:00014c54       ??_C@_0BE@FKGANIKL@MinebeaMitsumi?5Inc?4@ 00470c54     SysStatus.obj
 0002:00014c68       ??_C@_0DK@MOBNOGNA@Perfect?5Fortune?5Electric?5Wire?5?$CG@ 00470c68     SysStatus.obj
 0002:00014ca4       ??_C@_0CD@OBEOLGAD@Suzhou?5Jutze?5Technologies?5Co?4?0?5@ 00470ca4     SysStatus.obj
 0002:00014cc8       ??_C@_0CN@MEIMJIDD@DONGGUAN?5SYNCONN?5PRECISION?5INDU@ 00470cc8     SysStatus.obj
 0002:00014cf8       ??_C@_0CH@IDDOGDKP@Shenzhen?5Pangngai?5Industrial?5Co@ 00470cf8     SysStatus.obj
 0002:00014d20       ??_C@_0CE@JOMBCIJH@Shenzhen?5Deren?5Electronic?5Co?4?0?5@ 00470d20     SysStatus.obj
 0002:00014d44       ??_C@_0BO@ONHDIMLP@ZEN?5FACTORY?5GROUP?5?$CIASIA?$CJ?5LTD?4@ 00470d44     SysStatus.obj
 0002:00014d64       ??_C@_0BO@KGBBCJH@Chain?9In?5Electronic?5Co?4?0?5Ltd?4@ 00470d64     SysStatus.obj
 0002:00014d84       ??_C@_0CO@JCAFCPHA@SUZHOU?5XINYA?5ELECTRIC?5COMMUNICA@ 00470d84     SysStatus.obj
 0002:00014db4       ??_C@_0CN@CHOFLHOK@SUZHOU?5KELI?5TECHNOLOGY?5DEVELOPM@ 00470db4     SysStatus.obj
 0002:00014de4       ??_C@_0CN@BNJPCKEF@TOP?5Exactitude?5Industry?5?$CIShenZh@ 00470de4     SysStatus.obj
 0002:00014e14       ??_C@_0CP@FBCGPDBL@ShenZhen?5Hogend?5Precision?5Techn@ 00470e14     SysStatus.obj
 0002:00014e44       ??_C@_0BD@PLHJJNHE@Norel?5Systems?5Ltd?4@ 00470e44     SysStatus.obj
 0002:00014e58       ??_C@_0O@KMBODLJH@ASSA?5ABLOY?5AB@ 00470e58     SysStatus.obj
 0002:00014e68       ??_C@_0CN@NDBIJEKE@SHENGZHEN?5MAYA?5ELECTRONICS?5CREA@ 00470e68     SysStatus.obj
 0002:00014e98       ??_C@_0CG@NMMKCBIB@DongGuan?5LongTao?5Electronic?5Co?4@ 00470e98     SysStatus.obj
 0002:00014ec0       ??_C@_0BI@MHBLLANG@Weida?5Hi?9Tech?5Co?4?0?5Ltd?4@ 00470ec0     SysStatus.obj
 0002:00014ed8       ??_C@_0CI@CBMJJLAP@Dongguan?5Wisechamp?5Electronic?5C@ 00470ed8     SysStatus.obj
 0002:00014f00       ??_C@_0P@GGHEMJJH@ALGOLTEK?0?5INC?4@ 00470f00     SysStatus.obj
 0002:00014f10       ??_C@_0CC@LNBMPCHG@Top?5Victory?5Investments?5Ltd?4?5?$CIH@ 00470f10     SysStatus.obj
 0002:00014f34       ??_C@_0CD@JCCPCCPC@Corning?5Optical?5Communications?5@ 00470f34     SysStatus.obj
 0002:00014f58       ??_C@_0BM@BOLFLJP@RICOH?5IMAGING?5COMPANY?0?5LTD?4@ 00470f58     SysStatus.obj
 0002:00014f74       ??_C@_0CC@GLDMKJH@DongGuan?5HYX?5Industrial?5Co?4?0?5Lt@ 00470f74     SysStatus.obj
 0002:00014f98       ??_C@_0BE@HOIKDMEJ@Advanced?5Silicon?5SA@ 00470f98     SysStatus.obj
 0002:00014fac       ??_C@_0O@KCHFFECA@EISST?5Limited@ 00470fac     SysStatus.obj
 0002:00014fbc       ??_C@_0BM@FJPCENHK@Winstars?5Technology?5Limited@ 00470fbc     SysStatus.obj
 0002:00014fd8       ??_C@_0CP@DHPDCAEA@YTOP?5Electronics?5Technical?5?$CIKun@ 00470fd8     SysStatus.obj
 0002:00015008       ??_C@_0BB@LEBIHPBN@Innovative?5Logic@ 00471008     SysStatus.obj
 0002:0001501c       ??_C@_05DJBPEAOA@GoPro@    0047101c     SysStatus.obj
 0002:00015024       ??_C@_09BGJCNJFM@Basler?5AG@ 00471024     SysStatus.obj
 0002:00015030       ??_C@_0CF@IPDEOKJG@Zhejiang?5Senda?5Electronics?5Co?4?0@ 00471030     SysStatus.obj
 0002:00015058       ??_C@_0BF@BKLIFGG@Integral?5Memory?5Plc?4@ 00471058     SysStatus.obj
 0002:00015070       ??_C@_0BC@EBEJIPHO@MITACHI?5CO?4?0?5LTD?4@ 00471070     SysStatus.obj
 0002:00015084       ??_C@_0BG@CIMMFDLO@Western?5Digital?0?5HGST@ 00471084     SysStatus.obj
 0002:0001509c       ??_C@_0BF@GIOJHHEG@Win32_1394Controller@ 0047109c     SysStatus.obj
 0002:000150b4       ??_C@_04FABLJDN@Name@      004710b4     SysStatus.obj
 0002:000150bc       ??_C@_0M@HHJKGII@PNPDeviceID@ 004710bc     SysStatus.obj
 0002:000150c8       ??_C@_08JLPEJKOE@DeviceID@ 004710c8     SysStatus.obj
 0002:000150d4       ??_C@_0N@BBNLMPJO@Manufacturer@ 004710d4     SysStatus.obj
 0002:000150e4       ??_C@_0N@MFGCECDI@Availability@ 004710e4     SysStatus.obj
 0002:000150f4       ??_C@_07OJKFJLLK@Caption@  004710f4     SysStatus.obj
 0002:000150fc       ??_C@_0BH@JDEEEDCN@ConfigManagerErrorCode@ 004710fc     SysStatus.obj
 0002:00015114       ??_C@_0BI@OBNCDCBF@ConfigManagerUserConfig@ 00471114     SysStatus.obj
 0002:0001512c       ??_C@_0M@OHKMKKDH@Description@ 0047112c     SysStatus.obj
 0002:00015138       ??_C@_0N@FJHLDHMG@ErrorCleared@ 00471138     SysStatus.obj
 0002:00015148       ??_C@_0BB@KIDBLMK@ErrorDescription@ 00471148     SysStatus.obj
 0002:0001515c       ??_C@_0M@NBIJNNJJ@InstallDate@ 0047115c     SysStatus.obj
 0002:00015168       ??_C@_0O@NDKHIJAE@LastErrorCode@ 00471168     SysStatus.obj
 0002:00015178       ??_C@_0BE@JDLAPHJE@MaxNumberControlled@ 00471178     SysStatus.obj
 0002:0001518c       ??_C@_0BM@NFDEHNHA@PowerManagementCapabilities@ 0047118c     SysStatus.obj
 0002:000151a8       ??_C@_0BJ@CFOPGMLH@PowerManagementSupported@ 004711a8     SysStatus.obj
 0002:000151c4       ??_C@_0BC@JHPOAJCM@ProtocolSupported@ 004711c4     SysStatus.obj
 0002:000151d8       ??_C@_06PGDKHFME@Status@   004711d8     SysStatus.obj
 0002:000151e0       ??_C@_0L@PKEHCAEI@StatusInfo@ 004711e0     SysStatus.obj
 0002:000151ec       ??_C@_0BA@HADKHLAI@TimeOfLastReset@ 004711ec     SysStatus.obj
 0002:000151fc       ??_C@_0BA@FKIDHCEN@Win32_BaseBoard@ 004711fc     SysStatus.obj
 0002:0001520c       ??_C@_03PJHNOEGB@Tag@      0047120c     SysStatus.obj
 0002:00015210       ??_C@_07HMDPOHHF@Product@  00471210     SysStatus.obj
 0002:00015218       ??_C@_05NFIJOKEG@Model@    00471218     SysStatus.obj
 0002:00015220       ??_C@_07NGFJPNPN@Version@  00471220     SysStatus.obj
 0002:00015228       ??_C@_0O@GLLHAKAI@ConfigOptions@ 00471228     SysStatus.obj
 0002:00015238       ??_C@_05BOMFGPKE@Depth@    00471238     SysStatus.obj
 0002:00015240       ??_C@_06HCAKHJJK@Height@   00471240     SysStatus.obj
 0002:00015248       ??_C@_06ODJMJFLN@Weight@   00471248     SysStatus.obj
 0002:00015250       ??_C@_05IBAMDCFI@Width@    00471250     SysStatus.obj
 0002:00015258       ??_C@_0N@CCJNCHMP@HostingBoard@ 00471258     SysStatus.obj
 0002:00015268       ??_C@_0N@FCOIALPI@HotSwappable@ 00471268     SysStatus.obj
 0002:00015278       ??_C@_0BF@DMENANMJ@OtherIdentifyingInfo@ 00471278     SysStatus.obj
 0002:00015290       ??_C@_0L@MIOPIENN@PartNumber@ 00471290     SysStatus.obj
 0002:0001529c       ??_C@_09HKGEBMAI@PoweredOn@ 0047129c     SysStatus.obj
 0002:000152a8       ??_C@_09DADBKOHO@Removable@ 004712a8     SysStatus.obj
 0002:000152b4       ??_C@_0M@KLOLJEDG@Replaceable@ 004712b4     SysStatus.obj
 0002:000152c0       ??_C@_0BI@NLNEBFOD@RequirementsDescription@ 004712c0     SysStatus.obj
 0002:000152d8       ??_C@_0BG@KNNEFNEE@RequiresDaughterBoard@ 004712d8     SysStatus.obj
 0002:000152f0       ??_C@_0N@FPJJBBNM@SerialNumber@ 004712f0     SysStatus.obj
 0002:00015300       ??_C@_03LMAAELJP@SKU@      00471300     SysStatus.obj
 0002:00015304       ??_C@_0L@NLNCHAIH@SlotLayout@ 00471304     SysStatus.obj
 0002:00015310       ??_C@_0BE@DAJBDDHL@SpecialRequirements@ 00471310     SysStatus.obj
 0002:00015324       ??_C@_0O@CLAKILND@Win32_Battery@ 00471324     SysStatus.obj
 0002:00015334       ??_C@_0O@PKGMNGNM@BatteryStatus@ 00471334     SysStatus.obj
 0002:00015344       ??_C@_0O@IKADLBCG@TimeOnBattery@ 00471344     SysStatus.obj
 0002:00015354       ??_C@_0BB@HMDCOCCC@TimeToFullCharge@ 00471354     SysStatus.obj
 0002:00015368       ??_C@_0BE@HNKJKBND@BatteryRechargeTime@ 00471368     SysStatus.obj
 0002:0001537c       ??_C@_09CAHFAGKL@Chemistry@ 0047137c     SysStatus.obj
 0002:00015388       ??_C@_0P@IFPGNGPN@DesignCapacity@ 00471388     SysStatus.obj
 0002:00015398       ??_C@_0O@PBABLEFL@DesignVoltage@ 00471398     SysStatus.obj
 0002:000153a8       ??_C@_0BJ@CDCEHMEP@EstimatedChargeRemaining@ 004713a8     SysStatus.obj
 0002:000153c4       ??_C@_0BB@NPKJIND@EstimatedRunTime@ 004713c4     SysStatus.obj
 0002:000153d8       ??_C@_0BE@NEEKJBPN@ExpectedBatteryLife@ 004713d8     SysStatus.obj
 0002:000153ec       ??_C@_0N@DDGBNILM@ExpectedLife@ 004713ec     SysStatus.obj
 0002:000153fc       ??_C@_0BD@HADPLBCE@FullChargeCapacity@ 004713fc     SysStatus.obj
 0002:00015410       ??_C@_0BA@KENPOHHF@MaxRechargeTime@ 00471410     SysStatus.obj
 0002:00015420       ??_C@_0BE@IIEJDIAD@SmartBatteryVersion@ 00471420     SysStatus.obj
 0002:00015434       ??_C@_0L@JLLHHBAL@Win32_BIOS@ 00471434     SysStatus.obj
 0002:00015440       ??_C@_0BE@DHLHFABD@BiosCharacteristics@ 00471440     SysStatus.obj
 0002:00015454       ??_C@_0M@JNJNMLGA@BIOSVersion@ 00471454     SysStatus.obj
 0002:00015460       ??_C@_0M@PIEABBJI@BuildNumber@ 00471460     SysStatus.obj
 0002:0001546c       ??_C@_07FOHBHJJA@CodeSet@  0047146c     SysStatus.obj
 0002:00015474       ??_C@_0BA@LAFEEKJE@CurrentLanguage@ 00471474     SysStatus.obj
 0002:00015484       ??_C@_0BD@IAKLNJOL@IdentificationCode@ 00471484     SysStatus.obj
 0002:00015498       ??_C@_0BF@JGHHIKJK@InstallableLanguages@ 00471498     SysStatus.obj
 0002:000154b0       ??_C@_0BA@OPCNKLIC@ListOfLanguages@ 004714b0     SysStatus.obj
 0002:000154c0       ??_C@_0O@LMGDODCH@OtherTargetOS@ 004714c0     SysStatus.obj
 0002:000154d0       ??_C@_0M@PLCFCEDN@PrimaryBIOS@ 004714d0     SysStatus.obj
 0002:000154dc       ??_C@_0M@FEKFCCJH@ReleaseDate@ 004714dc     SysStatus.obj
 0002:000154e8       ??_C@_0BC@GDJFCIN@SMBIOSBIOSVersion@ 004714e8     SysStatus.obj
 0002:000154fc       ??_C@_0BD@GHLLPFOK@SMBIOSMajorVersion@ 004714fc     SysStatus.obj
 0002:00015510       ??_C@_0BD@NBGOPAJG@SMBIOSMinorVersion@ 00471510     SysStatus.obj
 0002:00015524       ??_C@_0O@BHMENNOL@SMBIOSPresent@ 00471524     SysStatus.obj
 0002:00015534       ??_C@_0BC@MBHIKAHO@SoftwareElementID@ 00471534     SysStatus.obj
 0002:00015548       ??_C@_0BF@GFDCFGAP@SoftwareElementState@ 00471548     SysStatus.obj
 0002:00015560       ??_C@_09HPFDNOIF@Win32_Bus@ 00471560     SysStatus.obj
 0002:0001556c       ??_C@_06KNDINCOD@BusNum@   0047156c     SysStatus.obj
 0002:00015574       ??_C@_07FFFMBEEK@BusType@  00471574     SysStatus.obj
 0002:0001557c       ??_C@_0BB@KBKCBBFJ@Win32_CDROMDrive@ 0047157c     SysStatus.obj
 0002:00015590       ??_C@_05FHDOJGAA@Drive@    00471590     SysStatus.obj
 0002:00015598       ??_C@_0L@PEPMOJNO@VolumeName@ 00471598     SysStatus.obj
 0002:000155a4       ??_C@_0BD@KNELKJMD@VolumeSerialNumber@ 004715a4     SysStatus.obj
 0002:000155b8       ??_C@_0N@FNJCOOAL@Capabilities@ 004715b8     SysStatus.obj
 0002:000155c8       ??_C@_0BH@EPMKAGLN@CapabilityDescriptions@ 004715c8     SysStatus.obj
 0002:000155e0       ??_C@_0BC@MBGAHHAB@CompressionMethod@ 004715e0     SysStatus.obj
 0002:000155f4       ??_C@_0BB@GHOHONOE@DefaultBlockSize@ 004715f4     SysStatus.obj
 0002:00015608       ??_C@_0P@HKGKOHLF@DriveIntegrity@ 00471608     SysStatus.obj
 0002:00015618       ??_C@_0BB@PNCBAHDK@ErrorMethodology@ 00471618     SysStatus.obj
 0002:0001562c       ??_C@_0BA@KMBBNBII@FileSystemFlags@ 0047162c     SysStatus.obj
 0002:0001563c       ??_C@_0BC@JDDJOAMF@FileSystemFlagsEx@ 0047163c     SysStatus.obj
 0002:00015650       ??_C@_0N@HEPDBKFE@MaxBlockSize@ 00471650     SysStatus.obj
 0002:00015660       ??_C@_0BH@GKGMNPDK@MaximumComponentLength@ 00471660     SysStatus.obj
 0002:00015678       ??_C@_0N@HBNKJHPM@MaxMediaSize@ 00471678     SysStatus.obj
 0002:00015688       ??_C@_0M@BKHKLNGH@MediaLoaded@ 00471688     SysStatus.obj
 0002:00015694       ??_C@_09HPDNNFFF@MediaType@ 00471694     SysStatus.obj
 0002:000156a0       ??_C@_0BJ@FCFAAAMD@MfrAssignedRevisionLevel@ 004716a0     SysStatus.obj
 0002:000156bc       ??_C@_0N@DELMGCCC@MinBlockSize@ 004716bc     SysStatus.obj
 0002:000156cc       ??_C@_0O@IIJMNCFJ@NeedsCleaning@ 004716cc     SysStatus.obj
 0002:000156dc       ??_C@_0BH@COPKOGMD@NumberOfMediaSupported@ 004716dc     SysStatus.obj
 0002:000156f4       ??_C@_0O@MEKHAACN@RevisionLevel@ 004716f4     SysStatus.obj
 0002:00015704       ??_C@_07IMFLOLAO@SCSIBus@  00471704     SysStatus.obj
 0002:0001570c       ??_C@_0BA@FGFDLPLK@SCSILogicalUnit@ 0047170c     SysStatus.obj
 0002:0001571c       ??_C@_08IICBNDDA@SCSIPort@ 0047171c     SysStatus.obj
 0002:00015728       ??_C@_0N@BGGJIJCI@SCSITargetId@ 00471728     SysStatus.obj
 0002:00015738       ??_C@_04EBKMHHBE@Size@     00471738     SysStatus.obj
 0002:00015740       ??_C@_0N@GFEIEMMN@TransferRate@ 00471740     SysStatus.obj
 0002:00015750       ??_C@_0BB@ILOPCCAP@Win32_DMAChannel@ 00471750     SysStatus.obj
 0002:00015764       ??_C@_04HOKNCALA@Port@     00471764     SysStatus.obj
 0002:0001576c       ??_C@_0L@PGAIMACF@DMAChannel@ 0047176c     SysStatus.obj
 0002:00015778       ??_C@_0M@HJPEAMBM@AddressSize@ 00471778     SysStatus.obj
 0002:00015784       ??_C@_09LDKFCLB@BurstMode@ 00471784     SysStatus.obj
 0002:00015790       ??_C@_08IOOBKHAJ@ByteMode@ 00471790     SysStatus.obj
 0002:0001579c       ??_C@_0O@BPLPAGKN@ChannelTiming@ 0047179c     SysStatus.obj
 0002:000157ac       ??_C@_0BA@HBAKOKJE@MaxTransferSize@ 004717ac     SysStatus.obj
 0002:000157bc       ??_C@_0P@HFMGHLOP@TransferWidths@ 004717bc     SysStatus.obj
 0002:000157cc       ??_C@_0M@MOIPDDOB@TypeCTiming@ 004717cc     SysStatus.obj
 0002:000157d8       ??_C@_08HKOOHOAE@WordMode@ 004717d8     SysStatus.obj
 0002:000157e4       ??_C@_0BA@DGOGJGDP@Win32_DriverVXD@ 004717e4     SysStatus.obj
 0002:000157f4       ??_C@_07DFGIDBBA@Control@  004717f4     SysStatus.obj
 0002:000157fc       ??_C@_0BG@IOIHNNJK@DeviceDescriptorBlock@ 004717fc     SysStatus.obj
 0002:00015814       ??_C@_0BA@JOJBKDJN@LanguageEdition@ 00471814     SysStatus.obj
 0002:00015824       ??_C@_06CGGMGNDK@PM_API@   00471824     SysStatus.obj
 0002:0001582c       ??_C@_0BB@CCKMONLJ@ServiceTableSize@ 0047182c     SysStatus.obj
 0002:00015840       ??_C@_0BG@LEBBIDOP@TargetOperatingSystem@ 00471840     SysStatus.obj
 0002:00015858       ??_C@_07JENHGIOM@V86_API@  00471858     SysStatus.obj
 0002:00015860       ??_C@_0BH@GBOCBJMM@Win32_FloppyController@ 00471860     SysStatus.obj
 0002:00015878       ??_C@_0BC@MGJAFBFH@Win32_FloppyDrive@ 00471878     SysStatus.obj
 0002:0001588c       ??_C@_0P@MCPBPNON@Win32_HeatPipe@ 0047188c     SysStatus.obj
 0002:0001589c       ??_C@_0O@PBOKHICP@ActiveCooling@ 0047189c     SysStatus.obj
 0002:000158ac       ??_C@_0BE@FMCMMJCA@Win32_IDEController@ 004718ac     SysStatus.obj
 0002:000158c0       ??_C@_0BF@EEIPINHM@Win32_InfraredDevice@ 004718c0     SysStatus.obj
 0002:000158d8       ??_C@_0BC@MGLAEOHD@Win32_IRQResource@ 004718d8     SysStatus.obj
 0002:000158ec       ??_C@_08PPIOJEA@Hardware@  004718ec     SysStatus.obj
 0002:000158f8       ??_C@_09PKFILKGD@Shareable@ 004718f8     SysStatus.obj
 0002:00015904       ??_C@_0N@NCNNCPPP@TriggerLevel@ 00471904     SysStatus.obj
 0002:00015914       ??_C@_0M@NKHMGHID@TriggerType@ 00471914     SysStatus.obj
 0002:00015920       ??_C@_06BOOCMPNK@Vector@   00471920     SysStatus.obj
 0002:00015928       ??_C@_0P@IGJIBAJA@Win32_Keyboard@ 00471928     SysStatus.obj
 0002:00015938       ??_C@_06KMHOJANB@Layout@   00471938     SysStatus.obj
 0002:00015940       ??_C@_0BF@DODFNOHG@NumberOfFunctionKeys@ 00471940     SysStatus.obj
 0002:00015958       ??_C@_08EOCJLAAL@IsLocked@ 00471958     SysStatus.obj
 0002:00015964       ??_C@_08FJIAHGMM@Password@ 00471964     SysStatus.obj
 0002:00015970       ??_C@_0BI@DKDNDIIN@Win32_MotherboardDevice@ 00471970     SysStatus.obj
 0002:00015988       ??_C@_0P@GCEIIPJN@PrimaryBusType@ 00471988     SysStatus.obj
 0002:00015998       ??_C@_0P@EJGNFGBG@RevisionNumber@ 00471998     SysStatus.obj
 0002:000159a8       ??_C@_0BB@MKKJDBAN@SecondaryBusType@ 004719a8     SysStatus.obj
 0002:000159bc       ??_C@_0BE@ILPPNPBM@Win32_OnBoardDevice@ 004719bc     SysStatus.obj
 0002:000159d0       ??_C@_0L@PMICFDLL@DeviceType@ 004719d0     SysStatus.obj
 0002:000159dc       ??_C@_07DOAOMMKG@Enabled@  004719dc     SysStatus.obj
 0002:000159e4       ??_C@_0BH@CNGPGCKD@Win32_PCMCIAController@ 004719e4     SysStatus.obj
 0002:000159fc       ??_C@_0BA@EHCOOLPP@Win32_PnPEntity@ 004719fc     SysStatus.obj
 0002:00015a0c       ??_C@_07LMLHFMEG@Service@  00471a0c     SysStatus.obj
 0002:00015a14       ??_C@_09GPHNMGJN@ClassGuid@ 00471a14     SysStatus.obj
 0002:00015a20       ??_C@_0N@EEHHOFBP@CompatibleID@ 00471a20     SysStatus.obj
 0002:00015a30       ??_C@_0L@MCPBCGGP@HardwareID@ 00471a30     SysStatus.obj
 0002:00015a3c       ??_C@_0BF@MJMHBKMK@Win32_PointingDevice@ 00471a3c     SysStatus.obj
 0002:00015a54       ??_C@_0N@HMDMLBLH@PointingType@ 00471a54     SysStatus.obj
 0002:00015a64       ??_C@_0BA@EHILAMBM@NumberOfButtons@ 00471a64     SysStatus.obj
 0002:00015a74       ??_C@_0BA@PLLFIHNG@DeviceInterface@ 00471a74     SysStatus.obj
 0002:00015a84       ??_C@_0N@OGCCLEJJ@HardwareType@ 00471a84     SysStatus.obj
 0002:00015a94       ??_C@_0L@DEGCDBKP@Handedness@ 00471a94     SysStatus.obj
 0002:00015aa0       ??_C@_0BF@FLDPHBAC@DoubleSpeedThreshold@ 00471aa0     SysStatus.obj
 0002:00015ab8       ??_C@_0M@LNGELFEC@InfFileName@ 00471ab8     SysStatus.obj
 0002:00015ac4       ??_C@_0L@KHOEHLLF@InfSection@ 00471ac4     SysStatus.obj
 0002:00015ad0       ??_C@_0BD@MJAHKLJJ@QuadSpeedThreshold@ 00471ad0     SysStatus.obj
 0002:00015ae4       ??_C@_0L@KGPBCGJE@Resolution@ 00471ae4     SysStatus.obj
 0002:00015af0       ??_C@_0L@NEGJIGMA@SampleRate@ 00471af0     SysStatus.obj
 0002:00015afc       ??_C@_05MKJLCFN@Synch@     00471afc     SysStatus.obj
 0002:00015b04       ??_C@_0BE@BFHBBNBL@Win32_PortConnector@ 00471b04     SysStatus.obj
 0002:00015b18       ??_C@_0BM@OAEDMMAI@ExternalReferenceDesignator@ 00471b18     SysStatus.obj
 0002:00015b34       ??_C@_0BM@JBGCGAG@InternalReferenceDesignator@ 00471b34     SysStatus.obj
 0002:00015b50       ??_C@_08BOPEOHEK@PortType@ 00471b50     SysStatus.obj
 0002:00015b5c       ??_C@_0O@CPCPFFAH@ConnectorType@ 00471b5c     SysStatus.obj
 0002:00015b6c       ??_C@_0BA@KNNOFNF@ConnectorPinout@ 00471b6c     SysStatus.obj
 0002:00015b7c       ??_C@_0BD@JJNGNMBL@Win32_PortResource@ 00471b7c     SysStatus.obj
 0002:00015b90       ??_C@_05NNNCCOHC@Alias@    00471b90     SysStatus.obj
 0002:00015b98       ??_C@_0BE@HLKMDILE@Win32_PrinterDriver@ 00471b98     SysStatus.obj
 0002:00015bac       ??_C@_0BA@PFCCEOEE@DefaultDataType@ 00471bac     SysStatus.obj
 0002:00015bbc       ??_C@_0L@EAJLGPDF@DriverPath@ 00471bbc     SysStatus.obj
 0002:00015bc8       ??_C@_08CKKAOMLK@FilePath@ 00471bc8     SysStatus.obj
 0002:00015bd4       ??_C@_0L@LKBOBDBI@ConfigFile@ 00471bd4     SysStatus.obj
 0002:00015be0       ??_C@_08JFJMIJHO@DataFile@ 00471be0     SysStatus.obj
 0002:00015bec       ??_C@_0M@PJPGFADP@MonitorName@ 00471bec     SysStatus.obj
 0002:00015bf8       ??_C@_0BC@MLDLGMGB@SupportedPlatform@ 00471bf8     SysStatus.obj
 0002:00015c0c       ??_C@_07JFPHJDHA@InfName@  00471c0c     SysStatus.obj
 0002:00015c14       ??_C@_08GLFJHHAH@HelpFile@ 00471c14     SysStatus.obj
 0002:00015c20       ??_C@_0P@NBBGILI@DependentFiles@ 00471c20     SysStatus.obj
 0002:00015c30       ??_C@_06ENMIEFDD@OEMUrl@   00471c30     SysStatus.obj
 0002:00015c38       ??_C@_07LCDJNPHI@Started@  00471c38     SysStatus.obj
 0002:00015c40       ??_C@_09IAGOJBFI@StartMode@ 00471c40     SysStatus.obj
 0002:00015c4c       ??_C@_0BA@OJJOBJJP@Win32_Processor@ 00471c4c     SysStatus.obj
 0002:00015c5c       ??_C@_0N@MDJPNJNL@Architecture@ 00471c5c     SysStatus.obj
 0002:00015c6c       ??_C@_0O@FFCOPHIP@NumberOfCores@ 00471c6c     SysStatus.obj
 0002:00015c7c       ??_C@_0O@MJOHKFKO@MaxClockSpeed@ 00471c7c     SysStatus.obj
 0002:00015c8c       ??_C@_0BK@OBFFNDNO@NumberOfLogicalProcessors@ 00471c8c     SysStatus.obj
 0002:00015ca8       ??_C@_06BOFMEHLD@Family@   00471ca8     SysStatus.obj
 0002:00015cb0       ??_C@_0M@DJKFFMLN@L2CacheSize@ 00471cb0     SysStatus.obj
 0002:00015cbc       ??_C@_0N@NBPCHGPE@L2CacheSpeed@ 00471cbc     SysStatus.obj
 0002:00015ccc       ??_C@_0M@PICLIDHN@L3CacheSize@ 00471ccc     SysStatus.obj
 0002:00015cd8       ??_C@_0N@EKFHDKJL@L3CacheSpeed@ 00471cd8     SysStatus.obj
 0002:00015ce8       ??_C@_0N@IPOPOCBB@AddressWidth@ 00471ce8     SysStatus.obj
 0002:00015cf8       ??_C@_09OJECCCEO@CpuStatus@ 00471cf8     SysStatus.obj
 0002:00015d04       ??_C@_0BC@JFANJPME@CurrentClockSpeed@ 00471d04     SysStatus.obj
 0002:00015d18       ??_C@_0P@IHAGOHLC@CurrentVoltage@ 00471d18     SysStatus.obj
 0002:00015d28       ??_C@_09KNGBBIL@DataWidth@ 00471d28     SysStatus.obj
 0002:00015d34       ??_C@_08JALCBBMK@ExtClock@ 00471d34     SysStatus.obj
 0002:00015d40       ??_C@_05KOHFLOFG@Level@    00471d40     SysStatus.obj
 0002:00015d48       ??_C@_0P@HLLBIGKP@LoadPercentage@ 00471d48     SysStatus.obj
 0002:00015d58       ??_C@_0BH@LLAHKBOJ@OtherFamilyDescription@ 00471d58     SysStatus.obj
 0002:00015d70       ??_C@_0M@DHKOOBFD@ProcessorId@ 00471d70     SysStatus.obj
 0002:00015d7c       ??_C@_0O@DAODMABE@ProcessorType@ 00471d7c     SysStatus.obj
 0002:00015d8c       ??_C@_08DNLDHPFP@Revision@ 00471d8c     SysStatus.obj
 0002:00015d98       ??_C@_04EBAMNOLK@Role@     00471d98     SysStatus.obj
 0002:00015da0       ??_C@_0BC@GCIFEBIL@SocketDesignation@ 00471da0     SysStatus.obj
 0002:00015db4       ??_C@_08HPJGCEAH@Stepping@ 00471db4     SysStatus.obj
 0002:00015dc0       ??_C@_08HJBCPKNB@UniqueId@ 00471dc0     SysStatus.obj
 0002:00015dcc       ??_C@_0O@KHACBBMN@UpgradeMethod@ 00471dcc     SysStatus.obj
 0002:00015ddc       ??_C@_0M@DEJHGOJI@VoltageCaps@ 00471ddc     SysStatus.obj
 0002:00015de8       ??_C@_0BF@OGHHAMBD@Win32_SCSIController@ 00471de8     SysStatus.obj
 0002:00015e00       ??_C@_0L@DJBCKAGE@DriverName@ 00471e00     SysStatus.obj
 0002:00015e0c       ??_C@_0BA@BJODOJJC@HardwareVersion@ 00471e0c     SysStatus.obj
 0002:00015e1c       ??_C@_0BD@LPBNFPJD@ControllerTimeouts@ 00471e1c     SysStatus.obj
 0002:00015e30       ??_C@_09DJCHLIFB@DeviceMap@ 00471e30     SysStatus.obj
 0002:00015e3c       ??_C@_05FNNGFGLF@Index@    00471e3c     SysStatus.obj
 0002:00015e44       ??_C@_0N@OLJPFNHL@MaxDataWidth@ 00471e44     SysStatus.obj
 0002:00015e54       ??_C@_0BA@IDEAMGMB@MaxTransferRate@ 00471e54     SysStatus.obj
 0002:00015e64       ??_C@_0BF@OGNJDJGP@ProtectionManagement@ 00471e64     SysStatus.obj
 0002:00015e7c       ??_C@_0BB@DLHLCIMJ@Win32_SerialPort@ 00471e7c     SysStatus.obj
 0002:00015e90       ??_C@_0M@BFAJGJNN@MaxBaudRate@ 00471e90     SysStatus.obj
 0002:00015e9c       ??_C@_0N@KFNBCBNP@ProviderType@ 00471e9c     SysStatus.obj
 0002:00015eac       ??_C@_06JCOMDNII@Binary@   00471eac     SysStatus.obj
 0002:00015eb4       ??_C@_0BH@PKAPBGLB@MaximumInputBufferSize@ 00471eb4     SysStatus.obj
 0002:00015ecc       ??_C@_0BI@EAKFLPF@MaximumOutputBufferSize@ 00471ecc     SysStatus.obj
 0002:00015ee4       ??_C@_0BB@NCMHEECO@OSAutoDiscovered@ 00471ee4     SysStatus.obj
 0002:00015ef8       ??_C@_0BB@CCEBCKAP@SettableBaudRate@ 00471ef8     SysStatus.obj
 0002:00015f0c       ??_C@_0BB@BOCNMDDI@SettableDataBits@ 00471f0c     SysStatus.obj
 0002:00015f20       ??_C@_0BE@FMKJPGFK@SettableFlowControl@ 00471f20     SysStatus.obj
 0002:00015f34       ??_C@_0P@MOHECAJ@SettableParity@ 00471f34     SysStatus.obj
 0002:00015f44       ??_C@_0BE@NMPLPPIE@SettableParityCheck@ 00471f44     SysStatus.obj
 0002:00015f58       ??_C@_0N@OBGEBGNG@SettableRLSD@ 00471f58     SysStatus.obj
 0002:00015f68       ??_C@_0BB@EPIEMKMF@SettableStopBits@ 00471f68     SysStatus.obj
 0002:00015f7c       ??_C@_0BC@EEEMKCBH@Supports16BitMode@ 00471f7c     SysStatus.obj
 0002:00015f90       ??_C@_0P@GODDIGIP@SupportsDTRDSR@ 00471f90     SysStatus.obj
 0002:00015fa0       ??_C@_0BI@LJLLOLPH@SupportsElapsedTimeouts@ 00471fa0     SysStatus.obj
 0002:00015fb8       ??_C@_0BE@JOEIKOLI@SupportsIntTimeouts@ 00471fb8     SysStatus.obj
 0002:00015fcc       ??_C@_0BE@JCPAAGPO@SupportsParityCheck@ 00471fcc     SysStatus.obj
 0002:00015fe0       ??_C@_0N@GBIJPBEE@SupportsRLSD@ 00471fe0     SysStatus.obj
 0002:00015ff0       ??_C@_0P@NGNOBJLG@SupportsRTSCTS@ 00471ff0     SysStatus.obj
 0002:00016000       ??_C@_0BK@GGENNCGN@SupportsSpecialCharacters@ 00472000     SysStatus.obj
 0002:0001601c       ??_C@_0BA@OPAGJFHI@SupportsXOnXOff@ 0047201c     SysStatus.obj
 0002:0001602c       ??_C@_0BD@GDEAPHBI@SupportsXOnXOffSet@ 0047202c     SysStatus.obj
 0002:00016040       ??_C@_0BO@BPJAPEGK@Win32_SerialPortConfiguration@ 00472040     SysStatus.obj
 0002:00016060       ??_C@_08FCNNIBJG@BaudRate@ 00472060     SysStatus.obj
 0002:0001606c       ??_C@_0M@PAFDOFKP@BitsPerByte@ 0047206c     SysStatus.obj
 0002:00016078       ??_C@_06OKNHBMNM@Parity@   00472078     SysStatus.obj
 0002:00016080       ??_C@_08DPBIGBFM@StopBits@ 00472080     SysStatus.obj
 0002:0001608c       ??_C@_06OICOCAHF@IsBusy@   0047208c     SysStatus.obj
 0002:00016094       ??_C@_0BG@DFLLPBBO@AbortReadWriteOnError@ 00472094     SysStatus.obj
 0002:000160ac       ??_C@_0BC@OGEDEEBA@BinaryModeEnabled@ 004720ac     SysStatus.obj
 0002:000160c0       ??_C@_0BD@MCBMPIAJ@ContinueXMitOnXOff@ 004720c0     SysStatus.obj
 0002:000160d4       ??_C@_0BC@BMKJGEMK@CTSOutflowControl@ 004720d4     SysStatus.obj
 0002:000160e8       ??_C@_0BB@LNMOOKGE@DiscardNULLBytes@ 004720e8     SysStatus.obj
 0002:000160fc       ??_C@_0BC@HDHNIDHE@DSROutflowControl@ 004720fc     SysStatus.obj
 0002:00016110       ??_C@_0P@FDLAEJMA@DSRSensitivity@ 00472110     SysStatus.obj
 0002:00016120       ??_C@_0BD@HKACMHPL@DTRFlowControlType@ 00472120     SysStatus.obj
 0002:00016134       ??_C@_0N@HDNBGKMG@EOFCharacter@ 00472134     SysStatus.obj
 0002:00016144       ??_C@_0BG@HECEEKCN@ErrorReplaceCharacter@ 00472144     SysStatus.obj
 0002:0001615c       ??_C@_0BI@MDNCEDD@ErrorReplacementEnabled@ 0047215c     SysStatus.obj
 0002:00016174       ??_C@_0P@ELDMBJ@EventCharacter@ 00472174     SysStatus.obj
 0002:00016184       ??_C@_0BD@KACACAPH@ParityCheckEnabled@ 00472184     SysStatus.obj
 0002:00016198       ??_C@_0BD@HDDKDMKB@RTSFlowControlType@ 00472198     SysStatus.obj
 0002:000161ac       ??_C@_09CMMJGBDB@SettingID@ 004721ac     SysStatus.obj
 0002:000161b8       ??_C@_0O@IABHIILA@XOffCharacter@ 004721b8     SysStatus.obj
 0002:000161c8       ??_C@_0BC@PIOKAKHD@XOffXMitThreshold@ 004721c8     SysStatus.obj
 0002:000161dc       ??_C@_0N@LMKFMCPA@XOnCharacter@ 004721dc     SysStatus.obj
 0002:000161ec       ??_C@_0BB@OHGPOKOF@XOnXMitThreshold@ 004721ec     SysStatus.obj
 0002:00016200       ??_C@_0BF@FMELJHC@XOnXOffInFlowControl@ 00472200     SysStatus.obj
 0002:00016218       ??_C@_0BG@LCMFOHKE@XOnXOffOutFlowControl@ 00472218     SysStatus.obj
 0002:00016230       ??_C@_0BC@INJPMPPD@Win32_SoundDevice@ 00472230     SysStatus.obj
 0002:00016244       ??_C@_0M@MNPNDAHP@ProductName@ 00472244     SysStatus.obj
 0002:00016250       ??_C@_0O@GILLNKKD@MPU401Address@ 00472250     SysStatus.obj
 0002:00016260       ??_C@_0O@GHJKPLAG@DMABufferSize@ 00472260     SysStatus.obj
 0002:00016270       ??_C@_0BE@KNIHCNGM@Win32_USBController@ 00472270     SysStatus.obj
 0002:00016284       ??_C@_0BG@IOBPPLKC@Win32_VideoController@ 00472284     SysStatus.obj
 0002:0001629c       ??_C@_0BE@FEOPMOOE@CurrentBitsPerPixel@ 0047229c     SysStatus.obj
 0002:000162b0       ??_C@_0BM@OFHJCNEB@CurrentHorizontalResolution@ 004722b0     SysStatus.obj
 0002:000162cc       ??_C@_0BK@LFIAOAGD@CurrentVerticalResolution@ 004722cc     SysStatus.obj
 0002:000162e8       ??_C@_0BG@NCBMILGB@CurrentNumberOfColors@ 004722e8     SysStatus.obj
 0002:00016300       ??_C@_0BD@JKLPINND@CurrentRefreshRate@ 00472300     SysStatus.obj
 0002:00016314       ??_C@_0BA@CDIHNLEF@CurrentScanMode@ 00472314     SysStatus.obj
 0002:00016324       ??_C@_0BH@IKBJPLJ@CurrentNumberOfColumns@ 00472324     SysStatus.obj
 0002:0001633c       ??_C@_0BE@BKBIMFEG@CurrentNumberOfRows@ 0047233c     SysStatus.obj
 0002:00016350       ??_C@_0BC@GFHBBCIN@VideoArchitecture@ 00472350     SysStatus.obj
 0002:00016364       ??_C@_0BA@COFLHODM@VideoMemoryType@ 00472364     SysStatus.obj
 0002:00016374       ??_C@_09LIEAKBEG@VideoMode@ 00472374     SysStatus.obj
 0002:00016380       ??_C@_0BF@MAGAOPPB@VideoModeDescription@ 00472380     SysStatus.obj
 0002:00016398       ??_C@_0P@OMEGAAG@VideoProcessor@ 00472398     SysStatus.obj
 0002:000163a8       ??_C@_0BC@PEHKLIOA@ColorTableEntries@ 004723a8     SysStatus.obj
 0002:000163bc       ??_C@_0BF@JCFFEIIM@NumberOfColorPlanes?$DL@ 004723bc     SysStatus.obj
 0002:000163d4       ??_C@_0BD@DECAKEGH@NumberOfVideoPages@ 004723d4     SysStatus.obj
 0002:000163e8       ??_C@_0BF@FKKNOPFN@SystemPaletteEntries@ 004723e8     SysStatus.obj
 0002:00016400       ??_C@_0BI@DFJMJFBI@AcceleratorCapabilities@ 00472400     SysStatus.obj
 0002:00016418       ??_C@_0BF@LPCADEJI@AdapterCompatibility@ 00472418     SysStatus.obj
 0002:00016430       ??_C@_0P@MPKKGADB@AdapterDACType@ 00472430     SysStatus.obj
 0002:00016440       ??_C@_0L@CKHNOAKJ@AdapterRAM@ 00472440     SysStatus.obj
 0002:0001644c       ??_C@_0M@HMKFJKEG@InfFilename@ 0047244c     SysStatus.obj
 0002:00016458       ??_C@_0O@KKIKAADI@DriverVersion@ 00472458     SysStatus.obj
 0002:00016468       ??_C@_0BD@HBMCPLLH@DeviceSpecificPens@ 00472468     SysStatus.obj
 0002:0001647c       ??_C@_0L@HJOBJMDE@DitherType@ 0047247c     SysStatus.obj
 0002:00016488       ??_C@_0L@GAFFCADK@DriverDate@ 00472488     SysStatus.obj
 0002:00016494       ??_C@_09MBIABGHL@ICMIntent@ 00472494     SysStatus.obj
 0002:000164a0       ??_C@_09OGGCGCBA@ICMMethod@ 004724a0     SysStatus.obj
 0002:000164ac       ??_C@_0BI@NCJGCGIA@InstalledDisplayDrivers@ 004724ac     SysStatus.obj
 0002:000164c4       ??_C@_0BD@KFJBBNPN@MaxMemorySupported@ 004724c4     SysStatus.obj
 0002:000164d8       ??_C@_0P@DHIEOPKP@MaxRefreshRate@ 004724d8     SysStatus.obj
 0002:000164e8       ??_C@_0P@BADPIIJO@MinRefreshRate@ 004724e8     SysStatus.obj
 0002:000164f8       ??_C@_0L@NCAJOFAD@Monochrome@ 004724f8     SysStatus.obj
 0002:00016504       ??_C@_0BN@FJFLBOEO@ReservedSystemPaletteEntries@ 00472504     SysStatus.obj
 0002:00016524       ??_C@_0BF@HGGDLIIF@SpecificationVersion@ 00472524     SysStatus.obj
 0002:0001653c       ??_C@_0BA@CJPFNKBD@Win32_DiskDrive@ 0047253c     SysStatus.obj
 0002:0001654c       ??_C@_0L@BLANPANH@Partitions@ 0047254c     SysStatus.obj
 0002:00016558       ??_C@_09GDNFOKKF@Signature@ 00472558     SysStatus.obj
 0002:00016564       ??_C@_0P@MMMIFHLL@BytesPerSector@ 00472564     SysStatus.obj
 0002:00016574       ??_C@_0BB@HMBACBBL@FirmwareRevision@ 00472574     SysStatus.obj
 0002:00016588       ??_C@_0O@IHENGMAG@InterfaceType@ 00472588     SysStatus.obj
 0002:00016598       ??_C@_0BA@CCMKCJPC@SectorsPerTrack@ 00472598     SysStatus.obj
 0002:000165a8       ??_C@_0P@NEMACPGO@TotalCylinders@ 004725a8     SysStatus.obj
 0002:000165b8       ??_C@_0L@PLGEACLG@TotalHeads@ 004725b8     SysStatus.obj
 0002:000165c4       ??_C@_0N@BJMAPGKO@TotalSectors@ 004725c4     SysStatus.obj
 0002:000165d4       ??_C@_0M@BHKEFGGG@TotalTracks@ 004725d4     SysStatus.obj
 0002:000165e0       ??_C@_0BC@KOKBEBBE@TracksPerCylinder@ 004725e0     SysStatus.obj
 0002:000165f4       ??_C@_0BE@GBMGFCLI@Win32_DiskPartition@ 004725f4     SysStatus.obj
 0002:00016608       ??_C@_04KOACHJEN@Type@     00472608     SysStatus.obj
 0002:00016610       ??_C@_08GBCOMNMP@Bootable@ 00472610     SysStatus.obj
 0002:0001661c       ??_C@_0O@GKABHDFN@BootPartition@ 0047261c     SysStatus.obj
 0002:0001662c       ??_C@_0BB@GMPNKCND@PrimaryPartition@ 0047262c     SysStatus.obj
 0002:00016640       ??_C@_06IOEANFCI@Access@   00472640     SysStatus.obj
 0002:00016648       ??_C@_09JFLKFGKE@BlockSize@ 00472648     SysStatus.obj
 0002:00016654       ??_C@_0P@PGINBNEO@NumberOfBlocks@ 00472654     SysStatus.obj
 0002:00016664       ??_C@_0O@NMDEFEE@HiddenSectors@ 00472664     SysStatus.obj
 0002:00016674       ??_C@_07ODOLMOGH@Purpose@  00472674     SysStatus.obj
 0002:0001667c       ??_C@_0BB@CLPKNLNO@RewritePartition@ 0047267c     SysStatus.obj
 0002:00016690       ??_C@_0P@HEMAHOJD@StartingOffset@ 00472690     SysStatus.obj
 0002:000166a0       ??_C@_0BE@JBJLNBAC@Win32_PhysicalMedia@ 004726a0     SysStatus.obj
 0002:000166b4       ??_C@_0BB@GANKFIKA@MediaDescription@ 004726b4     SysStatus.obj
 0002:000166c8       ??_C@_0BC@FNAKMFAB@CreationClassName@ 004726c8     SysStatus.obj
 0002:000166dc       ??_C@_08PINBMPEF@Capacity@ 004726dc     SysStatus.obj
 0002:000166e8       ??_C@_0P@CNPPDDMA@WriteProtectOn@ 004726e8     SysStatus.obj
 0002:000166f8       ??_C@_0N@NINPCONM@CleanerMedia@ 004726f8     SysStatus.obj
 0002:00016708       ??_C@_0BA@GLDDIFFN@Win32_TapeDrive@ 00472708     SysStatus.obj
 0002:00016718       ??_C@_02HOGEDOAB@Id@       00472718     SysStatus.obj
 0002:0001671c       ??_C@_0M@COKFBABJ@Compression@ 0047271c     SysStatus.obj
 0002:00016728       ??_C@_03NLPJKHLD@ECC@      00472728     SysStatus.obj
 0002:0001672c       ??_C@_0BD@IDPNAMKG@EOTWarningZoneSize@ 0047272c     SysStatus.obj
 0002:00016740       ??_C@_0N@PNICBLFI@FeaturesHigh@ 00472740     SysStatus.obj
 0002:00016750       ??_C@_0M@GCKGDCME@FeaturesLow@ 00472750     SysStatus.obj
 0002:0001675c       ??_C@_0BC@NKLHGLCM@MaxPartitionCount@ 0047275c     SysStatus.obj
 0002:00016770       ??_C@_07DDDGKLAD@Padding@  00472770     SysStatus.obj
 0002:00016778       ??_C@_0P@OCFCAPCK@ReportSetMarks@ 00472778     SysStatus.obj
 0002:00016788       ??_C@_0BC@BKKBKJDE@Win32_CacheMemory@ 00472788     SysStatus.obj
 0002:0001679c       ??_C@_0BE@FGEPBFNL@AdditionalErrorData@ 0047279c     SysStatus.obj
 0002:000167b0       ??_C@_0O@BJAAJMNJ@Associativity@ 004727b0     SysStatus.obj
 0002:000167c0       ??_C@_0L@GKCEABFB@CacheSpeed@ 004727c0     SysStatus.obj
 0002:000167cc       ??_C@_09LDLPEFB@CacheType@ 004727cc     SysStatus.obj
 0002:000167d8       ??_C@_0N@FNMLGPI@MaxCacheSize@ 004727d8     SysStatus.obj
 0002:000167e8       ??_C@_0BB@HJBOPHEK@CorrectableError@ 004727e8     SysStatus.obj
 0002:000167fc       ??_C@_0M@JJECGOOK@CurrentSRAM@ 004727fc     SysStatus.obj
 0002:00016808       ??_C@_0O@DMEOEBEF@EndingAddress@ 00472808     SysStatus.obj
 0002:00016818       ??_C@_0M@PJGEGKNG@ErrorAccess@ 00472818     SysStatus.obj
 0002:00016824       ??_C@_0N@BEELHEFJ@ErrorAddress@ 00472824     SysStatus.obj
 0002:00016834       ??_C@_0BB@OEAEPHLK@ErrorCorrectType@ 00472834     SysStatus.obj
 0002:00016848       ??_C@_09GOCFECJA@ErrorData@ 00472848     SysStatus.obj
 0002:00016854       ??_C@_0P@LPKOAMHJ@ErrorDataOrder@ 00472854     SysStatus.obj
 0002:00016864       ??_C@_09EPPHMMOH@ErrorInfo@ 00472864     SysStatus.obj
 0002:00016870       ??_C@_0BA@DBMDPLBE@ErrorResolution@ 00472870     SysStatus.obj
 0002:00016880       ??_C@_09LMOKKAAG@ErrorTime@ 00472880     SysStatus.obj
 0002:0001688c       ??_C@_0BC@FEODMBII@ErrorTransferSize@ 0047288c     SysStatus.obj
 0002:000168a0       ??_C@_0L@NIIIAJJG@FlushTimer@ 004728a0     SysStatus.obj
 0002:000168ac       ??_C@_0O@BJDNNDOA@InstalledSize@ 004728ac     SysStatus.obj
 0002:000168bc       ??_C@_08BFDFHGHF@LineSize@ 004728bc     SysStatus.obj
 0002:000168c8       ??_C@_08KDOEBHGA@Location@ 004728c8     SysStatus.obj
 0002:000168d4       ??_C@_0BG@GMMANAIM@OtherErrorDescription@ 004728d4     SysStatus.obj
 0002:000168ec       ??_C@_0L@OICKBPFP@ReadPolicy@ 004728ec     SysStatus.obj
 0002:000168f8       ??_C@_0BC@CACAEAGO@ReplacementPolicy@ 004728f8     SysStatus.obj
 0002:0001690c       ??_C@_0BA@JKJCLFJA@StartingAddress@ 0047290c     SysStatus.obj
 0002:0001691c       ??_C@_0O@LOONNFKJ@SupportedSRAM@ 0047291c     SysStatus.obj
 0002:0001692c       ??_C@_0BD@EHELDMNK@SystemLevelAddress@ 0047292c     SysStatus.obj
 0002:00016940       ??_C@_0M@GMGLDKG@WritePolicy@ 00472940     SysStatus.obj
 0002:0001694c       ??_C@_0BK@CHMJMDKA@Win32_DeviceMemoryAddress@ 0047294c     SysStatus.obj
 0002:00016968       ??_C@_0L@NKIIONIP@MemoryType@ 00472968     SysStatus.obj
 0002:00016974       ??_C@_0BC@NBCNDILJ@Win32_MemoryArray@ 00472974     SysStatus.obj
 0002:00016988       ??_C@_0BB@CCADGENH@ErrorGranularity@ 00472988     SysStatus.obj
 0002:0001699c       ??_C@_0BD@MHIIAMPP@Win32_MemoryDevice@ 0047299c     SysStatus.obj
 0002:000169b0       ??_C@_0BF@CGHJBIMG@Win32_PhysicalMemory@ 004729b0     SysStatus.obj
 0002:000169c8       ??_C@_09ELEBPJGH@BankLabel@ 004729c8     SysStatus.obj
 0002:000169d4       ??_C@_0O@DKGGAIKL@DeviceLocator@ 004729d4     SysStatus.obj
 0002:000169e4       ??_C@_0L@JPOMKNPI@FormFactor@ 004729e4     SysStatus.obj
 0002:000169f0       ??_C@_0BE@GAJMAAIE@InterleaveDataDepth@ 004729f0     SysStatus.obj
 0002:00016a04       ??_C@_0BD@OOBFBMPB@InterleavePosition@ 00472a04     SysStatus.obj
 0002:00016a18       ??_C@_0O@MJAFBIEI@PositionInRow@ 00472a18     SysStatus.obj
 0002:00016a28       ??_C@_05HOIAGEJD@Speed@    00472a28     SysStatus.obj
 0002:00016a30       ??_C@_0L@EONKMHCB@TotalWidth@ 00472a30     SysStatus.obj
 0002:00016a3c       ??_C@_0L@NHBAOOAD@TypeDetail@ 00472a3c     SysStatus.obj
 0002:00016a48       ??_C@_0BK@FKMONDCJ@Win32_PhysicalMemoryArray@ 00472a48     SysStatus.obj
 0002:00016a64       ??_C@_0O@EOCLGIEK@MemoryDevices@ 00472a64     SysStatus.obj
 0002:00016a74       ??_C@_0M@LPAFCHAO@MaxCapacity@ 00472a74     SysStatus.obj
 0002:00016a80       ??_C@_0BG@BDKPEMKD@MemoryErrorCorrection@ 00472a80     SysStatus.obj
 0002:00016a98       ??_C@_03GMFFJGJI@Use@      00472a98     SysStatus.obj
 0002:00016a9c       ??_C@_0BD@CLOLHCII@Win32_SMBIOSMemory@ 00472a9c     SysStatus.obj
 0002:00016ab0       ??_C@_0BL@GIIBFPAF@Win32_SystemMemoryResource@ 00472ab0     SysStatus.obj
 0002:00016acc       ??_C@_0BF@GMDCFJKK@Win32_ComputerSystem@ 00472acc     SysStatus.obj
 0002:00016ae4       ??_C@_0L@GEHHDFHH@SystemType@ 00472ae4     SysStatus.obj
 0002:00016af0       ??_C@_0BD@KEFEPCEP@NumberOfProcessors@ 00472af0     SysStatus.obj
 0002:00016b04       ??_C@_08KAFEAHEM@UserName@ 00472b04     SysStatus.obj
 0002:00016b10       ??_C@_0BE@BPKIAGEB@AdminPasswordStatus@ 00472b10     SysStatus.obj
 0002:00016b24       ??_C@_0BJ@GMKDMOMC@AutomaticManagedPagefile@ 00472b24     SysStatus.obj
 0002:00016b40       ??_C@_0BJ@CCCKPNOE@AutomaticResetBootOption@ 00472b40     SysStatus.obj
 0002:00016b5c       ??_C@_0BJ@HFJMLPDD@AutomaticResetCapability@ 00472b5c     SysStatus.obj
 0002:00016b78       ??_C@_0BC@LOIFGJNH@BootOptionOnLimit@ 00472b78     SysStatus.obj
 0002:00016b8c       ??_C@_0BF@NHNHHNLM@BootOptionOnWatchDog@ 00472b8c     SysStatus.obj
 0002:00016ba4       ??_C@_0BB@KCAGDBFG@BootROMSupported@ 00472ba4     SysStatus.obj
 0002:00016bb8       ??_C@_0M@FAIFADKE@BootupState@ 00472bb8     SysStatus.obj
 0002:00016bc4       ??_C@_0BD@NPOFELCJ@ChassisBootupState@ 00472bc4     SysStatus.obj
 0002:00016bd8       ??_C@_0BA@KEBGPOLH@CurrentTimeZone@ 00472bd8     SysStatus.obj
 0002:00016be8       ??_C@_0BB@PNOOHJBN@DaylightInEffect@ 00472be8     SysStatus.obj
 0002:00016bfc       ??_C@_0M@HMDMJNAL@DNSHostName@ 00472bfc     SysStatus.obj
 0002:00016c08       ??_C@_06HFDFFJHI@Domain@   00472c08     SysStatus.obj
 0002:00016c10       ??_C@_0L@DHGJAMBB@DomainRole@ 00472c10     SysStatus.obj
 0002:00016c1c       ??_C@_0BK@DMLHGPE@EnableDaylightSavingsTime@ 00472c1c     SysStatus.obj
 0002:00016c38       ??_C@_0BG@OFHEPCGG@FrontPanelResetStatus@ 00472c38     SysStatus.obj
 0002:00016c50       ??_C@_0BC@MOGIEFCC@InfraredSupported@ 00472c50     SysStatus.obj
 0002:00016c64       ??_C@_0BA@FHFMLOBH@InitialLoadInfo@ 00472c64     SysStatus.obj
 0002:00016c74       ??_C@_0BH@NPMFKEOG@KeyboardPasswordStatus@ 00472c74     SysStatus.obj
 0002:00016c8c       ??_C@_0N@FDMFJCLB@LastLoadInfo@ 00472c8c     SysStatus.obj
 0002:00016c9c       ??_C@_0L@INCFKHMA@NameFormat@ 00472c9c     SysStatus.obj
 0002:00016ca8       ??_C@_0BJ@OJMPPEPI@NetworkServerModeEnabled@ 00472ca8     SysStatus.obj
 0002:00016cc4       ??_C@_0O@KFCLFAME@OEMLogoBitmap@ 00472cc4     SysStatus.obj
 0002:00016cd4       ??_C@_0P@DEDOEGFN@OEMStringArray@ 00472cd4     SysStatus.obj
 0002:00016ce4       ??_C@_0N@BDBDHMKI@PartOfDomain@ 00472ce4     SysStatus.obj
 0002:00016cf4       ??_C@_0BA@BAAGJACJ@PauseAfterReset@ 00472cf4     SysStatus.obj
 0002:00016d04       ??_C@_0N@EOPDJAGI@PCSystemType@ 00472d04     SysStatus.obj
 0002:00016d14       ??_C@_0BG@MGBDJIM@PowerOnPasswordStatus@ 00472d14     SysStatus.obj
 0002:00016d2c       ??_C@_0L@PFLEPOFF@PowerState@ 00472d2c     SysStatus.obj
 0002:00016d38       ??_C@_0BB@PGEJAGBJ@PowerSupplyState@ 00472d38     SysStatus.obj
 0002:00016d4c       ??_C@_0BE@GNDJOKHP@PrimaryOwnerContact@ 00472d4c     SysStatus.obj
 0002:00016d60       ??_C@_0BB@CIHLIHGG@PrimaryOwnerName@ 00472d60     SysStatus.obj
 0002:00016d74       ??_C@_0BA@JGMMLHGF@ResetCapability@ 00472d74     SysStatus.obj
 0002:00016d84       ??_C@_0L@NDDNCBN@ResetCount@ 00472d84     SysStatus.obj
 0002:00016d90       ??_C@_0L@ODMHPMJN@ResetLimit@ 00472d90     SysStatus.obj
 0002:00016d9c       ??_C@_05CPOHHMHJ@Roles@    00472d9c     SysStatus.obj
 0002:00016da4       ??_C@_0BK@GHHBNFKI@SupportContactDescription@ 00472da4     SysStatus.obj
 0002:00016dc0       ??_C@_0BD@MJBJDOPG@SystemStartupDelay@ 00472dc0     SysStatus.obj
 0002:00016dd4       ??_C@_0BF@HNHDCNN@SystemStartupOptions@ 00472dd4     SysStatus.obj
 0002:00016dec       ??_C@_0BF@IKJAHOGK@SystemStartupSetting@ 00472dec     SysStatus.obj
 0002:00016e04       ??_C@_0N@HHACICKK@ThermalState@ 00472e04     SysStatus.obj
 0002:00016e14       ??_C@_0BE@LPDNMOEG@TotalPhysicalMemory@ 00472e14     SysStatus.obj
 0002:00016e28       ??_C@_0L@FAPFOCCC@WakeUpType@ 00472e28     SysStatus.obj
 0002:00016e34       ??_C@_09CLAAHCGK@Workgroup@ 00472e34     SysStatus.obj
 0002:00016e40       ??_C@_0BM@IEKJLBKB@Win32_ComputerSystemProduct@ 00472e40     SysStatus.obj
 0002:00016e5c       ??_C@_06LGGLFMPE@Vendor@   00472e5c     SysStatus.obj
 0002:00016e64       ??_C@_04NOKDILIH@UUID@     00472e64     SysStatus.obj
 0002:00016e6c       ??_C@_0BC@IBEJLMDM@IdentifyingNumber@ 00472e6c     SysStatus.obj
 0002:00016e80       ??_C@_09ODBEMGCH@SKUNumber@ 00472e80     SysStatus.obj
 0002:00016e8c       ??_C@_0O@LCAALOJJ@Win32_Product@ 00472e8c     SysStatus.obj
 0002:00016e9c       ??_C@_09IHHILKBJ@ProductID@ 00472e9c     SysStatus.obj
 0002:00016ea8       ??_C@_0P@CAOEPKFE@AssignmentType@ 00472ea8     SysStatus.obj
 0002:00016eb8       ??_C@_0BA@DLLPKNMD@InstallLocation@ 00472eb8     SysStatus.obj
 0002:00016ec8       ??_C@_0N@FNHIHJOE@InstallState@ 00472ec8     SysStatus.obj
 0002:00016ed8       ??_C@_08LMOOJGEG@HelpLink@ 00472ed8     SysStatus.obj
 0002:00016ee4       ??_C@_0O@PPCFOOHH@HelpTelephone@ 00472ee4     SysStatus.obj
 0002:00016ef4       ??_C@_0O@GCCHCBIO@InstallSource@ 00472ef4     SysStatus.obj
 0002:00016f04       ??_C@_08BENDAOKD@Language@ 00472f04     SysStatus.obj
 0002:00016f10       ??_C@_0N@ONDNCIN@LocalPackage@ 00472f10     SysStatus.obj
 0002:00016f20       ??_C@_0N@LIDMIFHK@PackageCache@ 00472f20     SysStatus.obj
 0002:00016f30       ??_C@_0M@OMMGPPBL@PackageCode@ 00472f30     SysStatus.obj
 0002:00016f3c       ??_C@_0M@PLFIHHBG@PackageName@ 00472f3c     SysStatus.obj
 0002:00016f48       ??_C@_08KOFIEIPM@RegOwner@ 00472f48     SysStatus.obj
 0002:00016f54       ??_C@_0L@BDBMLIBF@RegCompany@ 00472f54     SysStatus.obj
 0002:00016f60       ??_C@_0L@LNLOEOEC@Transforms@ 00472f60     SysStatus.obj
 0002:00016f6c       ??_C@_0N@CIJCJNDA@URLInfoAbout@ 00472f6c     SysStatus.obj
 0002:00016f7c       ??_C@_0O@FDAGMPND@URLUpdateInfo@ 00472f7c     SysStatus.obj
 0002:00016f8c       ??_C@_09JCLOCIPO@WordCount@ 00472f8c     SysStatus.obj
 0002:00016f98       ??_C@_0BK@FHHANEEI@Win32_QuickFixEngineering@ 00472f98     SysStatus.obj
 0002:00016fb4       ??_C@_08GFKGEEBB@HotFixID@ 00472fb4     SysStatus.obj
 0002:00016fc0       ??_C@_0M@NMGHOPGA@InstalledBy@ 00472fc0     SysStatus.obj
 0002:00016fcc       ??_C@_0M@NBDMPIKF@InstalledOn@ 00472fcc     SysStatus.obj
 0002:00016fd8       ??_C@_0M@PIGNGIJB@FixComments@ 00472fd8     SysStatus.obj
 0002:00016fe4       ??_C@_0BE@FBEKBLIJ@ServicePackInEffect@ 00472fe4     SysStatus.obj
 0002:00016ff8       ??_C@_0BE@DKANKDCG@Win32_Refrigeration@ 00472ff8     SysStatus.obj
 0002:0001700c       ??_C@_0P@OGGGECNI@Win32_Registry@ 0047300c     SysStatus.obj
 0002:0001701c       ??_C@_0M@MLALLFJB@CurrentSize@ 0047301c     SysStatus.obj
 0002:00017028       ??_C@_0M@JHEHBNHB@MaximumSize@ 00473028     SysStatus.obj
 0002:00017034       ??_C@_0N@JHIKPPPP@ProposedSize@ 00473034     SysStatus.obj
 0002:00017044       ??_C@_0BE@DHOOODEL@Win32_SystemAccount@ 00473044     SysStatus.obj
 0002:00017058       ??_C@_03OMFNLMOB@SID@      00473058     SysStatus.obj
 0002:0001705c       ??_C@_0N@FPKOIMIG@LocalAccount@ 0047305c     SysStatus.obj
 0002:0001706c       ??_C@_07JDPBNNMM@SIDType@  0047306c     SysStatus.obj
 0002:00017074       ??_C@_0BD@GGPCAOMO@Win32_SystemDriver@ 00473074     SysStatus.obj
 0002:00017088       ??_C@_0M@MLHPPPJP@DisplayName@ 00473088     SysStatus.obj
 0002:00017094       ??_C@_08LHLJMCNC@PathName@ 00473094     SysStatus.obj
 0002:000170a0       ??_C@_0M@MEIJGDEJ@AcceptPause@ 004730a0     SysStatus.obj
 0002:000170ac       ??_C@_0L@MPAKMMDG@AcceptStop@ 004730ac     SysStatus.obj
 0002:000170b8       ??_C@_0BA@DKLNMHH@DesktopInteract@ 004730b8     SysStatus.obj
 0002:000170c8       ??_C@_0N@GPBKMKLE@ErrorControl@ 004730c8     SysStatus.obj
 0002:000170d8       ??_C@_08FHJJFIAP@ExitCode@ 004730d8     SysStatus.obj
 0002:000170e4       ??_C@_0BI@JAIDFKNN@ServiceSpecificExitCode@ 004730e4     SysStatus.obj
 0002:000170fc       ??_C@_0M@CFFFGGEC@ServiceType@ 004730fc     SysStatus.obj
 0002:00017108       ??_C@_09CIMAKHDE@StartName@ 00473108     SysStatus.obj
 0002:00017114       ??_C@_05JNKNAC@State@      00473114     SysStatus.obj
 0002:0001711c       ??_C@_05KFFLJNBG@TagId@    0047311c     SysStatus.obj
 0002:00017124       ??_C@_0BG@COLMHJCF@Win32_SystemEnclosure@ 00473124     SysStatus.obj
 0002:0001713c       ??_C@_0N@MLFAOMIG@ChassisTypes@ 0047313c     SysStatus.obj
 0002:0001714c       ??_C@_0N@FBKDMIBE@AudibleAlarm@ 0047314c     SysStatus.obj
 0002:0001715c       ??_C@_0BC@OICCILBJ@BreachDescription@ 0047315c     SysStatus.obj
 0002:00017170       ??_C@_0BI@OIOFCGCN@CableManagementStrategy@ 00473170     SysStatus.obj
 0002:00017188       ??_C@_0BK@DMAHAAAM@CurrentRequiredOrProduced@ 00473188     SysStatus.obj
 0002:000171a4       ??_C@_0P@FPMIANAI@HeatGeneration@ 004731a4     SysStatus.obj
 0002:000171b4       ??_C@_0M@FLPBGKMO@LockPresent@ 004731b4     SysStatus.obj
 0002:000171c0       ??_C@_0BD@BOLIJOBH@NumberOfPowerCords@ 004731c0     SysStatus.obj
 0002:000171d4       ??_C@_0P@IFAJDLJO@SecurityBreach@ 004731d4     SysStatus.obj
 0002:000171e4       ??_C@_0P@LBCDFKMM@SecurityStatus@ 004731e4     SysStatus.obj
 0002:000171f4       ??_C@_0BE@CDEDGENH@ServiceDescriptions@ 004731f4     SysStatus.obj
 0002:00017208       ??_C@_0BC@MJACHPAA@ServicePhilosophy@ 00473208     SysStatus.obj
 0002:0001721c       ??_C@_0P@GDBINLPP@SMBIOSAssetTag@ 0047321c     SysStatus.obj
 0002:0001722c       ??_C@_0BB@EPPDMJMG@TypeDescriptions@ 0047322c     SysStatus.obj
 0002:00017240       ??_C@_0N@BGAIBJKD@VisibleAlarm@ 00473240     SysStatus.obj
 0002:00017250       ??_C@_0BB@IINEGLLN@Win32_SystemSlot@ 00473250     SysStatus.obj
 0002:00017264       ??_C@_0BA@JKMEMADA@SlotDesignation@ 00473264     SysStatus.obj
 0002:00017274       ??_C@_0N@OHNMFPEL@CurrentUsage@ 00473274     SysStatus.obj
 0002:00017284       ??_C@_0O@JIADPBNP@HeightAllowed@ 00473284     SysStatus.obj
 0002:00017294       ??_C@_0O@ICFBEHEI@LengthAllowed@ 00473294     SysStatus.obj
 0002:000172a4       ??_C@_09KGLBDKHB@PMESignal@ 004732a4     SysStatus.obj
 0002:000172b0       ??_C@_0BD@MJCDBDLK@PurposeDescription@ 004732b0     SysStatus.obj
 0002:000172c4       ??_C@_06LOOAMPBO@Shared@   004732c4     SysStatus.obj
 0002:000172cc       ??_C@_0P@MHGKENBB@SpecialPurpose@ 004732cc     SysStatus.obj
 0002:000172dc       ??_C@_0BA@HLMBNLEL@SupportsHotPlug@ 004732dc     SysStatus.obj
 0002:000172ec       ??_C@_0O@OPICFFNJ@ThermalRating@ 004732ec     SysStatus.obj
 0002:000172fc       ??_C@_0BH@BMAHGALK@VccMixedVoltageSupport@ 004732fc     SysStatus.obj
 0002:00017314       ??_C@_0BH@LMHCBHLE@VppMixedVoltageSupport@ 00473314     SysStatus.obj
 0002:0001732c       ??_C@_0BF@IPHNLIOA@Win32_NetworkAdapter@ 0047332c     SysStatus.obj
 0002:00017344       ??_C@_0L@MLCHOGMM@MACAddress@ 00473344     SysStatus.obj
 0002:00017350       ??_C@_0BA@PKOOKBHK@PhysicalAdapter@ 00473350     SysStatus.obj
 0002:00017360       ??_C@_0M@IOFGKGDC@ServiceName@ 00473360     SysStatus.obj
 0002:0001736c       ??_C@_0BA@FMEGGBNH@NetConnectionID@ 0047336c     SysStatus.obj
 0002:0001737c       ??_C@_0BE@OHJLPIPO@NetConnectionStatus@ 0047337c     SysStatus.obj
 0002:00017390       ??_C@_08MFFAALKH@MaxSpeed@ 00473390     SysStatus.obj
 0002:0001739c       ??_C@_04MEIDEPGF@GUID@     0047339c     SysStatus.obj
 0002:000173a4       ??_C@_0BB@HCIBJPII@NetworkAddresses@ 004733a4     SysStatus.obj
 0002:000173b8       ??_C@_0BB@CPOCLJND@PermanentAddress@ 004733b8     SysStatus.obj
 0002:000173cc       ??_C@_0M@CBMGKKGD@AdapterType@ 004733cc     SysStatus.obj
 0002:000173d8       ??_C@_0O@JDINGPBK@AdapterTypeID@ 004733d8     SysStatus.obj
 0002:000173e8       ??_C@_09MMNBJFFE@AutoSense@ 004733e8     SysStatus.obj
 0002:000173f4       ??_C@_09HBJECKPO@Installed@ 004733f4     SysStatus.obj
 0002:00017400       ??_C@_0P@LMPBIBLI@InterfaceIndex@ 00473400     SysStatus.obj
 0002:00017410       ??_C@_0L@COBEMNCH@NetEnabled@ 00473410     SysStatus.obj
 0002:0001741c       ??_C@_0CC@CIAMNGGL@Win32_NetworkAdapterConfigurati@ 0047341c     SysStatus.obj
 0002:00017440       ??_C@_09NIGMFFPO@IPAddress@ 00473440     SysStatus.obj
 0002:0001744c       ??_C@_0L@BJOKJMLN@DHCPServer@ 0047344c     SysStatus.obj
 0002:00017458       ??_C@_0BB@HACNIBBH@DefaultIPGateway@ 00473458     SysStatus.obj
 0002:0001746c       ??_C@_09FBHLGFBK@DNSDomain@ 0047346c     SysStatus.obj
 0002:00017478       ??_C@_08EKHHNDLH@IPSubnet@ 00473478     SysStatus.obj
 0002:00017484       ??_C@_0BF@NNMMFFI@ArpAlwaysSourceRoute@ 00473484     SysStatus.obj
 0002:0001749c       ??_C@_0BA@DHDIOMKI@ArpUseEtherSNAP@ 0047349c     SysStatus.obj
 0002:000174ac       ??_C@_0N@OAKOAPMO@DatabasePath@ 004734ac     SysStatus.obj
 0002:000174bc       ??_C@_0BE@GOBIIDKA@DeadGWDetectEnabled@ 004734bc     SysStatus.obj
 0002:000174d0       ??_C@_0L@JFBEJJHM@DefaultTOS@ 004734d0     SysStatus.obj
 0002:000174dc       ??_C@_0L@EIDNNLHD@DefaultTTL@ 004734dc     SysStatus.obj
 0002:000174e8       ??_C@_0M@HIMIFMFA@DHCPEnabled@ 004734e8     SysStatus.obj
 0002:000174f4       ??_C@_0BB@BOGKHOEE@DHCPLeaseExpires@ 004734f4     SysStatus.obj
 0002:00017508       ??_C@_0BC@MIONLOAH@DHCPLeaseObtained@ 00473508     SysStatus.obj
 0002:0001751c       ??_C@_0BL@NEHFNDKH@DNSDomainSuffixSearchOrder@ 0047351c     SysStatus.obj
 0002:00017538       ??_C@_0BM@LEBEBEIJ@DNSEnabledForWINSResolution@ 00473538     SysStatus.obj
 0002:00017554       ??_C@_0BF@CIMMNJEP@DNSServerSearchOrder@ 00473554     SysStatus.obj
 0002:0001756c       ??_C@_0BN@OACMHJBD@DomainDNSRegistrationEnabled@ 0047356c     SysStatus.obj
 0002:0001758c       ??_C@_0BE@GGFBGHJP@ForwardBufferMemory@ 0047358c     SysStatus.obj
 0002:000175a0       ??_C@_0BL@EIIPDLGE@FullDNSRegistrationEnabled@ 004735a0     SysStatus.obj
 0002:000175bc       ??_C@_0BC@JPOLFPNM@GatewayCostMetric@ 004735bc     SysStatus.obj
 0002:000175d0       ??_C@_09LFCMALKM@IGMPLevel@ 004735d0     SysStatus.obj
 0002:000175dc       ??_C@_0BD@KDBLHBOO@IPConnectionMetric@ 004735dc     SysStatus.obj
 0002:000175f0       ??_C@_09KIFLBGKF@IPEnabled@ 004735f0     SysStatus.obj
 0002:000175fc       ??_C@_0BI@LBDHONDJ@IPFilterSecurityEnabled@ 004735fc     SysStatus.obj
 0002:00017614       ??_C@_0BG@IJANIIKC@IPPortSecurityEnabled@ 00473614     SysStatus.obj
 0002:0001762c       ??_C@_0BH@HHIPIHMF@IPSecPermitIPProtocols@ 0047362c     SysStatus.obj
 0002:00017644       ??_C@_0BE@JOIOPHFJ@IPSecPermitTCPPorts@ 00473644     SysStatus.obj
 0002:00017658       ??_C@_0BE@IDDAOKAD@IPSecPermitUDPPorts@ 00473658     SysStatus.obj
 0002:0001766c       ??_C@_0BD@EFBIPBIB@IPUseZeroBroadcast@ 0047366c     SysStatus.obj
 0002:00017680       ??_C@_0L@JNAHKDDE@IPXAddress@ 00473680     SysStatus.obj
 0002:0001768c       ??_C@_0L@ONDAOAGP@IPXEnabled@ 0047368c     SysStatus.obj
 0002:00017698       ??_C@_0N@EAKCLKKB@IPXFrameType@ 00473698     SysStatus.obj
 0002:000176a8       ??_C@_0N@FHNNAGIP@IPXMediaType@ 004736a8     SysStatus.obj
 0002:000176b8       ??_C@_0BB@HFHJDNKD@IPXNetworkNumber@ 004736b8     SysStatus.obj
 0002:000176cc       ??_C@_0BE@KIGHGIHN@IPXVirtualNetNumber@ 004736cc     SysStatus.obj
 0002:000176e0       ??_C@_0BC@HLLJNCGL@KeepAliveInterval@ 004736e0     SysStatus.obj
 0002:000176f4       ??_C@_0O@HNPIKCNH@KeepAliveTime@ 004736f4     SysStatus.obj
 0002:00017704       ??_C@_03BLLMIPHO@MTU@      00473704     SysStatus.obj
 0002:00017708       ??_C@_0BC@CHJCENM@NumForwardPackets@ 00473708     SysStatus.obj
 0002:0001771c       ??_C@_0BF@DPKIODPI@PMTUBHDetectEnabled?$DL@ 0047371c     SysStatus.obj
 0002:00017734       ??_C@_0BF@KBFAFCNG@PMTUDiscoveryEnabled@ 00473734     SysStatus.obj
 0002:0001774c       ??_C@_0BE@MJKNHDFN@TcpipNetbiosOptions@ 0047374c     SysStatus.obj
 0002:00017760       ??_C@_0BN@NBAJINBE@TcpMaxConnectRetransmissions@ 00473760     SysStatus.obj
 0002:00017780       ??_C@_0BK@ICGANMDC@TcpMaxDataRetransmissions@ 00473780     SysStatus.obj
 0002:0001779c       ??_C@_0BC@CEGEJAFC@TcpNumConnections@ 0047379c     SysStatus.obj
 0002:000177b0       ??_C@_0BL@JOFENPLC@TcpUseRFC1122UrgentPointer@ 004737b0     SysStatus.obj
 0002:000177cc       ??_C@_0O@CIEPJIDD@TcpWindowSize@ 004737cc     SysStatus.obj
 0002:000177dc       ??_C@_0BI@MIGGLKDO@WINSEnableLMHostsLookup@ 004737dc     SysStatus.obj
 0002:000177f4       ??_C@_0BD@POPKKJKC@WINSHostLookupFile@ 004737f4     SysStatus.obj
 0002:00017808       ??_C@_0BC@BECMMLFM@WINSPrimaryServer@ 00473808     SysStatus.obj
 0002:0001781c       ??_C@_0M@CMEBCDLL@WINSScopeID@ 0047381c     SysStatus.obj
 0002:00017828       ??_C@_0BE@CHHDIDN@WINSSecondaryServer@ 00473828     SysStatus.obj
 0002:0001783c       ??_C@_0BK@BBOKMFIH@Win32_NetworkLoginProfile@ 0047383c     SysStatus.obj
 0002:00017858       ??_C@_08FPDCFGEH@FullName@ 00473858     SysStatus.obj
 0002:00017864       ??_C@_0O@PKMMPAKN@HomeDirectory@ 00473864     SysStatus.obj
 0002:00017874       ??_C@_0BD@GBDEODMP@HomeDirectoryDrive@ 00473874     SysStatus.obj
 0002:00017888       ??_C@_0M@NDLIHBHJ@LogonServer@ 00473888     SysStatus.obj
 0002:00017894       ??_C@_06HAPGBBDI@UserId@   00473894     SysStatus.obj
 0002:0001789c       ??_C@_08LFHMHDM@UserType@  0047389c     SysStatus.obj
 0002:000178a8       ??_C@_0M@KEGPAPIK@UserComment@ 004738a8     SysStatus.obj
 0002:000178b4       ??_C@_0P@FLJOKOM@AccountExpires@ 004738b4     SysStatus.obj
 0002:000178c4       ??_C@_0BD@JGGENGAP@AuthorizationFlags@ 004738c4     SysStatus.obj
 0002:000178d8       ??_C@_0BB@OBONNEPA@BadPasswordCount@ 004738d8     SysStatus.obj
 0002:000178ec       ??_C@_08BHOPBADB@Caption?$DL@ 004738ec     SysStatus.obj
 0002:000178f8       ??_C@_08DOHJINHB@CodePage@ 004738f8     SysStatus.obj
 0002:00017904       ??_C@_07JABLCLAF@Comment@  00473904     SysStatus.obj
 0002:0001790c       ??_C@_0M@NALIBBDH@CountryCode@ 0047390c     SysStatus.obj
 0002:00017918       ??_C@_05BOOEKJH@Flags@     00473918     SysStatus.obj
 0002:00017920       ??_C@_0L@NKJIFPDG@LastLogoff@ 00473920     SysStatus.obj
 0002:0001792c       ??_C@_09JEOPKIAO@LastLogon@ 0047392c     SysStatus.obj
 0002:00017938       ??_C@_0L@HFGJFNDM@LogonHours@ 00473938     SysStatus.obj
 0002:00017944       ??_C@_0P@BDLNENEK@MaximumStorage@ 00473944     SysStatus.obj
 0002:00017954       ??_C@_0P@FMELCCCP@NumberOfLogons@ 00473954     SysStatus.obj
 0002:00017964       ??_C@_0L@PBGCNDPG@Parameters@ 00473964     SysStatus.obj
 0002:00017970       ??_C@_0M@HKNCEPDC@PasswordAge@ 00473970     SysStatus.obj
 0002:0001797c       ??_C@_0BA@HLOHOKEI@PasswordExpires@ 0047397c     SysStatus.obj
 0002:0001798c       ??_C@_0P@CIBDNLPH@PrimaryGroupId@ 0047398c     SysStatus.obj
 0002:0001799c       ??_C@_0L@FILALLBE@Privileges@ 0047399c     SysStatus.obj
 0002:000179a8       ??_C@_07EELFDIBP@Profile@  004739a8     SysStatus.obj
 0002:000179b0       ??_C@_0L@GHILPLPE@ScriptPath@ 004739b0     SysStatus.obj
 0002:000179bc       ??_C@_0N@LMMEGDEF@UnitsPerWeek@ 004739bc     SysStatus.obj
 0002:000179cc       ??_C@_0N@LMIHDJBC@Workstations@ 004739cc     SysStatus.obj
 0002:000179dc       ??_C@_0BG@IFKJCFNC@Win32_NetworkProtocol@ 004739dc     SysStatus.obj
 0002:000179f4       ??_C@_0BG@IODJFDPJ@ConnectionlessService@ 004739f4     SysStatus.obj
 0002:00017a0c       ??_C@_0BD@ECGOALCK@GuaranteesDelivery@ 00473a0c     SysStatus.obj
 0002:00017a20       ??_C@_0BF@FAHCIDLD@GuaranteesSequencing@ 00473a20     SysStatus.obj
 0002:00017a38       ??_C@_0BD@FFCOFDOJ@MaximumAddressSize@ 00473a38     SysStatus.obj
 0002:00017a4c       ??_C@_0BD@IBPHBINL@MaximumMessageSize@ 00473a4c     SysStatus.obj
 0002:00017a60       ??_C@_0BA@NLEIFDG@MessageOriented@ 00473a60     SysStatus.obj
 0002:00017a70       ??_C@_0BD@PCBKNDJA@MinimumAddressSize@ 00473a70     SysStatus.obj
 0002:00017a84       ??_C@_0BF@DJOBDJFP@PseudoStreamOriented@ 00473a84     SysStatus.obj
 0002:00017a9c       ??_C@_0BF@ONDNBOBK@SupportsBroadcasting@ 00473a9c     SysStatus.obj
 0002:00017ab4       ??_C@_0BE@OAOGNDFG@SupportsConnectData@ 00473ab4     SysStatus.obj
 0002:00017ac8       ??_C@_0BH@KMFDMCNH@SupportsDisconnectData@ 00473ac8     SysStatus.obj
 0002:00017ae0       ??_C@_0BD@BJHEFNDH@SupportsEncryption@ 00473ae0     SysStatus.obj
 0002:00017af4       ??_C@_0BG@MJFBKLBP@SupportsExpeditedData@ 00473af4     SysStatus.obj
 0002:00017b0c       ??_C@_0BH@PFGLDBHN@SupportsFragmentation?$DL@ 00473b0c     SysStatus.obj
 0002:00017b24       ??_C@_0BI@FGBPBAKA@SupportsGracefulClosing@ 00473b24     SysStatus.obj
 0002:00017b3c       ??_C@_0BM@MDHHIPIM@SupportsGuaranteedBandwidth@ 00473b3c     SysStatus.obj
 0002:00017b58       ??_C@_0BF@BHPPOJFK@SupportsMulticasting@ 00473b58     SysStatus.obj
 0002:00017b70       ??_C@_0BJ@MNHPDIFA@SupportsQualityofService@ 00473b70     SysStatus.obj
 0002:00017b8c       ??_C@_0BA@MBMLPGOB@Win32_CodecFile@ 00473b8c     SysStatus.obj
 0002:00017b9c       ??_C@_08BHIEONMC@FileSize@ 00473b9c     SysStatus.obj
 0002:00017ba8       ??_C@_08PICKODJL@FileType@ 00473ba8     SysStatus.obj
 0002:00017bb4       ??_C@_0L@OHPKPJND@AccessMask@ 00473bb4     SysStatus.obj
 0002:00017bc0       ??_C@_07CNOHFBBG@Archive@  00473bc0     SysStatus.obj
 0002:00017bc8       ??_C@_0L@FBPJPEIN@Compressed@ 00473bc8     SysStatus.obj
 0002:00017bd4       ??_C@_0N@GPGLEEKJ@CreationDate@ 00473bd4     SysStatus.obj
 0002:00017be4       ??_C@_09KLPLELGE@Encrypted@ 00473be4     SysStatus.obj
 0002:00017bf0       ??_C@_0BB@CPNPJAMG@EncryptionMethod@ 00473bf0     SysStatus.obj
 0002:00017c04       ??_C@_06PDIOKLEE@FSName@   00473c04     SysStatus.obj
 0002:00017c0c       ??_C@_05MBDCODDP@Group@    00473c0c     SysStatus.obj
 0002:00017c14       ??_C@_06FHBILLDG@Hidden@   00473c14     SysStatus.obj
 0002:00017c1c       ??_C@_0L@PCJCDOJK@InUseCount@ 00473c1c     SysStatus.obj
 0002:00017c28       ??_C@_0N@BLGOKNC@LastAccessed@ 00473c28     SysStatus.obj
 0002:00017c38       ??_C@_0N@JFOMFNHF@LastModified@ 00473c38     SysStatus.obj
 0002:00017c48       ??_C@_08PMHOKLA@Readable@  00473c48     SysStatus.obj
 0002:00017c54       ??_C@_06JIODDOFH@System@   00473c54     SysStatus.obj
 0002:00017c5c       ??_C@_09HKGIPMHJ@Writeable@ 00473c5c     SysStatus.obj
 0002:00017c68       ??_C@_0BG@OEFCBCCA@Win32_SoftwareFeature@ 00473c68     SysStatus.obj
 0002:00017c80       ??_C@_08OBOKCFEP@Accesses@ 00473c80     SysStatus.obj
 0002:00017c8c       ??_C@_0L@PLFFHFAH@Attributes@ 00473c8c     SysStatus.obj
 0002:00017c98       ??_C@_07PKCEDPHO@LastUse@  00473c98     SysStatus.obj
 0002:00017ca0       ??_C@_0BC@DPAOPBJD@Win32_BaseService@ 00473ca0     SysStatus.obj
 0002:00017cb4       ??_C@_0BI@EMHOOOGN@Win32_BootConfiguration@ 00473cb4     SysStatus.obj
 0002:00017ccc       ??_C@_0O@KLLIKPKC@BootDirectory@ 00473ccc     SysStatus.obj
 0002:00017cdc       ??_C@_0BC@BJLIMIEA@ConfigurationPath@ 00473cdc     SysStatus.obj
 0002:00017cf0       ??_C@_09PABAEPFH@LastDrive@ 00473cf0     SysStatus.obj
 0002:00017cfc       ??_C@_0BB@FHBPINGK@ScratchDirectory@ 00473cfc     SysStatus.obj
 0002:00017d10       ??_C@_0O@FDHFFDED@TempDirectory@ 00473d10     SysStatus.obj
 0002:00017d20       ??_C@_0O@MLAGCNDM@Win32_Desktop@ 00473d20     SysStatus.obj
 0002:00017d30       ??_C@_0M@EEKAPENF@BorderWidth@ 00473d30     SysStatus.obj
 0002:00017d3c       ??_C@_0L@GMHAONPD@CoolSwitch@ 00473d3c     SysStatus.obj
 0002:00017d48       ??_C@_0BA@NKDGIFD@CursorBlinkRate@ 00473d48     SysStatus.obj
 0002:00017d58       ??_C@_0BA@CNEMFCKH@DragFullWindows@ 00473d58     SysStatus.obj
 0002:00017d68       ??_C@_0BA@MJNOPNAD@GridGranularity@ 00473d68     SysStatus.obj
 0002:00017d78       ??_C@_0M@FALLBHKM@IconSpacing@ 00473d78     SysStatus.obj
 0002:00017d84       ??_C@_0BC@HAAMKFAI@IconTitleFaceName@ 00473d84     SysStatus.obj
 0002:00017d98       ??_C@_0O@COINDPHH@IconTitleSize@ 00473d98     SysStatus.obj
 0002:00017da8       ??_C@_0O@HLNDODKM@IconTitleWrap@ 00473da8     SysStatus.obj
 0002:00017db8       ??_C@_07NOCIGAPP@Pattern@  00473db8     SysStatus.obj
 0002:00017dc0       ??_C@_0BC@KENIIHPI@ScreenSaverActive@ 00473dc0     SysStatus.obj
 0002:00017dd4       ??_C@_0BG@OPEGFPLM@ScreenSaverExecutable@ 00473dd4     SysStatus.obj
 0002:00017dec       ??_C@_0BC@ENMGOCGL@ScreenSaverSecure@ 00473dec     SysStatus.obj
 0002:00017e00       ??_C@_0BD@LIKEHLGN@ScreenSaverTimeout@ 00473e00     SysStatus.obj
 0002:00017e14       ??_C@_09FAKNONCF@Wallpaper@ 00473e14     SysStatus.obj
 0002:00017e20       ??_C@_0BD@MNOICNPG@WallpaperStretched@ 00473e20     SysStatus.obj
 0002:00017e34       ??_C@_0P@HLGPBKPI@WallpaperTiled@ 00473e34     SysStatus.obj
 0002:00017e44       ??_C@_0BF@CJJIHFON@Win32_DesktopMonitor@ 00473e44     SysStatus.obj
 0002:00017e5c       ??_C@_0N@EJILFHEF@ScreenHeight@ 00473e5c     SysStatus.obj
 0002:00017e6c       ??_C@_0M@GOACCFHI@ScreenWidth@ 00473e6c     SysStatus.obj
 0002:00017e78       ??_C@_0BG@JHIHGKIO@PixelsPerXLogicalInch@ 00473e78     SysStatus.obj
 0002:00017e90       ??_C@_0BG@EKBBLDAL@PixelsPerYLogicalInch@ 00473e90     SysStatus.obj
 0002:00017ea8       ??_C@_0BE@EAJFLPNK@MonitorManufacturer@ 00473ea8     SysStatus.obj
 0002:00017ebc       ??_C@_0M@FCPFJAEP@MonitorType@ 00473ebc     SysStatus.obj
 0002:00017ec8       ??_C@_09LPCHGGLO@Bandwidth@ 00473ec8     SysStatus.obj
 0002:00017ed4       ??_C@_0M@GAHMDPOP@DisplayType@ 00473ed4     SysStatus.obj
 0002:00017ee0       ??_C@_09BEHCCOGC@Win32_Fan@ 00473ee0     SysStatus.obj
 0002:00017eec       ??_C@_0N@HOGGFFKF@DesiredSpeed@ 00473eec     SysStatus.obj
 0002:00017efc       ??_C@_0O@ODMHJIAL@VariableSpeed@ 00473efc     SysStatus.obj
 0002:00017f0c       ??_C@_0BG@MCGAGLCL@Win32_OperatingSystem@ 00473f0c     SysStatus.obj
 0002:00017f24       ??_C@_0P@NOCBMKBI@OSArchitecture@ 00473f24     SysStatus.obj
 0002:00017f34       ??_C@_09LLAGGHGM@BuildType@ 00473f34     SysStatus.obj
 0002:00017f40       ??_C@_0L@EGALIDNG@CSDVersion@ 00473f40     SysStatus.obj
 0002:00017f4c       ??_C@_0BI@MCMKKPJH@ServicePackMajorVersion@ 00473f4c     SysStatus.obj
 0002:00017f64       ??_C@_0BI@HEBPKKOL@ServicePackMinorVersion@ 00473f64     SysStatus.obj
 0002:00017f7c       ??_C@_0P@HNONGDKL@OSProductSuite@ 00473f7c     SysStatus.obj
 0002:00017f8c       ??_C@_06MNBFCOOH@OSType@   00473f8c     SysStatus.obj
 0002:00017f94       ??_C@_0N@MHPBIIPD@Organization@ 00473f94     SysStatus.obj
 0002:00017fa4       ??_C@_0P@DAFCPCAO@RegisteredUser@ 00473fa4     SysStatus.obj
 0002:00017fb4       ??_C@_0M@GGPOPAAP@ProductType@ 00473fb4     SysStatus.obj
 0002:00017fc0       ??_C@_0L@BLKKOICB@BootDevice@ 00473fc0     SysStatus.obj
 0002:00017fcc       ??_C@_0N@LCIKLBMI@SystemDevice@ 00473fcc     SysStatus.obj
 0002:00017fdc       ??_C@_0M@JBPIDKPO@SystemDrive@ 00473fdc     SysStatus.obj
 0002:00017fe8       ??_C@_0BA@FNJMICPB@SystemDirectory@ 00473fe8     SysStatus.obj
 0002:00017ff8       ??_C@_0BB@IEJHMEDK@WindowsDirectory@ 00473ff8     SysStatus.obj
 0002:0001800c       ??_C@_0L@IOMOHLID@OSLanguage@ 0047400c     SysStatus.obj
 0002:00018018       ??_C@_0CC@LDMHMPMB@DataExecutionPrevention_Availab@ 00474018     SysStatus.obj
 0002:0001803c       ??_C@_0CK@PHHDEHCB@DataExecutionPrevention_32BitAp@ 0047403c     SysStatus.obj
 0002:00018068       ??_C@_0CA@KCIFHCEN@DataExecutionPrevention_Drivers@ 00474068     SysStatus.obj
 0002:00018088       ??_C@_0CG@FOLHLACL@DataExecutionPrevention_Support@ 00474088     SysStatus.obj
 0002:000180b0       ??_C@_05GCIPIGEI@Debug@    004740b0     SysStatus.obj
 0002:000180b8       ??_C@_0M@DGCHPHG@Distributed@ 004740b8     SysStatus.obj
 0002:000180c4       ??_C@_0BA@LIJDDPMD@EncryptionLevel@ 004740c4     SysStatus.obj
 0002:000180d4       ??_C@_0BL@LKLGBOHP@ForegroundApplicationBoost@ 004740d4     SysStatus.obj
 0002:000180f0       ??_C@_0BD@KJPLACJD@FreePhysicalMemory@ 004740f0     SysStatus.obj
 0002:00018104       ??_C@_0BH@GDCHGEBO@FreeSpaceInPagingFiles@ 00474104     SysStatus.obj
 0002:0001811c       ??_C@_0BC@HEKPKJCK@FreeVirtualMemory@ 0047411c     SysStatus.obj
 0002:00018130       ??_C@_0BB@GLODIIPC@LargeSystemCache@ 00474130     SysStatus.obj
 0002:00018144       ??_C@_0P@DKHNBJBB@LastBootUpTime@ 00474144     SysStatus.obj
 0002:00018154       ??_C@_0O@GFNPHCJN@LocalDateTime@ 00474154     SysStatus.obj
 0002:00018164       ??_C@_06BMNFLCFO@Locale@   00474164     SysStatus.obj
 0002:0001816c       ??_C@_0BF@BJJFAIPL@MaxNumberOfProcesses@ 0047416c     SysStatus.obj
 0002:00018184       ??_C@_0BF@OEEDDGBK@MaxProcessMemorySize@ 00474184     SysStatus.obj
 0002:0001819c       ??_C@_0N@FEFLNODO@MUILanguages@ 0047419c     SysStatus.obj
 0002:000181ac       ??_C@_0BG@MGHJNMGE@NumberOfLicensedUsers@ 004741ac     SysStatus.obj
 0002:000181c4       ??_C@_0BC@FILGLGHH@NumberOfProcesses@ 004741c4     SysStatus.obj
 0002:000181d8       ??_C@_0O@PBBGLGFJ@NumberOfUsers@ 004741d8     SysStatus.obj
 0002:000181e8       ??_C@_0BD@GLJCNHGP@OperatingSystemSKU@ 004741e8     SysStatus.obj
 0002:000181fc       ??_C@_0BF@KAMHDIPP@OtherTypeDescription@ 004741fc     SysStatus.obj
 0002:00018214       ??_C@_0L@KNGIFFNB@PAEEnabled@ 00474214     SysStatus.obj
 0002:00018220       ??_C@_0O@NNCCMBIG@PlusProductID@ 00474220     SysStatus.obj
 0002:00018230       ??_C@_0BC@LMIHOAGL@PlusVersionNumber@ 00474230     SysStatus.obj
 0002:00018244       ??_C@_07NAEHBBNL@Primary@  00474244     SysStatus.obj
 0002:0001824c       ??_C@_0BI@BKJHEEOL@SizeStoredInPagingFiles@ 0047424c     SysStatus.obj
 0002:00018264       ??_C@_09IIJPJFOC@SuiteMask@ 00474264     SysStatus.obj
 0002:00018270       ??_C@_0BD@PBNAJGBH@TotalSwapSpaceSize@ 00474270     SysStatus.obj
 0002:00018284       ??_C@_0BH@IBKKELEK@TotalVirtualMemorySize@ 00474284     SysStatus.obj
 0002:0001829c       ??_C@_0BH@EOFEPLNL@TotalVisibleMemorySize@ 0047429c     SysStatus.obj
 0002:000182b4       ??_C@_0P@GFMPEM@Win32_PageFile@ 004742b4     SysStatus.obj
 0002:000182c4       ??_C@_09LCEICGML@FreeSpace@ 004742c4     SysStatus.obj
 0002:000182d0       ??_C@_0M@EONNPILK@InitialSize@ 004742d0     SysStatus.obj
 0002:000182dc       ??_C@_0BD@CPCJFLPJ@Win32_ParallelPort@ 004742dc     SysStatus.obj
 0002:000182f0       ??_C@_0L@LICOLOBE@DMASupport@ 004742f0     SysStatus.obj
 0002:000182fc       ??_C@_0M@GFHBIAHO@Win32_Proxy@ 004742fc     SysStatus.obj
 0002:00018308       ??_C@_0BA@LEMEMCNN@ProxyPortNumber@ 00474308     SysStatus.obj
 0002:00018318       ??_C@_0M@BCMAAPLG@ProxyServer@ 00474318     SysStatus.obj
 0002:00018324       ??_C@_0L@FFDIDHBB@ServerName@ 00474324     SysStatus.obj
 0002:00018330       ??_C@_0M@MCIKNCEL@Win32_Share@ 00474330     SysStatus.obj
 0002:0001833c       ??_C@_04HMIIHGGM@Path@     0047433c     SysStatus.obj
 0002:00018344       ??_C@_0P@IBLGFEE@MaximumAllowed@ 00474344     SysStatus.obj
 0002:00018354       ??_C@_0N@PEAHLPLG@AllowMaximum@ 00474354     SysStatus.obj
 0002:00018364       ??_C@_0BP@BGMJPOID@Win32_WindowsProductActivation@ 00474364     SysStatus.obj
 0002:00018384       ??_C@_0BD@HINAAJAB@ActivationRequired@ 00474384     SysStatus.obj
 0002:00018398       ??_C@_0BB@FFPKNIIL@IsNotificationOn@ 00474398     SysStatus.obj
 0002:000183ac       ??_C@_0BK@MHMKFBPN@RemainingEvaluationPeriod@ 004743ac     SysStatus.obj
 0002:000183c8       ??_C@_0BF@GDCPFLAD@RemainingGracePeriod@ 004743c8     SysStatus.obj
 0002:000183e0       ??_C@_0BB@BBHCGAKO@Win32_WMISetting@ 004743e0     SysStatus.obj
 0002:000183f4       ??_C@_0BK@HACJICBD@ASPScriptDefaultNamespace@ 004743f4     SysStatus.obj
 0002:00018410       ??_C@_0BB@HHJGCMCA@ASPScriptEnabled@ 00474410     SysStatus.obj
 0002:00018424       ??_C@_0BA@FCAEOBFB@AutorecoverMofs@ 00474424     SysStatus.obj
 0002:00018434       ??_C@_0P@LBFHKJDL@AutoStartWin9X@ 00474434     SysStatus.obj
 0002:00018444       ??_C@_0P@HCBDPJED@BackupInterval@ 00474444     SysStatus.obj
 0002:00018454       ??_C@_0P@HCKKJOFA@BackupLastTime@ 00474454     SysStatus.obj
 0002:00018464       ??_C@_0N@DMPKCKPJ@BuildVersion@ 00474464     SysStatus.obj
 0002:00018474       ??_C@_0BC@PJAEIMII@DatabaseDirectory@ 00474474     SysStatus.obj
 0002:00018488       ??_C@_0BA@GMIIIOHB@DatabaseMaxSize@ 00474488     SysStatus.obj
 0002:00018498       ??_C@_0BL@FLALGEND@EnableAnonWin9xConnections@ 00474498     SysStatus.obj
 0002:000184b4       ??_C@_0N@OBNHEDLP@EnableEvents@ 004744b4     SysStatus.obj
 0002:000184c4       ??_C@_0BP@DHLDKHJI@EnableStartupHeapPreallocation@ 004744c4     SysStatus.obj
 0002:000184e4       ??_C@_0BN@FBHHPGGC@HighThresholdOnClientObjects@ 004744e4     SysStatus.obj
 0002:00018504       ??_C@_0BG@LKICGCBK@HighThresholdOnEvents@ 00474504     SysStatus.obj
 0002:0001851c       ??_C@_0BG@MDEOBFAH@InstallationDirectory@ 0047451c     SysStatus.obj
 0002:00018534       ??_C@_0BN@GKEEMEKI@LastStartupHeapPreallocation@ 00474534     SysStatus.obj
 0002:00018554       ??_C@_0BB@FALFKNPE@LoggingDirectory@ 00474554     SysStatus.obj
 0002:00018568       ??_C@_0N@FMFGOJPB@LoggingLevel@ 00474568     SysStatus.obj
 0002:00018578       ??_C@_0BM@NGNJMOHJ@LowThresholdOnClientObjects@ 00474578     SysStatus.obj
 0002:00018594       ??_C@_0BF@PHEPMKDN@LowThresholdOnEvents@ 00474594     SysStatus.obj
 0002:000185ac       ??_C@_0P@CEPALFMK@MaxLogFileSize@ 004745ac     SysStatus.obj
 0002:000185bc       ??_C@_0BH@PBKELOKA@MaxWaitOnClientObjects@ 004745bc     SysStatus.obj
 0002:000185d4       ??_C@_0BA@NHHFPHIJ@MaxWaitOnEvents@ 004745d4     SysStatus.obj
 0002:000185e4       ??_C@_0BI@NOBDNJPM@MofSelfInstallDirectory@ 004745e4     SysStatus.obj
 0002:000185fc       ??_C@_0BL@CLHPKLFC@Win32_PrinterConfiguration@ 004745fc     SysStatus.obj
 0002:00018618       ??_C@_0L@MJJCDBO@BitsPerPel@ 00474618     SysStatus.obj
 0002:00018624       ??_C@_07KLCNEDPB@Collate@  00474624     SysStatus.obj
 0002:0001862c       ??_C@_05PDOBBJNA@Color@    0047462c     SysStatus.obj
 0002:00018634       ??_C@_06BLCAIJFC@Copies@   00474634     SysStatus.obj
 0002:0001863c       ??_C@_0L@FHIBJDML@DeviceName@ 0047463c     SysStatus.obj
 0002:00018648       ??_C@_0N@DJPIPGBF@DisplayFlags@ 00474648     SysStatus.obj
 0002:00018658       ??_C@_0BB@FJLGFJEJ@DisplayFrequency@ 00474658     SysStatus.obj
 0002:0001866c       ??_C@_06KIOALPNI@Duplex@   0047466c     SysStatus.obj
 0002:00018674       ??_C@_08EOPEEPJC@FormName@ 00474674     SysStatus.obj
 0002:00018680       ??_C@_0BF@FOMIFJDP@HorizontalResolution@ 00474680     SysStatus.obj
 0002:00018698       ??_C@_09ENKMJEBL@LogPixels@ 00474698     SysStatus.obj
 0002:000186a4       ??_C@_0M@LHPCLPIO@Orientation@ 004746a4     SysStatus.obj
 0002:000186b0       ??_C@_0M@ICHOFLKL@PaperLength@ 004746b0     SysStatus.obj
 0002:000186bc       ??_C@_09KFDMKFMI@PaperSize@ 004746bc     SysStatus.obj
 0002:000186c8       ??_C@_0L@OINDMHF@PaperWidth@ 004746c8     SysStatus.obj
 0002:000186d4       ??_C@_0L@FDBJOBNL@PelsHeight@ 004746d4     SysStatus.obj
 0002:000186e0       ??_C@_09CGGAMGGM@PelsWidth@ 004746e0     SysStatus.obj
 0002:000186ec       ??_C@_0N@CLBFGPBN@PrintQuality@ 004746ec     SysStatus.obj
 0002:000186fc       ??_C@_05MAGIBEFI@Scale@    004746fc     SysStatus.obj
 0002:00018704       ??_C@_08KMMMDKPE@TTOption@ 00474704     SysStatus.obj
 0002:00018710       ??_C@_0BD@FGMLFAJH@VerticalResolution@ 00474710     SysStatus.obj
 0002:00018724       ??_C@_0M@IMNEHNOF@XResolution@ 00474724     SysStatus.obj
 0002:00018730       ??_C@_0M@BHHBDBIK@YResolution@ 00474730     SysStatus.obj
 0002:0001873c       ??_C@_0BI@NLCFKEJK@Win32_NetworkConnection@ 0047473c     SysStatus.obj
 0002:00018754       ??_C@_0BA@FLFAPDFG@ConnectionState@ 00474754     SysStatus.obj
 0002:00018764       ??_C@_0P@LNPCDAPC@ConnectionType@ 00474764     SysStatus.obj
 0002:00018774       ??_C@_0L@CCMICFHJ@RemotePath@ 00474774     SysStatus.obj
 0002:00018780       ??_C@_09CLGGKACF@LocalName@ 00474780     SysStatus.obj
 0002:0001878c       ??_C@_0L@FLEBOKCI@RemoteName@ 0047478c     SysStatus.obj
 0002:00018798       ??_C@_0L@LNKKEMJM@Persistent@ 00474798     SysStatus.obj
 0002:000187a4       ??_C@_0N@ONCOBKP@ProviderName@ 004747a4     SysStatus.obj
 0002:000187b4       ??_C@_0N@EPHJOCBJ@ResourceType@ 004747b4     SysStatus.obj
 0002:000187c4       ??_C@_0N@NNCPDPIH@Win32_Volume@ 004747c4     SysStatus.obj
 0002:000187d4       ??_C@_05IEIONIFO@Label@    004747d4     SysStatus.obj
 0002:000187dc       ??_C@_0M@EHMJIHII@DriveLetter@ 004747dc     SysStatus.obj
 0002:000187e8       ??_C@_09NKILGKMH@DriveType@ 004747e8     SysStatus.obj
 0002:000187f4       ??_C@_0L@FPFLHALM@FileSystem@ 004747f4     SysStatus.obj
 0002:00018800       ??_C@_09HICOCIIF@Automount@ 00474800     SysStatus.obj
 0002:0001880c       ??_C@_0M@FMPADJNN@DirtyBitSet@ 0047480c     SysStatus.obj
 0002:00018818       ??_C@_0BA@JDIBBDEO@IndexingEnabled@ 00474818     SysStatus.obj
 0002:00018828       ??_C@_0BG@ELFKDNP@MaximumFileNameLength@ 00474828     SysStatus.obj
 0002:00018840       ??_C@_0O@HEHOMNCC@QuotasEnabled@ 00474840     SysStatus.obj
 0002:00018850       ??_C@_0BB@MPFPEDFA@QuotasIncomplete@ 00474850     SysStatus.obj
 0002:00018864       ??_C@_0BB@JJBCJECG@QuotasRebuilding@ 00474864     SysStatus.obj
 0002:00018878       ??_C@_0BD@BJDMHPHA@SupportsDiskQuotas@ 00474878     SysStatus.obj
 0002:0001888c       ??_C@_0BN@DMMADKEM@SupportsFileBasedCompression@ 0047488c     SysStatus.obj
 0002:000188ac       ??_C@_0CI@FFMDGJKG@Win32_PerfRawData_PerfDisk_Phys@ 004748ac     SysStatus.obj
 0002:000188d4       ??_C@_0BE@EFDGHEPA@AvgDiskBytesPerRead@ 004748d4     SysStatus.obj
 0002:000188e8       ??_C@_0BJ@BDMNCNHC@AvgDiskBytesPerRead_Base@ 004748e8     SysStatus.obj
 0002:00018904       ??_C@_0BI@NOBLAOA@AvgDiskBytesPerTransfer@ 00474904     SysStatus.obj
 0002:0001891c       ??_C@_0BN@DKGECFBJ@AvgDiskBytesPerTransfer_Base@ 0047491c     SysStatus.obj
 0002:0001893c       ??_C@_0BF@POONAKDE@AvgDiskBytesPerWrite@ 0047493c     SysStatus.obj
 0002:00018954       ??_C@_0BK@CFFBJGE@AvgDiskBytesPerWrite_Base@ 00474954     SysStatus.obj
 0002:00018970       ??_C@_0BD@CKOOLAI@AvgDiskQueueLength@ 00474970     SysStatus.obj
 0002:00018984       ??_C@_0BH@NCJLEAHB@AvgDiskReadQueueLength@ 00474984     SysStatus.obj
 0002:0001899c       ??_C@_0BD@LLDDCMMH@AvgDiskSecPerRead?$DL@ 0047499c     SysStatus.obj
 0002:000189b0       ??_C@_0BH@OOEPJOH@AvgDiskSecPerRead_Base@ 004749b0     SysStatus.obj
 0002:000189c8       ??_C@_0BG@JDCFEBPA@AvgDiskSecPerTransfer@ 004749c8     SysStatus.obj
 0002:000189e0       ??_C@_0BL@BNDKFKFB@AvgDiskSecPerTransfer_Base@ 004749e0     SysStatus.obj
 0002:000189fc       ??_C@_0BD@MEJEANKD@AvgDiskSecPerWrite@ 004749fc     SysStatus.obj
 0002:00018a10       ??_C@_0BI@ICCNFHHL@AvgDiskSecPerWrite_Base@ 00474a10     SysStatus.obj
 0002:00018a28       ??_C@_0BI@LJILLEEA@AvgDiskWriteQueueLength@ 00474a28     SysStatus.obj
 0002:00018a40       ??_C@_0BH@CFGDHLM@CurrentDiskQueueLength@ 00474a40     SysStatus.obj
 0002:00018a58       ??_C@_0BA@BBEHMIEJ@DiskBytesPerSec@ 00474a58     SysStatus.obj
 0002:00018a68       ??_C@_0BE@IJJNINGL@DiskReadBytesPerSec@ 00474a68     SysStatus.obj
 0002:00018a7c       ??_C@_0BA@GPEPCNFG@DiskReadsPerSec@ 00474a7c     SysStatus.obj
 0002:00018a8c       ??_C@_0BE@INHPJNPE@DiskTransfersPerSec@ 00474a8c     SysStatus.obj
 0002:00018aa0       ??_C@_0BF@BLPLIECA@DiskWriteBytesPerSec@ 00474aa0     SysStatus.obj
 0002:00018ab8       ??_C@_0BB@FFLCGPKG@DiskWritesPerSec@ 00474ab8     SysStatus.obj
 0002:00018acc       ??_C@_0BB@EEOEKLCO@Frequency_Object@ 00474acc     SysStatus.obj
 0002:00018ae0       ??_C@_0BD@IONDPFD@Frequency_PerfTime@ 00474ae0     SysStatus.obj
 0002:00018af4       ??_C@_0BD@MECIOMGA@Frequency_Sys100NS@ 00474af4     SysStatus.obj
 0002:00018b08       ??_C@_0BE@KMHMAHCP@PercentDiskReadTime@ 00474b08     SysStatus.obj
 0002:00018b1c       ??_C@_0BJ@JDFDIKDL@PercentDiskReadTime_Base@ 00474b1c     SysStatus.obj
 0002:00018b38       ??_C@_0BA@HPDMAPLN@PercentDiskTime@ 00474b38     SysStatus.obj
 0002:00018b48       ??_C@_0BF@CHKOMNLI@PercentDiskTime_Base@ 00474b48     SysStatus.obj
 0002:00018b60       ??_C@_0BF@DOKCNDOL@PercentDiskWriteTime@ 00474b60     SysStatus.obj
 0002:00018b78       ??_C@_0BK@OCJABKEM@PercentDiskWriteTime_Base@ 00474b78     SysStatus.obj
 0002:00018b94       ??_C@_0BA@LOOKHAGM@PercentIdleTime@ 00474b94     SysStatus.obj
 0002:00018ba4       ??_C@_0BF@PLICIEBG@PercentIdleTime_Base@ 00474ba4     SysStatus.obj
 0002:00018bbc       ??_C@_0O@JFLPIICD@SplitIOPerSec@ 00474bbc     SysStatus.obj
 0002:00018bcc       ??_C@_0BB@JNCIMECH@Timestamp_Object@ 00474bcc     SysStatus.obj
 0002:00018be0       ??_C@_0BD@ECCCBBP@Timestamp_PerfTime@ 00474be0     SysStatus.obj
 0002:00018bf4       ??_C@_0BD@MIOHPCCM@Timestamp_Sys100NS@ 00474bf4     SysStatus.obj
 0002:00018c08       ??_C@_0CH@LGANEOML@Win32_PerfRawData_PerfDisk_Logi@ 00474c08     SysStatus.obj
 0002:00018c30       ??_C@_0O@EJBHEMAA@FreeMegabytes@ 00474c30     SysStatus.obj
 0002:00018c40       ??_C@_0BC@IJGACNJB@AvgDiskSecPerRead@ 00474c40     SysStatus.obj
 0002:00018c54       ??_C@_0BB@FDAACFPN@PercentFreeSpace@ 00474c54     SysStatus.obj
 0002:00018c68       ??_C@_0BG@KEJCKNPB@PercentFreeSpace_Base@ 00474c68     SysStatus.obj
 0002:00018c80       ??_C@_0CF@MIMNIAPF@Win32_PerfRawData_PerfNet_Redir@ 00474c80     SysStatus.obj
 0002:00018ca8       ??_C@_0BE@IEAMAKJB@BytesReceivedPerSec@ 00474ca8     SysStatus.obj
 0002:00018cbc       ??_C@_0BH@GKKKHEEC@BytesTransmittedPerSec@ 00474cbc     SysStatus.obj
 0002:00018cd4       ??_C@_0BB@NADCFLBJ@BytesTotalPerSec@ 00474cd4     SysStatus.obj
 0002:00018ce8       ??_C@_0O@GPMHHPHG@PacketsPerSec@ 00474ce8     SysStatus.obj
 0002:00018cf8       ??_C@_0BG@PFNBEMLM@PacketsReceivedPerSec@ 00474cf8     SysStatus.obj
 0002:00018d10       ??_C@_0BJ@EHOOHGK@PacketsTransmittedPerSec@ 00474d10     SysStatus.obj
 0002:00018d2c       ??_C@_0N@IJGODAGI@ConnectsCore@ 00474d2c     SysStatus.obj
 0002:00018d3c       ??_C@_0BF@MNEGHJGM@ConnectsLanManager20@ 00474d3c     SysStatus.obj
 0002:00018d54       ??_C@_0BF@NEFNEICN@ConnectsLanManager21@ 00474d54     SysStatus.obj
 0002:00018d6c       ??_C@_0BC@EOFEMAHF@ConnectsWindowsNT@ 00474d6c     SysStatus.obj
 0002:00018d80       ??_C@_0BA@DJMJIEBG@CurrentCommands@ 00474d80     SysStatus.obj
 0002:00018d90       ??_C@_0BJ@CAIAAECL@FileDataOperationsPerSec@ 00474d90     SysStatus.obj
 0002:00018dac       ??_C@_0BJ@BKIGCPAP@FileReadOperationsPerSec@ 00474dac     SysStatus.obj
 0002:00018dc8       ??_C@_0BK@PGBFPAJ@FileWriteOperationsPerSec@ 00474dc8     SysStatus.obj
 0002:00018de4       ??_C@_0BE@OGCPPNJJ@NetworkErrorsPerSec@ 00474de4     SysStatus.obj
 0002:00018df8       ??_C@_0BF@LPDAMOL@ReadBytesCachePerSec@ 00474df8     SysStatus.obj
 0002:00018e10       ??_C@_0BH@IAHICFAL@ReadBytesNetworkPerSec@ 00474e10     SysStatus.obj
 0002:00018e28       ??_C@_0BJ@ILOCGCLG@ReadBytesNonPagingPerSec@ 00474e28     SysStatus.obj
 0002:00018e44       ??_C@_0BG@OLGMIDCE@ReadBytesPagingPerSec@ 00474e44     SysStatus.obj
 0002:00018e5c       ??_C@_0BL@CFIGOGID@ReadOperationsRandomPerSec@ 00474e5c     SysStatus.obj
 0002:00018e78       ??_C@_0BC@JALNAJBD@ReadPacketsPerSec@ 00474e78     SysStatus.obj
 0002:00018e8c       ??_C@_0BH@JCFIFLJN@ReadPacketsSmallPerSec@ 00474e8c     SysStatus.obj
 0002:00018ea4       ??_C@_0BC@MGHKCLNK@ReadsDeniedPerSec@ 00474ea4     SysStatus.obj
 0002:00018eb8       ??_C@_0BB@FFKFENGC@ReadsLargePerSec@ 00474eb8     SysStatus.obj
 0002:00018ecc       ??_C@_0BC@GAMKMMKB@ServerDisconnects@ 00474ecc     SysStatus.obj
 0002:00018ee0       ??_C@_0BB@LGLKKLGK@ServerReconnects@ 00474ee0     SysStatus.obj
 0002:00018ef4       ??_C@_0P@EPIIEJNA@ServerSessions@ 00474ef4     SysStatus.obj
 0002:00018f04       ??_C@_0BD@BALBBJPI@ServerSessionsHung@ 00474f04     SysStatus.obj
 0002:00018f18       ??_C@_0BG@GCNKDHCE@WriteBytesCachePerSec@ 00474f18     SysStatus.obj
 0002:00018f30       ??_C@_0BI@HNBBGOIH@WriteBytesNetworkPerSec@ 00474f30     SysStatus.obj
 0002:00018f48       ??_C@_0BK@PNNKNAIA@WriteBytesNonPagingPerSec@ 00474f48     SysStatus.obj
 0002:00018f64       ??_C@_0BH@OANOHFDO@WriteBytesPagingPerSec@ 00474f64     SysStatus.obj
 0002:00018f7c       ??_C@_0BM@IJPFNDGO@WriteOperationsRandomPerSec@ 00474f7c     SysStatus.obj
 0002:00018f98       ??_C@_0BD@NEABLLFJ@WritePacketsPerSec@ 00474f98     SysStatus.obj
 0002:00018fac       ??_C@_0BI@GPDBBABB@WritePacketsSmallPerSec@ 00474fac     SysStatus.obj
 0002:00018fc4       ??_C@_0BC@LMECNINB@WriteDeniedPerSec@ 00474fc4     SysStatus.obj
 0002:00018fd8       ??_C@_0BB@HAMOOOJ@WriteLargePerSec@ 00474fd8     SysStatus.obj
 0002:00018fec       ??_C@_0BP@LHEMPHPB@Win32_PerfRawData_PerfOS_Cache@ 00474fec     SysStatus.obj
 0002:0001900c       ??_C@_0BF@MGINILGA@AsyncCopyReadsPerSec@ 0047500c     SysStatus.obj
 0002:00019024       ??_C@_0BE@CAOOLPND@AsyncDataMapsPerSec@ 00475024     SysStatus.obj
 0002:00019038       ??_C@_0BF@GKOKALKG@AsyncFastReadsPerSec@ 00475038     SysStatus.obj
 0002:00019050       ??_C@_0BE@OMOFBJFA@AsyncMDLReadsPerSec@ 00475050     SysStatus.obj
 0002:00019064       ??_C@_0BE@PNDFACCO@AsyncPinReadsPerSec@ 00475064     SysStatus.obj
 0002:00019078       ??_C@_0BE@FFJCEMDJ@CopyReadHitsPercent@ 00475078     SysStatus.obj
 0002:0001908c       ??_C@_0BJ@FGOEJAHL@CopyReadHitsPercent_Base@ 0047508c     SysStatus.obj
 0002:000190a8       ??_C@_0BA@BIHGDHJL@CopyReadsPerSec@ 004750a8     SysStatus.obj
 0002:000190b8       ??_C@_0BC@MJKDEPG@DataFlushesPerSec@ 004750b8     SysStatus.obj
 0002:000190cc       ??_C@_0BF@JDDABGEO@DataFlushPagesPerSec@ 004750cc     SysStatus.obj
 0002:000190e4       ??_C@_0BD@KOAAJIJA@DataMapHitsPercent@ 004750e4     SysStatus.obj
 0002:000190f8       ??_C@_0BI@ILDKBHLK@DataMapHitsPercent_Base@ 004750f8     SysStatus.obj
 0002:00019110       ??_C@_0BC@OOMEAEEA@DataMapPinsPerSec@ 00475110     SysStatus.obj
 0002:00019124       ??_C@_0BH@JDIGEHGG@DataMapPinsPerSec_Base@ 00475124     SysStatus.obj
 0002:0001913c       ??_C@_0P@GAMMIBDO@DataMapsPerSec@ 0047513c     SysStatus.obj
 0002:0001914c       ??_C@_0BL@HBAEFMGM@FastReadNotPossiblesPerSec@ 0047514c     SysStatus.obj
 0002:00019168       ??_C@_0BN@JGPDPBED@FastReadResourceMissesPerSec@ 00475168     SysStatus.obj
 0002:00019188       ??_C@_0BA@LEBBLHFN@FastReadsPerSec@ 00475188     SysStatus.obj
 0002:00019198       ??_C@_0BH@JCPDBLIF@LazyWriteFlushesPerSec@ 00475198     SysStatus.obj
 0002:000191b0       ??_C@_0BF@GOGJJNKE@LazyWritePagesPerSec@ 004751b0     SysStatus.obj
 0002:000191c8       ??_C@_0BD@PNDPPHMH@MDLReadHitsPercent@ 004751c8     SysStatus.obj
 0002:000191dc       ??_C@_0BI@NMONEPAO@MDLReadHitsPercent_Base@ 004751dc     SysStatus.obj
