; Listing generated by Microsoft (R) Optimizing Compiler Version 19.16.27031.1 

	TITLE	c:\users\giulif\downloads\study\git\sysstatus\wmi.cpp
	.686P
	.XMM
	include listing.inc
	.model	flat

INCLUDELIB OLDNAMES

PUBLIC	??_C@_03LJNDFDHG@WQL@				; `string'
PUBLIC	??_C@_0CE@EKEEEJHG@?9?9?5WMI?0?5Query?5for?5?$CFs?5failed?0?50x@ ; `string'
PUBLIC	??_C@_0CD@FEICJBGP@?9?9?5WMI?0?5Processing?5?$CF?45u?5?$CFs?5?$CI?$CFi?$CJ@ ; `string'
PUBLIC	??_C@_06DBMAJEKE@0x?$CF?42X@			; `string'
PUBLIC	??_C@_0M@FJHOFDKM@?$CFs?5?$DN?50x?$CF?42X@	; `string'
PUBLIC	??_C@_06DFENOIBG@0x?$CF?44X@			; `string'
PUBLIC	??_C@_0M@FNPDCPBO@?$CFs?5?$DN?50x?$CF?44X@	; `string'
PUBLIC	??_C@_06DMFHBBHC@0x?$CF?48X@			; `string'
PUBLIC	??_C@_0M@FEOJNGHK@?$CFs?5?$DN?50x?$CF?48X@	; `string'
PUBLIC	??_C@_06GGPPAHKI@0x?$CFllX@			; `string'
PUBLIC	??_C@_0N@PNKHAPAI@?$CFs?5?$DN?50x?$CF?416X@	; `string'
PUBLIC	??_C@_09LCPBGOAC@0x?$CF?416llX@			; `string'
PUBLIC	??_C@_0P@BEIAOANA@?$CFs?5?$DN?50x?$CF?416llX@	; `string'
PUBLIC	??_C@_07FMFBIAH@?$CFs?5?$DN?5?$CFf@		; `string'
PUBLIC	??_C@_02CGLCDNAE@?$CFe@				; `string'
PUBLIC	??_C@_07COOIELME@?$CFs?5?$DN?5?$CFe@		; `string'
PUBLIC	??_C@_07DCHAPOBD@?$CFs?5?$DN?5?$CFs@		; `string'
PUBLIC	??_C@_03FKNCMABI@?$CFlu@			; `string'
PUBLIC	??_C@_08MBLOFINO@?$CFs?5?$DN?5?$CFlu@		; `string'
PUBLIC	??_C@_04EHEKGOB@?$CF?43u@			; `string'
PUBLIC	??_C@_09MDIAGEEM@?$CFs?40x?$CF?42X@		; `string'
PUBLIC	??_C@_09MHANBIPO@?$CFs?40x?$CF?44X@		; `string'
PUBLIC	??_C@_07OPDHNNBB@0x?$CF?48lX@			; `string'
PUBLIC	??_C@_0L@EBBEPHKL@?$CFs?40x?$CF?48lX@		; `string'
PUBLIC	??_C@_0N@HHGAEPMF@?$CFs?40x?$CF?416llX@		; `string'
PUBLIC	??_C@_05OKOCMAOB@?$CFs?4?$CFf@			; `string'
PUBLIC	??_C@_05MBMPJDCC@?$CFs?4?$CFe@			; `string'
PUBLIC	??_C@_07LKPPIONC@?$CFs?0?5?$CFd?3@		; `string'
PUBLIC	??_C@_0L@EBBAMLMD@?7?$DO?5?$CF?43d?5?$CFs@	; `string'
PUBLIC	??_C@_07DHPDHKIF@?$CFs?5?$DN?5?$CFd@		; `string'
PUBLIC	??_C@_0DD@MNMANIEP@?9?9?5WMI?0?5Catch?5unhndld?5excpetion@ ; `string'
PUBLIC	??_C@_0BJ@LOAJDHFE@?$CFlu?5properties?5processed@ ; `string'
PUBLIC	??_C@_0CL@NIHPHPOO@Elapsed?5Time?3?5?$CF02llu?3?$CF02llu?3?$CF02@ ; `string'
PUBLIC	??_C@_0BB@INLDOGMP@?$DM?$DM?5WMI?0?5ret?5True@	; `string'
PUBLIC	??_C@_0BE@CMGEPGOJ@?$DO?$DO?5ThrdWMICls?0?50x?$CFp@ ; `string'
PUBLIC	??_C@_0BK@MEBHLELC@?$DM?$DM?5ThrdWMICls?0?5Input?5null@ ; `string'
PUBLIC	??_C@_0P@GEABHMOE@?$CFs_?$CFs_?$CF?41d?4xml@	; `string'
PUBLIC	??_C@_0BO@KIFPLLFC@?9?9?5ThrdWMICls?0?5Trying?5opng?5?$CFs@ ; `string'
PUBLIC	??_C@_0CB@MFKPEIAE@?9?9?5ThrdWMICls?0?5Last?5file?5fnd?3?5?$CF@ ; `string'
PUBLIC	??_C@_0CJ@FDBGIAB@?9?9?5ThrdWMICls?0?5Removing?5?$CFs?5?9?5ol@ ; `string'
PUBLIC	??_C@_0CB@FAJHAFKJ@?9?9?5ThrdWMICls?0?5Renaming?5?$CFs?5?9?$DO?5?$CF@ ; `string'
PUBLIC	??_C@_0M@EJAENGON@?$CFs_?$CFs_0?4xml@		; `string'
PUBLIC	??_C@_09LJCHENPN@?$CFs_?$CFs?4xml@		; `string'
PUBLIC	??_C@_0CC@FAKIJPEF@?9?9?5ThrdWMICls?0?5Remaining?5?$CFs?5?9?$DO?5@ ; `string'
PUBLIC	??_C@_0DA@NFLHPILJ@?$DM?$DM?5ThrdWMICls?0?5?$CFs?0?5?$CF02llu?3?$CF02ll@ ; `string'
PUBLIC	??_C@_0BE@JLEOHDJI@?$DO?$DO?5ThrdWMI?0?5In?5?$CI?$CFp?$CJ@ ; `string'
PUBLIC	??_C@_03MFKIFBDE@hwi@				; `string'
PUBLIC	??_C@_0N@FBNILPME@HardwareInfo@			; `string'
PUBLIC	??_C@_0BF@MGDJDLAD@Hardware?5Information@	; `string'
PUBLIC	??_C@_02ELHCGPCE@ds@				; `string'
PUBLIC	??_C@_0M@PNBJJAPO@DataStorage@			; `string'
PUBLIC	??_C@_0CA@BNLNLMID@Disk?5and?5Partitions?5Information@ ; `string'
PUBLIC	??_C@_03IJLIBDBM@mem@				; `string'
PUBLIC	??_C@_06LEBJIAPJ@Memory@			; `string'
PUBLIC	??_C@_0BD@BGPGMIME@Memory?5Information@		; `string'
PUBLIC	??_C@_04HDBAHLAM@sysi@				; `string'
PUBLIC	??_C@_0L@NDINDOCK@SystemInfo@			; `string'
PUBLIC	??_C@_0BD@OJGHJHKA@System?5Information@		; `string'
PUBLIC	??_C@_03NBFOK@net@				; `string'
PUBLIC	??_C@_07BGDMAJAE@Network@			; `string'
PUBLIC	??_C@_0BE@KDFOEONK@Network?5Information@	; `string'
PUBLIC	??_C@_03FNIGJHAM@dev@				; `string'
PUBLIC	??_C@_09HCBPJCHD@Developer@			; `string'
PUBLIC	??_C@_0BG@KMFPDIMK@Developer?5Information@	; `string'
PUBLIC	??_C@_04GCPMIEJC@util@				; `string'
PUBLIC	??_C@_07HCOFHGI@Utility@			; `string'
PUBLIC	??_C@_0BE@DMCOJOJG@Utility?5Information@	; `string'
PUBLIC	??_C@_0BK@COLFJDO@?9?9?5ThrdWMI?0?5Waitg?5?$CFu?5thrs@ ; `string'
PUBLIC	??_C@_0CO@MMEAEDPF@?$DM?$DM?5ThrdWMI?0?5Out?0?5?$CF02llu?3?$CF02llu?3@ ; `string'
PUBLIC	??_C@_0O@FNHBIHHN@?$DO?$DO?5WMISysVols@		; `string'
PUBLIC	??_C@_0O@NMEDPGJL@?$DM?$DM?5WMISysVols@		; `string'
PUBLIC	??_C@_0O@JMIBPKNH@?$DO?$DO?5WMISysPerf@		; `string'
PUBLIC	??_C@_0O@BNLDILDB@?$DM?$DM?5WMISysPerf@		; `string'
PUBLIC	??_C@_0N@LKGAGMLJ@?$DO?$DO?5WMIHwSnsr@		; `string'
PUBLIC	??_C@_0N@DGAHEHGN@?$DM?$DM?5WMIHwSnsr@		; `string'
PUBLIC	__TI1?AVCAtlException@ATL@@
PUBLIC	_IID_IRegistrar
PUBLIC	_IID_IAxWinAmbientDispatchEx
PUBLIC	__CT??_R0?AVCAtlException@ATL@@@84
PUBLIC	??_R0?AVCAtlException@ATL@@@8			; ATL::CAtlException `RTTI Type Descriptor'
PUBLIC	_IID_IAxWinHostWindow
PUBLIC	_IID_IDocHostUIHandlerDispatch
PUBLIC	_LIBID_ATLLib
PUBLIC	_IID_IInternalConnection
PUBLIC	?_pAtlAutoThreadModule@ATL@@3PAUIAtlAutoThreadModule@1@A ; ATL::_pAtlAutoThreadModule
PUBLIC	?_AtlRegisterPerUser@ATL@@3_NA			; ATL::_AtlRegisterPerUser
PUBLIC	?m_bInitFailed@CAtlBaseModule@ATL@@2_NA		; ATL::CAtlBaseModule::m_bInitFailed
PUBLIC	___pobjMapEntryLast
PUBLIC	___pobjMapEntryFirst
PUBLIC	?_pPerfRegFunc@ATL@@3P6AJPAUHINSTANCE__@@@ZA	; ATL::_pPerfRegFunc
PUBLIC	?_pPerfUnRegFunc@ATL@@3P6AJXZA			; ATL::_pPerfUnRegFunc
PUBLIC	_CLSID_Registrar
PUBLIC	__CTA1?AVCAtlException@ATL@@
PUBLIC	_IID_IAxWinAmbientDispatch
PUBLIC	_IID_IAxWinHostWindowLic
PUBLIC	??_C@_02NJPGOMH@?$CFf@				; `string'
PUBLIC	??_C@_0BA@MKMIKKJB@atlTraceGeneral@		; `string'
PUBLIC	??_C@_0M@DGPFJEBB@atlTraceCOM@			; `string'
PUBLIC	??_C@_0L@LHELAKBP@atlTraceQI@			; `string'
PUBLIC	??_C@_0BC@MALHFBAO@atlTraceRegistrar@		; `string'
PUBLIC	??_C@_0BB@ILPPDKFL@atlTraceRefcount@		; `string'
PUBLIC	??_C@_0BC@DGHHNKDC@atlTraceWindowing@		; `string'
PUBLIC	??_C@_0BB@GHKJKKIE@atlTraceControls@		; `string'
PUBLIC	??_C@_0BA@DKOAAGGM@atlTraceHosting@		; `string'
PUBLIC	??_C@_0BB@BEBMGMDO@atlTraceDBClient@		; `string'
PUBLIC	??_C@_0BD@KOADKDIA@atlTraceDBProvider@		; `string'
PUBLIC	??_C@_0P@LNEGBOLO@atlTraceSnapin@		; `string'
PUBLIC	??_C@_0BA@MCBFIDIC@atlTraceNotImpl@		; `string'
PUBLIC	??_C@_0BD@PJPCCAKP@atlTraceAllocation@		; `string'
PUBLIC	??_C@_0BC@PGMFNIFA@atlTraceException@		; `string'
PUBLIC	??_C@_0N@BNNILHBE@atlTraceTime@			; `string'
PUBLIC	??_C@_0O@MEOJAOKK@atlTraceCache@		; `string'
PUBLIC	??_C@_0BA@IDBKCKK@atlTraceStencil@		; `string'
PUBLIC	??_C@_0P@MBNHGHMI@atlTraceString@		; `string'
PUBLIC	??_C@_0M@IOBBMAHG@atlTraceMap@			; `string'
PUBLIC	??_C@_0N@FEAAACHD@atlTraceUtil@			; `string'
PUBLIC	??_C@_0BB@DNJDADMG@atlTraceSecurity@		; `string'
PUBLIC	??_C@_0N@KLPNCFEE@atlTraceSync@			; `string'
PUBLIC	??_C@_0O@KHOBHOBJ@atlTraceISAPI@		; `string'
PUBLIC	??_C@_01CPLAODJH@S@				; `string'
PUBLIC	??_C@_01PLPBNMEI@M@				; `string'
PUBLIC	??_C@_01CKDDGHAB@D@				; `string'
PUBLIC	??_C@_01HMGJMAIH@B@				; `string'
PUBLIC	??_C@_03LAIAPFCB@Val@				; `string'
PUBLIC	??_C@_0M@DBGDLGLL@ForceRemove@			; `string'
PUBLIC	??_C@_08KAAPDIAN@NoRemove@			; `string'
PUBLIC	??_C@_06JBKGCNBB@Delete@			; `string'
PUBLIC	??_C@_0L@NGFAGIOG@?$DO?$DO?5WMI?0?5?$CFs@	; `string'
PUBLIC	??_C@_0BI@BJBFJFDH@?$DM?$DM?5WMI?0?5Null?5class?5name@ ; `string'
PUBLIC	??_C@_0BE@FCECJKPH@SysStatus_WMI_Mutex@		; `string'
PUBLIC	??_C@_0BO@LNIDFIJJ@?$DM?$DM?5WMI?0?5?$CFs?5Mutex?50x?$CFp?5timeout@ ; `string'
PUBLIC	??_C@_0DB@MKNIEHI@?$DM?$DM?5WMI?0?5Failed?5to?5initialize?5CO@ ; `string'
PUBLIC	??_C@_0CO@MICKHOIN@?$DM?$DM?5WMI?0?5Failed?5to?5initialize?5se@ ; `string'
PUBLIC	??_C@_0DE@HCGLOFPJ@?$DM?$DM?5WMI?0?5Failed?5to?5create?5IWbemL@ ; `string'
PUBLIC	??_C@_1BG@BJADHBOD@?$AAR?$AAO?$AAO?$AAT?$AA?2?$AAC?$AAI?$AAM?$AAV?$AA2@ ; `string'
PUBLIC	??_C@_0CC@BGNNPBKC@?$DM?$DM?5WMI?0?5Could?5not?5connect?0?50x?$CF?4@ ; `string'
PUBLIC	??_C@_0CO@HCPFANAN@?9?9?5WMI?0?5Connected?5to?5ROOT?2CIMV2@ ; `string'
PUBLIC	??_C@_0CM@PEEMIANH@?$DM?$DM?5WMI?0?5Could?5not?5set?5proxy?5bla@ ; `string'
PUBLIC	??_C@_0BB@MNPFNNGI@SELECT?5?$CK?5FROM?5?$CFs@	; `string'
PUBLIC	??_C@_0CD@LDAAPKBB@?9?9?5WMI?0?5Querying?5properties?5for@ ; `string'
EXTRN	__imp__SetSecurityDescriptorDacl@16:PROC
EXTRN	_CLSID_WbemLocator:BYTE
EXTRN	__imp__SafeArrayDestroy@4:PROC
EXTRN	__imp__CoInitializeEx@8:PROC
EXTRN	__imp__SafeArrayGetUBound@12:PROC
EXTRN	__imp__DeleteCriticalSection@4:PROC
EXTRN	__imp__SafeArrayUnlock@4:PROC
EXTRN	__imp__SafeArrayGetLBound@12:PROC
EXTRN	___ImageBase:BYTE
EXTRN	__imp__DecodePointer@4:PROC
EXTRN	__imp__SysFreeString@4:PROC
EXTRN	__imp__SafeArrayGetVartype@8:PROC
EXTRN	_IID_IWbemLocator:BYTE
EXTRN	__imp__CoInitializeSecurity@36:PROC
EXTRN	__imp__SysAllocString@4:PROC
EXTRN	__imp__MultiByteToWideChar@24:PROC
EXTRN	?ConvertStringToBSTR@_com_util@@YGPA_WPBD@Z:PROC ; _com_util::ConvertStringToBSTR
EXTRN	__imp__CoSetProxyBlanket@32:PROC
EXTRN	__imp__SafeArrayLock@4:PROC
EXTRN	__imp__InitializeCriticalSectionEx@12:PROC
EXTRN	?_AtlBaseModule@ATL@@3VCAtlBaseModule@1@A:BYTE	; ATL::_AtlBaseModule
EXTRN	__imp__InitializeSecurityDescriptor@8:PROC
EXTRN	__imp__WaitForMultipleObjects@16:PROC
EXTRN	__imp__CoCreateInstance@20:PROC
EXTRN	__imp__CoUninitialize@0:PROC
EXTRN	?_com_issue_error@@YGXJ@Z:PROC			; _com_issue_error
EXTRN	__imp__UnregisterClassA@8:PROC
EXTRN	__imp__VariantClear@4:PROC
;	COMDAT ?secInitialized@?1??WMIex@@YA_NPBDPAVxmlwriter@@PAK@Z@4_NA
_BSS	SEGMENT
?secInitialized@?1??WMIex@@YA_NPBDPAVxmlwriter@@PAK@Z@4_NA DB 01H DUP (?) ; `WMIex'::`2'::secInitialized
_BSS	ENDS
;	COMDAT ?_pAtlAutoThreadModule@ATL@@3PAUIAtlAutoThreadModule@1@A
_BSS	SEGMENT
?_pAtlAutoThreadModule@ATL@@3PAUIAtlAutoThreadModule@1@A DD 01H DUP (?) ; ATL::_pAtlAutoThreadModule
_BSS	ENDS
;	COMDAT ?_AtlRegisterPerUser@ATL@@3_NA
_BSS	SEGMENT
?_AtlRegisterPerUser@ATL@@3_NA DB 01H DUP (?)		; ATL::_AtlRegisterPerUser
_BSS	ENDS
;	COMDAT ?m_bInitFailed@CAtlBaseModule@ATL@@2_NA
_BSS	SEGMENT
?m_bInitFailed@CAtlBaseModule@ATL@@2_NA DB 01H DUP (?)	; ATL::CAtlBaseModule::m_bInitFailed
_BSS	ENDS
;	COMDAT ?_pPerfRegFunc@ATL@@3P6AJPAUHINSTANCE__@@@ZA
_BSS	SEGMENT
?_pPerfRegFunc@ATL@@3P6AJPAUHINSTANCE__@@@ZA DD 01H DUP (?) ; ATL::_pPerfRegFunc
_BSS	ENDS
;	COMDAT ?_pPerfUnRegFunc@ATL@@3P6AJXZA
_BSS	SEGMENT
?_pPerfUnRegFunc@ATL@@3P6AJXZA DD 01H DUP (?)		; ATL::_pPerfUnRegFunc
_BSS	ENDS
;	COMDAT ??_C@_0CD@LDAAPKBB@?9?9?5WMI?0?5Querying?5properties?5for@
CONST	SEGMENT
??_C@_0CD@LDAAPKBB@?9?9?5WMI?0?5Querying?5properties?5for@ DB '-- WMI, Qu'
	DB	'erying properties for %s', 00H		; `string'
CONST	ENDS
;	COMDAT ??_C@_0BB@MNPFNNGI@SELECT?5?$CK?5FROM?5?$CFs@
CONST	SEGMENT
??_C@_0BB@MNPFNNGI@SELECT?5?$CK?5FROM?5?$CFs@ DB 'SELECT * FROM %s', 00H ; `string'
CONST	ENDS
;	COMDAT ??_C@_0CM@PEEMIANH@?$DM?$DM?5WMI?0?5Could?5not?5set?5proxy?5bla@
CONST	SEGMENT
??_C@_0CM@PEEMIANH@?$DM?$DM?5WMI?0?5Could?5not?5set?5proxy?5bla@ DB '<< W'
	DB	'MI, Could not set proxy blanket, 0x%.8x', 00H ; `string'
CONST	ENDS
;	COMDAT ??_C@_0CO@HCPFANAN@?9?9?5WMI?0?5Connected?5to?5ROOT?2CIMV2@
CONST	SEGMENT
??_C@_0CO@HCPFANAN@?9?9?5WMI?0?5Connected?5to?5ROOT?2CIMV2@ DB '-- WMI, C'
	DB	'onnected to ROOT\CIMV2 WMI namespace', 00H	; `string'
CONST	ENDS
;	COMDAT ??_C@_0CC@BGNNPBKC@?$DM?$DM?5WMI?0?5Could?5not?5connect?0?50x?$CF?4@
CONST	SEGMENT
??_C@_0CC@BGNNPBKC@?$DM?$DM?5WMI?0?5Could?5not?5connect?0?50x?$CF?4@ DB '<'
	DB	'< WMI, Could not connect, 0x%.8x', 00H	; `string'
CONST	ENDS
;	COMDAT ??_C@_1BG@BJADHBOD@?$AAR?$AAO?$AAO?$AAT?$AA?2?$AAC?$AAI?$AAM?$AAV?$AA2@
CONST	SEGMENT
??_C@_1BG@BJADHBOD@?$AAR?$AAO?$AAO?$AAT?$AA?2?$AAC?$AAI?$AAM?$AAV?$AA2@ DB 'R'
	DB	00H, 'O', 00H, 'O', 00H, 'T', 00H, '\', 00H, 'C', 00H, 'I', 00H
	DB	'M', 00H, 'V', 00H, '2', 00H, 00H, 00H	; `string'
CONST	ENDS
;	COMDAT ??_C@_0DE@HCGLOFPJ@?$DM?$DM?5WMI?0?5Failed?5to?5create?5IWbemL@
CONST	SEGMENT
??_C@_0DE@HCGLOFPJ@?$DM?$DM?5WMI?0?5Failed?5to?5create?5IWbemL@ DB '<< WM'
	DB	'I, Failed to create IWbemLocator object,0x%.8x', 00H ; `string'
CONST	ENDS
;	COMDAT ??_C@_0CO@MICKHOIN@?$DM?$DM?5WMI?0?5Failed?5to?5initialize?5se@
CONST	SEGMENT
??_C@_0CO@MICKHOIN@?$DM?$DM?5WMI?0?5Failed?5to?5initialize?5se@ DB '<< WM'
	DB	'I, Failed to initialize security, 0x%.8x', 00H ; `string'
CONST	ENDS
;	COMDAT ??_C@_0DB@MKNIEHI@?$DM?$DM?5WMI?0?5Failed?5to?5initialize?5CO@
CONST	SEGMENT
??_C@_0DB@MKNIEHI@?$DM?$DM?5WMI?0?5Failed?5to?5initialize?5CO@ DB '<< WMI'
	DB	', Failed to initialize COM library, 0x%.8X', 00H ; `string'
CONST	ENDS
;	COMDAT ??_C@_0BO@LNIDFIJJ@?$DM?$DM?5WMI?0?5?$CFs?5Mutex?50x?$CFp?5timeout@
CONST	SEGMENT
??_C@_0BO@LNIDFIJJ@?$DM?$DM?5WMI?0?5?$CFs?5Mutex?50x?$CFp?5timeout@ DB '<'
	DB	'< WMI, %s Mutex 0x%p timeout', 00H		; `string'
CONST	ENDS
;	COMDAT ??_C@_0BE@FCECJKPH@SysStatus_WMI_Mutex@
CONST	SEGMENT
??_C@_0BE@FCECJKPH@SysStatus_WMI_Mutex@ DB 'SysStatus_WMI_Mutex', 00H ; `string'
CONST	ENDS
;	COMDAT ??_C@_0BI@BJBFJFDH@?$DM?$DM?5WMI?0?5Null?5class?5name@
CONST	SEGMENT
??_C@_0BI@BJBFJFDH@?$DM?$DM?5WMI?0?5Null?5class?5name@ DB '<< WMI, Null c'
	DB	'lass name', 00H				; `string'
CONST	ENDS
;	COMDAT ??_C@_0L@NGFAGIOG@?$DO?$DO?5WMI?0?5?$CFs@
CONST	SEGMENT
??_C@_0L@NGFAGIOG@?$DO?$DO?5WMI?0?5?$CFs@ DB '>> WMI, %s', 00H ; `string'
CONST	ENDS
;	COMDAT ??_C@_06JBKGCNBB@Delete@
CONST	SEGMENT
??_C@_06JBKGCNBB@Delete@ DB 'Delete', 00H		; `string'
CONST	ENDS
;	COMDAT ??_C@_08KAAPDIAN@NoRemove@
CONST	SEGMENT
??_C@_08KAAPDIAN@NoRemove@ DB 'NoRemove', 00H		; `string'
CONST	ENDS
;	COMDAT ??_C@_0M@DBGDLGLL@ForceRemove@
CONST	SEGMENT
??_C@_0M@DBGDLGLL@ForceRemove@ DB 'ForceRemove', 00H	; `string'
CONST	ENDS
;	COMDAT ??_C@_03LAIAPFCB@Val@
CONST	SEGMENT
??_C@_03LAIAPFCB@Val@ DB 'Val', 00H			; `string'
CONST	ENDS
;	COMDAT ??_C@_01HMGJMAIH@B@
CONST	SEGMENT
??_C@_01HMGJMAIH@B@ DB 'B', 00H				; `string'
CONST	ENDS
;	COMDAT ??_C@_01CKDDGHAB@D@
CONST	SEGMENT
??_C@_01CKDDGHAB@D@ DB 'D', 00H				; `string'
CONST	ENDS
;	COMDAT ??_C@_01PLPBNMEI@M@
CONST	SEGMENT
??_C@_01PLPBNMEI@M@ DB 'M', 00H				; `string'
CONST	ENDS
;	COMDAT ??_C@_01CPLAODJH@S@
CONST	SEGMENT
??_C@_01CPLAODJH@S@ DB 'S', 00H				; `string'
CONST	ENDS
;	COMDAT ??_C@_0O@KHOBHOBJ@atlTraceISAPI@
CONST	SEGMENT
??_C@_0O@KHOBHOBJ@atlTraceISAPI@ DB 'atlTraceISAPI', 00H ; `string'
CONST	ENDS
;	COMDAT ??_C@_0N@KLPNCFEE@atlTraceSync@
CONST	SEGMENT
??_C@_0N@KLPNCFEE@atlTraceSync@ DB 'atlTraceSync', 00H	; `string'
CONST	ENDS
;	COMDAT ??_C@_0BB@DNJDADMG@atlTraceSecurity@
CONST	SEGMENT
??_C@_0BB@DNJDADMG@atlTraceSecurity@ DB 'atlTraceSecurity', 00H ; `string'
CONST	ENDS
;	COMDAT ??_C@_0N@FEAAACHD@atlTraceUtil@
CONST	SEGMENT
??_C@_0N@FEAAACHD@atlTraceUtil@ DB 'atlTraceUtil', 00H	; `string'
CONST	ENDS
;	COMDAT ??_C@_0M@IOBBMAHG@atlTraceMap@
CONST	SEGMENT
??_C@_0M@IOBBMAHG@atlTraceMap@ DB 'atlTraceMap', 00H	; `string'
CONST	ENDS
;	COMDAT ??_C@_0P@MBNHGHMI@atlTraceString@
CONST	SEGMENT
??_C@_0P@MBNHGHMI@atlTraceString@ DB 'atlTraceString', 00H ; `string'
CONST	ENDS
;	COMDAT ??_C@_0BA@IDBKCKK@atlTraceStencil@
CONST	SEGMENT
??_C@_0BA@IDBKCKK@atlTraceStencil@ DB 'atlTraceStencil', 00H ; `string'
CONST	ENDS
;	COMDAT ??_C@_0O@MEOJAOKK@atlTraceCache@
CONST	SEGMENT
??_C@_0O@MEOJAOKK@atlTraceCache@ DB 'atlTraceCache', 00H ; `string'
CONST	ENDS
;	COMDAT ??_C@_0N@BNNILHBE@atlTraceTime@
CONST	SEGMENT
??_C@_0N@BNNILHBE@atlTraceTime@ DB 'atlTraceTime', 00H	; `string'
CONST	ENDS
;	COMDAT ??_C@_0BC@PGMFNIFA@atlTraceException@
CONST	SEGMENT
??_C@_0BC@PGMFNIFA@atlTraceException@ DB 'atlTraceException', 00H ; `string'
CONST	ENDS
;	COMDAT ??_C@_0BD@PJPCCAKP@atlTraceAllocation@
CONST	SEGMENT
??_C@_0BD@PJPCCAKP@atlTraceAllocation@ DB 'atlTraceAllocation', 00H ; `string'
CONST	ENDS
;	COMDAT ??_C@_0BA@MCBFIDIC@atlTraceNotImpl@
CONST	SEGMENT
??_C@_0BA@MCBFIDIC@atlTraceNotImpl@ DB 'atlTraceNotImpl', 00H ; `string'
CONST	ENDS
;	COMDAT ??_C@_0P@LNEGBOLO@atlTraceSnapin@
CONST	SEGMENT
??_C@_0P@LNEGBOLO@atlTraceSnapin@ DB 'atlTraceSnapin', 00H ; `string'
CONST	ENDS
;	COMDAT ??_C@_0BD@KOADKDIA@atlTraceDBProvider@
CONST	SEGMENT
??_C@_0BD@KOADKDIA@atlTraceDBProvider@ DB 'atlTraceDBProvider', 00H ; `string'
CONST	ENDS
;	COMDAT ??_C@_0BB@BEBMGMDO@atlTraceDBClient@
CONST	SEGMENT
??_C@_0BB@BEBMGMDO@atlTraceDBClient@ DB 'atlTraceDBClient', 00H ; `string'
CONST	ENDS
;	COMDAT ??_C@_0BA@DKOAAGGM@atlTraceHosting@
CONST	SEGMENT
??_C@_0BA@DKOAAGGM@atlTraceHosting@ DB 'atlTraceHosting', 00H ; `string'
CONST	ENDS
;	COMDAT ??_C@_0BB@GHKJKKIE@atlTraceControls@
CONST	SEGMENT
??_C@_0BB@GHKJKKIE@atlTraceControls@ DB 'atlTraceControls', 00H ; `string'
CONST	ENDS
;	COMDAT ??_C@_0BC@DGHHNKDC@atlTraceWindowing@
CONST	SEGMENT
??_C@_0BC@DGHHNKDC@atlTraceWindowing@ DB 'atlTraceWindowing', 00H ; `string'
CONST	ENDS
;	COMDAT ??_C@_0BB@ILPPDKFL@atlTraceRefcount@
CONST	SEGMENT
??_C@_0BB@ILPPDKFL@atlTraceRefcount@ DB 'atlTraceRefcount', 00H ; `string'
CONST	ENDS
;	COMDAT ??_C@_0BC@MALHFBAO@atlTraceRegistrar@
CONST	SEGMENT
??_C@_0BC@MALHFBAO@atlTraceRegistrar@ DB 'atlTraceRegistrar', 00H ; `string'
CONST	ENDS
;	COMDAT ??_C@_0L@LHELAKBP@atlTraceQI@
CONST	SEGMENT
??_C@_0L@LHELAKBP@atlTraceQI@ DB 'atlTraceQI', 00H	; `string'
CONST	ENDS
;	COMDAT ??_C@_0M@DGPFJEBB@atlTraceCOM@
CONST	SEGMENT
??_C@_0M@DGPFJEBB@atlTraceCOM@ DB 'atlTraceCOM', 00H	; `string'
CONST	ENDS
;	COMDAT ??_C@_0BA@MKMIKKJB@atlTraceGeneral@
CONST	SEGMENT
??_C@_0BA@MKMIKKJB@atlTraceGeneral@ DB 'atlTraceGeneral', 00H ; `string'
CONST	ENDS
;	COMDAT ??_C@_02NJPGOMH@?$CFf@
CONST	SEGMENT
??_C@_02NJPGOMH@?$CFf@ DB '%f', 00H			; `string'
CONST	ENDS
;	COMDAT _IID_IAxWinHostWindowLic
CONST	SEGMENT
_IID_IAxWinHostWindowLic DD 03935bda8H
	DW	04ed9H
	DW	0495cH
	DB	086H
	DB	050H
	DB	0e0H
	DB	01fH
	DB	0c1H
	DB	0e3H
	DB	08aH
	DB	04bH
CONST	ENDS
;	COMDAT ?PerfRawData_PerfOS_Memory@?1??WMISystemPerformance@@YAXXZ@4KA
_DATA	SEGMENT
?PerfRawData_PerfOS_Memory@?1??WMISystemPerformance@@YAXXZ@4KA DD 0ffffffffH ; `WMISystemPerformance'::`2'::PerfRawData_PerfOS_Memory
_DATA	ENDS
;	COMDAT ?PerfRawData_PerfOS_Processor@?1??WMISystemPerformance@@YAXXZ@4KA
_DATA	SEGMENT
?PerfRawData_PerfOS_Processor@?1??WMISystemPerformance@@YAXXZ@4KA DD 0ffffffffH ; `WMISystemPerformance'::`2'::PerfRawData_PerfOS_Processor
_DATA	ENDS
;	COMDAT ?PerfRawData_PerfOS_System@?1??WMISystemPerformance@@YAXXZ@4KA
_DATA	SEGMENT
?PerfRawData_PerfOS_System@?1??WMISystemPerformance@@YAXXZ@4KA DD 0ffffffffH ; `WMISystemPerformance'::`2'::PerfRawData_PerfOS_System
_DATA	ENDS
;	COMDAT _IID_IAxWinAmbientDispatch
CONST	SEGMENT
_IID_IAxWinAmbientDispatch DD 0b6ea2051H
	DW	048aH
	DW	011d1H
	DB	082H
	DB	0b9H
	DB	00H
	DB	0c0H
	DB	04fH
	DB	0b9H
	DB	094H
	DB	02eH
CONST	ENDS
;	COMDAT __CTA1?AVCAtlException@ATL@@
xdata$x	SEGMENT
__CTA1?AVCAtlException@ATL@@ DD 01H
	DD	FLAT:__CT??_R0?AVCAtlException@ATL@@@84
xdata$x	ENDS
;	COMDAT ?VoltageProbe@?1??WMIHardwareSensor@@YAXXZ@4KA
_DATA	SEGMENT
?VoltageProbe@?1??WMIHardwareSensor@@YAXXZ@4KA DD 0ffffffffH ; `WMIHardwareSensor'::`2'::VoltageProbe
_DATA	ENDS
;	COMDAT _CLSID_Registrar
CONST	SEGMENT
_CLSID_Registrar DD 044ec053aH
	DW	0400fH
	DW	011d0H
	DB	09dH
	DB	0cdH
	DB	00H
	DB	0a0H
	DB	0c9H
	DB	03H
	DB	091H
	DB	0d3H
CONST	ENDS
;	COMDAT ___pobjMapEntryFirst
ATL$__a	SEGMENT
___pobjMapEntryFirst DD 00H
ATL$__a	ENDS
;	COMDAT ___pobjMapEntryLast
ATL$__z	SEGMENT
___pobjMapEntryLast DD 00H
ATL$__z	ENDS
;	COMDAT _IID_IInternalConnection
CONST	SEGMENT
_IID_IInternalConnection DD 072ad0770H
	DW	06a9fH
	DW	011d1H
	DB	0bcH
	DB	0ecH
	DB	00H
	DB	060H
	DB	08H
	DB	08fH
	DB	044H
	DB	04eH
CONST	ENDS
;	COMDAT ?TemperatureProbe@?1??WMIHardwareSensor@@YAXXZ@4KA
_DATA	SEGMENT
?TemperatureProbe@?1??WMIHardwareSensor@@YAXXZ@4KA DD 0ffffffffH ; `WMIHardwareSensor'::`2'::TemperatureProbe
_DATA	ENDS
;	COMDAT ?PerfRawData_PerfOS_PagingFile@?1??WMISystemPerformance@@YAXXZ@4KA
_DATA	SEGMENT
?PerfRawData_PerfOS_PagingFile@?1??WMISystemPerformance@@YAXXZ@4KA DD 0ffffffffH ; `WMISystemPerformance'::`2'::PerfRawData_PerfOS_PagingFile
_DATA	ENDS
;	COMDAT ?Volume@?1??WMISystemVolumes@@YAXXZ@4KA
_DATA	SEGMENT
?Volume@?1??WMISystemVolumes@@YAXXZ@4KA DD 0ffffffffH	; `WMISystemVolumes'::`2'::Volume
_DATA	ENDS
;	COMDAT _LIBID_ATLLib
CONST	SEGMENT
_LIBID_ATLLib DD 044ec0535H
	DW	0400fH
	DW	011d0H
	DB	09dH
	DB	0cdH
	DB	00H
	DB	0a0H
	DB	0c9H
	DB	03H
	DB	091H
	DB	0d3H
CONST	ENDS
;	COMDAT ?PerfRawData_PerfNet_Redirector@?1??WMISystemPerformance@@YAXXZ@4KA
_DATA	SEGMENT
?PerfRawData_PerfNet_Redirector@?1??WMISystemPerformance@@YAXXZ@4KA DD 0ffffffffH ; `WMISystemPerformance'::`2'::PerfRawData_PerfNet_Redirector
_DATA	ENDS
;	COMDAT _IID_IDocHostUIHandlerDispatch
CONST	SEGMENT
_IID_IDocHostUIHandlerDispatch DD 0425b5af0H
	DW	065f1H
	DW	011d1H
	DB	096H
	DB	011H
	DB	00H
	DB	00H
	DB	0f8H
	DB	01eH
	DB	0dH
	DB	0dH
CONST	ENDS
;	COMDAT _IID_IAxWinHostWindow
CONST	SEGMENT
_IID_IAxWinHostWindow DD 0b6ea2050H
	DW	048aH
	DW	011d1H
	DB	082H
	DB	0b9H
	DB	00H
	DB	0c0H
	DB	04fH
	DB	0b9H
	DB	094H
	DB	02eH
CONST	ENDS
;	COMDAT ?PerfRawData_PerfOS_Cache@?1??WMISystemPerformance@@YAXXZ@4KA
_DATA	SEGMENT
?PerfRawData_PerfOS_Cache@?1??WMISystemPerformance@@YAXXZ@4KA DD 0ffffffffH ; `WMISystemPerformance'::`2'::PerfRawData_PerfOS_Cache
_DATA	ENDS
;	COMDAT ??_R0?AVCAtlException@ATL@@@8
data$r	SEGMENT
??_R0?AVCAtlException@ATL@@@8 DD FLAT:??_7type_info@@6B@ ; ATL::CAtlException `RTTI Type Descriptor'
	DD	00H
	DB	'.?AVCAtlException@ATL@@', 00H
data$r	ENDS
;	COMDAT ?PerfRawData_PerfDisk_PhysicalDisk@?1??WMISystemPerformance@@YAXXZ@4KA
_DATA	SEGMENT
?PerfRawData_PerfDisk_PhysicalDisk@?1??WMISystemPerformance@@YAXXZ@4KA DD 0ffffffffH ; `WMISystemPerformance'::`2'::PerfRawData_PerfDisk_PhysicalDisk
_DATA	ENDS
;	COMDAT ?CurrentProbe@?1??WMIHardwareSensor@@YAXXZ@4KA
_DATA	SEGMENT
?CurrentProbe@?1??WMIHardwareSensor@@YAXXZ@4KA DD 0ffffffffH ; `WMIHardwareSensor'::`2'::CurrentProbe
_DATA	ENDS
;	COMDAT __CT??_R0?AVCAtlException@ATL@@@84
xdata$x	SEGMENT
__CT??_R0?AVCAtlException@ATL@@@84 DD 00H
	DD	FLAT:??_R0?AVCAtlException@ATL@@@8
	DD	00H
	DD	0ffffffffH
	ORG $+4
	DD	04H
	DD	00H
xdata$x	ENDS
;	COMDAT ?PortableBattery@?1??WMIHardwareSensor@@YAXXZ@4KA
_DATA	SEGMENT
?PortableBattery@?1??WMIHardwareSensor@@YAXXZ@4KA DD 0ffffffffH ; `WMIHardwareSensor'::`2'::PortableBattery
_DATA	ENDS
;	COMDAT _IID_IAxWinAmbientDispatchEx
CONST	SEGMENT
_IID_IAxWinAmbientDispatchEx DD 0b2d0778bH
	DW	0ac99H
	DW	04c58H
	DB	0a5H
	DB	0c8H
	DB	0e7H
	DB	072H
	DB	04eH
	DB	053H
	DB	016H
	DB	0b5H
CONST	ENDS
;	COMDAT _IID_IRegistrar
CONST	SEGMENT
_IID_IRegistrar DD 044ec053bH
	DW	0400fH
	DW	011d0H
	DB	09dH
	DB	0cdH
	DB	00H
	DB	0a0H
	DB	0c9H
	DB	03H
	DB	091H
	DB	0d3H
CONST	ENDS
;	COMDAT __TI1?AVCAtlException@ATL@@
xdata$x	SEGMENT
__TI1?AVCAtlException@ATL@@ DD 00H
	DD	00H
	DD	00H
	DD	FLAT:__CTA1?AVCAtlException@ATL@@
xdata$x	ENDS
;	COMDAT ?PerfRawData_PerfOS_Objects@?1??WMISystemPerformance@@YAXXZ@4KA
_DATA	SEGMENT
?PerfRawData_PerfOS_Objects@?1??WMISystemPerformance@@YAXXZ@4KA DD 0ffffffffH ; `WMISystemPerformance'::`2'::PerfRawData_PerfOS_Objects
_DATA	ENDS
;	COMDAT ??_C@_0N@DGAHEHGN@?$DM?$DM?5WMIHwSnsr@
CONST	SEGMENT
??_C@_0N@DGAHEHGN@?$DM?$DM?5WMIHwSnsr@ DB '<< WMIHwSnsr', 00H ; `string'
CONST	ENDS
;	COMDAT ??_C@_0N@LKGAGMLJ@?$DO?$DO?5WMIHwSnsr@
CONST	SEGMENT
??_C@_0N@LKGAGMLJ@?$DO?$DO?5WMIHwSnsr@ DB '>> WMIHwSnsr', 00H ; `string'
CONST	ENDS
;	COMDAT ??_C@_0O@BNLDILDB@?$DM?$DM?5WMISysPerf@
CONST	SEGMENT
??_C@_0O@BNLDILDB@?$DM?$DM?5WMISysPerf@ DB '<< WMISysPerf', 00H ; `string'
CONST	ENDS
;	COMDAT ??_C@_0O@JMIBPKNH@?$DO?$DO?5WMISysPerf@
CONST	SEGMENT
??_C@_0O@JMIBPKNH@?$DO?$DO?5WMISysPerf@ DB '>> WMISysPerf', 00H ; `string'
CONST	ENDS
;	COMDAT ??_C@_0O@NMEDPGJL@?$DM?$DM?5WMISysVols@
CONST	SEGMENT
??_C@_0O@NMEDPGJL@?$DM?$DM?5WMISysVols@ DB '<< WMISysVols', 00H ; `string'
CONST	ENDS
;	COMDAT ??_C@_0O@FNHBIHHN@?$DO?$DO?5WMISysVols@
CONST	SEGMENT
??_C@_0O@FNHBIHHN@?$DO?$DO?5WMISysVols@ DB '>> WMISysVols', 00H ; `string'
CONST	ENDS
;	COMDAT ??_C@_0CO@MMEAEDPF@?$DM?$DM?5ThrdWMI?0?5Out?0?5?$CF02llu?3?$CF02llu?3@
CONST	SEGMENT
??_C@_0CO@MMEAEDPF@?$DM?$DM?5ThrdWMI?0?5Out?0?5?$CF02llu?3?$CF02llu?3@ DB '<'
	DB	'< ThrdWMI, Out, %02llu:%02llu:%02llu, %.3f s', 00H ; `string'
CONST	ENDS
;	COMDAT ??_C@_0BK@COLFJDO@?9?9?5ThrdWMI?0?5Waitg?5?$CFu?5thrs@
CONST	SEGMENT
??_C@_0BK@COLFJDO@?9?9?5ThrdWMI?0?5Waitg?5?$CFu?5thrs@ DB '-- ThrdWMI, Wa'
	DB	'itg %u thrs', 00H				; `string'
CONST	ENDS
;	COMDAT ??_C@_0BE@DMCOJOJG@Utility?5Information@
CONST	SEGMENT
??_C@_0BE@DMCOJOJG@Utility?5Information@ DB 'Utility Information', 00H ; `string'
CONST	ENDS
;	COMDAT ??_C@_07HCOFHGI@Utility@
CONST	SEGMENT
??_C@_07HCOFHGI@Utility@ DB 'Utility', 00H		; `string'
CONST	ENDS
;	COMDAT ??_C@_04GCPMIEJC@util@
CONST	SEGMENT
??_C@_04GCPMIEJC@util@ DB 'util', 00H			; `string'
CONST	ENDS
;	COMDAT ??_C@_0BG@KMFPDIMK@Developer?5Information@
CONST	SEGMENT
??_C@_0BG@KMFPDIMK@Developer?5Information@ DB 'Developer Information', 00H ; `string'
CONST	ENDS
;	COMDAT ??_C@_09HCBPJCHD@Developer@
CONST	SEGMENT
??_C@_09HCBPJCHD@Developer@ DB 'Developer', 00H		; `string'
CONST	ENDS
;	COMDAT ??_C@_03FNIGJHAM@dev@
CONST	SEGMENT
??_C@_03FNIGJHAM@dev@ DB 'dev', 00H			; `string'
CONST	ENDS
;	COMDAT ??_C@_0BE@KDFOEONK@Network?5Information@
CONST	SEGMENT
??_C@_0BE@KDFOEONK@Network?5Information@ DB 'Network Information', 00H ; `string'
CONST	ENDS
;	COMDAT ??_C@_07BGDMAJAE@Network@
CONST	SEGMENT
??_C@_07BGDMAJAE@Network@ DB 'Network', 00H		; `string'
CONST	ENDS
;	COMDAT ??_C@_03NBFOK@net@
CONST	SEGMENT
??_C@_03NBFOK@net@ DB 'net', 00H			; `string'
CONST	ENDS
;	COMDAT ??_C@_0BD@OJGHJHKA@System?5Information@
CONST	SEGMENT
??_C@_0BD@OJGHJHKA@System?5Information@ DB 'System Information', 00H ; `string'
CONST	ENDS
;	COMDAT ??_C@_0L@NDINDOCK@SystemInfo@
CONST	SEGMENT
??_C@_0L@NDINDOCK@SystemInfo@ DB 'SystemInfo', 00H	; `string'
CONST	ENDS
;	COMDAT ??_C@_04HDBAHLAM@sysi@
CONST	SEGMENT
??_C@_04HDBAHLAM@sysi@ DB 'sysi', 00H			; `string'
CONST	ENDS
;	COMDAT ??_C@_0BD@BGPGMIME@Memory?5Information@
CONST	SEGMENT
??_C@_0BD@BGPGMIME@Memory?5Information@ DB 'Memory Information', 00H ; `string'
CONST	ENDS
;	COMDAT ??_C@_06LEBJIAPJ@Memory@
CONST	SEGMENT
??_C@_06LEBJIAPJ@Memory@ DB 'Memory', 00H		; `string'
CONST	ENDS
;	COMDAT ??_C@_03IJLIBDBM@mem@
CONST	SEGMENT
??_C@_03IJLIBDBM@mem@ DB 'mem', 00H			; `string'
CONST	ENDS
;	COMDAT ??_C@_0CA@BNLNLMID@Disk?5and?5Partitions?5Information@
CONST	SEGMENT
??_C@_0CA@BNLNLMID@Disk?5and?5Partitions?5Information@ DB 'Disk and Parti'
	DB	'tions Information', 00H			; `string'
CONST	ENDS
;	COMDAT ??_C@_0M@PNBJJAPO@DataStorage@
CONST	SEGMENT
??_C@_0M@PNBJJAPO@DataStorage@ DB 'DataStorage', 00H	; `string'
CONST	ENDS
;	COMDAT ??_C@_02ELHCGPCE@ds@
CONST	SEGMENT
??_C@_02ELHCGPCE@ds@ DB 'ds', 00H			; `string'
CONST	ENDS
;	COMDAT ??_C@_0BF@MGDJDLAD@Hardware?5Information@
CONST	SEGMENT
??_C@_0BF@MGDJDLAD@Hardware?5Information@ DB 'Hardware Information', 00H ; `string'
CONST	ENDS
;	COMDAT ??_C@_0N@FBNILPME@HardwareInfo@
CONST	SEGMENT
??_C@_0N@FBNILPME@HardwareInfo@ DB 'HardwareInfo', 00H	; `string'
CONST	ENDS
;	COMDAT ??_C@_03MFKIFBDE@hwi@
CONST	SEGMENT
??_C@_03MFKIFBDE@hwi@ DB 'hwi', 00H			; `string'
CONST	ENDS
;	COMDAT ??_C@_0BE@JLEOHDJI@?$DO?$DO?5ThrdWMI?0?5In?5?$CI?$CFp?$CJ@
CONST	SEGMENT
??_C@_0BE@JLEOHDJI@?$DO?$DO?5ThrdWMI?0?5In?5?$CI?$CFp?$CJ@ DB '>> ThrdWMI'
	DB	', In (%p)', 00H				; `string'
CONST	ENDS
;	COMDAT ??_C@_0DA@NFLHPILJ@?$DM?$DM?5ThrdWMICls?0?5?$CFs?0?5?$CF02llu?3?$CF02ll@
CONST	SEGMENT
??_C@_0DA@NFLHPILJ@?$DM?$DM?5ThrdWMICls?0?5?$CFs?0?5?$CF02llu?3?$CF02ll@ DB '<'
	DB	'< ThrdWMICls, %s, %02llu:%02llu:%02llu, %.3f s', 00H ; `string'
CONST	ENDS
;	COMDAT ??_C@_0CC@FAKIJPEF@?9?9?5ThrdWMICls?0?5Remaining?5?$CFs?5?9?$DO?5@
CONST	SEGMENT
??_C@_0CC@FAKIJPEF@?9?9?5ThrdWMICls?0?5Remaining?5?$CFs?5?9?$DO?5@ DB '--'
	DB	' ThrdWMICls, Remaining %s -> %s', 00H	; `string'
CONST	ENDS
;	COMDAT ??_C@_09LJCHENPN@?$CFs_?$CFs?4xml@
CONST	SEGMENT
??_C@_09LJCHENPN@?$CFs_?$CFs?4xml@ DB '%s_%s.xml', 00H	; `string'
CONST	ENDS
;	COMDAT ??_C@_0M@EJAENGON@?$CFs_?$CFs_0?4xml@
CONST	SEGMENT
??_C@_0M@EJAENGON@?$CFs_?$CFs_0?4xml@ DB '%s_%s_0.xml', 00H ; `string'
CONST	ENDS
;	COMDAT ??_C@_0CB@FAJHAFKJ@?9?9?5ThrdWMICls?0?5Renaming?5?$CFs?5?9?$DO?5?$CF@
CONST	SEGMENT
??_C@_0CB@FAJHAFKJ@?9?9?5ThrdWMICls?0?5Renaming?5?$CFs?5?9?$DO?5?$CF@ DB '-'
	DB	'- ThrdWMICls, Renaming %s -> %s', 00H	; `string'
CONST	ENDS
;	COMDAT ??_C@_0CJ@FDBGIAB@?9?9?5ThrdWMICls?0?5Removing?5?$CFs?5?9?5ol@
CONST	SEGMENT
??_C@_0CJ@FDBGIAB@?9?9?5ThrdWMICls?0?5Removing?5?$CFs?5?9?5ol@ DB '-- Thr'
	DB	'dWMICls, Removing %s - oldest file', 00H	; `string'
CONST	ENDS
;	COMDAT ??_C@_0CB@MFKPEIAE@?9?9?5ThrdWMICls?0?5Last?5file?5fnd?3?5?$CF@
CONST	SEGMENT
??_C@_0CB@MFKPEIAE@?9?9?5ThrdWMICls?0?5Last?5file?5fnd?3?5?$CF@ DB '-- Th'
	DB	'rdWMICls, Last file fnd: %s', 00H		; `string'
CONST	ENDS
;	COMDAT ??_C@_0BO@KIFPLLFC@?9?9?5ThrdWMICls?0?5Trying?5opng?5?$CFs@
CONST	SEGMENT
??_C@_0BO@KIFPLLFC@?9?9?5ThrdWMICls?0?5Trying?5opng?5?$CFs@ DB '-- ThrdWM'
	DB	'ICls, Trying opng %s', 00H			; `string'
CONST	ENDS
;	COMDAT ??_C@_0P@GEABHMOE@?$CFs_?$CFs_?$CF?41d?4xml@
CONST	SEGMENT
??_C@_0P@GEABHMOE@?$CFs_?$CFs_?$CF?41d?4xml@ DB '%s_%s_%.1d.xml', 00H ; `string'
CONST	ENDS
;	COMDAT ??_C@_0BK@MEBHLELC@?$DM?$DM?5ThrdWMICls?0?5Input?5null@
CONST	SEGMENT
??_C@_0BK@MEBHLELC@?$DM?$DM?5ThrdWMICls?0?5Input?5null@ DB '<< ThrdWMICls'
	DB	', Input null', 00H				; `string'
CONST	ENDS
;	COMDAT ??_C@_0BE@CMGEPGOJ@?$DO?$DO?5ThrdWMICls?0?50x?$CFp@
CONST	SEGMENT
??_C@_0BE@CMGEPGOJ@?$DO?$DO?5ThrdWMICls?0?50x?$CFp@ DB '>> ThrdWMICls, 0x'
	DB	'%p', 00H					; `string'
CONST	ENDS
;	COMDAT ??_C@_0BB@INLDOGMP@?$DM?$DM?5WMI?0?5ret?5True@
CONST	SEGMENT
??_C@_0BB@INLDOGMP@?$DM?$DM?5WMI?0?5ret?5True@ DB '<< WMI, ret True', 00H ; `string'
CONST	ENDS
;	COMDAT ??_C@_0CL@NIHPHPOO@Elapsed?5Time?3?5?$CF02llu?3?$CF02llu?3?$CF02@
CONST	SEGMENT
??_C@_0CL@NIHPHPOO@Elapsed?5Time?3?5?$CF02llu?3?$CF02llu?3?$CF02@ DB 'Ela'
	DB	'psed Time: %02llu:%02llu:%02llu, %.3f s', 00H ; `string'
CONST	ENDS
;	COMDAT ??_C@_0BJ@LOAJDHFE@?$CFlu?5properties?5processed@
CONST	SEGMENT
??_C@_0BJ@LOAJDHFE@?$CFlu?5properties?5processed@ DB '%lu properties proc'
	DB	'essed', 00H					; `string'
CONST	ENDS
;	COMDAT ??_C@_0DD@MNMANIEP@?9?9?5WMI?0?5Catch?5unhndld?5excpetion@
CONST	SEGMENT
??_C@_0DD@MNMANIEP@?9?9?5WMI?0?5Catch?5unhndld?5excpetion@ DB '-- WMI, Ca'
	DB	'tch unhndld excpetion on %.5u %s (%i) %s', 00H ; `string'
CONST	ENDS
;	COMDAT ??_C@_07DHPDHKIF@?$CFs?5?$DN?5?$CFd@
CONST	SEGMENT
??_C@_07DHPDHKIF@?$CFs?5?$DN?5?$CFd@ DB '%s = %d', 00H	; `string'
CONST	ENDS
;	COMDAT ??_C@_0L@EBBAMLMD@?7?$DO?5?$CF?43d?5?$CFs@
CONST	SEGMENT
??_C@_0L@EBBAMLMD@?7?$DO?5?$CF?43d?5?$CFs@ DB 09H, '> %.3d %s', 00H ; `string'
CONST	ENDS
;	COMDAT ??_C@_07LKPPIONC@?$CFs?0?5?$CFd?3@
CONST	SEGMENT
??_C@_07LKPPIONC@?$CFs?0?5?$CFd?3@ DB '%s, %d:', 00H	; `string'
CONST	ENDS
;	COMDAT ??_C@_05MBMPJDCC@?$CFs?4?$CFe@
CONST	SEGMENT
??_C@_05MBMPJDCC@?$CFs?4?$CFe@ DB '%s.%e', 00H		; `string'
CONST	ENDS
;	COMDAT ??_C@_05OKOCMAOB@?$CFs?4?$CFf@
CONST	SEGMENT
??_C@_05OKOCMAOB@?$CFs?4?$CFf@ DB '%s.%f', 00H		; `string'
CONST	ENDS
;	COMDAT ??_C@_0N@HHGAEPMF@?$CFs?40x?$CF?416llX@
CONST	SEGMENT
??_C@_0N@HHGAEPMF@?$CFs?40x?$CF?416llX@ DB '%s.0x%.16llX', 00H ; `string'
CONST	ENDS
;	COMDAT ??_C@_0L@EBBEPHKL@?$CFs?40x?$CF?48lX@
CONST	SEGMENT
??_C@_0L@EBBEPHKL@?$CFs?40x?$CF?48lX@ DB '%s.0x%.8lX', 00H ; `string'
CONST	ENDS
;	COMDAT ??_C@_07OPDHNNBB@0x?$CF?48lX@
CONST	SEGMENT
??_C@_07OPDHNNBB@0x?$CF?48lX@ DB '0x%.8lX', 00H		; `string'
CONST	ENDS
;	COMDAT ??_C@_09MHANBIPO@?$CFs?40x?$CF?44X@
CONST	SEGMENT
??_C@_09MHANBIPO@?$CFs?40x?$CF?44X@ DB '%s.0x%.4X', 00H	; `string'
CONST	ENDS
;	COMDAT ??_C@_09MDIAGEEM@?$CFs?40x?$CF?42X@
CONST	SEGMENT
??_C@_09MDIAGEEM@?$CFs?40x?$CF?42X@ DB '%s.0x%.2X', 00H	; `string'
CONST	ENDS
;	COMDAT ??_C@_04EHEKGOB@?$CF?43u@
CONST	SEGMENT
??_C@_04EHEKGOB@?$CF?43u@ DB '%.3u', 00H		; `string'
CONST	ENDS
;	COMDAT ??_C@_08MBLOFINO@?$CFs?5?$DN?5?$CFlu@
CONST	SEGMENT
??_C@_08MBLOFINO@?$CFs?5?$DN?5?$CFlu@ DB '%s = %lu', 00H ; `string'
CONST	ENDS
;	COMDAT ??_C@_03FKNCMABI@?$CFlu@
CONST	SEGMENT
??_C@_03FKNCMABI@?$CFlu@ DB '%lu', 00H			; `string'
CONST	ENDS
;	COMDAT ??_C@_07DCHAPOBD@?$CFs?5?$DN?5?$CFs@
CONST	SEGMENT
??_C@_07DCHAPOBD@?$CFs?5?$DN?5?$CFs@ DB '%s = %s', 00H	; `string'
CONST	ENDS
;	COMDAT ??_C@_07COOIELME@?$CFs?5?$DN?5?$CFe@
CONST	SEGMENT
??_C@_07COOIELME@?$CFs?5?$DN?5?$CFe@ DB '%s = %e', 00H	; `string'
CONST	ENDS
;	COMDAT ??_C@_02CGLCDNAE@?$CFe@
CONST	SEGMENT
??_C@_02CGLCDNAE@?$CFe@ DB '%e', 00H			; `string'
CONST	ENDS
;	COMDAT ??_C@_07FMFBIAH@?$CFs?5?$DN?5?$CFf@
CONST	SEGMENT
??_C@_07FMFBIAH@?$CFs?5?$DN?5?$CFf@ DB '%s = %f', 00H	; `string'
CONST	ENDS
;	COMDAT ??_C@_0P@BEIAOANA@?$CFs?5?$DN?50x?$CF?416llX@
CONST	SEGMENT
??_C@_0P@BEIAOANA@?$CFs?5?$DN?50x?$CF?416llX@ DB '%s = 0x%.16llX', 00H ; `string'
CONST	ENDS
;	COMDAT ??_C@_09LCPBGOAC@0x?$CF?416llX@
CONST	SEGMENT
??_C@_09LCPBGOAC@0x?$CF?416llX@ DB '0x%.16llX', 00H	; `string'
CONST	ENDS
;	COMDAT ??_C@_0N@PNKHAPAI@?$CFs?5?$DN?50x?$CF?416X@
CONST	SEGMENT
??_C@_0N@PNKHAPAI@?$CFs?5?$DN?50x?$CF?416X@ DB '%s = 0x%.16X', 00H ; `string'
CONST	ENDS
;	COMDAT ??_C@_06GGPPAHKI@0x?$CFllX@
CONST	SEGMENT
??_C@_06GGPPAHKI@0x?$CFllX@ DB '0x%llX', 00H		; `string'
CONST	ENDS
;	COMDAT ??_C@_0M@FEOJNGHK@?$CFs?5?$DN?50x?$CF?48X@
CONST	SEGMENT
??_C@_0M@FEOJNGHK@?$CFs?5?$DN?50x?$CF?48X@ DB '%s = 0x%.8X', 00H ; `string'
CONST	ENDS
;	COMDAT ??_C@_06DMFHBBHC@0x?$CF?48X@
CONST	SEGMENT
??_C@_06DMFHBBHC@0x?$CF?48X@ DB '0x%.8X', 00H		; `string'
CONST	ENDS
;	COMDAT ??_C@_0M@FNPDCPBO@?$CFs?5?$DN?50x?$CF?44X@
CONST	SEGMENT
??_C@_0M@FNPDCPBO@?$CFs?5?$DN?50x?$CF?44X@ DB '%s = 0x%.4X', 00H ; `string'
CONST	ENDS
;	COMDAT ??_C@_06DFENOIBG@0x?$CF?44X@
CONST	SEGMENT
??_C@_06DFENOIBG@0x?$CF?44X@ DB '0x%.4X', 00H		; `string'
CONST	ENDS
;	COMDAT ??_C@_0M@FJHOFDKM@?$CFs?5?$DN?50x?$CF?42X@
CONST	SEGMENT
??_C@_0M@FJHOFDKM@?$CFs?5?$DN?50x?$CF?42X@ DB '%s = 0x%.2X', 00H ; `string'
CONST	ENDS
;	COMDAT ??_C@_06DBMAJEKE@0x?$CF?42X@
CONST	SEGMENT
??_C@_06DBMAJEKE@0x?$CF?42X@ DB '0x%.2X', 00H		; `string'
CONST	ENDS
;	COMDAT ??_C@_0CD@FEICJBGP@?9?9?5WMI?0?5Processing?5?$CF?45u?5?$CFs?5?$CI?$CFi?$CJ@
CONST	SEGMENT
??_C@_0CD@FEICJBGP@?9?9?5WMI?0?5Processing?5?$CF?45u?5?$CFs?5?$CI?$CFi?$CJ@ DB '-'
	DB	'- WMI, Processing %.5u %s (%i) %s', 00H	; `string'
CONST	ENDS
;	COMDAT ??_C@_0CE@EKEEEJHG@?9?9?5WMI?0?5Query?5for?5?$CFs?5failed?0?50x@
CONST	SEGMENT
??_C@_0CE@EKEEEJHG@?9?9?5WMI?0?5Query?5for?5?$CFs?5failed?0?50x@ DB '-- W'
	DB	'MI, Query for %s failed, 0x%.8x', 00H	; `string'
CONST	ENDS
;	COMDAT ??_C@_03LJNDFDHG@WQL@
CONST	SEGMENT
??_C@_03LJNDFDHG@WQL@ DB 'WQL', 00H			; `string'
PUBLIC	??$_Copy_memmove@PAEPAE@std@@YAPAEPAE00@Z	; std::_Copy_memmove<unsigned char *,unsigned char *>
PUBLIC	??$_Copy_memmove@PAGPAG@std@@YAPAGPAG00@Z	; std::_Copy_memmove<unsigned short *,unsigned short *>
PUBLIC	??$_Copy_memmove@PAKPAK@std@@YAPAKPAK00@Z	; std::_Copy_memmove<unsigned long *,unsigned long *>
PUBLIC	??$_Copy_memmove@PA_KPA_K@std@@YAPA_KPA_K00@Z	; std::_Copy_memmove<unsigned __int64 *,unsigned __int64 *>
PUBLIC	??$_Copy_memmove@PAMPAM@std@@YAPAMPAM00@Z	; std::_Copy_memmove<float *,float *>
PUBLIC	??$_Copy_memmove@PANPAN@std@@YAPANPAN00@Z	; std::_Copy_memmove<double *,double *>
PUBLIC	??$_Copy_memmove@PAPA_WPAPA_W@std@@YAPAPA_WPAPA_W00@Z ; std::_Copy_memmove<wchar_t * *,wchar_t * *>
PUBLIC	??$_Emplace_back@ABV?$basic_string@DU?$char_traits@D@std@@V?$allocator@D@2@@std@@@?$_Uninitialized_backout_al@PAV?$basic_string@DU?$char_traits@D@std@@V?$allocator@D@2@@std@@V?$allocator@V?$basic_string@DU?$char_traits@D@std@@V?$allocator@D@2@@std@@@2@@std@@QAEXABV?$basic_string@DU?$char_traits@D@std@@V?$allocator@D@2@@1@@Z ; std::_Uninitialized_backout_al<std::basic_string<char,std::char_traits<char>,std::allocator<char> > *,std::allocator<std::basic_string<char,std::char_traits<char>,std::allocator<char> > > >::_Emplace_back<std::basic_string<char,std::char_traits<char>,std::allocator<char> > const &>
PUBLIC	??$_Seek_wrapped@E@std@@YAXAAPAEQAE@Z		; std::_Seek_wrapped<unsigned char>
PUBLIC	??$_Uninitialized_move_al_unchecked@EEV?$allocator@E@std@@@std@@YAPAEQAE00AAV?$allocator@E@0@U_Really_trivial_ptr_iterator_tag@0@U?$integral_constant@_N$00@0@@Z ; std::_Uninitialized_move_al_unchecked<unsigned char,unsigned char,std::allocator<unsigned char> >
PUBLIC	??$_Ptr_move_cat@EE@std@@YA?AU_Really_trivial_ptr_iterator_tag@0@ABQAE0@Z ; std::_Ptr_move_cat<unsigned char,unsigned char>
PUBLIC	??$_Get_unwrapped_n@EH$0A@@std@@YAPAEQAEH@Z	; std::_Get_unwrapped_n<unsigned char,int,0>
PUBLIC	??$_Get_unwrapped@E@std@@YAPAEQAE@Z		; std::_Get_unwrapped<unsigned char>
PUBLIC	??$_Seek_wrapped@G@std@@YAXAAPAGQAG@Z		; std::_Seek_wrapped<unsigned short>
PUBLIC	??$_Uninitialized_move_al_unchecked@GGV?$allocator@G@std@@@std@@YAPAGQAG00AAV?$allocator@G@0@U_Really_trivial_ptr_iterator_tag@0@U?$integral_constant@_N$00@0@@Z ; std::_Uninitialized_move_al_unchecked<unsigned short,unsigned short,std::allocator<unsigned short> >
PUBLIC	??$_Ptr_move_cat@GG@std@@YA?AU_Really_trivial_ptr_iterator_tag@0@ABQAG0@Z ; std::_Ptr_move_cat<unsigned short,unsigned short>
PUBLIC	??$_Get_unwrapped_n@GH$0A@@std@@YAPAGQAGH@Z	; std::_Get_unwrapped_n<unsigned short,int,0>
PUBLIC	??$_Get_unwrapped@G@std@@YAPAGQAG@Z		; std::_Get_unwrapped<unsigned short>
PUBLIC	??$_Seek_wrapped@K@std@@YAXAAPAKQAK@Z		; std::_Seek_wrapped<unsigned long>
PUBLIC	??$_Uninitialized_move_al_unchecked@KKV?$allocator@K@std@@@std@@YAPAKQAK00AAV?$allocator@K@0@U_Really_trivial_ptr_iterator_tag@0@U?$integral_constant@_N$00@0@@Z ; std::_Uninitialized_move_al_unchecked<unsigned long,unsigned long,std::allocator<unsigned long> >
PUBLIC	??$_Ptr_move_cat@KK@std@@YA?AU_Really_trivial_ptr_iterator_tag@0@ABQAK0@Z ; std::_Ptr_move_cat<unsigned long,unsigned long>
PUBLIC	??$_Get_unwrapped_n@KH$0A@@std@@YAPAKQAKH@Z	; std::_Get_unwrapped_n<unsigned long,int,0>
PUBLIC	??$_Get_unwrapped@K@std@@YAPAKQAK@Z		; std::_Get_unwrapped<unsigned long>
PUBLIC	??$_Seek_wrapped@_K@std@@YAXAAPA_KQA_K@Z	; std::_Seek_wrapped<unsigned __int64>
PUBLIC	??$_Uninitialized_move_al_unchecked@_K_KV?$allocator@_K@std@@@std@@YAPA_KQA_K00AAV?$allocator@_K@0@U_Really_trivial_ptr_iterator_tag@0@U?$integral_constant@_N$00@0@@Z ; std::_Uninitialized_move_al_unchecked<unsigned __int64,unsigned __int64,std::allocator<unsigned __int64> >
PUBLIC	??$_Ptr_move_cat@_K_K@std@@YA?AU_Really_trivial_ptr_iterator_tag@0@ABQA_K0@Z ; std::_Ptr_move_cat<unsigned __int64,unsigned __int64>
PUBLIC	??$_Get_unwrapped_n@_KH$0A@@std@@YAPA_KQA_KH@Z	; std::_Get_unwrapped_n<unsigned __int64,int,0>
PUBLIC	??$_Get_unwrapped@_K@std@@YAPA_KQA_K@Z		; std::_Get_unwrapped<unsigned __int64>
PUBLIC	??$_Seek_wrapped@M@std@@YAXAAPAMQAM@Z		; std::_Seek_wrapped<float>
PUBLIC	??$_Uninitialized_move_al_unchecked@MMV?$allocator@M@std@@@std@@YAPAMQAM00AAV?$allocator@M@0@U_Really_trivial_ptr_iterator_tag@0@U?$integral_constant@_N$00@0@@Z ; std::_Uninitialized_move_al_unchecked<float,float,std::allocator<float> >
PUBLIC	??$_Ptr_move_cat@MM@std@@YA?AU_Really_trivial_ptr_iterator_tag@0@ABQAM0@Z ; std::_Ptr_move_cat<float,float>
PUBLIC	??$_Get_unwrapped_n@MH$0A@@std@@YAPAMQAMH@Z	; std::_Get_unwrapped_n<float,int,0>
PUBLIC	??$_Get_unwrapped@M@std@@YAPAMQAM@Z		; std::_Get_unwrapped<float>
PUBLIC	??$_Seek_wrapped@N@std@@YAXAAPANQAN@Z		; std::_Seek_wrapped<double>
PUBLIC	??$_Uninitialized_move_al_unchecked@NNV?$allocator@N@std@@@std@@YAPANQAN00AAV?$allocator@N@0@U_Really_trivial_ptr_iterator_tag@0@U?$integral_constant@_N$00@0@@Z ; std::_Uninitialized_move_al_unchecked<double,double,std::allocator<double> >
PUBLIC	??$_Ptr_move_cat@NN@std@@YA?AU_Really_trivial_ptr_iterator_tag@0@ABQAN0@Z ; std::_Ptr_move_cat<double,double>
PUBLIC	??$_Get_unwrapped_n@NH$0A@@std@@YAPANQANH@Z	; std::_Get_unwrapped_n<double,int,0>
PUBLIC	??$_Get_unwrapped@N@std@@YAPANQAN@Z		; std::_Get_unwrapped<double>
PUBLIC	??$_Seek_wrapped@PA_W@std@@YAXAAPAPA_WQAPA_W@Z	; std::_Seek_wrapped<wchar_t *>
PUBLIC	??$_Uninitialized_move_al_unchecked@PA_WPA_WV?$allocator@PA_W@std@@@std@@YAPAPA_WQAPA_W00AAV?$allocator@PA_W@0@U_Really_trivial_ptr_iterator_tag@0@U?$integral_constant@_N$00@0@@Z ; std::_Uninitialized_move_al_unchecked<wchar_t *,wchar_t *,std::allocator<wchar_t *> >
PUBLIC	??$_Ptr_move_cat@PA_WPA_W@std@@YA?AU_Really_trivial_ptr_iterator_tag@0@ABQAPA_W0@Z ; std::_Ptr_move_cat<wchar_t *,wchar_t *>
PUBLIC	??$_Get_unwrapped_n@PA_WH$0A@@std@@YAPAPA_WQAPA_WH@Z ; std::_Get_unwrapped_n<wchar_t *,int,0>
PUBLIC	??$_Get_unwrapped@PA_W@std@@YAPAPA_WQAPA_W@Z	; std::_Get_unwrapped<wchar_t *>
PUBLIC	??$_Zero_range@PAG@std@@YAPAGQAG0@Z		; std::_Zero_range<unsigned short *>
PUBLIC	??$_Zero_range@PAK@std@@YAPAKQAK0@Z		; std::_Zero_range<unsigned long *>
PUBLIC	??$_Zero_range@PA_K@std@@YAPA_KQA_K0@Z		; std::_Zero_range<unsigned __int64 *>
PUBLIC	??$_Zero_range@PAM@std@@YAPAMQAM0@Z		; std::_Zero_range<float *>
PUBLIC	??$_Zero_range@PAN@std@@YAPANQAN0@Z		; std::_Zero_range<double *>
PUBLIC	??$_Zero_range@PAPA_W@std@@YAPAPA_WQAPA_W0@Z	; std::_Zero_range<wchar_t * *>
PUBLIC	??$_Uninitialized_copy_al_unchecked@PBV?$basic_string@DU?$char_traits@D@std@@V?$allocator@D@2@@std@@PAV12@V?$allocator@V?$basic_string@DU?$char_traits@D@std@@V?$allocator@D@2@@std@@@2@@std@@YAPAV?$basic_string@DU?$char_traits@D@std@@V?$allocator@D@2@@0@PBV10@QBV10@QAV10@AAV?$allocator@V?$basic_string@DU?$char_traits@D@std@@V?$allocator@D@2@@std@@@0@U_General_ptr_iterator_tag@0@U_Unused_parameter@0@@Z ; std::_Uninitialized_copy_al_unchecked<std::basic_string<char,std::char_traits<char>,std::allocator<char> > const *,std::basic_string<char,std::char_traits<char>,std::allocator<char> > *,std::allocator<std::basic_string<char,std::char_traits<char>,std::allocator<char> > > >
PUBLIC	??$_Ptr_copy_cat@$$CBV?$basic_string@DU?$char_traits@D@std@@V?$allocator@D@2@@std@@V12@@std@@YA?AU_General_ptr_iterator_tag@0@ABQBV?$basic_string@DU?$char_traits@D@std@@V?$allocator@D@2@@0@ABQAV20@@Z ; std::_Ptr_copy_cat<std::basic_string<char,std::char_traits<char>,std::allocator<char> > const ,std::basic_string<char,std::char_traits<char>,std::allocator<char> > >
PUBLIC	??$_Get_unwrapped@$$CBV?$basic_string@DU?$char_traits@D@std@@V?$allocator@D@2@@std@@@std@@YAPBV?$basic_string@DU?$char_traits@D@std@@V?$allocator@D@2@@0@QBV10@@Z ; std::_Get_unwrapped<std::basic_string<char,std::char_traits<char>,std::allocator<char> > const >
PUBLIC	??$_Idl_distance@PAEPAE@std@@YA@ABQAE0@Z	; std::_Idl_distance<unsigned char *,unsigned char *>
PUBLIC	??$_Uninitialized_move@PAEPAEV?$allocator@E@std@@@std@@YAPAEQAE0PAEAAV?$allocator@E@0@@Z ; std::_Uninitialized_move<unsigned char *,unsigned char *,std::allocator<unsigned char> >
PUBLIC	??$_Idl_distance@PAGPAG@std@@YA@ABQAG0@Z	; std::_Idl_distance<unsigned short *,unsigned short *>
PUBLIC	??$_Uninitialized_move@PAGPAGV?$allocator@G@std@@@std@@YAPAGQAG0PAGAAV?$allocator@G@0@@Z ; std::_Uninitialized_move<unsigned short *,unsigned short *,std::allocator<unsigned short> >
PUBLIC	??$_Idl_distance@PAKPAK@std@@YA@ABQAK0@Z	; std::_Idl_distance<unsigned long *,unsigned long *>
PUBLIC	??$_Uninitialized_move@PAKPAKV?$allocator@K@std@@@std@@YAPAKQAK0PAKAAV?$allocator@K@0@@Z ; std::_Uninitialized_move<unsigned long *,unsigned long *,std::allocator<unsigned long> >
PUBLIC	??$_Idl_distance@PA_KPA_K@std@@YA@ABQA_K0@Z	; std::_Idl_distance<unsigned __int64 *,unsigned __int64 *>
PUBLIC	??$_Uninitialized_move@PA_KPA_KV?$allocator@_K@std@@@std@@YAPA_KQA_K0PA_KAAV?$allocator@_K@0@@Z ; std::_Uninitialized_move<unsigned __int64 *,unsigned __int64 *,std::allocator<unsigned __int64> >
PUBLIC	??$_Idl_distance@PAMPAM@std@@YA@ABQAM0@Z	; std::_Idl_distance<float *,float *>
PUBLIC	??$_Uninitialized_move@PAMPAMV?$allocator@M@std@@@std@@YAPAMQAM0PAMAAV?$allocator@M@0@@Z ; std::_Uninitialized_move<float *,float *,std::allocator<float> >
PUBLIC	??$_Idl_distance@PANPAN@std@@YA@ABQAN0@Z	; std::_Idl_distance<double *,double *>
PUBLIC	??$_Uninitialized_move@PANPANV?$allocator@N@std@@@std@@YAPANQAN0PANAAV?$allocator@N@0@@Z ; std::_Uninitialized_move<double *,double *,std::allocator<double> >
PUBLIC	??$_Idl_distance@PAPA_WPAPA_W@std@@YA@ABQAPA_W0@Z ; std::_Idl_distance<wchar_t * *,wchar_t * *>
PUBLIC	??$_Uninitialized_move@PAPA_WPAPA_WV?$allocator@PA_W@std@@@std@@YAPAPA_WQAPA_W0PAPA_WAAV?$allocator@PA_W@0@@Z ; std::_Uninitialized_move<wchar_t * *,wchar_t * *,std::allocator<wchar_t *> >
PUBLIC	??$_Get_size_of_n@$07@std@@YAII@Z		; std::_Get_size_of_n<8>
PUBLIC	??$_Uninitialized_value_construct_n1@PAGIV?$allocator@G@std@@@std@@YAPAGPAGIAAV?$allocator@G@0@U?$integral_constant@_N$00@0@@Z ; std::_Uninitialized_value_construct_n1<unsigned short *,unsigned int,std::allocator<unsigned short> >
PUBLIC	??$_Uninitialized_value_construct_n1@PAKIV?$allocator@K@std@@@std@@YAPAKPAKIAAV?$allocator@K@0@U?$integral_constant@_N$00@0@@Z ; std::_Uninitialized_value_construct_n1<unsigned long *,unsigned int,std::allocator<unsigned long> >
PUBLIC	??$_Uninitialized_value_construct_n1@PA_KIV?$allocator@_K@std@@@std@@YAPA_KPA_KIAAV?$allocator@_K@0@U?$integral_constant@_N$00@0@@Z ; std::_Uninitialized_value_construct_n1<unsigned __int64 *,unsigned int,std::allocator<unsigned __int64> >
PUBLIC	??$_Uninitialized_value_construct_n1@PAMIV?$allocator@M@std@@@std@@YAPAMPAMIAAV?$allocator@M@0@U?$integral_constant@_N$00@0@@Z ; std::_Uninitialized_value_construct_n1<float *,unsigned int,std::allocator<float> >
PUBLIC	??$_Uninitialized_value_construct_n1@PANIV?$allocator@N@std@@@std@@YAPANPANIAAV?$allocator@N@0@U?$integral_constant@_N$00@0@@Z ; std::_Uninitialized_value_construct_n1<double *,unsigned int,std::allocator<double> >
PUBLIC	??$_Uninitialized_value_construct_n1@PAPA_WIV?$allocator@PA_W@std@@@std@@YAPAPA_WPAPA_WIAAV?$allocator@PA_W@0@U?$integral_constant@_N$00@0@@Z ; std::_Uninitialized_value_construct_n1<wchar_t * *,unsigned int,std::allocator<wchar_t *> >
PUBLIC	??$_Idl_distance@PBV?$basic_string@DU?$char_traits@D@std@@V?$allocator@D@2@@std@@PBV12@@std@@YA@ABQBV?$basic_string@DU?$char_traits@D@std@@V?$allocator@D@2@@0@0@Z ; std::_Idl_distance<std::basic_string<char,std::char_traits<char>,std::allocator<char> > const *,std::basic_string<char,std::char_traits<char>,std::allocator<char> > const *>
PUBLIC	??$_Uninitialized_copy@PBV?$basic_string@DU?$char_traits@D@std@@V?$allocator@D@2@@std@@PAV12@V?$allocator@V?$basic_string@DU?$char_traits@D@std@@V?$allocator@D@2@@std@@@2@@std@@YAPAV?$basic_string@DU?$char_traits@D@std@@V?$allocator@D@2@@0@QBV10@0PAV10@AAV?$allocator@V?$basic_string@DU?$char_traits@D@std@@V?$allocator@D@2@@std@@@0@@Z ; std::_Uninitialized_copy<std::basic_string<char,std::char_traits<char>,std::allocator<char> > const *,std::basic_string<char,std::char_traits<char>,std::allocator<char> > *,std::allocator<std::basic_string<char,std::char_traits<char>,std::allocator<char> > > >
PUBLIC	??$_Distance1@PBV?$basic_string@DU?$char_traits@D@std@@V?$allocator@D@2@@std@@@std@@YAHPBV?$basic_string@DU?$char_traits@D@std@@V?$allocator@D@2@@0@0Urandom_access_iterator_tag@0@@Z ; std::_Distance1<std::basic_string<char,std::char_traits<char>,std::allocator<char> > const *>
PUBLIC	?_Get_first@?$_Compressed_pair@V?$allocator@G@std@@V?$_Vector_val@U?$_Simple_types@G@std@@@2@$00@std@@QBEABV?$allocator@G@2@XZ ; std::_Compressed_pair<std::allocator<unsigned short>,std::_Vector_val<std::_Simple_types<unsigned short> >,1>::_Get_first
PUBLIC	?_Get_first@?$_Compressed_pair@V?$allocator@K@std@@V?$_Vector_val@U?$_Simple_types@K@std@@@2@$00@std@@QBEABV?$allocator@K@2@XZ ; std::_Compressed_pair<std::allocator<unsigned long>,std::_Vector_val<std::_Simple_types<unsigned long> >,1>::_Get_first
PUBLIC	?_Get_first@?$_Compressed_pair@V?$allocator@_K@std@@V?$_Vector_val@U?$_Simple_types@_K@std@@@2@$00@std@@QBEABV?$allocator@_K@2@XZ ; std::_Compressed_pair<std::allocator<unsigned __int64>,std::_Vector_val<std::_Simple_types<unsigned __int64> >,1>::_Get_first
PUBLIC	?_Get_first@?$_Compressed_pair@V?$allocator@M@std@@V?$_Vector_val@U?$_Simple_types@M@std@@@2@$00@std@@QBEABV?$allocator@M@2@XZ ; std::_Compressed_pair<std::allocator<float>,std::_Vector_val<std::_Simple_types<float> >,1>::_Get_first
PUBLIC	?_Get_first@?$_Compressed_pair@V?$allocator@N@std@@V?$_Vector_val@U?$_Simple_types@N@std@@@2@$00@std@@QBEABV?$allocator@N@2@XZ ; std::_Compressed_pair<std::allocator<double>,std::_Vector_val<std::_Simple_types<double> >,1>::_Get_first
PUBLIC	?_Get_first@?$_Compressed_pair@V?$allocator@PA_W@std@@V?$_Vector_val@U?$_Simple_types@PA_W@std@@@2@$00@std@@QBEABV?$allocator@PA_W@2@XZ ; std::_Compressed_pair<std::allocator<wchar_t *>,std::_Vector_val<std::_Simple_types<wchar_t *> >,1>::_Get_first
PUBLIC	?_Umove_if_noexcept1@?$vector@EV?$allocator@E@std@@@std@@AAEXPAE00U?$integral_constant@_N$00@2@@Z ; std::vector<unsigned char,std::allocator<unsigned char> >::_Umove_if_noexcept1
PUBLIC	?_Umove_if_noexcept1@?$vector@GV?$allocator@G@std@@@std@@AAEXPAG00U?$integral_constant@_N$00@2@@Z ; std::vector<unsigned short,std::allocator<unsigned short> >::_Umove_if_noexcept1
PUBLIC	?_Getal@?$_Vector_alloc@U?$_Vec_base_types@GV?$allocator@G@std@@@std@@@std@@QBEABV?$allocator@G@2@XZ ; std::_Vector_alloc<std::_Vec_base_types<unsigned short,std::allocator<unsigned short> > >::_Getal
PUBLIC	?max_size@?$_Default_allocator_traits@V?$allocator@G@std@@@std@@SAIABV?$allocator@G@2@@Z ; std::_Default_allocator_traits<std::allocator<unsigned short> >::max_size
PUBLIC	?_Umove_if_noexcept1@?$vector@KV?$allocator@K@std@@@std@@AAEXPAK00U?$integral_constant@_N$00@2@@Z ; std::vector<unsigned long,std::allocator<unsigned long> >::_Umove_if_noexcept1
PUBLIC	?_Getal@?$_Vector_alloc@U?$_Vec_base_types@KV?$allocator@K@std@@@std@@@std@@QBEABV?$allocator@K@2@XZ ; std::_Vector_alloc<std::_Vec_base_types<unsigned long,std::allocator<unsigned long> > >::_Getal
PUBLIC	?max_size@?$_Default_allocator_traits@V?$allocator@K@std@@@std@@SAIABV?$allocator@K@2@@Z ; std::_Default_allocator_traits<std::allocator<unsigned long> >::max_size
PUBLIC	?_Umove_if_noexcept1@?$vector@_KV?$allocator@_K@std@@@std@@AAEXPA_K00U?$integral_constant@_N$00@2@@Z ; std::vector<unsigned __int64,std::allocator<unsigned __int64> >::_Umove_if_noexcept1
PUBLIC	?_Getal@?$_Vector_alloc@U?$_Vec_base_types@_KV?$allocator@_K@std@@@std@@@std@@QBEABV?$allocator@_K@2@XZ ; std::_Vector_alloc<std::_Vec_base_types<unsigned __int64,std::allocator<unsigned __int64> > >::_Getal
PUBLIC	?max_size@?$_Default_allocator_traits@V?$allocator@_K@std@@@std@@SAIABV?$allocator@_K@2@@Z ; std::_Default_allocator_traits<std::allocator<unsigned __int64> >::max_size
PUBLIC	?_Umove_if_noexcept1@?$vector@MV?$allocator@M@std@@@std@@AAEXPAM00U?$integral_constant@_N$00@2@@Z ; std::vector<float,std::allocator<float> >::_Umove_if_noexcept1
PUBLIC	?_Getal@?$_Vector_alloc@U?$_Vec_base_types@MV?$allocator@M@std@@@std@@@std@@QBEABV?$allocator@M@2@XZ ; std::_Vector_alloc<std::_Vec_base_types<float,std::allocator<float> > >::_Getal
PUBLIC	?max_size@?$_Default_allocator_traits@V?$allocator@M@std@@@std@@SAIABV?$allocator@M@2@@Z ; std::_Default_allocator_traits<std::allocator<float> >::max_size
PUBLIC	?_Umove_if_noexcept1@?$vector@NV?$allocator@N@std@@@std@@AAEXPAN00U?$integral_constant@_N$00@2@@Z ; std::vector<double,std::allocator<double> >::_Umove_if_noexcept1
PUBLIC	?_Getal@?$_Vector_alloc@U?$_Vec_base_types@NV?$allocator@N@std@@@std@@@std@@QBEABV?$allocator@N@2@XZ ; std::_Vector_alloc<std::_Vec_base_types<double,std::allocator<double> > >::_Getal
PUBLIC	?max_size@?$_Default_allocator_traits@V?$allocator@N@std@@@std@@SAIABV?$allocator@N@2@@Z ; std::_Default_allocator_traits<std::allocator<double> >::max_size
PUBLIC	?_Umove_if_noexcept1@?$vector@PA_WV?$allocator@PA_W@std@@@std@@AAEXPAPA_W00U?$integral_constant@_N$00@2@@Z ; std::vector<wchar_t *,std::allocator<wchar_t *> >::_Umove_if_noexcept1
PUBLIC	?_Getal@?$_Vector_alloc@U?$_Vec_base_types@PA_WV?$allocator@PA_W@std@@@std@@@std@@QBEABV?$allocator@PA_W@2@XZ ; std::_Vector_alloc<std::_Vec_base_types<wchar_t *,std::allocator<wchar_t *> > >::_Getal
PUBLIC	?max_size@?$_Default_allocator_traits@V?$allocator@PA_W@std@@@std@@SAIABV?$allocator@PA_W@2@@Z ; std::_Default_allocator_traits<std::allocator<wchar_t *> >::max_size
PUBLIC	?_Umove_if_noexcept@?$vector@EV?$allocator@E@std@@@std@@AAEXPAE00@Z ; std::vector<unsigned char,std::allocator<unsigned char> >::_Umove_if_noexcept
PUBLIC	?_Calculate_growth@?$vector@EV?$allocator@E@std@@@std@@ABEII@Z ; std::vector<unsigned char,std::allocator<unsigned char> >::_Calculate_growth
PUBLIC	?_Change_array@?$vector@EV?$allocator@E@std@@@std@@AAEXQAEII@Z ; std::vector<unsigned char,std::allocator<unsigned char> >::_Change_array
PUBLIC	?_Orphan_range@?$vector@EV?$allocator@E@std@@@std@@ABEXPAE0@Z ; std::vector<unsigned char,std::allocator<unsigned char> >::_Orphan_range
PUBLIC	?allocate@?$allocator@G@std@@QAEPAGI@Z		; std::allocator<unsigned short>::allocate
PUBLIC	?max_size@?$vector@GV?$allocator@G@std@@@std@@QBEIXZ ; std::vector<unsigned short,std::allocator<unsigned short> >::max_size
PUBLIC	?_Umove_if_noexcept@?$vector@GV?$allocator@G@std@@@std@@AAEXPAG00@Z ; std::vector<unsigned short,std::allocator<unsigned short> >::_Umove_if_noexcept
PUBLIC	?_Calculate_growth@?$vector@GV?$allocator@G@std@@@std@@ABEII@Z ; std::vector<unsigned short,std::allocator<unsigned short> >::_Calculate_growth
PUBLIC	?_Change_array@?$vector@GV?$allocator@G@std@@@std@@AAEXQAGII@Z ; std::vector<unsigned short,std::allocator<unsigned short> >::_Change_array
PUBLIC	?_Xlength@?$vector@GV?$allocator@G@std@@@std@@CAXXZ ; std::vector<unsigned short,std::allocator<unsigned short> >::_Xlength
PUBLIC	?_Orphan_range@?$vector@GV?$allocator@G@std@@@std@@ABEXPAG0@Z ; std::vector<unsigned short,std::allocator<unsigned short> >::_Orphan_range
PUBLIC	?allocate@?$allocator@K@std@@QAEPAKI@Z		; std::allocator<unsigned long>::allocate
PUBLIC	?max_size@?$vector@KV?$allocator@K@std@@@std@@QBEIXZ ; std::vector<unsigned long,std::allocator<unsigned long> >::max_size
PUBLIC	?_Umove_if_noexcept@?$vector@KV?$allocator@K@std@@@std@@AAEXPAK00@Z ; std::vector<unsigned long,std::allocator<unsigned long> >::_Umove_if_noexcept
PUBLIC	?_Calculate_growth@?$vector@KV?$allocator@K@std@@@std@@ABEII@Z ; std::vector<unsigned long,std::allocator<unsigned long> >::_Calculate_growth
PUBLIC	?_Change_array@?$vector@KV?$allocator@K@std@@@std@@AAEXQAKII@Z ; std::vector<unsigned long,std::allocator<unsigned long> >::_Change_array
PUBLIC	?_Xlength@?$vector@KV?$allocator@K@std@@@std@@CAXXZ ; std::vector<unsigned long,std::allocator<unsigned long> >::_Xlength
PUBLIC	?_Orphan_range@?$vector@KV?$allocator@K@std@@@std@@ABEXPAK0@Z ; std::vector<unsigned long,std::allocator<unsigned long> >::_Orphan_range
PUBLIC	?allocate@?$allocator@_K@std@@QAEPA_KI@Z	; std::allocator<unsigned __int64>::allocate
PUBLIC	?max_size@?$vector@_KV?$allocator@_K@std@@@std@@QBEIXZ ; std::vector<unsigned __int64,std::allocator<unsigned __int64> >::max_size
PUBLIC	?_Umove_if_noexcept@?$vector@_KV?$allocator@_K@std@@@std@@AAEXPA_K00@Z ; std::vector<unsigned __int64,std::allocator<unsigned __int64> >::_Umove_if_noexcept
PUBLIC	?_Calculate_growth@?$vector@_KV?$allocator@_K@std@@@std@@ABEII@Z ; std::vector<unsigned __int64,std::allocator<unsigned __int64> >::_Calculate_growth
PUBLIC	?_Change_array@?$vector@_KV?$allocator@_K@std@@@std@@AAEXQA_KII@Z ; std::vector<unsigned __int64,std::allocator<unsigned __int64> >::_Change_array
PUBLIC	?_Xlength@?$vector@_KV?$allocator@_K@std@@@std@@CAXXZ ; std::vector<unsigned __int64,std::allocator<unsigned __int64> >::_Xlength
PUBLIC	?_Orphan_range@?$vector@_KV?$allocator@_K@std@@@std@@ABEXPA_K0@Z ; std::vector<unsigned __int64,std::allocator<unsigned __int64> >::_Orphan_range
PUBLIC	?allocate@?$allocator@M@std@@QAEPAMI@Z		; std::allocator<float>::allocate
PUBLIC	?max_size@?$vector@MV?$allocator@M@std@@@std@@QBEIXZ ; std::vector<float,std::allocator<float> >::max_size
PUBLIC	?_Umove_if_noexcept@?$vector@MV?$allocator@M@std@@@std@@AAEXPAM00@Z ; std::vector<float,std::allocator<float> >::_Umove_if_noexcept
PUBLIC	?_Calculate_growth@?$vector@MV?$allocator@M@std@@@std@@ABEII@Z ; std::vector<float,std::allocator<float> >::_Calculate_growth
PUBLIC	?_Change_array@?$vector@MV?$allocator@M@std@@@std@@AAEXQAMII@Z ; std::vector<float,std::allocator<float> >::_Change_array
PUBLIC	?_Xlength@?$vector@MV?$allocator@M@std@@@std@@CAXXZ ; std::vector<float,std::allocator<float> >::_Xlength
PUBLIC	?_Orphan_range@?$vector@MV?$allocator@M@std@@@std@@ABEXPAM0@Z ; std::vector<float,std::allocator<float> >::_Orphan_range
PUBLIC	?allocate@?$allocator@N@std@@QAEPANI@Z		; std::allocator<double>::allocate
PUBLIC	?max_size@?$vector@NV?$allocator@N@std@@@std@@QBEIXZ ; std::vector<double,std::allocator<double> >::max_size
PUBLIC	?_Umove_if_noexcept@?$vector@NV?$allocator@N@std@@@std@@AAEXPAN00@Z ; std::vector<double,std::allocator<double> >::_Umove_if_noexcept
PUBLIC	?_Calculate_growth@?$vector@NV?$allocator@N@std@@@std@@ABEII@Z ; std::vector<double,std::allocator<double> >::_Calculate_growth
PUBLIC	?_Change_array@?$vector@NV?$allocator@N@std@@@std@@AAEXQANII@Z ; std::vector<double,std::allocator<double> >::_Change_array
PUBLIC	?_Xlength@?$vector@NV?$allocator@N@std@@@std@@CAXXZ ; std::vector<double,std::allocator<double> >::_Xlength
PUBLIC	?_Orphan_range@?$vector@NV?$allocator@N@std@@@std@@ABEXPAN0@Z ; std::vector<double,std::allocator<double> >::_Orphan_range
PUBLIC	?allocate@?$allocator@PA_W@std@@QAEPAPA_WI@Z	; std::allocator<wchar_t *>::allocate
PUBLIC	?max_size@?$vector@PA_WV?$allocator@PA_W@std@@@std@@QBEIXZ ; std::vector<wchar_t *,std::allocator<wchar_t *> >::max_size
PUBLIC	?_Umove_if_noexcept@?$vector@PA_WV?$allocator@PA_W@std@@@std@@AAEXPAPA_W00@Z ; std::vector<wchar_t *,std::allocator<wchar_t *> >::_Umove_if_noexcept
PUBLIC	?_Calculate_growth@?$vector@PA_WV?$allocator@PA_W@std@@@std@@ABEII@Z ; std::vector<wchar_t *,std::allocator<wchar_t *> >::_Calculate_growth
PUBLIC	?_Change_array@?$vector@PA_WV?$allocator@PA_W@std@@@std@@AAEXQAPA_WII@Z ; std::vector<wchar_t *,std::allocator<wchar_t *> >::_Change_array
PUBLIC	?_Xlength@?$vector@PA_WV?$allocator@PA_W@std@@@std@@CAXXZ ; std::vector<wchar_t *,std::allocator<wchar_t *> >::_Xlength
PUBLIC	?_Orphan_range@?$vector@PA_WV?$allocator@PA_W@std@@@std@@ABEXPAPA_W0@Z ; std::vector<wchar_t *,std::allocator<wchar_t *> >::_Orphan_range
PUBLIC	??$_Uninitialized_value_construct_n@PAGIV?$allocator@G@std@@@std@@YAPAGPAGIAAV?$allocator@G@0@@Z ; std::_Uninitialized_value_construct_n<unsigned short *,unsigned int,std::allocator<unsigned short> >
PUBLIC	??$_Uninitialized_value_construct_n@PAKIV?$allocator@K@std@@@std@@YAPAKPAKIAAV?$allocator@K@0@@Z ; std::_Uninitialized_value_construct_n<unsigned long *,unsigned int,std::allocator<unsigned long> >
PUBLIC	??$_Uninitialized_value_construct_n@PA_KIV?$allocator@_K@std@@@std@@YAPA_KPA_KIAAV?$allocator@_K@0@@Z ; std::_Uninitialized_value_construct_n<unsigned __int64 *,unsigned int,std::allocator<unsigned __int64> >
PUBLIC	??$_Uninitialized_value_construct_n@PAMIV?$allocator@M@std@@@std@@YAPAMPAMIAAV?$allocator@M@0@@Z ; std::_Uninitialized_value_construct_n<float *,unsigned int,std::allocator<float> >
PUBLIC	??$_Uninitialized_value_construct_n@PANIV?$allocator@N@std@@@std@@YAPANPANIAAV?$allocator@N@0@@Z ; std::_Uninitialized_value_construct_n<double *,unsigned int,std::allocator<double> >
PUBLIC	??$_Uninitialized_value_construct_n@PAPA_WIV?$allocator@PA_W@std@@@std@@YAPAPA_WPAPA_WIAAV?$allocator@PA_W@0@@Z ; std::_Uninitialized_value_construct_n<wchar_t * *,unsigned int,std::allocator<wchar_t *> >
PUBLIC	??$_Get_size_of_n@$01@std@@YAII@Z		; std::_Get_size_of_n<2>
PUBLIC	??$_Resize@V<lambda_1c24340e0c23a1361b49dbc3231bff51>@@@?$vector@EV?$allocator@E@std@@@std@@AAEXIV<lambda_1c24340e0c23a1361b49dbc3231bff51>@@@Z ; std::vector<unsigned char,std::allocator<unsigned char> >::_Resize<<lambda_1c24340e0c23a1361b49dbc3231bff51> >
PUBLIC	??$_Resize@V<lambda_2b6654e67a91186cf2b3ea8c5d1f7ef3>@@@?$vector@GV?$allocator@G@std@@@std@@AAEXIV<lambda_2b6654e67a91186cf2b3ea8c5d1f7ef3>@@@Z ; std::vector<unsigned short,std::allocator<unsigned short> >::_Resize<<lambda_2b6654e67a91186cf2b3ea8c5d1f7ef3> >
PUBLIC	??$_Resize@V<lambda_41cf2654fb7f54282f884164b4804166>@@@?$vector@KV?$allocator@K@std@@@std@@AAEXIV<lambda_41cf2654fb7f54282f884164b4804166>@@@Z ; std::vector<unsigned long,std::allocator<unsigned long> >::_Resize<<lambda_41cf2654fb7f54282f884164b4804166> >
PUBLIC	??$_Resize@V<lambda_37d2edcfa81498688f5009d219c6f7fd>@@@?$vector@_KV?$allocator@_K@std@@@std@@AAEXIV<lambda_37d2edcfa81498688f5009d219c6f7fd>@@@Z ; std::vector<unsigned __int64,std::allocator<unsigned __int64> >::_Resize<<lambda_37d2edcfa81498688f5009d219c6f7fd> >
PUBLIC	??$_Resize@V<lambda_d7a4910ec896527b17c46ceb55731b6b>@@@?$vector@MV?$allocator@M@std@@@std@@AAEXIV<lambda_d7a4910ec896527b17c46ceb55731b6b>@@@Z ; std::vector<float,std::allocator<float> >::_Resize<<lambda_d7a4910ec896527b17c46ceb55731b6b> >
PUBLIC	??$_Resize@V<lambda_72b2ca492da4f1408aac84fdabcda767>@@@?$vector@NV?$allocator@N@std@@@std@@AAEXIV<lambda_72b2ca492da4f1408aac84fdabcda767>@@@Z ; std::vector<double,std::allocator<double> >::_Resize<<lambda_72b2ca492da4f1408aac84fdabcda767> >
PUBLIC	??$_Resize@V<lambda_9015b627a392ed02a76b60582322ef4a>@@@?$vector@PA_WV?$allocator@PA_W@std@@@std@@AAEXIV<lambda_9015b627a392ed02a76b60582322ef4a>@@@Z ; std::vector<wchar_t *,std::allocator<wchar_t *> >::_Resize<<lambda_9015b627a392ed02a76b60582322ef4a> >
PUBLIC	??$_Destroy_range1@V?$allocator@G@std@@@std@@YAXPAG0AAV?$allocator@G@0@U?$integral_constant@_N$00@0@@Z ; std::_Destroy_range1<std::allocator<unsigned short> >
PUBLIC	??$_Destroy_range1@V?$allocator@K@std@@@std@@YAXPAK0AAV?$allocator@K@0@U?$integral_constant@_N$00@0@@Z ; std::_Destroy_range1<std::allocator<unsigned long> >
PUBLIC	??$_Destroy_range1@V?$allocator@_K@std@@@std@@YAXPA_K0AAV?$allocator@_K@0@U?$integral_constant@_N$00@0@@Z ; std::_Destroy_range1<std::allocator<unsigned __int64> >
PUBLIC	??$_Destroy_range1@V?$allocator@M@std@@@std@@YAXPAM0AAV?$allocator@M@0@U?$integral_constant@_N$00@0@@Z ; std::_Destroy_range1<std::allocator<float> >
PUBLIC	??$_Destroy_range1@V?$allocator@N@std@@@std@@YAXPAN0AAV?$allocator@N@0@U?$integral_constant@_N$00@0@@Z ; std::_Destroy_range1<std::allocator<double> >
PUBLIC	??$_Destroy_range1@V?$allocator@PA_W@std@@@std@@YAXPAPA_W0AAV?$allocator@PA_W@0@U?$integral_constant@_N$00@0@@Z ; std::_Destroy_range1<std::allocator<wchar_t *> >
PUBLIC	??$_Ucopy@PBV?$basic_string@DU?$char_traits@D@std@@V?$allocator@D@2@@std@@@?$vector@V?$basic_string@DU?$char_traits@D@std@@V?$allocator@D@2@@std@@V?$allocator@V?$basic_string@DU?$char_traits@D@std@@V?$allocator@D@2@@std@@@2@@std@@AAEPAV?$basic_string@DU?$char_traits@D@std@@V?$allocator@D@2@@1@PBV21@0PAV21@@Z ; std::vector<std::basic_string<char,std::char_traits<char>,std::allocator<char> >,std::allocator<std::basic_string<char,std::char_traits<char>,std::allocator<char> > > >::_Ucopy<std::basic_string<char,std::char_traits<char>,std::allocator<char> > const *>
PUBLIC	??$distance@PBV?$basic_string@DU?$char_traits@D@std@@V?$allocator@D@2@@std@@@std@@YAHPBV?$basic_string@DU?$char_traits@D@std@@V?$allocator@D@2@@0@0@Z ; std::distance<std::basic_string<char,std::char_traits<char>,std::allocator<char> > const *>
PUBLIC	??$?0ABV?$allocator@V?$basic_string@DU?$char_traits@D@std@@V?$allocator@D@2@@std@@@std@@$$V@?$_Compressed_pair@V?$allocator@V?$basic_string@DU?$char_traits@D@std@@V?$allocator@D@2@@std@@@std@@V?$_Vector_val@U?$_Simple_types@V?$basic_string@DU?$char_traits@D@std@@V?$allocator@D@2@@std@@@std@@@2@$00@std@@QAE@U_One_then_variadic_args_t@1@ABV?$allocator@V?$basic_string@DU?$char_traits@D@std@@V?$allocator@D@2@@std@@@1@@Z ; std::_Compressed_pair<std::allocator<std::basic_string<char,std::char_traits<char>,std::allocator<char> > >,std::_Vector_val<std::_Simple_types<std::basic_string<char,std::char_traits<char>,std::allocator<char> > > >,1>::_Compressed_pair<std::allocator<std::basic_string<char,std::char_traits<char>,std::allocator<char> > >,std::_Vector_val<std::_Simple_types<std::basic_string<char,std::char_traits<char>,std::allocator<char> > > >,1><std::allocator<std::basic_string<char,std::char_traits<char>,std::allocator<char> > > const &>
PUBLIC	??$forward@ABV?$allocator@V?$basic_string@DU?$char_traits@D@std@@V?$allocator@D@2@@std@@@std@@@std@@YAABV?$allocator@V?$basic_string@DU?$char_traits@D@std@@V?$allocator@D@2@@std@@@0@ABV10@@Z ; std::forward<std::allocator<std::basic_string<char,std::char_traits<char>,std::allocator<char> > > const &>
PUBLIC	?Unlock@?$CComSafeArray@PA_W$07@ATL@@IAEJXZ	; ATL::CComSafeArray<wchar_t *,8>::Unlock
PUBLIC	?Unlock@?$CComSafeArray@E$0BB@@ATL@@IAEJXZ	; ATL::CComSafeArray<unsigned char,17>::Unlock
PUBLIC	?Unlock@?$CComSafeArray@G$0BC@@ATL@@IAEJXZ	; ATL::CComSafeArray<unsigned short,18>::Unlock
PUBLIC	?Unlock@?$CComSafeArray@K$0BD@@ATL@@IAEJXZ	; ATL::CComSafeArray<unsigned long,19>::Unlock
PUBLIC	?Unlock@?$CComSafeArray@_K$0BF@@ATL@@IAEJXZ	; ATL::CComSafeArray<unsigned __int64,21>::Unlock
PUBLIC	?Unlock@?$CComSafeArray@M$03@ATL@@IAEJXZ	; ATL::CComSafeArray<float,4>::Unlock
PUBLIC	?Unlock@?$CComSafeArray@N$04@ATL@@IAEJXZ	; ATL::CComSafeArray<double,5>::Unlock
PUBLIC	?GetType@?$CComSafeArray@PA_W$07@ATL@@QBEGXZ	; ATL::CComSafeArray<wchar_t *,8>::GetType
PUBLIC	?Destroy@?$CComSafeArray@PA_W$07@ATL@@QAEJXZ	; ATL::CComSafeArray<wchar_t *,8>::Destroy
PUBLIC	?Lock@?$CComSafeArray@PA_W$07@ATL@@IAEJXZ	; ATL::CComSafeArray<wchar_t *,8>::Lock
PUBLIC	?_Udefault@?$vector@GV?$allocator@G@std@@@std@@AAEPAGPAGI@Z ; std::vector<unsigned short,std::allocator<unsigned short> >::_Udefault
PUBLIC	?_Udefault@?$vector@KV?$allocator@K@std@@@std@@AAEPAKPAKI@Z ; std::vector<unsigned long,std::allocator<unsigned long> >::_Udefault
PUBLIC	?_Udefault@?$vector@_KV?$allocator@_K@std@@@std@@AAEPA_KPA_KI@Z ; std::vector<unsigned __int64,std::allocator<unsigned __int64> >::_Udefault
PUBLIC	?_Udefault@?$vector@MV?$allocator@M@std@@@std@@AAEPAMPAMI@Z ; std::vector<float,std::allocator<float> >::_Udefault
PUBLIC	?_Udefault@?$vector@NV?$allocator@N@std@@@std@@AAEPANPANI@Z ; std::vector<double,std::allocator<double> >::_Udefault
PUBLIC	?_Udefault@?$vector@PA_WV?$allocator@PA_W@std@@@std@@AAEPAPA_WPAPA_WI@Z ; std::vector<wchar_t *,std::allocator<wchar_t *> >::_Udefault
PUBLIC	?GetLowerBound@?$CComSafeArray@E$0BB@@ATL@@QBEJI@Z ; ATL::CComSafeArray<unsigned char,17>::GetLowerBound
PUBLIC	?GetUpperBound@?$CComSafeArray@E$0BB@@ATL@@QBEJI@Z ; ATL::CComSafeArray<unsigned char,17>::GetUpperBound
PUBLIC	?GetType@?$CComSafeArray@E$0BB@@ATL@@QBEGXZ	; ATL::CComSafeArray<unsigned char,17>::GetType
PUBLIC	?Destroy@?$CComSafeArray@E$0BB@@ATL@@QAEJXZ	; ATL::CComSafeArray<unsigned char,17>::Destroy
PUBLIC	?Lock@?$CComSafeArray@E$0BB@@ATL@@IAEJXZ	; ATL::CComSafeArray<unsigned char,17>::Lock
PUBLIC	?GetLowerBound@?$CComSafeArray@G$0BC@@ATL@@QBEJI@Z ; ATL::CComSafeArray<unsigned short,18>::GetLowerBound
PUBLIC	?GetUpperBound@?$CComSafeArray@G$0BC@@ATL@@QBEJI@Z ; ATL::CComSafeArray<unsigned short,18>::GetUpperBound
PUBLIC	?GetType@?$CComSafeArray@G$0BC@@ATL@@QBEGXZ	; ATL::CComSafeArray<unsigned short,18>::GetType
PUBLIC	?Destroy@?$CComSafeArray@G$0BC@@ATL@@QAEJXZ	; ATL::CComSafeArray<unsigned short,18>::Destroy
PUBLIC	?Lock@?$CComSafeArray@G$0BC@@ATL@@IAEJXZ	; ATL::CComSafeArray<unsigned short,18>::Lock
PUBLIC	?GetLowerBound@?$CComSafeArray@K$0BD@@ATL@@QBEJI@Z ; ATL::CComSafeArray<unsigned long,19>::GetLowerBound
PUBLIC	?GetUpperBound@?$CComSafeArray@K$0BD@@ATL@@QBEJI@Z ; ATL::CComSafeArray<unsigned long,19>::GetUpperBound
PUBLIC	?GetType@?$CComSafeArray@K$0BD@@ATL@@QBEGXZ	; ATL::CComSafeArray<unsigned long,19>::GetType
PUBLIC	?Destroy@?$CComSafeArray@K$0BD@@ATL@@QAEJXZ	; ATL::CComSafeArray<unsigned long,19>::Destroy
PUBLIC	?Lock@?$CComSafeArray@K$0BD@@ATL@@IAEJXZ	; ATL::CComSafeArray<unsigned long,19>::Lock
PUBLIC	?GetLowerBound@?$CComSafeArray@_K$0BF@@ATL@@QBEJI@Z ; ATL::CComSafeArray<unsigned __int64,21>::GetLowerBound
PUBLIC	?GetUpperBound@?$CComSafeArray@_K$0BF@@ATL@@QBEJI@Z ; ATL::CComSafeArray<unsigned __int64,21>::GetUpperBound
PUBLIC	?GetType@?$CComSafeArray@_K$0BF@@ATL@@QBEGXZ	; ATL::CComSafeArray<unsigned __int64,21>::GetType
PUBLIC	?Destroy@?$CComSafeArray@_K$0BF@@ATL@@QAEJXZ	; ATL::CComSafeArray<unsigned __int64,21>::Destroy
PUBLIC	?Lock@?$CComSafeArray@_K$0BF@@ATL@@IAEJXZ	; ATL::CComSafeArray<unsigned __int64,21>::Lock
PUBLIC	?GetLowerBound@?$CComSafeArray@M$03@ATL@@QBEJI@Z ; ATL::CComSafeArray<float,4>::GetLowerBound
PUBLIC	?GetUpperBound@?$CComSafeArray@M$03@ATL@@QBEJI@Z ; ATL::CComSafeArray<float,4>::GetUpperBound
PUBLIC	?GetType@?$CComSafeArray@M$03@ATL@@QBEGXZ	; ATL::CComSafeArray<float,4>::GetType
PUBLIC	?Destroy@?$CComSafeArray@M$03@ATL@@QAEJXZ	; ATL::CComSafeArray<float,4>::Destroy
PUBLIC	?Lock@?$CComSafeArray@M$03@ATL@@IAEJXZ		; ATL::CComSafeArray<float,4>::Lock
PUBLIC	?GetLowerBound@?$CComSafeArray@N$04@ATL@@QBEJI@Z ; ATL::CComSafeArray<double,5>::GetLowerBound
PUBLIC	?GetUpperBound@?$CComSafeArray@N$04@ATL@@QBEJI@Z ; ATL::CComSafeArray<double,5>::GetUpperBound
PUBLIC	?GetType@?$CComSafeArray@N$04@ATL@@QBEGXZ	; ATL::CComSafeArray<double,5>::GetType
PUBLIC	?Destroy@?$CComSafeArray@N$04@ATL@@QAEJXZ	; ATL::CComSafeArray<double,5>::Destroy
PUBLIC	?Lock@?$CComSafeArray@N$04@ATL@@IAEJXZ		; ATL::CComSafeArray<double,5>::Lock
PUBLIC	??0?$CComSafeArray@PA_W$07@ATL@@QAE@XZ		; ATL::CComSafeArray<wchar_t *,8>::CComSafeArray<wchar_t *,8>
PUBLIC	??1?$CComSafeArray@PA_W$07@ATL@@QAE@XZ		; ATL::CComSafeArray<wchar_t *,8>::~CComSafeArray<wchar_t *,8>
PUBLIC	?Attach@?$CComSafeArray@PA_W$07@ATL@@QAEJPBUtagSAFEARRAY@@@Z ; ATL::CComSafeArray<wchar_t *,8>::Attach
PUBLIC	?GetCount@?$CComSafeArray@PA_W$07@ATL@@QBEKI@Z	; ATL::CComSafeArray<wchar_t *,8>::GetCount
PUBLIC	?GetAt@?$CComSafeArray@PA_W$07@ATL@@QAEAAVCComBSTR@2@J@Z ; ATL::CComSafeArray<wchar_t *,8>::GetAt
PUBLIC	??0<lambda_1c24340e0c23a1361b49dbc3231bff51>@@QAE@QAV?$vector@EV?$allocator@E@std@@@std@@@Z ; <lambda_1c24340e0c23a1361b49dbc3231bff51>::<lambda_1c24340e0c23a1361b49dbc3231bff51>
PUBLIC	??R<lambda_1c24340e0c23a1361b49dbc3231bff51>@@QBE@PAEI@Z ; <lambda_1c24340e0c23a1361b49dbc3231bff51>::operator()
PUBLIC	?resize@?$vector@EV?$allocator@E@std@@@std@@QAEXI@Z ; std::vector<unsigned char,std::allocator<unsigned char> >::resize
PUBLIC	??0?$allocator@G@std@@QAE@XZ			; std::allocator<unsigned short>::allocator<unsigned short>
PUBLIC	??0<lambda_2b6654e67a91186cf2b3ea8c5d1f7ef3>@@QAE@QAV?$vector@GV?$allocator@G@std@@@std@@@Z ; <lambda_2b6654e67a91186cf2b3ea8c5d1f7ef3>::<lambda_2b6654e67a91186cf2b3ea8c5d1f7ef3>
PUBLIC	??R<lambda_2b6654e67a91186cf2b3ea8c5d1f7ef3>@@QBE@PAGI@Z ; <lambda_2b6654e67a91186cf2b3ea8c5d1f7ef3>::operator()
PUBLIC	?resize@?$vector@GV?$allocator@G@std@@@std@@QAEXI@Z ; std::vector<unsigned short,std::allocator<unsigned short> >::resize
PUBLIC	??0?$_Vector_val@U?$_Simple_types@G@std@@@std@@QAE@XZ ; std::_Vector_val<std::_Simple_types<unsigned short> >::_Vector_val<std::_Simple_types<unsigned short> >
PUBLIC	??0?$allocator@K@std@@QAE@XZ			; std::allocator<unsigned long>::allocator<unsigned long>
PUBLIC	??0<lambda_41cf2654fb7f54282f884164b4804166>@@QAE@QAV?$vector@KV?$allocator@K@std@@@std@@@Z ; <lambda_41cf2654fb7f54282f884164b4804166>::<lambda_41cf2654fb7f54282f884164b4804166>
PUBLIC	??R<lambda_41cf2654fb7f54282f884164b4804166>@@QBE@PAKI@Z ; <lambda_41cf2654fb7f54282f884164b4804166>::operator()
PUBLIC	?resize@?$vector@KV?$allocator@K@std@@@std@@QAEXI@Z ; std::vector<unsigned long,std::allocator<unsigned long> >::resize
PUBLIC	??0?$_Vector_val@U?$_Simple_types@K@std@@@std@@QAE@XZ ; std::_Vector_val<std::_Simple_types<unsigned long> >::_Vector_val<std::_Simple_types<unsigned long> >
PUBLIC	??0?$allocator@_K@std@@QAE@XZ			; std::allocator<unsigned __int64>::allocator<unsigned __int64>
PUBLIC	??0<lambda_37d2edcfa81498688f5009d219c6f7fd>@@QAE@QAV?$vector@_KV?$allocator@_K@std@@@std@@@Z ; <lambda_37d2edcfa81498688f5009d219c6f7fd>::<lambda_37d2edcfa81498688f5009d219c6f7fd>
PUBLIC	??R<lambda_37d2edcfa81498688f5009d219c6f7fd>@@QBE@PA_KI@Z ; <lambda_37d2edcfa81498688f5009d219c6f7fd>::operator()
PUBLIC	?resize@?$vector@_KV?$allocator@_K@std@@@std@@QAEXI@Z ; std::vector<unsigned __int64,std::allocator<unsigned __int64> >::resize
PUBLIC	??0?$_Vector_val@U?$_Simple_types@_K@std@@@std@@QAE@XZ ; std::_Vector_val<std::_Simple_types<unsigned __int64> >::_Vector_val<std::_Simple_types<unsigned __int64> >
PUBLIC	??0?$allocator@M@std@@QAE@XZ			; std::allocator<float>::allocator<float>
PUBLIC	??0<lambda_d7a4910ec896527b17c46ceb55731b6b>@@QAE@QAV?$vector@MV?$allocator@M@std@@@std@@@Z ; <lambda_d7a4910ec896527b17c46ceb55731b6b>::<lambda_d7a4910ec896527b17c46ceb55731b6b>
PUBLIC	??R<lambda_d7a4910ec896527b17c46ceb55731b6b>@@QBE@PAMI@Z ; <lambda_d7a4910ec896527b17c46ceb55731b6b>::operator()
PUBLIC	?resize@?$vector@MV?$allocator@M@std@@@std@@QAEXI@Z ; std::vector<float,std::allocator<float> >::resize
PUBLIC	??0?$_Vector_val@U?$_Simple_types@M@std@@@std@@QAE@XZ ; std::_Vector_val<std::_Simple_types<float> >::_Vector_val<std::_Simple_types<float> >
PUBLIC	??0?$allocator@N@std@@QAE@XZ			; std::allocator<double>::allocator<double>
PUBLIC	??0<lambda_72b2ca492da4f1408aac84fdabcda767>@@QAE@QAV?$vector@NV?$allocator@N@std@@@std@@@Z ; <lambda_72b2ca492da4f1408aac84fdabcda767>::<lambda_72b2ca492da4f1408aac84fdabcda767>
PUBLIC	??R<lambda_72b2ca492da4f1408aac84fdabcda767>@@QBE@PANI@Z ; <lambda_72b2ca492da4f1408aac84fdabcda767>::operator()
PUBLIC	?resize@?$vector@NV?$allocator@N@std@@@std@@QAEXI@Z ; std::vector<double,std::allocator<double> >::resize
PUBLIC	??0?$_Vector_val@U?$_Simple_types@N@std@@@std@@QAE@XZ ; std::_Vector_val<std::_Simple_types<double> >::_Vector_val<std::_Simple_types<double> >
PUBLIC	??0?$allocator@PA_W@std@@QAE@XZ			; std::allocator<wchar_t *>::allocator<wchar_t *>
PUBLIC	??0<lambda_9015b627a392ed02a76b60582322ef4a>@@QAE@QAV?$vector@PA_WV?$allocator@PA_W@std@@@std@@@Z ; <lambda_9015b627a392ed02a76b60582322ef4a>::<lambda_9015b627a392ed02a76b60582322ef4a>
PUBLIC	??R<lambda_9015b627a392ed02a76b60582322ef4a>@@QBE@PAPA_WI@Z ; <lambda_9015b627a392ed02a76b60582322ef4a>::operator()
PUBLIC	?resize@?$vector@PA_WV?$allocator@PA_W@std@@@std@@QAEXI@Z ; std::vector<wchar_t *,std::allocator<wchar_t *> >::resize
PUBLIC	??0?$_Vector_val@U?$_Simple_types@PA_W@std@@@std@@QAE@XZ ; std::_Vector_val<std::_Simple_types<wchar_t *> >::_Vector_val<std::_Simple_types<wchar_t *> >
PUBLIC	??0?$CComSafeArray@E$0BB@@ATL@@QAE@XZ		; ATL::CComSafeArray<unsigned char,17>::CComSafeArray<unsigned char,17>
PUBLIC	??1?$CComSafeArray@E$0BB@@ATL@@QAE@XZ		; ATL::CComSafeArray<unsigned char,17>::~CComSafeArray<unsigned char,17>
PUBLIC	?Attach@?$CComSafeArray@E$0BB@@ATL@@QAEJPBUtagSAFEARRAY@@@Z ; ATL::CComSafeArray<unsigned char,17>::Attach
PUBLIC	?GetCount@?$CComSafeArray@E$0BB@@ATL@@QBEKI@Z	; ATL::CComSafeArray<unsigned char,17>::GetCount
PUBLIC	?GetAt@?$CComSafeArray@E$0BB@@ATL@@QAEAAEJ@Z	; ATL::CComSafeArray<unsigned char,17>::GetAt
PUBLIC	??0?$CComSafeArray@G$0BC@@ATL@@QAE@XZ		; ATL::CComSafeArray<unsigned short,18>::CComSafeArray<unsigned short,18>
PUBLIC	??1?$CComSafeArray@G$0BC@@ATL@@QAE@XZ		; ATL::CComSafeArray<unsigned short,18>::~CComSafeArray<unsigned short,18>
PUBLIC	?Attach@?$CComSafeArray@G$0BC@@ATL@@QAEJPBUtagSAFEARRAY@@@Z ; ATL::CComSafeArray<unsigned short,18>::Attach
PUBLIC	?GetCount@?$CComSafeArray@G$0BC@@ATL@@QBEKI@Z	; ATL::CComSafeArray<unsigned short,18>::GetCount
PUBLIC	?GetAt@?$CComSafeArray@G$0BC@@ATL@@QAEAAGJ@Z	; ATL::CComSafeArray<unsigned short,18>::GetAt
PUBLIC	??0?$CComSafeArray@K$0BD@@ATL@@QAE@XZ		; ATL::CComSafeArray<unsigned long,19>::CComSafeArray<unsigned long,19>
PUBLIC	??1?$CComSafeArray@K$0BD@@ATL@@QAE@XZ		; ATL::CComSafeArray<unsigned long,19>::~CComSafeArray<unsigned long,19>
PUBLIC	?Attach@?$CComSafeArray@K$0BD@@ATL@@QAEJPBUtagSAFEARRAY@@@Z ; ATL::CComSafeArray<unsigned long,19>::Attach
PUBLIC	?GetCount@?$CComSafeArray@K$0BD@@ATL@@QBEKI@Z	; ATL::CComSafeArray<unsigned long,19>::GetCount
PUBLIC	?GetAt@?$CComSafeArray@K$0BD@@ATL@@QAEAAKJ@Z	; ATL::CComSafeArray<unsigned long,19>::GetAt
PUBLIC	??0?$CComSafeArray@_K$0BF@@ATL@@QAE@XZ		; ATL::CComSafeArray<unsigned __int64,21>::CComSafeArray<unsigned __int64,21>
PUBLIC	??1?$CComSafeArray@_K$0BF@@ATL@@QAE@XZ		; ATL::CComSafeArray<unsigned __int64,21>::~CComSafeArray<unsigned __int64,21>
PUBLIC	?Attach@?$CComSafeArray@_K$0BF@@ATL@@QAEJPBUtagSAFEARRAY@@@Z ; ATL::CComSafeArray<unsigned __int64,21>::Attach
PUBLIC	?GetCount@?$CComSafeArray@_K$0BF@@ATL@@QBEKI@Z	; ATL::CComSafeArray<unsigned __int64,21>::GetCount
PUBLIC	?GetAt@?$CComSafeArray@_K$0BF@@ATL@@QAEAA_KJ@Z	; ATL::CComSafeArray<unsigned __int64,21>::GetAt
PUBLIC	??0?$CComSafeArray@M$03@ATL@@QAE@XZ		; ATL::CComSafeArray<float,4>::CComSafeArray<float,4>
PUBLIC	??1?$CComSafeArray@M$03@ATL@@QAE@XZ		; ATL::CComSafeArray<float,4>::~CComSafeArray<float,4>
PUBLIC	?Attach@?$CComSafeArray@M$03@ATL@@QAEJPBUtagSAFEARRAY@@@Z ; ATL::CComSafeArray<float,4>::Attach
PUBLIC	?GetCount@?$CComSafeArray@M$03@ATL@@QBEKI@Z	; ATL::CComSafeArray<float,4>::GetCount
PUBLIC	?GetAt@?$CComSafeArray@M$03@ATL@@QAEAAMJ@Z	; ATL::CComSafeArray<float,4>::GetAt
PUBLIC	??0?$CComSafeArray@N$04@ATL@@QAE@XZ		; ATL::CComSafeArray<double,5>::CComSafeArray<double,5>
PUBLIC	??1?$CComSafeArray@N$04@ATL@@QAE@XZ		; ATL::CComSafeArray<double,5>::~CComSafeArray<double,5>
PUBLIC	?Attach@?$CComSafeArray@N$04@ATL@@QAEJPBUtagSAFEARRAY@@@Z ; ATL::CComSafeArray<double,5>::Attach
PUBLIC	?GetCount@?$CComSafeArray@N$04@ATL@@QBEKI@Z	; ATL::CComSafeArray<double,5>::GetCount
PUBLIC	?GetAt@?$CComSafeArray@N$04@ATL@@QAEAANJ@Z	; ATL::CComSafeArray<double,5>::GetAt
PUBLIC	??$?0$$V@?$_Compressed_pair@V?$allocator@E@std@@V?$_Vector_val@U?$_Simple_types@E@std@@@2@$00@std@@QAE@U_Zero_then_variadic_args_t@1@@Z ; std::_Compressed_pair<std::allocator<unsigned char>,std::_Vector_val<std::_Simple_types<unsigned char> >,1>::_Compressed_pair<std::allocator<unsigned char>,std::_Vector_val<std::_Simple_types<unsigned char> >,1><>
PUBLIC	??$_Destroy_range@V?$allocator@G@std@@@std@@YAXPAG0AAV?$allocator@G@0@@Z ; std::_Destroy_range<std::allocator<unsigned short> >
PUBLIC	??$?0$$V@?$_Compressed_pair@V?$allocator@G@std@@V?$_Vector_val@U?$_Simple_types@G@std@@@2@$00@std@@QAE@U_Zero_then_variadic_args_t@1@@Z ; std::_Compressed_pair<std::allocator<unsigned short>,std::_Vector_val<std::_Simple_types<unsigned short> >,1>::_Compressed_pair<std::allocator<unsigned short>,std::_Vector_val<std::_Simple_types<unsigned short> >,1><>
PUBLIC	??$_Destroy_range@V?$allocator@K@std@@@std@@YAXPAK0AAV?$allocator@K@0@@Z ; std::_Destroy_range<std::allocator<unsigned long> >
PUBLIC	??$?0$$V@?$_Compressed_pair@V?$allocator@K@std@@V?$_Vector_val@U?$_Simple_types@K@std@@@2@$00@std@@QAE@U_Zero_then_variadic_args_t@1@@Z ; std::_Compressed_pair<std::allocator<unsigned long>,std::_Vector_val<std::_Simple_types<unsigned long> >,1>::_Compressed_pair<std::allocator<unsigned long>,std::_Vector_val<std::_Simple_types<unsigned long> >,1><>
PUBLIC	??$_Destroy_range@V?$allocator@_K@std@@@std@@YAXPA_K0AAV?$allocator@_K@0@@Z ; std::_Destroy_range<std::allocator<unsigned __int64> >
PUBLIC	??$?0$$V@?$_Compressed_pair@V?$allocator@_K@std@@V?$_Vector_val@U?$_Simple_types@_K@std@@@2@$00@std@@QAE@U_Zero_then_variadic_args_t@1@@Z ; std::_Compressed_pair<std::allocator<unsigned __int64>,std::_Vector_val<std::_Simple_types<unsigned __int64> >,1>::_Compressed_pair<std::allocator<unsigned __int64>,std::_Vector_val<std::_Simple_types<unsigned __int64> >,1><>
PUBLIC	??$_Destroy_range@V?$allocator@M@std@@@std@@YAXPAM0AAV?$allocator@M@0@@Z ; std::_Destroy_range<std::allocator<float> >
PUBLIC	??$?0$$V@?$_Compressed_pair@V?$allocator@M@std@@V?$_Vector_val@U?$_Simple_types@M@std@@@2@$00@std@@QAE@U_Zero_then_variadic_args_t@1@@Z ; std::_Compressed_pair<std::allocator<float>,std::_Vector_val<std::_Simple_types<float> >,1>::_Compressed_pair<std::allocator<float>,std::_Vector_val<std::_Simple_types<float> >,1><>
PUBLIC	??$_Destroy_range@V?$allocator@N@std@@@std@@YAXPAN0AAV?$allocator@N@0@@Z ; std::_Destroy_range<std::allocator<double> >
PUBLIC	??$?0$$V@?$_Compressed_pair@V?$allocator@N@std@@V?$_Vector_val@U?$_Simple_types@N@std@@@2@$00@std@@QAE@U_Zero_then_variadic_args_t@1@@Z ; std::_Compressed_pair<std::allocator<double>,std::_Vector_val<std::_Simple_types<double> >,1>::_Compressed_pair<std::allocator<double>,std::_Vector_val<std::_Simple_types<double> >,1><>
PUBLIC	??$_Destroy_range@V?$allocator@PA_W@std@@@std@@YAXPAPA_W0AAV?$allocator@PA_W@0@@Z ; std::_Destroy_range<std::allocator<wchar_t *> >
PUBLIC	??$?0$$V@?$_Compressed_pair@V?$allocator@PA_W@std@@V?$_Vector_val@U?$_Simple_types@PA_W@std@@@2@$00@std@@QAE@U_Zero_then_variadic_args_t@1@@Z ; std::_Compressed_pair<std::allocator<wchar_t *>,std::_Vector_val<std::_Simple_types<wchar_t *> >,1>::_Compressed_pair<std::allocator<wchar_t *>,std::_Vector_val<std::_Simple_types<wchar_t *> >,1><>
PUBLIC	??$_Range_construct_or_tidy@PBV?$basic_string@DU?$char_traits@D@std@@V?$allocator@D@2@@std@@@?$vector@V?$basic_string@DU?$char_traits@D@std@@V?$allocator@D@2@@std@@V?$allocator@V?$basic_string@DU?$char_traits@D@std@@V?$allocator@D@2@@std@@@2@@std@@AAEXPBV?$basic_string@DU?$char_traits@D@std@@V?$allocator@D@2@@1@0Uforward_iterator_tag@1@@Z ; std::vector<std::basic_string<char,std::char_traits<char>,std::allocator<char> >,std::allocator<std::basic_string<char,std::char_traits<char>,std::allocator<char> > > >::_Range_construct_or_tidy<std::basic_string<char,std::char_traits<char>,std::allocator<char> > const *>
PUBLIC	??$?0ABV?$allocator@V?$basic_string@DU?$char_traits@D@std@@V?$allocator@D@2@@std@@@std@@X@?$_Vector_alloc@U?$_Vec_base_types@V?$basic_string@DU?$char_traits@D@std@@V?$allocator@D@2@@std@@V?$allocator@V?$basic_string@DU?$char_traits@D@std@@V?$allocator@D@2@@std@@@2@@std@@@std@@QAE@ABV?$allocator@V?$basic_string@DU?$char_traits@D@std@@V?$allocator@D@2@@std@@@1@@Z ; std::_Vector_alloc<std::_Vec_base_types<std::basic_string<char,std::char_traits<char>,std::allocator<char> >,std::allocator<std::basic_string<char,std::char_traits<char>,std::allocator<char> > > > >::_Vector_alloc<std::_Vec_base_types<std::basic_string<char,std::char_traits<char>,std::allocator<char> >,std::allocator<std::basic_string<char,std::char_traits<char>,std::allocator<char> > > > ><std::allocator<std::basic_string<char,std::char_traits<char>,std::allocator<char> > > const &,void>
PUBLIC	??$FromVariant@PA_W@@YAXUtagVARIANT@@AAV?$vector@PA_WV?$allocator@PA_W@std@@@std@@@Z ; FromVariant<wchar_t *>
PUBLIC	??$FromVariant@N@@YAXUtagVARIANT@@AAV?$vector@NV?$allocator@N@std@@@std@@@Z ; FromVariant<double>
PUBLIC	??$FromVariant@M@@YAXUtagVARIANT@@AAV?$vector@MV?$allocator@M@std@@@std@@@Z ; FromVariant<float>
PUBLIC	??$FromVariant@_K@@YAXUtagVARIANT@@AAV?$vector@_KV?$allocator@_K@std@@@std@@@Z ; FromVariant<unsigned __int64>
PUBLIC	??$FromVariant@K@@YAXUtagVARIANT@@AAV?$vector@KV?$allocator@K@std@@@std@@@Z ; FromVariant<unsigned long>
PUBLIC	??$FromVariant@G@@YAXUtagVARIANT@@AAV?$vector@GV?$allocator@G@std@@@std@@@Z ; FromVariant<unsigned short>
PUBLIC	??$FromVariant@E@@YAXUtagVARIANT@@AAV?$vector@EV?$allocator@E@std@@@std@@@Z ; FromVariant<unsigned char>
PUBLIC	??1?$CSimpleArray@GV?$CSimpleArrayEqualHelper@G@ATL@@@ATL@@QAE@XZ ; ATL::CSimpleArray<unsigned short,ATL::CSimpleArrayEqualHelper<unsigned short> >::~CSimpleArray<unsigned short,ATL::CSimpleArrayEqualHelper<unsigned short> >
PUBLIC	??0?$CTraceCategoryEx@$0EAAAAA@$0A@@ATL@@QAE@PBD@Z ; ATL::CTraceCategoryEx<4194304,0>::CTraceCategoryEx<4194304,0>
PUBLIC	??0?$CTraceCategoryEx@$0CAAAAA@$0A@@ATL@@QAE@PBD@Z ; ATL::CTraceCategoryEx<2097152,0>::CTraceCategoryEx<2097152,0>
PUBLIC	??0?$CTraceCategoryEx@$0BAAAAA@$0A@@ATL@@QAE@PBD@Z ; ATL::CTraceCategoryEx<1048576,0>::CTraceCategoryEx<1048576,0>
PUBLIC	??0?$CTraceCategoryEx@$0EAAAA@$0A@@ATL@@QAE@PBD@Z ; ATL::CTraceCategoryEx<262144,0>::CTraceCategoryEx<262144,0>
PUBLIC	??0?$CTraceCategoryEx@$0CAAAA@$0A@@ATL@@QAE@PBD@Z ; ATL::CTraceCategoryEx<131072,0>::CTraceCategoryEx<131072,0>
PUBLIC	??0?$CTraceCategoryEx@$0BAAAA@$0A@@ATL@@QAE@PBD@Z ; ATL::CTraceCategoryEx<65536,0>::CTraceCategoryEx<65536,0>
PUBLIC	??0?$CTraceCategoryEx@$0IAAA@$0A@@ATL@@QAE@PBD@Z ; ATL::CTraceCategoryEx<32768,0>::CTraceCategoryEx<32768,0>
PUBLIC	??0?$CTraceCategoryEx@$0EAAA@$0A@@ATL@@QAE@PBD@Z ; ATL::CTraceCategoryEx<16384,0>::CTraceCategoryEx<16384,0>
PUBLIC	??0?$CTraceCategoryEx@$0CAAA@$0A@@ATL@@QAE@PBD@Z ; ATL::CTraceCategoryEx<8192,0>::CTraceCategoryEx<8192,0>
PUBLIC	??0?$CTraceCategoryEx@$0BAAA@$0A@@ATL@@QAE@PBD@Z ; ATL::CTraceCategoryEx<4096,0>::CTraceCategoryEx<4096,0>
PUBLIC	??0?$CTraceCategoryEx@$0IAA@$0A@@ATL@@QAE@PBD@Z	; ATL::CTraceCategoryEx<2048,0>::CTraceCategoryEx<2048,0>
PUBLIC	??0?$CTraceCategoryEx@$0EAA@$0A@@ATL@@QAE@PBD@Z	; ATL::CTraceCategoryEx<1024,0>::CTraceCategoryEx<1024,0>
PUBLIC	??0?$CTraceCategoryEx@$0CAA@$0A@@ATL@@QAE@PBD@Z	; ATL::CTraceCategoryEx<512,0>::CTraceCategoryEx<512,0>
PUBLIC	??0?$CTraceCategoryEx@$0BAA@$0A@@ATL@@QAE@PBD@Z	; ATL::CTraceCategoryEx<256,0>::CTraceCategoryEx<256,0>
PUBLIC	??0?$CTraceCategoryEx@$0IA@$0A@@ATL@@QAE@PBD@Z	; ATL::CTraceCategoryEx<128,0>::CTraceCategoryEx<128,0>
PUBLIC	??0?$CTraceCategoryEx@$0EA@$0A@@ATL@@QAE@PBD@Z	; ATL::CTraceCategoryEx<64,0>::CTraceCategoryEx<64,0>
PUBLIC	??0?$CTraceCategoryEx@$0CA@$0A@@ATL@@QAE@PBD@Z	; ATL::CTraceCategoryEx<32,0>::CTraceCategoryEx<32,0>
PUBLIC	??0?$CTraceCategoryEx@$0BA@$0A@@ATL@@QAE@PBD@Z	; ATL::CTraceCategoryEx<16,0>::CTraceCategoryEx<16,0>
PUBLIC	??0?$CTraceCategoryEx@$07$0A@@ATL@@QAE@PBD@Z	; ATL::CTraceCategoryEx<8,0>::CTraceCategoryEx<8,0>
PUBLIC	??0?$CTraceCategoryEx@$03$0A@@ATL@@QAE@PBD@Z	; ATL::CTraceCategoryEx<4,0>::CTraceCategoryEx<4,0>
PUBLIC	??0?$CTraceCategoryEx@$01$0A@@ATL@@QAE@PBD@Z	; ATL::CTraceCategoryEx<2,0>::CTraceCategoryEx<2,0>
PUBLIC	??0?$CTraceCategoryEx@$00$0A@@ATL@@QAE@PBD@Z	; ATL::CTraceCategoryEx<1,0>::CTraceCategoryEx<1,0>
PUBLIC	??0?$CTraceCategoryEx@$0IAAAA@$0A@@ATL@@QAE@PBD@Z ; ATL::CTraceCategoryEx<524288,0>::CTraceCategoryEx<524288,0>
PUBLIC	?_Myend@?$_Vector_alloc@U?$_Vec_base_types@GV?$allocator@G@std@@@std@@@std@@QBEABQAGXZ ; std::_Vector_alloc<std::_Vec_base_types<unsigned short,std::allocator<unsigned short> > >::_Myend
PUBLIC	?_Get_first@?$_Compressed_pair@V?$allocator@G@std@@V?$_Vector_val@U?$_Simple_types@G@std@@@2@$00@std@@QAEAAV?$allocator@G@2@XZ ; std::_Compressed_pair<std::allocator<unsigned short>,std::_Vector_val<std::_Simple_types<unsigned short> >,1>::_Get_first
PUBLIC	?_Get_second@?$_Compressed_pair@V?$allocator@G@std@@V?$_Vector_val@U?$_Simple_types@G@std@@@2@$00@std@@QAEAAV?$_Vector_val@U?$_Simple_types@G@std@@@2@XZ ; std::_Compressed_pair<std::allocator<unsigned short>,std::_Vector_val<std::_Simple_types<unsigned short> >,1>::_Get_second
PUBLIC	?_Get_second@?$_Compressed_pair@V?$allocator@G@std@@V?$_Vector_val@U?$_Simple_types@G@std@@@2@$00@std@@QBEABV?$_Vector_val@U?$_Simple_types@G@std@@@2@XZ ; std::_Compressed_pair<std::allocator<unsigned short>,std::_Vector_val<std::_Simple_types<unsigned short> >,1>::_Get_second
PUBLIC	?_Myend@?$_Vector_alloc@U?$_Vec_base_types@KV?$allocator@K@std@@@std@@@std@@QBEABQAKXZ ; std::_Vector_alloc<std::_Vec_base_types<unsigned long,std::allocator<unsigned long> > >::_Myend
PUBLIC	?_Get_first@?$_Compressed_pair@V?$allocator@K@std@@V?$_Vector_val@U?$_Simple_types@K@std@@@2@$00@std@@QAEAAV?$allocator@K@2@XZ ; std::_Compressed_pair<std::allocator<unsigned long>,std::_Vector_val<std::_Simple_types<unsigned long> >,1>::_Get_first
PUBLIC	?_Get_second@?$_Compressed_pair@V?$allocator@K@std@@V?$_Vector_val@U?$_Simple_types@K@std@@@2@$00@std@@QAEAAV?$_Vector_val@U?$_Simple_types@K@std@@@2@XZ ; std::_Compressed_pair<std::allocator<unsigned long>,std::_Vector_val<std::_Simple_types<unsigned long> >,1>::_Get_second
PUBLIC	?_Get_second@?$_Compressed_pair@V?$allocator@K@std@@V?$_Vector_val@U?$_Simple_types@K@std@@@2@$00@std@@QBEABV?$_Vector_val@U?$_Simple_types@K@std@@@2@XZ ; std::_Compressed_pair<std::allocator<unsigned long>,std::_Vector_val<std::_Simple_types<unsigned long> >,1>::_Get_second
PUBLIC	?_Myend@?$_Vector_alloc@U?$_Vec_base_types@_KV?$allocator@_K@std@@@std@@@std@@QBEABQA_KXZ ; std::_Vector_alloc<std::_Vec_base_types<unsigned __int64,std::allocator<unsigned __int64> > >::_Myend
PUBLIC	?_Get_first@?$_Compressed_pair@V?$allocator@_K@std@@V?$_Vector_val@U?$_Simple_types@_K@std@@@2@$00@std@@QAEAAV?$allocator@_K@2@XZ ; std::_Compressed_pair<std::allocator<unsigned __int64>,std::_Vector_val<std::_Simple_types<unsigned __int64> >,1>::_Get_first
PUBLIC	?_Get_second@?$_Compressed_pair@V?$allocator@_K@std@@V?$_Vector_val@U?$_Simple_types@_K@std@@@2@$00@std@@QAEAAV?$_Vector_val@U?$_Simple_types@_K@std@@@2@XZ ; std::_Compressed_pair<std::allocator<unsigned __int64>,std::_Vector_val<std::_Simple_types<unsigned __int64> >,1>::_Get_second
PUBLIC	?_Get_second@?$_Compressed_pair@V?$allocator@_K@std@@V?$_Vector_val@U?$_Simple_types@_K@std@@@2@$00@std@@QBEABV?$_Vector_val@U?$_Simple_types@_K@std@@@2@XZ ; std::_Compressed_pair<std::allocator<unsigned __int64>,std::_Vector_val<std::_Simple_types<unsigned __int64> >,1>::_Get_second
PUBLIC	?_Myend@?$_Vector_alloc@U?$_Vec_base_types@MV?$allocator@M@std@@@std@@@std@@QBEABQAMXZ ; std::_Vector_alloc<std::_Vec_base_types<float,std::allocator<float> > >::_Myend
PUBLIC	?_Get_first@?$_Compressed_pair@V?$allocator@M@std@@V?$_Vector_val@U?$_Simple_types@M@std@@@2@$00@std@@QAEAAV?$allocator@M@2@XZ ; std::_Compressed_pair<std::allocator<float>,std::_Vector_val<std::_Simple_types<float> >,1>::_Get_first
PUBLIC	?_Get_second@?$_Compressed_pair@V?$allocator@M@std@@V?$_Vector_val@U?$_Simple_types@M@std@@@2@$00@std@@QAEAAV?$_Vector_val@U?$_Simple_types@M@std@@@2@XZ ; std::_Compressed_pair<std::allocator<float>,std::_Vector_val<std::_Simple_types<float> >,1>::_Get_second
PUBLIC	?_Get_second@?$_Compressed_pair@V?$allocator@M@std@@V?$_Vector_val@U?$_Simple_types@M@std@@@2@$00@std@@QBEABV?$_Vector_val@U?$_Simple_types@M@std@@@2@XZ ; std::_Compressed_pair<std::allocator<float>,std::_Vector_val<std::_Simple_types<float> >,1>::_Get_second
PUBLIC	?_Myend@?$_Vector_alloc@U?$_Vec_base_types@NV?$allocator@N@std@@@std@@@std@@QBEABQANXZ ; std::_Vector_alloc<std::_Vec_base_types<double,std::allocator<double> > >::_Myend
PUBLIC	?_Get_first@?$_Compressed_pair@V?$allocator@N@std@@V?$_Vector_val@U?$_Simple_types@N@std@@@2@$00@std@@QAEAAV?$allocator@N@2@XZ ; std::_Compressed_pair<std::allocator<double>,std::_Vector_val<std::_Simple_types<double> >,1>::_Get_first
PUBLIC	?_Get_second@?$_Compressed_pair@V?$allocator@N@std@@V?$_Vector_val@U?$_Simple_types@N@std@@@2@$00@std@@QAEAAV?$_Vector_val@U?$_Simple_types@N@std@@@2@XZ ; std::_Compressed_pair<std::allocator<double>,std::_Vector_val<std::_Simple_types<double> >,1>::_Get_second
PUBLIC	?_Get_second@?$_Compressed_pair@V?$allocator@N@std@@V?$_Vector_val@U?$_Simple_types@N@std@@@2@$00@std@@QBEABV?$_Vector_val@U?$_Simple_types@N@std@@@2@XZ ; std::_Compressed_pair<std::allocator<double>,std::_Vector_val<std::_Simple_types<double> >,1>::_Get_second
PUBLIC	?_Myend@?$_Vector_alloc@U?$_Vec_base_types@PA_WV?$allocator@PA_W@std@@@std@@@std@@QBEABQAPA_WXZ ; std::_Vector_alloc<std::_Vec_base_types<wchar_t *,std::allocator<wchar_t *> > >::_Myend
PUBLIC	?_Get_first@?$_Compressed_pair@V?$allocator@PA_W@std@@V?$_Vector_val@U?$_Simple_types@PA_W@std@@@2@$00@std@@QAEAAV?$allocator@PA_W@2@XZ ; std::_Compressed_pair<std::allocator<wchar_t *>,std::_Vector_val<std::_Simple_types<wchar_t *> >,1>::_Get_first
PUBLIC	?_Get_second@?$_Compressed_pair@V?$allocator@PA_W@std@@V?$_Vector_val@U?$_Simple_types@PA_W@std@@@2@$00@std@@QAEAAV?$_Vector_val@U?$_Simple_types@PA_W@std@@@2@XZ ; std::_Compressed_pair<std::allocator<wchar_t *>,std::_Vector_val<std::_Simple_types<wchar_t *> >,1>::_Get_second
PUBLIC	?_Get_second@?$_Compressed_pair@V?$allocator@PA_W@std@@V?$_Vector_val@U?$_Simple_types@PA_W@std@@@2@$00@std@@QBEABV?$_Vector_val@U?$_Simple_types@PA_W@std@@@2@XZ ; std::_Compressed_pair<std::allocator<wchar_t *>,std::_Vector_val<std::_Simple_types<wchar_t *> >,1>::_Get_second
PUBLIC	?deallocate@?$allocator@G@std@@QAEXQAGI@Z	; std::allocator<unsigned short>::deallocate
PUBLIC	?capacity@?$vector@GV?$allocator@G@std@@@std@@QBEIXZ ; std::vector<unsigned short,std::allocator<unsigned short> >::capacity
PUBLIC	?_Getal@?$_Vector_alloc@U?$_Vec_base_types@GV?$allocator@G@std@@@std@@@std@@QAEAAV?$allocator@G@2@XZ ; std::_Vector_alloc<std::_Vec_base_types<unsigned short,std::allocator<unsigned short> > >::_Getal
PUBLIC	?_Get_data@?$_Vector_alloc@U?$_Vec_base_types@GV?$allocator@G@std@@@std@@@std@@QAEAAV?$_Vector_val@U?$_Simple_types@G@std@@@2@XZ ; std::_Vector_alloc<std::_Vec_base_types<unsigned short,std::allocator<unsigned short> > >::_Get_data
PUBLIC	?_Get_data@?$_Vector_alloc@U?$_Vec_base_types@GV?$allocator@G@std@@@std@@@std@@QBEABV?$_Vector_val@U?$_Simple_types@G@std@@@2@XZ ; std::_Vector_alloc<std::_Vec_base_types<unsigned short,std::allocator<unsigned short> > >::_Get_data
PUBLIC	?_Myend@?$_Vector_alloc@U?$_Vec_base_types@GV?$allocator@G@std@@@std@@@std@@QAEAAPAGXZ ; std::_Vector_alloc<std::_Vec_base_types<unsigned short,std::allocator<unsigned short> > >::_Myend
PUBLIC	?deallocate@?$allocator@K@std@@QAEXQAKI@Z	; std::allocator<unsigned long>::deallocate
PUBLIC	?capacity@?$vector@KV?$allocator@K@std@@@std@@QBEIXZ ; std::vector<unsigned long,std::allocator<unsigned long> >::capacity
PUBLIC	?_Getal@?$_Vector_alloc@U?$_Vec_base_types@KV?$allocator@K@std@@@std@@@std@@QAEAAV?$allocator@K@2@XZ ; std::_Vector_alloc<std::_Vec_base_types<unsigned long,std::allocator<unsigned long> > >::_Getal
PUBLIC	?_Get_data@?$_Vector_alloc@U?$_Vec_base_types@KV?$allocator@K@std@@@std@@@std@@QAEAAV?$_Vector_val@U?$_Simple_types@K@std@@@2@XZ ; std::_Vector_alloc<std::_Vec_base_types<unsigned long,std::allocator<unsigned long> > >::_Get_data
PUBLIC	?_Get_data@?$_Vector_alloc@U?$_Vec_base_types@KV?$allocator@K@std@@@std@@@std@@QBEABV?$_Vector_val@U?$_Simple_types@K@std@@@2@XZ ; std::_Vector_alloc<std::_Vec_base_types<unsigned long,std::allocator<unsigned long> > >::_Get_data
PUBLIC	?_Myend@?$_Vector_alloc@U?$_Vec_base_types@KV?$allocator@K@std@@@std@@@std@@QAEAAPAKXZ ; std::_Vector_alloc<std::_Vec_base_types<unsigned long,std::allocator<unsigned long> > >::_Myend
PUBLIC	?deallocate@?$allocator@_K@std@@QAEXQA_KI@Z	; std::allocator<unsigned __int64>::deallocate
PUBLIC	?capacity@?$vector@_KV?$allocator@_K@std@@@std@@QBEIXZ ; std::vector<unsigned __int64,std::allocator<unsigned __int64> >::capacity
PUBLIC	?_Getal@?$_Vector_alloc@U?$_Vec_base_types@_KV?$allocator@_K@std@@@std@@@std@@QAEAAV?$allocator@_K@2@XZ ; std::_Vector_alloc<std::_Vec_base_types<unsigned __int64,std::allocator<unsigned __int64> > >::_Getal
PUBLIC	?_Get_data@?$_Vector_alloc@U?$_Vec_base_types@_KV?$allocator@_K@std@@@std@@@std@@QAEAAV?$_Vector_val@U?$_Simple_types@_K@std@@@2@XZ ; std::_Vector_alloc<std::_Vec_base_types<unsigned __int64,std::allocator<unsigned __int64> > >::_Get_data
PUBLIC	?_Get_data@?$_Vector_alloc@U?$_Vec_base_types@_KV?$allocator@_K@std@@@std@@@std@@QBEABV?$_Vector_val@U?$_Simple_types@_K@std@@@2@XZ ; std::_Vector_alloc<std::_Vec_base_types<unsigned __int64,std::allocator<unsigned __int64> > >::_Get_data
PUBLIC	?_Myend@?$_Vector_alloc@U?$_Vec_base_types@_KV?$allocator@_K@std@@@std@@@std@@QAEAAPA_KXZ ; std::_Vector_alloc<std::_Vec_base_types<unsigned __int64,std::allocator<unsigned __int64> > >::_Myend
PUBLIC	?deallocate@?$allocator@M@std@@QAEXQAMI@Z	; std::allocator<float>::deallocate
PUBLIC	?capacity@?$vector@MV?$allocator@M@std@@@std@@QBEIXZ ; std::vector<float,std::allocator<float> >::capacity
PUBLIC	?_Getal@?$_Vector_alloc@U?$_Vec_base_types@MV?$allocator@M@std@@@std@@@std@@QAEAAV?$allocator@M@2@XZ ; std::_Vector_alloc<std::_Vec_base_types<float,std::allocator<float> > >::_Getal
PUBLIC	?_Get_data@?$_Vector_alloc@U?$_Vec_base_types@MV?$allocator@M@std@@@std@@@std@@QAEAAV?$_Vector_val@U?$_Simple_types@M@std@@@2@XZ ; std::_Vector_alloc<std::_Vec_base_types<float,std::allocator<float> > >::_Get_data
PUBLIC	?_Get_data@?$_Vector_alloc@U?$_Vec_base_types@MV?$allocator@M@std@@@std@@@std@@QBEABV?$_Vector_val@U?$_Simple_types@M@std@@@2@XZ ; std::_Vector_alloc<std::_Vec_base_types<float,std::allocator<float> > >::_Get_data
PUBLIC	?_Myend@?$_Vector_alloc@U?$_Vec_base_types@MV?$allocator@M@std@@@std@@@std@@QAEAAPAMXZ ; std::_Vector_alloc<std::_Vec_base_types<float,std::allocator<float> > >::_Myend
PUBLIC	?deallocate@?$allocator@N@std@@QAEXQANI@Z	; std::allocator<double>::deallocate
PUBLIC	?capacity@?$vector@NV?$allocator@N@std@@@std@@QBEIXZ ; std::vector<double,std::allocator<double> >::capacity
PUBLIC	?_Getal@?$_Vector_alloc@U?$_Vec_base_types@NV?$allocator@N@std@@@std@@@std@@QAEAAV?$allocator@N@2@XZ ; std::_Vector_alloc<std::_Vec_base_types<double,std::allocator<double> > >::_Getal
PUBLIC	?_Get_data@?$_Vector_alloc@U?$_Vec_base_types@NV?$allocator@N@std@@@std@@@std@@QAEAAV?$_Vector_val@U?$_Simple_types@N@std@@@2@XZ ; std::_Vector_alloc<std::_Vec_base_types<double,std::allocator<double> > >::_Get_data
PUBLIC	?_Get_data@?$_Vector_alloc@U?$_Vec_base_types@NV?$allocator@N@std@@@std@@@std@@QBEABV?$_Vector_val@U?$_Simple_types@N@std@@@2@XZ ; std::_Vector_alloc<std::_Vec_base_types<double,std::allocator<double> > >::_Get_data
PUBLIC	?_Myend@?$_Vector_alloc@U?$_Vec_base_types@NV?$allocator@N@std@@@std@@@std@@QAEAAPANXZ ; std::_Vector_alloc<std::_Vec_base_types<double,std::allocator<double> > >::_Myend
PUBLIC	?deallocate@?$allocator@PA_W@std@@QAEXQAPA_WI@Z	; std::allocator<wchar_t *>::deallocate
PUBLIC	?capacity@?$vector@PA_WV?$allocator@PA_W@std@@@std@@QBEIXZ ; std::vector<wchar_t *,std::allocator<wchar_t *> >::capacity
PUBLIC	?_Getal@?$_Vector_alloc@U?$_Vec_base_types@PA_WV?$allocator@PA_W@std@@@std@@@std@@QAEAAV?$allocator@PA_W@2@XZ ; std::_Vector_alloc<std::_Vec_base_types<wchar_t *,std::allocator<wchar_t *> > >::_Getal
PUBLIC	?_Get_data@?$_Vector_alloc@U?$_Vec_base_types@PA_WV?$allocator@PA_W@std@@@std@@@std@@QAEAAV?$_Vector_val@U?$_Simple_types@PA_W@std@@@2@XZ ; std::_Vector_alloc<std::_Vec_base_types<wchar_t *,std::allocator<wchar_t *> > >::_Get_data
PUBLIC	?_Get_data@?$_Vector_alloc@U?$_Vec_base_types@PA_WV?$allocator@PA_W@std@@@std@@@std@@QBEABV?$_Vector_val@U?$_Simple_types@PA_W@std@@@2@XZ ; std::_Vector_alloc<std::_Vec_base_types<wchar_t *,std::allocator<wchar_t *> > >::_Get_data
PUBLIC	?_Myend@?$_Vector_alloc@U?$_Vec_base_types@PA_WV?$allocator@PA_W@std@@@std@@@std@@QAEAAPAPA_WXZ ; std::_Vector_alloc<std::_Vec_base_types<wchar_t *,std::allocator<wchar_t *> > >::_Myend
PUBLIC	?select_on_container_copy_construction@?$_Default_allocator_traits@V?$allocator@V?$basic_string@DU?$char_traits@D@std@@V?$allocator@D@2@@std@@@std@@@std@@SA?AV?$allocator@V?$basic_string@DU?$char_traits@D@std@@V?$allocator@D@2@@std@@@2@ABV32@@Z ; std::_Default_allocator_traits<std::allocator<std::basic_string<char,std::char_traits<char>,std::allocator<char> > > >::select_on_container_copy_construction
PUBLIC	?begin@?$initializer_list@V?$basic_string@DU?$char_traits@D@std@@V?$allocator@D@2@@std@@@std@@QBEPBV?$basic_string@DU?$char_traits@D@std@@V?$allocator@D@2@@2@XZ ; std::initializer_list<std::basic_string<char,std::char_traits<char>,std::allocator<char> > >::begin
PUBLIC	?end@?$initializer_list@V?$basic_string@DU?$char_traits@D@std@@V?$allocator@D@2@@std@@@std@@QBEPBV?$basic_string@DU?$char_traits@D@std@@V?$allocator@D@2@@2@XZ ; std::initializer_list<std::basic_string<char,std::char_traits<char>,std::allocator<char> > >::end
PUBLIC	??0?$_Vector_alloc@U?$_Vec_base_types@EV?$allocator@E@std@@@std@@@std@@QAE@XZ ; std::_Vector_alloc<std::_Vec_base_types<unsigned char,std::allocator<unsigned char> > >::_Vector_alloc<std::_Vec_base_types<unsigned char,std::allocator<unsigned char> > >
PUBLIC	?_Mylast@?$_Vector_alloc@U?$_Vec_base_types@EV?$allocator@E@std@@@std@@@std@@QBEABQAEXZ ; std::_Vector_alloc<std::_Vec_base_types<unsigned char,std::allocator<unsigned char> > >::_Mylast
PUBLIC	?_Destroy@?$vector@GV?$allocator@G@std@@@std@@AAEXPAG0@Z ; std::vector<unsigned short,std::allocator<unsigned short> >::_Destroy
PUBLIC	?_Tidy@?$vector@GV?$allocator@G@std@@@std@@AAEXXZ ; std::vector<unsigned short,std::allocator<unsigned short> >::_Tidy
PUBLIC	??0?$_Vector_alloc@U?$_Vec_base_types@GV?$allocator@G@std@@@std@@@std@@QAE@XZ ; std::_Vector_alloc<std::_Vec_base_types<unsigned short,std::allocator<unsigned short> > >::_Vector_alloc<std::_Vec_base_types<unsigned short,std::allocator<unsigned short> > >
PUBLIC	?_Orphan_all@?$_Vector_alloc@U?$_Vec_base_types@GV?$allocator@G@std@@@std@@@std@@QAEXXZ ; std::_Vector_alloc<std::_Vec_base_types<unsigned short,std::allocator<unsigned short> > >::_Orphan_all
PUBLIC	?_Myfirst@?$_Vector_alloc@U?$_Vec_base_types@GV?$allocator@G@std@@@std@@@std@@QAEAAPAGXZ ; std::_Vector_alloc<std::_Vec_base_types<unsigned short,std::allocator<unsigned short> > >::_Myfirst
PUBLIC	?_Myfirst@?$_Vector_alloc@U?$_Vec_base_types@GV?$allocator@G@std@@@std@@@std@@QBEABQAGXZ ; std::_Vector_alloc<std::_Vec_base_types<unsigned short,std::allocator<unsigned short> > >::_Myfirst
PUBLIC	?_Mylast@?$_Vector_alloc@U?$_Vec_base_types@GV?$allocator@G@std@@@std@@@std@@QAEAAPAGXZ ; std::_Vector_alloc<std::_Vec_base_types<unsigned short,std::allocator<unsigned short> > >::_Mylast
PUBLIC	?_Mylast@?$_Vector_alloc@U?$_Vec_base_types@GV?$allocator@G@std@@@std@@@std@@QBEABQAGXZ ; std::_Vector_alloc<std::_Vec_base_types<unsigned short,std::allocator<unsigned short> > >::_Mylast
PUBLIC	?_Destroy@?$vector@KV?$allocator@K@std@@@std@@AAEXPAK0@Z ; std::vector<unsigned long,std::allocator<unsigned long> >::_Destroy
PUBLIC	?_Tidy@?$vector@KV?$allocator@K@std@@@std@@AAEXXZ ; std::vector<unsigned long,std::allocator<unsigned long> >::_Tidy
PUBLIC	??0?$_Vector_alloc@U?$_Vec_base_types@KV?$allocator@K@std@@@std@@@std@@QAE@XZ ; std::_Vector_alloc<std::_Vec_base_types<unsigned long,std::allocator<unsigned long> > >::_Vector_alloc<std::_Vec_base_types<unsigned long,std::allocator<unsigned long> > >
PUBLIC	?_Orphan_all@?$_Vector_alloc@U?$_Vec_base_types@KV?$allocator@K@std@@@std@@@std@@QAEXXZ ; std::_Vector_alloc<std::_Vec_base_types<unsigned long,std::allocator<unsigned long> > >::_Orphan_all
PUBLIC	?_Myfirst@?$_Vector_alloc@U?$_Vec_base_types@KV?$allocator@K@std@@@std@@@std@@QAEAAPAKXZ ; std::_Vector_alloc<std::_Vec_base_types<unsigned long,std::allocator<unsigned long> > >::_Myfirst
PUBLIC	?_Myfirst@?$_Vector_alloc@U?$_Vec_base_types@KV?$allocator@K@std@@@std@@@std@@QBEABQAKXZ ; std::_Vector_alloc<std::_Vec_base_types<unsigned long,std::allocator<unsigned long> > >::_Myfirst
PUBLIC	?_Mylast@?$_Vector_alloc@U?$_Vec_base_types@KV?$allocator@K@std@@@std@@@std@@QAEAAPAKXZ ; std::_Vector_alloc<std::_Vec_base_types<unsigned long,std::allocator<unsigned long> > >::_Mylast
PUBLIC	?_Mylast@?$_Vector_alloc@U?$_Vec_base_types@KV?$allocator@K@std@@@std@@@std@@QBEABQAKXZ ; std::_Vector_alloc<std::_Vec_base_types<unsigned long,std::allocator<unsigned long> > >::_Mylast
PUBLIC	?_Destroy@?$vector@_KV?$allocator@_K@std@@@std@@AAEXPA_K0@Z ; std::vector<unsigned __int64,std::allocator<unsigned __int64> >::_Destroy
PUBLIC	?_Tidy@?$vector@_KV?$allocator@_K@std@@@std@@AAEXXZ ; std::vector<unsigned __int64,std::allocator<unsigned __int64> >::_Tidy
PUBLIC	??0?$_Vector_alloc@U?$_Vec_base_types@_KV?$allocator@_K@std@@@std@@@std@@QAE@XZ ; std::_Vector_alloc<std::_Vec_base_types<unsigned __int64,std::allocator<unsigned __int64> > >::_Vector_alloc<std::_Vec_base_types<unsigned __int64,std::allocator<unsigned __int64> > >
PUBLIC	?_Orphan_all@?$_Vector_alloc@U?$_Vec_base_types@_KV?$allocator@_K@std@@@std@@@std@@QAEXXZ ; std::_Vector_alloc<std::_Vec_base_types<unsigned __int64,std::allocator<unsigned __int64> > >::_Orphan_all
PUBLIC	?_Myfirst@?$_Vector_alloc@U?$_Vec_base_types@_KV?$allocator@_K@std@@@std@@@std@@QAEAAPA_KXZ ; std::_Vector_alloc<std::_Vec_base_types<unsigned __int64,std::allocator<unsigned __int64> > >::_Myfirst
PUBLIC	?_Myfirst@?$_Vector_alloc@U?$_Vec_base_types@_KV?$allocator@_K@std@@@std@@@std@@QBEABQA_KXZ ; std::_Vector_alloc<std::_Vec_base_types<unsigned __int64,std::allocator<unsigned __int64> > >::_Myfirst
PUBLIC	?_Mylast@?$_Vector_alloc@U?$_Vec_base_types@_KV?$allocator@_K@std@@@std@@@std@@QAEAAPA_KXZ ; std::_Vector_alloc<std::_Vec_base_types<unsigned __int64,std::allocator<unsigned __int64> > >::_Mylast
PUBLIC	?_Mylast@?$_Vector_alloc@U?$_Vec_base_types@_KV?$allocator@_K@std@@@std@@@std@@QBEABQA_KXZ ; std::_Vector_alloc<std::_Vec_base_types<unsigned __int64,std::allocator<unsigned __int64> > >::_Mylast
PUBLIC	?_Destroy@?$vector@MV?$allocator@M@std@@@std@@AAEXPAM0@Z ; std::vector<float,std::allocator<float> >::_Destroy
PUBLIC	?_Tidy@?$vector@MV?$allocator@M@std@@@std@@AAEXXZ ; std::vector<float,std::allocator<float> >::_Tidy
PUBLIC	??0?$_Vector_alloc@U?$_Vec_base_types@MV?$allocator@M@std@@@std@@@std@@QAE@XZ ; std::_Vector_alloc<std::_Vec_base_types<float,std::allocator<float> > >::_Vector_alloc<std::_Vec_base_types<float,std::allocator<float> > >
PUBLIC	?_Orphan_all@?$_Vector_alloc@U?$_Vec_base_types@MV?$allocator@M@std@@@std@@@std@@QAEXXZ ; std::_Vector_alloc<std::_Vec_base_types<float,std::allocator<float> > >::_Orphan_all
PUBLIC	?_Myfirst@?$_Vector_alloc@U?$_Vec_base_types@MV?$allocator@M@std@@@std@@@std@@QAEAAPAMXZ ; std::_Vector_alloc<std::_Vec_base_types<float,std::allocator<float> > >::_Myfirst
PUBLIC	?_Myfirst@?$_Vector_alloc@U?$_Vec_base_types@MV?$allocator@M@std@@@std@@@std@@QBEABQAMXZ ; std::_Vector_alloc<std::_Vec_base_types<float,std::allocator<float> > >::_Myfirst
PUBLIC	?_Mylast@?$_Vector_alloc@U?$_Vec_base_types@MV?$allocator@M@std@@@std@@@std@@QAEAAPAMXZ ; std::_Vector_alloc<std::_Vec_base_types<float,std::allocator<float> > >::_Mylast
PUBLIC	?_Mylast@?$_Vector_alloc@U?$_Vec_base_types@MV?$allocator@M@std@@@std@@@std@@QBEABQAMXZ ; std::_Vector_alloc<std::_Vec_base_types<float,std::allocator<float> > >::_Mylast
PUBLIC	?_Destroy@?$vector@NV?$allocator@N@std@@@std@@AAEXPAN0@Z ; std::vector<double,std::allocator<double> >::_Destroy
PUBLIC	?_Tidy@?$vector@NV?$allocator@N@std@@@std@@AAEXXZ ; std::vector<double,std::allocator<double> >::_Tidy
PUBLIC	??0?$_Vector_alloc@U?$_Vec_base_types@NV?$allocator@N@std@@@std@@@std@@QAE@XZ ; std::_Vector_alloc<std::_Vec_base_types<double,std::allocator<double> > >::_Vector_alloc<std::_Vec_base_types<double,std::allocator<double> > >
PUBLIC	?_Orphan_all@?$_Vector_alloc@U?$_Vec_base_types@NV?$allocator@N@std@@@std@@@std@@QAEXXZ ; std::_Vector_alloc<std::_Vec_base_types<double,std::allocator<double> > >::_Orphan_all
PUBLIC	?_Myfirst@?$_Vector_alloc@U?$_Vec_base_types@NV?$allocator@N@std@@@std@@@std@@QAEAAPANXZ ; std::_Vector_alloc<std::_Vec_base_types<double,std::allocator<double> > >::_Myfirst
PUBLIC	?_Myfirst@?$_Vector_alloc@U?$_Vec_base_types@NV?$allocator@N@std@@@std@@@std@@QBEABQANXZ ; std::_Vector_alloc<std::_Vec_base_types<double,std::allocator<double> > >::_Myfirst
PUBLIC	?_Mylast@?$_Vector_alloc@U?$_Vec_base_types@NV?$allocator@N@std@@@std@@@std@@QAEAAPANXZ ; std::_Vector_alloc<std::_Vec_base_types<double,std::allocator<double> > >::_Mylast
PUBLIC	?_Mylast@?$_Vector_alloc@U?$_Vec_base_types@NV?$allocator@N@std@@@std@@@std@@QBEABQANXZ ; std::_Vector_alloc<std::_Vec_base_types<double,std::allocator<double> > >::_Mylast
PUBLIC	?_Destroy@?$vector@PA_WV?$allocator@PA_W@std@@@std@@AAEXPAPA_W0@Z ; std::vector<wchar_t *,std::allocator<wchar_t *> >::_Destroy
PUBLIC	?_Tidy@?$vector@PA_WV?$allocator@PA_W@std@@@std@@AAEXXZ ; std::vector<wchar_t *,std::allocator<wchar_t *> >::_Tidy
PUBLIC	??0?$_Vector_alloc@U?$_Vec_base_types@PA_WV?$allocator@PA_W@std@@@std@@@std@@QAE@XZ ; std::_Vector_alloc<std::_Vec_base_types<wchar_t *,std::allocator<wchar_t *> > >::_Vector_alloc<std::_Vec_base_types<wchar_t *,std::allocator<wchar_t *> > >
PUBLIC	?_Orphan_all@?$_Vector_alloc@U?$_Vec_base_types@PA_WV?$allocator@PA_W@std@@@std@@@std@@QAEXXZ ; std::_Vector_alloc<std::_Vec_base_types<wchar_t *,std::allocator<wchar_t *> > >::_Orphan_all
PUBLIC	?_Myfirst@?$_Vector_alloc@U?$_Vec_base_types@PA_WV?$allocator@PA_W@std@@@std@@@std@@QAEAAPAPA_WXZ ; std::_Vector_alloc<std::_Vec_base_types<wchar_t *,std::allocator<wchar_t *> > >::_Myfirst
PUBLIC	?_Myfirst@?$_Vector_alloc@U?$_Vec_base_types@PA_WV?$allocator@PA_W@std@@@std@@@std@@QBEABQAPA_WXZ ; std::_Vector_alloc<std::_Vec_base_types<wchar_t *,std::allocator<wchar_t *> > >::_Myfirst
PUBLIC	?_Mylast@?$_Vector_alloc@U?$_Vec_base_types@PA_WV?$allocator@PA_W@std@@@std@@@std@@QAEAAPAPA_WXZ ; std::_Vector_alloc<std::_Vec_base_types<wchar_t *,std::allocator<wchar_t *> > >::_Mylast
PUBLIC	?_Mylast@?$_Vector_alloc@U?$_Vec_base_types@PA_WV?$allocator@PA_W@std@@@std@@@std@@QBEABQAPA_WXZ ; std::_Vector_alloc<std::_Vec_base_types<wchar_t *,std::allocator<wchar_t *> > >::_Mylast
PUBLIC	?clear@?$basic_string@DU?$char_traits@D@std@@V?$allocator@D@2@@std@@QAEXXZ ; std::basic_string<char,std::char_traits<char>,std::allocator<char> >::clear
PUBLIC	??0?$vector@V?$basic_string@DU?$char_traits@D@std@@V?$allocator@D@2@@std@@V?$allocator@V?$basic_string@DU?$char_traits@D@std@@V?$allocator@D@2@@std@@@2@@std@@QAE@V?$initializer_list@V?$basic_string@DU?$char_traits@D@std@@V?$allocator@D@2@@std@@@1@ABV?$allocator@V?$basic_string@DU?$char_traits@D@std@@V?$allocator@D@2@@std@@@1@@Z ; std::vector<std::basic_string<char,std::char_traits<char>,std::allocator<char> >,std::allocator<std::basic_string<char,std::char_traits<char>,std::allocator<char> > > >::vector<std::basic_string<char,std::char_traits<char>,std::allocator<char> >,std::allocator<std::basic_string<char,std::char_traits<char>,std::allocator<char> > > >
PUBLIC	??0?$vector@V?$basic_string@DU?$char_traits@D@std@@V?$allocator@D@2@@std@@V?$allocator@V?$basic_string@DU?$char_traits@D@std@@V?$allocator@D@2@@std@@@2@@std@@QAE@ABV01@@Z ; std::vector<std::basic_string<char,std::char_traits<char>,std::allocator<char> >,std::allocator<std::basic_string<char,std::char_traits<char>,std::allocator<char> > > >::vector<std::basic_string<char,std::char_traits<char>,std::allocator<char> >,std::allocator<std::basic_string<char,std::char_traits<char>,std::allocator<char> > > >
PUBLIC	??A?$vector@V?$basic_string@DU?$char_traits@D@std@@V?$allocator@D@2@@std@@V?$allocator@V?$basic_string@DU?$char_traits@D@std@@V?$allocator@D@2@@std@@@2@@std@@QBEABV?$basic_string@DU?$char_traits@D@std@@V?$allocator@D@2@@1@I@Z ; std::vector<std::basic_string<char,std::char_traits<char>,std::allocator<char> >,std::allocator<std::basic_string<char,std::char_traits<char>,std::allocator<char> > > >::operator[]
PUBLIC	??0?$initializer_list@V?$basic_string@DU?$char_traits@D@std@@V?$allocator@D@2@@std@@@std@@QAE@PBV?$basic_string@DU?$char_traits@D@std@@V?$allocator@D@2@@1@0@Z ; std::initializer_list<std::basic_string<char,std::char_traits<char>,std::allocator<char> > >::initializer_list<std::basic_string<char,std::char_traits<char>,std::allocator<char> > >
PUBLIC	??0?$CSimpleArray@GV?$CSimpleArrayEqualHelper@G@ATL@@@ATL@@QAE@XZ ; ATL::CSimpleArray<unsigned short,ATL::CSimpleArrayEqualHelper<unsigned short> >::CSimpleArray<unsigned short,ATL::CSimpleArrayEqualHelper<unsigned short> >
PUBLIC	?GetSize@?$CSimpleArray@GV?$CSimpleArrayEqualHelper@G@ATL@@@ATL@@QBEHXZ ; ATL::CSimpleArray<unsigned short,ATL::CSimpleArrayEqualHelper<unsigned short> >::GetSize
PUBLIC	?RemoveAll@?$CSimpleArray@GV?$CSimpleArrayEqualHelper@G@ATL@@@ATL@@QAEXXZ ; ATL::CSimpleArray<unsigned short,ATL::CSimpleArrayEqualHelper<unsigned short> >::RemoveAll
PUBLIC	??A?$CSimpleArray@GV?$CSimpleArrayEqualHelper@G@ATL@@@ATL@@QAEAAGH@Z ; ATL::CSimpleArray<unsigned short,ATL::CSimpleArrayEqualHelper<unsigned short> >::operator[]
PUBLIC	?GetLowerBound@?$CComSafeArray@PA_W$07@ATL@@QBEJI@Z ; ATL::CComSafeArray<wchar_t *,8>::GetLowerBound
PUBLIC	?GetUpperBound@?$CComSafeArray@PA_W$07@ATL@@QBEJI@Z ; ATL::CComSafeArray<wchar_t *,8>::GetUpperBound
PUBLIC	??0?$vector@EV?$allocator@E@std@@@std@@QAE@XZ	; std::vector<unsigned char,std::allocator<unsigned char> >::vector<unsigned char,std::allocator<unsigned char> >
PUBLIC	?clear@?$vector@EV?$allocator@E@std@@@std@@QAEXXZ ; std::vector<unsigned char,std::allocator<unsigned char> >::clear
PUBLIC	?size@?$vector@EV?$allocator@E@std@@@std@@QBEIXZ ; std::vector<unsigned char,std::allocator<unsigned char> >::size
PUBLIC	??A?$vector@EV?$allocator@E@std@@@std@@QAEAAEI@Z ; std::vector<unsigned char,std::allocator<unsigned char> >::operator[]
PUBLIC	??0?$vector@GV?$allocator@G@std@@@std@@QAE@XZ	; std::vector<unsigned short,std::allocator<unsigned short> >::vector<unsigned short,std::allocator<unsigned short> >
PUBLIC	??1?$vector@GV?$allocator@G@std@@@std@@QAE@XZ	; std::vector<unsigned short,std::allocator<unsigned short> >::~vector<unsigned short,std::allocator<unsigned short> >
PUBLIC	?clear@?$vector@GV?$allocator@G@std@@@std@@QAEXXZ ; std::vector<unsigned short,std::allocator<unsigned short> >::clear
PUBLIC	?size@?$vector@GV?$allocator@G@std@@@std@@QBEIXZ ; std::vector<unsigned short,std::allocator<unsigned short> >::size
PUBLIC	??A?$vector@GV?$allocator@G@std@@@std@@QAEAAGI@Z ; std::vector<unsigned short,std::allocator<unsigned short> >::operator[]
PUBLIC	??0?$vector@KV?$allocator@K@std@@@std@@QAE@XZ	; std::vector<unsigned long,std::allocator<unsigned long> >::vector<unsigned long,std::allocator<unsigned long> >
PUBLIC	??1?$vector@KV?$allocator@K@std@@@std@@QAE@XZ	; std::vector<unsigned long,std::allocator<unsigned long> >::~vector<unsigned long,std::allocator<unsigned long> >
PUBLIC	?clear@?$vector@KV?$allocator@K@std@@@std@@QAEXXZ ; std::vector<unsigned long,std::allocator<unsigned long> >::clear
PUBLIC	?size@?$vector@KV?$allocator@K@std@@@std@@QBEIXZ ; std::vector<unsigned long,std::allocator<unsigned long> >::size
PUBLIC	??A?$vector@KV?$allocator@K@std@@@std@@QAEAAKI@Z ; std::vector<unsigned long,std::allocator<unsigned long> >::operator[]
PUBLIC	??0?$vector@_KV?$allocator@_K@std@@@std@@QAE@XZ	; std::vector<unsigned __int64,std::allocator<unsigned __int64> >::vector<unsigned __int64,std::allocator<unsigned __int64> >
PUBLIC	??1?$vector@_KV?$allocator@_K@std@@@std@@QAE@XZ	; std::vector<unsigned __int64,std::allocator<unsigned __int64> >::~vector<unsigned __int64,std::allocator<unsigned __int64> >
PUBLIC	?clear@?$vector@_KV?$allocator@_K@std@@@std@@QAEXXZ ; std::vector<unsigned __int64,std::allocator<unsigned __int64> >::clear
PUBLIC	?size@?$vector@_KV?$allocator@_K@std@@@std@@QBEIXZ ; std::vector<unsigned __int64,std::allocator<unsigned __int64> >::size
PUBLIC	??A?$vector@_KV?$allocator@_K@std@@@std@@QAEAA_KI@Z ; std::vector<unsigned __int64,std::allocator<unsigned __int64> >::operator[]
PUBLIC	??0?$vector@MV?$allocator@M@std@@@std@@QAE@XZ	; std::vector<float,std::allocator<float> >::vector<float,std::allocator<float> >
PUBLIC	??1?$vector@MV?$allocator@M@std@@@std@@QAE@XZ	; std::vector<float,std::allocator<float> >::~vector<float,std::allocator<float> >
PUBLIC	?clear@?$vector@MV?$allocator@M@std@@@std@@QAEXXZ ; std::vector<float,std::allocator<float> >::clear
PUBLIC	?size@?$vector@MV?$allocator@M@std@@@std@@QBEIXZ ; std::vector<float,std::allocator<float> >::size
PUBLIC	??A?$vector@MV?$allocator@M@std@@@std@@QAEAAMI@Z ; std::vector<float,std::allocator<float> >::operator[]
PUBLIC	??0?$vector@NV?$allocator@N@std@@@std@@QAE@XZ	; std::vector<double,std::allocator<double> >::vector<double,std::allocator<double> >
PUBLIC	??1?$vector@NV?$allocator@N@std@@@std@@QAE@XZ	; std::vector<double,std::allocator<double> >::~vector<double,std::allocator<double> >
PUBLIC	?clear@?$vector@NV?$allocator@N@std@@@std@@QAEXXZ ; std::vector<double,std::allocator<double> >::clear
PUBLIC	?size@?$vector@NV?$allocator@N@std@@@std@@QBEIXZ ; std::vector<double,std::allocator<double> >::size
PUBLIC	??A?$vector@NV?$allocator@N@std@@@std@@QAEAANI@Z ; std::vector<double,std::allocator<double> >::operator[]
PUBLIC	??0?$vector@PA_WV?$allocator@PA_W@std@@@std@@QAE@XZ ; std::vector<wchar_t *,std::allocator<wchar_t *> >::vector<wchar_t *,std::allocator<wchar_t *> >
PUBLIC	??1?$vector@PA_WV?$allocator@PA_W@std@@@std@@QAE@XZ ; std::vector<wchar_t *,std::allocator<wchar_t *> >::~vector<wchar_t *,std::allocator<wchar_t *> >
PUBLIC	?clear@?$vector@PA_WV?$allocator@PA_W@std@@@std@@QAEXXZ ; std::vector<wchar_t *,std::allocator<wchar_t *> >::clear
PUBLIC	?size@?$vector@PA_WV?$allocator@PA_W@std@@@std@@QBEIXZ ; std::vector<wchar_t *,std::allocator<wchar_t *> >::size
PUBLIC	??A?$vector@PA_WV?$allocator@PA_W@std@@@std@@QAEAAPA_WI@Z ; std::vector<wchar_t *,std::allocator<wchar_t *> >::operator[]
PUBLIC	?ThreadWMIClass@@YGIPAX@Z			; ThreadWMIClass
PUBLIC	?WMI@@YAXPBDPAK@Z				; WMI
PUBLIC	?WMIex@@YA_NPBDPAVxmlwriter@@PAK@Z		; WMIex
PUBLIC	?AtlWinModuleInit@ATL@@YGJPAU_ATL_WIN_MODULE70@1@@Z ; ATL::AtlWinModuleInit
PUBLIC	?AtlWinModuleTerm@ATL@@YGJPAU_ATL_WIN_MODULE70@1@PAUHINSTANCE__@@@Z ; ATL::AtlWinModuleTerm
PUBLIC	??1_ATL_WIN_MODULE70@ATL@@QAE@XZ		; ATL::_ATL_WIN_MODULE70::~_ATL_WIN_MODULE70
PUBLIC	??0_ATL_WIN_MODULE70@ATL@@QAE@XZ		; ATL::_ATL_WIN_MODULE70::_ATL_WIN_MODULE70
PUBLIC	?Term@CAtlWinModule@ATL@@QAEXXZ			; ATL::CAtlWinModule::Term
PUBLIC	??1CAtlWinModule@ATL@@QAE@XZ			; ATL::CAtlWinModule::~CAtlWinModule
PUBLIC	??0CAtlWinModule@ATL@@QAE@XZ			; ATL::CAtlWinModule::CAtlWinModule
PUBLIC	??1_ATL_COM_MODULE70@ATL@@QAE@XZ		; ATL::_ATL_COM_MODULE70::~_ATL_COM_MODULE70
PUBLIC	??0_ATL_COM_MODULE70@ATL@@QAE@XZ		; ATL::_ATL_COM_MODULE70::_ATL_COM_MODULE70
PUBLIC	?Term@CAtlComModule@ATL@@QAEXXZ			; ATL::CAtlComModule::Term
PUBLIC	??1CAtlComModule@ATL@@QAE@XZ			; ATL::CAtlComModule::~CAtlComModule
PUBLIC	??0CAtlComModule@ATL@@QAE@XZ			; ATL::CAtlComModule::CAtlComModule
PUBLIC	??BCComBSTR@ATL@@QBEPA_WXZ			; ATL::CComBSTR::operator wchar_t *
PUBLIC	?AtlSafeArrayGetActualVartype@ATL@@YAJPAUtagSAFEARRAY@@PAG@Z ; ATL::AtlSafeArrayGetActualVartype
PUBLIC	?GetModuleInstance@CAtlBaseModule@ATL@@QAEPAUHINSTANCE__@@XZ ; ATL::CAtlBaseModule::GetModuleInstance
PUBLIC	?Term@CComCriticalSection@ATL@@QAEJXZ		; ATL::CComCriticalSection::Term
PUBLIC	?Init@CComCriticalSection@ATL@@QAEJXZ		; ATL::CComCriticalSection::Init
PUBLIC	??1CComCriticalSection@ATL@@QAE@XZ		; ATL::CComCriticalSection::~CComCriticalSection
PUBLIC	??0CComCriticalSection@ATL@@QAE@XZ		; ATL::CComCriticalSection::CComCriticalSection
PUBLIC	?_AtlInitializeCriticalSectionEx@ATL@@YAHPAU_RTL_CRITICAL_SECTION@@KK@Z ; ATL::_AtlInitializeCriticalSectionEx
PUBLIC	?AtlThrowImpl@ATL@@YGXJ@Z			; ATL::AtlThrowImpl
PUBLIC	??0CAtlException@ATL@@QAE@J@Z			; ATL::CAtlException::CAtlException
PUBLIC	?_AtlRaiseException@ATL@@YAXKK@Z		; ATL::_AtlRaiseException
PUBLIC	?_Free@Data_t@_bstr_t@@AAEXXZ			; _bstr_t::Data_t::_Free
PUBLIC	??1Data_t@_bstr_t@@AAE@XZ			; _bstr_t::Data_t::~Data_t
PUBLIC	??2Data_t@_bstr_t@@SAPAXI@Z			; _bstr_t::Data_t::operator new
PUBLIC	?GetWString@Data_t@_bstr_t@@QAEAAPA_WXZ		; _bstr_t::Data_t::GetWString
PUBLIC	??_GData_t@_bstr_t@@AAEPAXI@Z			; _bstr_t::Data_t::`scalar deleting destructor'
PUBLIC	?Release@Data_t@_bstr_t@@QAEKXZ			; _bstr_t::Data_t::Release
PUBLIC	??0Data_t@_bstr_t@@QAE@PB_W@Z			; _bstr_t::Data_t::Data_t
PUBLIC	??0Data_t@_bstr_t@@QAE@PBD@Z			; _bstr_t::Data_t::Data_t
PUBLIC	?_Free@_bstr_t@@AAEXXZ				; _bstr_t::_Free
PUBLIC	??B_bstr_t@@QBEPA_WXZ				; _bstr_t::operator wchar_t *
PUBLIC	??1_bstr_t@@QAE@XZ				; _bstr_t::~_bstr_t
PUBLIC	??0_bstr_t@@QAE@PB_W@Z				; _bstr_t::_bstr_t
PUBLIC	??0_bstr_t@@QAE@PBD@Z				; _bstr_t::_bstr_t
PUBLIC	_HRESULT_FROM_WIN32
PUBLIC	?ThreadWMI@@YGIPAX@Z				; ThreadWMI
PUBLIC	?WMISystemVolumes@@YAXXZ			; WMISystemVolumes
PUBLIC	?WMIHardwareSensor@@YAXXZ			; WMIHardwareSensor
PUBLIC	?WMISystemPerformance@@YAXXZ			; WMISystemPerformance
PUBLIC	?atlTraceDBProvider@ATL@@3V?$CTraceCategoryEx@$0CAA@$0A@@1@A ; ATL::atlTraceDBProvider
PUBLIC	?atlTraceGeneral@ATL@@3V?$CTraceCategoryEx@$00$0A@@1@A ; ATL::atlTraceGeneral
PUBLIC	?atlTraceDBClient@ATL@@3V?$CTraceCategoryEx@$0BAA@$0A@@1@A ; ATL::atlTraceDBClient
PUBLIC	?atlTraceSnapin@ATL@@3V?$CTraceCategoryEx@$0EAA@$0A@@1@A ; ATL::atlTraceSnapin
PUBLIC	?_AtlWinModule@ATL@@3VCAtlWinModule@1@A		; ATL::_AtlWinModule
PUBLIC	?atlTraceQI@ATL@@3V?$CTraceCategoryEx@$03$0A@@1@A ; ATL::atlTraceQI
PUBLIC	?atlTraceException@ATL@@3V?$CTraceCategoryEx@$0CAAA@$0A@@1@A ; ATL::atlTraceException
PUBLIC	?atlTraceString@ATL@@3V?$CTraceCategoryEx@$0CAAAA@$0A@@1@A ; ATL::atlTraceString
PUBLIC	?atlTraceWindowing@ATL@@3V?$CTraceCategoryEx@$0CA@$0A@@1@A ; ATL::atlTraceWindowing
PUBLIC	?atlTraceStencil@ATL@@3V?$CTraceCategoryEx@$0BAAAA@$0A@@1@A ; ATL::atlTraceStencil
PUBLIC	?atlTraceCache@ATL@@3V?$CTraceCategoryEx@$0IAAA@$0A@@1@A ; ATL::atlTraceCache
PUBLIC	?atlTraceUtil@ATL@@3V?$CTraceCategoryEx@$0IAAAA@$0A@@1@A ; ATL::atlTraceUtil
PUBLIC	?atlTraceTime@ATL@@3V?$CTraceCategoryEx@$0EAAA@$0A@@1@A ; ATL::atlTraceTime
PUBLIC	?_AtlComModule@ATL@@3VCAtlComModule@1@A		; ATL::_AtlComModule
PUBLIC	?atlTraceISAPI@ATL@@3V?$CTraceCategoryEx@$0EAAAAA@$0A@@1@A ; ATL::atlTraceISAPI
PUBLIC	?atlTraceSync@ATL@@3V?$CTraceCategoryEx@$0CAAAAA@$0A@@1@A ; ATL::atlTraceSync
PUBLIC	?atlTraceMap@ATL@@3V?$CTraceCategoryEx@$0EAAAA@$0A@@1@A ; ATL::atlTraceMap
PUBLIC	?atlTraceNotImpl@ATL@@3V?$CTraceCategoryEx@$0IAA@$0A@@1@A ; ATL::atlTraceNotImpl
PUBLIC	?atlTraceSecurity@ATL@@3V?$CTraceCategoryEx@$0BAAAAA@$0A@@1@A ; ATL::atlTraceSecurity
PUBLIC	?atlTraceRefcount@ATL@@3V?$CTraceCategoryEx@$0BA@$0A@@1@A ; ATL::atlTraceRefcount
PUBLIC	?atlTraceHosting@ATL@@3V?$CTraceCategoryEx@$0IA@$0A@@1@A ; ATL::atlTraceHosting
PUBLIC	?atlTraceRegistrar@ATL@@3V?$CTraceCategoryEx@$07$0A@@1@A ; ATL::atlTraceRegistrar
PUBLIC	?atlTraceAllocation@ATL@@3V?$CTraceCategoryEx@$0BAAA@$0A@@1@A ; ATL::atlTraceAllocation
PUBLIC	?atlTraceControls@ATL@@3V?$CTraceCategoryEx@$0EA@$0A@@1@A ; ATL::atlTraceControls
PUBLIC	?atlTraceCOM@ATL@@3V?$CTraceCategoryEx@$01$0A@@1@A ; ATL::atlTraceCOM
;	COMDAT ?atlTraceDBProvider@ATL@@3V?$CTraceCategoryEx@$0CAA@$0A@@1@A
_BSS	SEGMENT
?atlTraceDBProvider@ATL@@3V?$CTraceCategoryEx@$0CAA@$0A@@1@A DD 01H DUP (?) ; ATL::atlTraceDBProvider
_BSS	ENDS
;	COMDAT ?atlTraceGeneral@ATL@@3V?$CTraceCategoryEx@$00$0A@@1@A
_BSS	SEGMENT
?atlTraceGeneral@ATL@@3V?$CTraceCategoryEx@$00$0A@@1@A DD 01H DUP (?) ; ATL::atlTraceGeneral
_BSS	ENDS
;	COMDAT ?atlTraceDBClient@ATL@@3V?$CTraceCategoryEx@$0BAA@$0A@@1@A
_BSS	SEGMENT
?atlTraceDBClient@ATL@@3V?$CTraceCategoryEx@$0BAA@$0A@@1@A DD 01H DUP (?) ; ATL::atlTraceDBClient
_BSS	ENDS
;	COMDAT ?atlTraceSnapin@ATL@@3V?$CTraceCategoryEx@$0EAA@$0A@@1@A
_BSS	SEGMENT
?atlTraceSnapin@ATL@@3V?$CTraceCategoryEx@$0EAA@$0A@@1@A DD 01H DUP (?) ; ATL::atlTraceSnapin
_BSS	ENDS
;	COMDAT ?_AtlWinModule@ATL@@3VCAtlWinModule@1@A
_BSS	SEGMENT
?_AtlWinModule@ATL@@3VCAtlWinModule@1@A DB 02cH DUP (?)	; ATL::_AtlWinModule
_BSS	ENDS
;	COMDAT ?atlTraceQI@ATL@@3V?$CTraceCategoryEx@$03$0A@@1@A
_BSS	SEGMENT
?atlTraceQI@ATL@@3V?$CTraceCategoryEx@$03$0A@@1@A DD 01H DUP (?) ; ATL::atlTraceQI
_BSS	ENDS
;	COMDAT ?atlTraceException@ATL@@3V?$CTraceCategoryEx@$0CAAA@$0A@@1@A
_BSS	SEGMENT
?atlTraceException@ATL@@3V?$CTraceCategoryEx@$0CAAA@$0A@@1@A DD 01H DUP (?) ; ATL::atlTraceException
_BSS	ENDS
;	COMDAT ?atlTraceString@ATL@@3V?$CTraceCategoryEx@$0CAAAA@$0A@@1@A
_BSS	SEGMENT
?atlTraceString@ATL@@3V?$CTraceCategoryEx@$0CAAAA@$0A@@1@A DD 01H DUP (?) ; ATL::atlTraceString
_BSS	ENDS
;	COMDAT ?atlTraceWindowing@ATL@@3V?$CTraceCategoryEx@$0CA@$0A@@1@A
_BSS	SEGMENT
?atlTraceWindowing@ATL@@3V?$CTraceCategoryEx@$0CA@$0A@@1@A DD 01H DUP (?) ; ATL::atlTraceWindowing
_BSS	ENDS
;	COMDAT ?atlTraceStencil@ATL@@3V?$CTraceCategoryEx@$0BAAAA@$0A@@1@A
_BSS	SEGMENT
?atlTraceStencil@ATL@@3V?$CTraceCategoryEx@$0BAAAA@$0A@@1@A DD 01H DUP (?) ; ATL::atlTraceStencil
_BSS	ENDS
;	COMDAT ?atlTraceCache@ATL@@3V?$CTraceCategoryEx@$0IAAA@$0A@@1@A
_BSS	SEGMENT
?atlTraceCache@ATL@@3V?$CTraceCategoryEx@$0IAAA@$0A@@1@A DD 01H DUP (?) ; ATL::atlTraceCache
_BSS	ENDS
;	COMDAT ?atlTraceUtil@ATL@@3V?$CTraceCategoryEx@$0IAAAA@$0A@@1@A
_BSS	SEGMENT
?atlTraceUtil@ATL@@3V?$CTraceCategoryEx@$0IAAAA@$0A@@1@A DD 01H DUP (?) ; ATL::atlTraceUtil
_BSS	ENDS
;	COMDAT ?atlTraceTime@ATL@@3V?$CTraceCategoryEx@$0EAAA@$0A@@1@A
_BSS	SEGMENT
?atlTraceTime@ATL@@3V?$CTraceCategoryEx@$0EAAA@$0A@@1@A DD 01H DUP (?) ; ATL::atlTraceTime
_BSS	ENDS
;	COMDAT ?atlTraceISAPI@ATL@@3V?$CTraceCategoryEx@$0EAAAAA@$0A@@1@A
_BSS	SEGMENT
?atlTraceISAPI@ATL@@3V?$CTraceCategoryEx@$0EAAAAA@$0A@@1@A DD 01H DUP (?) ; ATL::atlTraceISAPI
_BSS	ENDS
;	COMDAT ?atlTraceSync@ATL@@3V?$CTraceCategoryEx@$0CAAAAA@$0A@@1@A
_BSS	SEGMENT
?atlTraceSync@ATL@@3V?$CTraceCategoryEx@$0CAAAAA@$0A@@1@A DD 01H DUP (?) ; ATL::atlTraceSync
_BSS	ENDS
;	COMDAT ?atlTraceMap@ATL@@3V?$CTraceCategoryEx@$0EAAAA@$0A@@1@A
_BSS	SEGMENT
?atlTraceMap@ATL@@3V?$CTraceCategoryEx@$0EAAAA@$0A@@1@A DD 01H DUP (?) ; ATL::atlTraceMap
_BSS	ENDS
;	COMDAT ?atlTraceNotImpl@ATL@@3V?$CTraceCategoryEx@$0IAA@$0A@@1@A
_BSS	SEGMENT
?atlTraceNotImpl@ATL@@3V?$CTraceCategoryEx@$0IAA@$0A@@1@A DD 01H DUP (?) ; ATL::atlTraceNotImpl
_BSS	ENDS
;	COMDAT ?atlTraceSecurity@ATL@@3V?$CTraceCategoryEx@$0BAAAAA@$0A@@1@A
_BSS	SEGMENT
?atlTraceSecurity@ATL@@3V?$CTraceCategoryEx@$0BAAAAA@$0A@@1@A DD 01H DUP (?) ; ATL::atlTraceSecurity
_BSS	ENDS
;	COMDAT ?atlTraceRefcount@ATL@@3V?$CTraceCategoryEx@$0BA@$0A@@1@A
_BSS	SEGMENT
?atlTraceRefcount@ATL@@3V?$CTraceCategoryEx@$0BA@$0A@@1@A DD 01H DUP (?) ; ATL::atlTraceRefcount
_BSS	ENDS
;	COMDAT ?atlTraceHosting@ATL@@3V?$CTraceCategoryEx@$0IA@$0A@@1@A
_BSS	SEGMENT
?atlTraceHosting@ATL@@3V?$CTraceCategoryEx@$0IA@$0A@@1@A DD 01H DUP (?) ; ATL::atlTraceHosting
_BSS	ENDS
;	COMDAT ?atlTraceRegistrar@ATL@@3V?$CTraceCategoryEx@$07$0A@@1@A
_BSS	SEGMENT
?atlTraceRegistrar@ATL@@3V?$CTraceCategoryEx@$07$0A@@1@A DD 01H DUP (?) ; ATL::atlTraceRegistrar
_BSS	ENDS
;	COMDAT ?atlTraceAllocation@ATL@@3V?$CTraceCategoryEx@$0BAAA@$0A@@1@A
_BSS	SEGMENT
?atlTraceAllocation@ATL@@3V?$CTraceCategoryEx@$0BAAA@$0A@@1@A DD 01H DUP (?) ; ATL::atlTraceAllocation
_BSS	ENDS
;	COMDAT ?atlTraceControls@ATL@@3V?$CTraceCategoryEx@$0EA@$0A@@1@A
_BSS	SEGMENT
?atlTraceControls@ATL@@3V?$CTraceCategoryEx@$0EA@$0A@@1@A DD 01H DUP (?) ; ATL::atlTraceControls
_BSS	ENDS
;	COMDAT ?atlTraceCOM@ATL@@3V?$CTraceCategoryEx@$01$0A@@1@A
_BSS	SEGMENT
?atlTraceCOM@ATL@@3V?$CTraceCategoryEx@$01$0A@@1@A DD 01H DUP (?) ; ATL::atlTraceCOM
_BSS	ENDS
;	COMDAT ?_AtlComModule@ATL@@3VCAtlComModule@1@A
_DATA	SEGMENT
?_AtlComModule@ATL@@3VCAtlComModule@1@A DB 04H DUP (?)
	DD	FLAT:___ImageBase			; ATL::_AtlComModule
	DD	FLAT:___pobjMapEntryFirst+4
	DD	FLAT:___pobjMapEntryLast
?wmiClasses@@3PAU_wmi_classes_@@A DD FLAT:??_C@_0BF@GIOJHHEG@Win32_1394Controller@ ; wmiClasses
	DD	FLAT:??_C@_04FABLJDN@Name@
	DD	FLAT:??_C@_0BF@GIOJHHEG@Win32_1394Controller@
	DD	FLAT:??_C@_0M@HHJKGII@PNPDeviceID@
	DD	FLAT:??_C@_0BF@GIOJHHEG@Win32_1394Controller@
	DD	FLAT:??_C@_08JLPEJKOE@DeviceID@
	DD	FLAT:??_C@_0BF@GIOJHHEG@Win32_1394Controller@
	DD	FLAT:??_C@_0N@BBNLMPJO@Manufacturer@
	DD	FLAT:??_C@_0BF@GIOJHHEG@Win32_1394Controller@
	DD	FLAT:??_C@_0N@MFGCECDI@Availability@
	DD	FLAT:??_C@_0BF@GIOJHHEG@Win32_1394Controller@
	DD	FLAT:??_C@_07OJKFJLLK@Caption@
	DD	FLAT:??_C@_0BF@GIOJHHEG@Win32_1394Controller@
	DD	FLAT:??_C@_0BH@JDEEEDCN@ConfigManagerErrorCode@
	DD	FLAT:??_C@_0BF@GIOJHHEG@Win32_1394Controller@
	DD	FLAT:??_C@_0BI@OBNCDCBF@ConfigManagerUserConfig@
	DD	FLAT:??_C@_0BF@GIOJHHEG@Win32_1394Controller@
	DD	FLAT:??_C@_0M@OHKMKKDH@Description@
	DD	FLAT:??_C@_0BF@GIOJHHEG@Win32_1394Controller@
	DD	FLAT:??_C@_0N@FJHLDHMG@ErrorCleared@
	DD	FLAT:??_C@_0BF@GIOJHHEG@Win32_1394Controller@
	DD	FLAT:??_C@_0BB@KIDBLMK@ErrorDescription@
	DD	FLAT:??_C@_0BF@GIOJHHEG@Win32_1394Controller@
	DD	FLAT:??_C@_0M@NBIJNNJJ@InstallDate@
	DD	FLAT:??_C@_0BF@GIOJHHEG@Win32_1394Controller@
	DD	FLAT:??_C@_0O@NDKHIJAE@LastErrorCode@
	DD	FLAT:??_C@_0BF@GIOJHHEG@Win32_1394Controller@
	DD	FLAT:??_C@_0BE@JDLAPHJE@MaxNumberControlled@
	DD	FLAT:??_C@_0BF@GIOJHHEG@Win32_1394Controller@
	DD	FLAT:??_C@_0BM@NFDEHNHA@PowerManagementCapabilities@
	DD	FLAT:??_C@_0BF@GIOJHHEG@Win32_1394Controller@
	DD	FLAT:??_C@_0BJ@CFOPGMLH@PowerManagementSupported@
	DD	FLAT:??_C@_0BF@GIOJHHEG@Win32_1394Controller@
	DD	FLAT:??_C@_0BC@JHPOAJCM@ProtocolSupported@
	DD	FLAT:??_C@_0BF@GIOJHHEG@Win32_1394Controller@
	DD	FLAT:??_C@_06PGDKHFME@Status@
	DD	FLAT:??_C@_0BF@GIOJHHEG@Win32_1394Controller@
	DD	FLAT:??_C@_0L@PKEHCAEI@StatusInfo@
	DD	FLAT:??_C@_0BF@GIOJHHEG@Win32_1394Controller@
	DD	FLAT:??_C@_0BA@HADKHLAI@TimeOfLastReset@
	DD	FLAT:??_C@_0BA@FKIDHCEN@Win32_BaseBoard@
	DD	FLAT:??_C@_03PJHNOEGB@Tag@
	DD	FLAT:??_C@_0BA@FKIDHCEN@Win32_BaseBoard@
	DD	FLAT:??_C@_07HMDPOHHF@Product@
	DD	FLAT:??_C@_0BA@FKIDHCEN@Win32_BaseBoard@
	DD	FLAT:??_C@_0N@BBNLMPJO@Manufacturer@
	DD	FLAT:??_C@_0BA@FKIDHCEN@Win32_BaseBoard@
	DD	FLAT:??_C@_05NFIJOKEG@Model@
	DD	FLAT:??_C@_0BA@FKIDHCEN@Win32_BaseBoard@
	DD	FLAT:??_C@_07NGFJPNPN@Version@
	DD	FLAT:??_C@_0BA@FKIDHCEN@Win32_BaseBoard@
	DD	FLAT:??_C@_0O@GLLHAKAI@ConfigOptions@
	DD	FLAT:??_C@_0BA@FKIDHCEN@Win32_BaseBoard@
	DD	FLAT:??_C@_05BOMFGPKE@Depth@
	DD	FLAT:??_C@_0BA@FKIDHCEN@Win32_BaseBoard@
	DD	FLAT:??_C@_06HCAKHJJK@Height@
	DD	FLAT:??_C@_0BA@FKIDHCEN@Win32_BaseBoard@
	DD	FLAT:??_C@_06ODJMJFLN@Weight@
	DD	FLAT:??_C@_0BA@FKIDHCEN@Win32_BaseBoard@
	DD	FLAT:??_C@_05IBAMDCFI@Width@
	DD	FLAT:??_C@_0BA@FKIDHCEN@Win32_BaseBoard@
	DD	FLAT:??_C@_0N@CCJNCHMP@HostingBoard@
	DD	FLAT:??_C@_0BA@FKIDHCEN@Win32_BaseBoard@
	DD	FLAT:??_C@_0N@FCOIALPI@HotSwappable@
	DD	FLAT:??_C@_0BA@FKIDHCEN@Win32_BaseBoard@
	DD	FLAT:??_C@_0M@NBIJNNJJ@InstallDate@
	DD	FLAT:??_C@_0BA@FKIDHCEN@Win32_BaseBoard@
	DD	FLAT:??_C@_0BF@DMENANMJ@OtherIdentifyingInfo@
	DD	FLAT:??_C@_0BA@FKIDHCEN@Win32_BaseBoard@
	DD	FLAT:??_C@_0L@MIOPIENN@PartNumber@
	DD	FLAT:??_C@_0BA@FKIDHCEN@Win32_BaseBoard@
	DD	FLAT:??_C@_09HKGEBMAI@PoweredOn@
	DD	FLAT:??_C@_0BA@FKIDHCEN@Win32_BaseBoard@
	DD	FLAT:??_C@_09DADBKOHO@Removable@
	DD	FLAT:??_C@_0BA@FKIDHCEN@Win32_BaseBoard@
	DD	FLAT:??_C@_0M@KLOLJEDG@Replaceable@
	DD	FLAT:??_C@_0BA@FKIDHCEN@Win32_BaseBoard@
	DD	FLAT:??_C@_0BI@NLNEBFOD@RequirementsDescription@
	DD	FLAT:??_C@_0BA@FKIDHCEN@Win32_BaseBoard@
	DD	FLAT:??_C@_0BG@KNNEFNEE@RequiresDaughterBoard@
	DD	FLAT:??_C@_0BA@FKIDHCEN@Win32_BaseBoard@
	DD	FLAT:??_C@_0N@FPJJBBNM@SerialNumber@
	DD	FLAT:??_C@_0BA@FKIDHCEN@Win32_BaseBoard@
	DD	FLAT:??_C@_03LMAAELJP@SKU@
	DD	FLAT:??_C@_0BA@FKIDHCEN@Win32_BaseBoard@
	DD	FLAT:??_C@_0L@NLNCHAIH@SlotLayout@
	DD	FLAT:??_C@_0BA@FKIDHCEN@Win32_BaseBoard@
	DD	FLAT:??_C@_0BE@DAJBDDHL@SpecialRequirements@
	DD	FLAT:??_C@_0BA@FKIDHCEN@Win32_BaseBoard@
	DD	FLAT:??_C@_06PGDKHFME@Status@
	DD	FLAT:??_C@_0O@CLAKILND@Win32_Battery@
	DD	FLAT:??_C@_04FABLJDN@Name@
	DD	FLAT:??_C@_0O@CLAKILND@Win32_Battery@
	DD	FLAT:??_C@_0M@HHJKGII@PNPDeviceID@
	DD	FLAT:??_C@_0O@CLAKILND@Win32_Battery@
	DD	FLAT:??_C@_08JLPEJKOE@DeviceID@
	DD	FLAT:??_C@_0O@CLAKILND@Win32_Battery@
	DD	FLAT:??_C@_0O@PKGMNGNM@BatteryStatus@
	DD	FLAT:??_C@_0O@CLAKILND@Win32_Battery@
	DD	FLAT:??_C@_0O@IKADLBCG@TimeOnBattery@
	DD	FLAT:??_C@_0O@CLAKILND@Win32_Battery@
	DD	FLAT:??_C@_0BB@HMDCOCCC@TimeToFullCharge@
	DD	FLAT:??_C@_0O@CLAKILND@Win32_Battery@
	DD	FLAT:??_C@_0N@MFGCECDI@Availability@
	DD	FLAT:??_C@_0O@CLAKILND@Win32_Battery@
	DD	FLAT:??_C@_0BE@HNKJKBND@BatteryRechargeTime@
	DD	FLAT:??_C@_0O@CLAKILND@Win32_Battery@
	DD	FLAT:??_C@_07OJKFJLLK@Caption@
	DD	FLAT:??_C@_0O@CLAKILND@Win32_Battery@
	DD	FLAT:??_C@_09CAHFAGKL@Chemistry@
	DD	FLAT:??_C@_0O@CLAKILND@Win32_Battery@
	DD	FLAT:??_C@_0BH@JDEEEDCN@ConfigManagerErrorCode@
	DD	FLAT:??_C@_0O@CLAKILND@Win32_Battery@
	DD	FLAT:??_C@_0BI@OBNCDCBF@ConfigManagerUserConfig@
	DD	FLAT:??_C@_0O@CLAKILND@Win32_Battery@
	DD	FLAT:??_C@_0M@OHKMKKDH@Description@
	DD	FLAT:??_C@_0O@CLAKILND@Win32_Battery@
	DD	FLAT:??_C@_0P@IFPGNGPN@DesignCapacity@
	DD	FLAT:??_C@_0O@CLAKILND@Win32_Battery@
	DD	FLAT:??_C@_0O@PBABLEFL@DesignVoltage@
	DD	FLAT:??_C@_0O@CLAKILND@Win32_Battery@
	DD	FLAT:??_C@_0N@FJHLDHMG@ErrorCleared@
	DD	FLAT:??_C@_0O@CLAKILND@Win32_Battery@
	DD	FLAT:??_C@_0BB@KIDBLMK@ErrorDescription@
	DD	FLAT:??_C@_0O@CLAKILND@Win32_Battery@
	DD	FLAT:??_C@_0BJ@CDCEHMEP@EstimatedChargeRemaining@
	DD	FLAT:??_C@_0O@CLAKILND@Win32_Battery@
	DD	FLAT:??_C@_0BB@NPKJIND@EstimatedRunTime@
	DD	FLAT:??_C@_0O@CLAKILND@Win32_Battery@
	DD	FLAT:??_C@_0BE@NEEKJBPN@ExpectedBatteryLife@
	DD	FLAT:??_C@_0O@CLAKILND@Win32_Battery@
	DD	FLAT:??_C@_0N@DDGBNILM@ExpectedLife@
	DD	FLAT:??_C@_0O@CLAKILND@Win32_Battery@
	DD	FLAT:??_C@_0BD@HADPLBCE@FullChargeCapacity@
	DD	FLAT:??_C@_0O@CLAKILND@Win32_Battery@
	DD	FLAT:??_C@_0M@NBIJNNJJ@InstallDate@
	DD	FLAT:??_C@_0O@CLAKILND@Win32_Battery@
	DD	FLAT:??_C@_0O@NDKHIJAE@LastErrorCode@
	DD	FLAT:??_C@_0O@CLAKILND@Win32_Battery@
	DD	FLAT:??_C@_0BA@KENPOHHF@MaxRechargeTime@
	DD	FLAT:??_C@_0O@CLAKILND@Win32_Battery@
	DD	FLAT:??_C@_0BM@NFDEHNHA@PowerManagementCapabilities@
	DD	FLAT:??_C@_0O@CLAKILND@Win32_Battery@
	DD	FLAT:??_C@_0BJ@CFOPGMLH@PowerManagementSupported@
	DD	FLAT:??_C@_0O@CLAKILND@Win32_Battery@
	DD	FLAT:??_C@_0BE@IIEJDIAD@SmartBatteryVersion@
	DD	FLAT:??_C@_0O@CLAKILND@Win32_Battery@
	DD	FLAT:??_C@_06PGDKHFME@Status@
	DD	FLAT:??_C@_0O@CLAKILND@Win32_Battery@
	DD	FLAT:??_C@_0L@PKEHCAEI@StatusInfo@
	DD	FLAT:??_C@_0L@JLLHHBAL@Win32_BIOS@
	DD	FLAT:??_C@_04FABLJDN@Name@
	DD	FLAT:??_C@_0L@JLLHHBAL@Win32_BIOS@
	DD	FLAT:??_C@_0BE@DHLHFABD@BiosCharacteristics@
	DD	FLAT:??_C@_0L@JLLHHBAL@Win32_BIOS@
	DD	FLAT:??_C@_0M@JNJNMLGA@BIOSVersion@
	DD	FLAT:??_C@_0L@JLLHHBAL@Win32_BIOS@
	DD	FLAT:??_C@_0M@PIEABBJI@BuildNumber@
	DD	FLAT:??_C@_0L@JLLHHBAL@Win32_BIOS@
	DD	FLAT:??_C@_07FOHBHJJA@CodeSet@
	DD	FLAT:??_C@_0L@JLLHHBAL@Win32_BIOS@
	DD	FLAT:??_C@_0BA@LAFEEKJE@CurrentLanguage@
	DD	FLAT:??_C@_0L@JLLHHBAL@Win32_BIOS@
	DD	FLAT:??_C@_0BD@IAKLNJOL@IdentificationCode@
	DD	FLAT:??_C@_0L@JLLHHBAL@Win32_BIOS@
	DD	FLAT:??_C@_0BF@JGHHIKJK@InstallableLanguages@
	DD	FLAT:??_C@_0L@JLLHHBAL@Win32_BIOS@
	DD	FLAT:??_C@_0M@NBIJNNJJ@InstallDate@
	DD	FLAT:??_C@_0L@JLLHHBAL@Win32_BIOS@
	DD	FLAT:??_C@_0BA@OPCNKLIC@ListOfLanguages@
	DD	FLAT:??_C@_0L@JLLHHBAL@Win32_BIOS@
	DD	FLAT:??_C@_0N@BBNLMPJO@Manufacturer@
	DD	FLAT:??_C@_0L@JLLHHBAL@Win32_BIOS@
	DD	FLAT:??_C@_0O@LMGDODCH@OtherTargetOS@
	DD	FLAT:??_C@_0L@JLLHHBAL@Win32_BIOS@
	DD	FLAT:??_C@_0M@PLCFCEDN@PrimaryBIOS@
	DD	FLAT:??_C@_0L@JLLHHBAL@Win32_BIOS@
	DD	FLAT:??_C@_0M@FEKFCCJH@ReleaseDate@
	DD	FLAT:??_C@_0L@JLLHHBAL@Win32_BIOS@
	DD	FLAT:??_C@_0N@FPJJBBNM@SerialNumber@
	DD	FLAT:??_C@_0L@JLLHHBAL@Win32_BIOS@
	DD	FLAT:??_C@_0BC@GDJFCIN@SMBIOSBIOSVersion@
	DD	FLAT:??_C@_0L@JLLHHBAL@Win32_BIOS@
	DD	FLAT:??_C@_0BD@GHLLPFOK@SMBIOSMajorVersion@
	DD	FLAT:??_C@_0L@JLLHHBAL@Win32_BIOS@
	DD	FLAT:??_C@_0BD@NBGOPAJG@SMBIOSMinorVersion@
	DD	FLAT:??_C@_0L@JLLHHBAL@Win32_BIOS@
	DD	FLAT:??_C@_0O@BHMENNOL@SMBIOSPresent@
	DD	FLAT:??_C@_0L@JLLHHBAL@Win32_BIOS@
	DD	FLAT:??_C@_0BC@MBHIKAHO@SoftwareElementID@
	DD	FLAT:??_C@_0L@JLLHHBAL@Win32_BIOS@
	DD	FLAT:??_C@_0BF@GFDCFGAP@SoftwareElementState@
	DD	FLAT:??_C@_0L@JLLHHBAL@Win32_BIOS@
	DD	FLAT:??_C@_06PGDKHFME@Status@
	DD	FLAT:??_C@_0L@JLLHHBAL@Win32_BIOS@
	DD	FLAT:??_C@_07NGFJPNPN@Version@
	DD	FLAT:??_C@_09HPFDNOIF@Win32_Bus@
	DD	FLAT:??_C@_04FABLJDN@Name@
	DD	FLAT:??_C@_09HPFDNOIF@Win32_Bus@
	DD	FLAT:??_C@_0M@HHJKGII@PNPDeviceID@
	DD	FLAT:??_C@_09HPFDNOIF@Win32_Bus@
	DD	FLAT:??_C@_08JLPEJKOE@DeviceID@
	DD	FLAT:??_C@_09HPFDNOIF@Win32_Bus@
	DD	FLAT:??_C@_06KNDINCOD@BusNum@
	DD	FLAT:??_C@_09HPFDNOIF@Win32_Bus@
	DD	FLAT:??_C@_07FFFMBEEK@BusType@
	DD	FLAT:??_C@_09HPFDNOIF@Win32_Bus@
	DD	FLAT:??_C@_0N@MFGCECDI@Availability@
	DD	FLAT:??_C@_09HPFDNOIF@Win32_Bus@
	DD	FLAT:??_C@_0BH@JDEEEDCN@ConfigManagerErrorCode@
	DD	FLAT:??_C@_09HPFDNOIF@Win32_Bus@
	DD	FLAT:??_C@_0BI@OBNCDCBF@ConfigManagerUserConfig@
	DD	FLAT:??_C@_09HPFDNOIF@Win32_Bus@
	DD	FLAT:??_C@_0N@FJHLDHMG@ErrorCleared@
	DD	FLAT:??_C@_09HPFDNOIF@Win32_Bus@
	DD	FLAT:??_C@_0BB@KIDBLMK@ErrorDescription@
	DD	FLAT:??_C@_09HPFDNOIF@Win32_Bus@
	DD	FLAT:??_C@_0M@NBIJNNJJ@InstallDate@
	DD	FLAT:??_C@_09HPFDNOIF@Win32_Bus@
	DD	FLAT:??_C@_0O@NDKHIJAE@LastErrorCode@
	DD	FLAT:??_C@_09HPFDNOIF@Win32_Bus@
	DD	FLAT:??_C@_0BM@NFDEHNHA@PowerManagementCapabilities@
	DD	FLAT:??_C@_09HPFDNOIF@Win32_Bus@
	DD	FLAT:??_C@_0BJ@CFOPGMLH@PowerManagementSupported@
	DD	FLAT:??_C@_09HPFDNOIF@Win32_Bus@
	DD	FLAT:??_C@_06PGDKHFME@Status@
	DD	FLAT:??_C@_09HPFDNOIF@Win32_Bus@
	DD	FLAT:??_C@_0L@PKEHCAEI@StatusInfo@
	DD	FLAT:??_C@_0BB@KBKCBBFJ@Win32_CDROMDrive@
	DD	FLAT:??_C@_04FABLJDN@Name@
	DD	FLAT:??_C@_0BB@KBKCBBFJ@Win32_CDROMDrive@
	DD	FLAT:??_C@_0M@HHJKGII@PNPDeviceID@
	DD	FLAT:??_C@_0BB@KBKCBBFJ@Win32_CDROMDrive@
	DD	FLAT:??_C@_08JLPEJKOE@DeviceID@
	DD	FLAT:??_C@_0BB@KBKCBBFJ@Win32_CDROMDrive@
	DD	FLAT:??_C@_0N@BBNLMPJO@Manufacturer@
	DD	FLAT:??_C@_0BB@KBKCBBFJ@Win32_CDROMDrive@
	DD	FLAT:??_C@_05FHDOJGAA@Drive@
	DD	FLAT:??_C@_0BB@KBKCBBFJ@Win32_CDROMDrive@
	DD	FLAT:??_C@_0N@FPJJBBNM@SerialNumber@
	DD	FLAT:??_C@_0BB@KBKCBBFJ@Win32_CDROMDrive@
	DD	FLAT:??_C@_0L@PEPMOJNO@VolumeName@
	DD	FLAT:??_C@_0BB@KBKCBBFJ@Win32_CDROMDrive@
	DD	FLAT:??_C@_0BD@KNELKJMD@VolumeSerialNumber@
	DD	FLAT:??_C@_0BB@KBKCBBFJ@Win32_CDROMDrive@
	DD	FLAT:??_C@_0N@MFGCECDI@Availability@
	DD	FLAT:??_C@_0BB@KBKCBBFJ@Win32_CDROMDrive@
	DD	FLAT:??_C@_0N@FNJCOOAL@Capabilities@
	DD	FLAT:??_C@_0BB@KBKCBBFJ@Win32_CDROMDrive@
	DD	FLAT:??_C@_0BH@EPMKAGLN@CapabilityDescriptions@
	DD	FLAT:??_C@_0BB@KBKCBBFJ@Win32_CDROMDrive@
	DD	FLAT:??_C@_0BC@MBGAHHAB@CompressionMethod@
	DD	FLAT:??_C@_0BB@KBKCBBFJ@Win32_CDROMDrive@
	DD	FLAT:??_C@_0BH@JDEEEDCN@ConfigManagerErrorCode@
	DD	FLAT:??_C@_0BB@KBKCBBFJ@Win32_CDROMDrive@
	DD	FLAT:??_C@_0BI@OBNCDCBF@ConfigManagerUserConfig@
	DD	FLAT:??_C@_0BB@KBKCBBFJ@Win32_CDROMDrive@
	DD	FLAT:??_C@_0BB@GHOHONOE@DefaultBlockSize@
	DD	FLAT:??_C@_0BB@KBKCBBFJ@Win32_CDROMDrive@
	DD	FLAT:??_C@_0M@OHKMKKDH@Description@
	DD	FLAT:??_C@_0BB@KBKCBBFJ@Win32_CDROMDrive@
	DD	FLAT:??_C@_0P@HKGKOHLF@DriveIntegrity@
	DD	FLAT:??_C@_0BB@KBKCBBFJ@Win32_CDROMDrive@
	DD	FLAT:??_C@_0N@FJHLDHMG@ErrorCleared@
	DD	FLAT:??_C@_0BB@KBKCBBFJ@Win32_CDROMDrive@
	DD	FLAT:??_C@_0BB@KIDBLMK@ErrorDescription@
	DD	FLAT:??_C@_0BB@KBKCBBFJ@Win32_CDROMDrive@
	DD	FLAT:??_C@_0BB@PNCBAHDK@ErrorMethodology@
	DD	FLAT:??_C@_0BB@KBKCBBFJ@Win32_CDROMDrive@
	DD	FLAT:??_C@_0BA@KMBBNBII@FileSystemFlags@
	DD	FLAT:??_C@_0BB@KBKCBBFJ@Win32_CDROMDrive@
	DD	FLAT:??_C@_0BC@JDDJOAMF@FileSystemFlagsEx@
	DD	FLAT:??_C@_0BB@KBKCBBFJ@Win32_CDROMDrive@
	DD	FLAT:??_C@_0M@NBIJNNJJ@InstallDate@
	DD	FLAT:??_C@_0BB@KBKCBBFJ@Win32_CDROMDrive@
	DD	FLAT:??_C@_0O@NDKHIJAE@LastErrorCode@
	DD	FLAT:??_C@_0BB@KBKCBBFJ@Win32_CDROMDrive@
	DD	FLAT:??_C@_0N@HEPDBKFE@MaxBlockSize@
	DD	FLAT:??_C@_0BB@KBKCBBFJ@Win32_CDROMDrive@
	DD	FLAT:??_C@_0BH@GKGMNPDK@MaximumComponentLength@
	DD	FLAT:??_C@_0BB@KBKCBBFJ@Win32_CDROMDrive@
	DD	FLAT:??_C@_0N@HBNKJHPM@MaxMediaSize@
	DD	FLAT:??_C@_0BB@KBKCBBFJ@Win32_CDROMDrive@
	DD	FLAT:??_C@_0M@BKHKLNGH@MediaLoaded@
	DD	FLAT:??_C@_0BB@KBKCBBFJ@Win32_CDROMDrive@
	DD	FLAT:??_C@_09HPDNNFFF@MediaType@
	DD	FLAT:??_C@_0BB@KBKCBBFJ@Win32_CDROMDrive@
	DD	FLAT:??_C@_0BJ@FCFAAAMD@MfrAssignedRevisionLevel@
	DD	FLAT:??_C@_0BB@KBKCBBFJ@Win32_CDROMDrive@
	DD	FLAT:??_C@_0N@DELMGCCC@MinBlockSize@
	DD	FLAT:??_C@_0BB@KBKCBBFJ@Win32_CDROMDrive@
	DD	FLAT:??_C@_0O@IIJMNCFJ@NeedsCleaning@
	DD	FLAT:??_C@_0BB@KBKCBBFJ@Win32_CDROMDrive@
	DD	FLAT:??_C@_0BH@COPKOGMD@NumberOfMediaSupported@
	DD	FLAT:??_C@_0BB@KBKCBBFJ@Win32_CDROMDrive@
	DD	FLAT:??_C@_0BM@NFDEHNHA@PowerManagementCapabilities@
	DD	FLAT:??_C@_0BB@KBKCBBFJ@Win32_CDROMDrive@
	DD	FLAT:??_C@_0BJ@CFOPGMLH@PowerManagementSupported@
	DD	FLAT:??_C@_0BB@KBKCBBFJ@Win32_CDROMDrive@
	DD	FLAT:??_C@_0O@MEKHAACN@RevisionLevel@
	DD	FLAT:??_C@_0BB@KBKCBBFJ@Win32_CDROMDrive@
	DD	FLAT:??_C@_07IMFLOLAO@SCSIBus@
	DD	FLAT:??_C@_0BB@KBKCBBFJ@Win32_CDROMDrive@
	DD	FLAT:??_C@_0BA@FGFDLPLK@SCSILogicalUnit@
	DD	FLAT:??_C@_0BB@KBKCBBFJ@Win32_CDROMDrive@
	DD	FLAT:??_C@_08IICBNDDA@SCSIPort@
	DD	FLAT:??_C@_0BB@KBKCBBFJ@Win32_CDROMDrive@
	DD	FLAT:??_C@_0N@BGGJIJCI@SCSITargetId@
	DD	FLAT:??_C@_0BB@KBKCBBFJ@Win32_CDROMDrive@
	DD	FLAT:??_C@_04EBKMHHBE@Size@
	DD	FLAT:??_C@_0BB@KBKCBBFJ@Win32_CDROMDrive@
	DD	FLAT:??_C@_06PGDKHFME@Status@
	DD	FLAT:??_C@_0BB@KBKCBBFJ@Win32_CDROMDrive@
	DD	FLAT:??_C@_0L@PKEHCAEI@StatusInfo@
	DD	FLAT:??_C@_0BB@KBKCBBFJ@Win32_CDROMDrive@
	DD	FLAT:??_C@_0N@GFEIEMMN@TransferRate@
	DD	FLAT:??_C@_0BB@ILOPCCAP@Win32_DMAChannel@
	DD	FLAT:??_C@_04FABLJDN@Name@
	DD	FLAT:??_C@_0BB@ILOPCCAP@Win32_DMAChannel@
	DD	FLAT:??_C@_04HOKNCALA@Port@
	DD	FLAT:??_C@_0BB@ILOPCCAP@Win32_DMAChannel@
	DD	FLAT:??_C@_0L@PGAIMACF@DMAChannel@
	DD	FLAT:??_C@_0BB@ILOPCCAP@Win32_DMAChannel@
	DD	FLAT:??_C@_0M@HJPEAMBM@AddressSize@
	DD	FLAT:??_C@_0BB@ILOPCCAP@Win32_DMAChannel@
	DD	FLAT:??_C@_0N@MFGCECDI@Availability@
	DD	FLAT:??_C@_0BB@ILOPCCAP@Win32_DMAChannel@
	DD	FLAT:??_C@_09LDKFCLB@BurstMode@
	DD	FLAT:??_C@_0BB@ILOPCCAP@Win32_DMAChannel@
	DD	FLAT:??_C@_08IOOBKHAJ@ByteMode@
	DD	FLAT:??_C@_0BB@ILOPCCAP@Win32_DMAChannel@
	DD	FLAT:??_C@_0O@BPLPAGKN@ChannelTiming@
	DD	FLAT:??_C@_0BB@ILOPCCAP@Win32_DMAChannel@
	DD	FLAT:??_C@_0M@NBIJNNJJ@InstallDate@
	DD	FLAT:??_C@_0BB@ILOPCCAP@Win32_DMAChannel@
	DD	FLAT:??_C@_0BA@HBAKOKJE@MaxTransferSize@
	DD	FLAT:??_C@_0BB@ILOPCCAP@Win32_DMAChannel@
	DD	FLAT:??_C@_06PGDKHFME@Status@
	DD	FLAT:??_C@_0BB@ILOPCCAP@Win32_DMAChannel@
	DD	FLAT:??_C@_0P@HFMGHLOP@TransferWidths@
	DD	FLAT:??_C@_0BB@ILOPCCAP@Win32_DMAChannel@
	DD	FLAT:??_C@_0M@MOIPDDOB@TypeCTiming@
	DD	FLAT:??_C@_0BB@ILOPCCAP@Win32_DMAChannel@
	DD	FLAT:??_C@_08HKOOHOAE@WordMode@
	DD	FLAT:??_C@_0BA@DGOGJGDP@Win32_DriverVXD@
	DD	FLAT:??_C@_04FABLJDN@Name@
	DD	FLAT:??_C@_0BA@DGOGJGDP@Win32_DriverVXD@
	DD	FLAT:??_C@_0N@BBNLMPJO@Manufacturer@
	DD	FLAT:??_C@_0BA@DGOGJGDP@Win32_DriverVXD@
	DD	FLAT:??_C@_07NGFJPNPN@Version@
	DD	FLAT:??_C@_0BA@DGOGJGDP@Win32_DriverVXD@
	DD	FLAT:??_C@_0M@PIEABBJI@BuildNumber@
	DD	FLAT:??_C@_0BA@DGOGJGDP@Win32_DriverVXD@
	DD	FLAT:??_C@_07OJKFJLLK@Caption@
	DD	FLAT:??_C@_0BA@DGOGJGDP@Win32_DriverVXD@
	DD	FLAT:??_C@_07FOHBHJJA@CodeSet@
	DD	FLAT:??_C@_0BA@DGOGJGDP@Win32_DriverVXD@
	DD	FLAT:??_C@_07DFGIDBBA@Control@
	DD	FLAT:??_C@_0BA@DGOGJGDP@Win32_DriverVXD@
	DD	FLAT:??_C@_0M@OHKMKKDH@Description@
	DD	FLAT:??_C@_0BA@DGOGJGDP@Win32_DriverVXD@
	DD	FLAT:??_C@_0BG@IOIHNNJK@DeviceDescriptorBlock@
	DD	FLAT:??_C@_0BA@DGOGJGDP@Win32_DriverVXD@
	DD	FLAT:??_C@_0BD@IAKLNJOL@IdentificationCode@
	DD	FLAT:??_C@_0BA@DGOGJGDP@Win32_DriverVXD@
	DD	FLAT:??_C@_0M@NBIJNNJJ@InstallDate@
	DD	FLAT:??_C@_0BA@DGOGJGDP@Win32_DriverVXD@
	DD	FLAT:??_C@_0BA@JOJBKDJN@LanguageEdition@
	DD	FLAT:??_C@_0BA@DGOGJGDP@Win32_DriverVXD@
	DD	FLAT:??_C@_0O@LMGDODCH@OtherTargetOS@
	DD	FLAT:??_C@_0BA@DGOGJGDP@Win32_DriverVXD@
	DD	FLAT:??_C@_06CGGMGNDK@PM_API@
	DD	FLAT:??_C@_0BA@DGOGJGDP@Win32_DriverVXD@
	DD	FLAT:??_C@_0N@FPJJBBNM@SerialNumber@
	DD	FLAT:??_C@_0BA@DGOGJGDP@Win32_DriverVXD@
	DD	FLAT:??_C@_0BB@CCKMONLJ@ServiceTableSize@
	DD	FLAT:??_C@_0BA@DGOGJGDP@Win32_DriverVXD@
	DD	FLAT:??_C@_0BC@MBHIKAHO@SoftwareElementID@
	DD	FLAT:??_C@_0BA@DGOGJGDP@Win32_DriverVXD@
	DD	FLAT:??_C@_0BF@GFDCFGAP@SoftwareElementState@
	DD	FLAT:??_C@_0BA@DGOGJGDP@Win32_DriverVXD@
	DD	FLAT:??_C@_06PGDKHFME@Status@
	DD	FLAT:??_C@_0BA@DGOGJGDP@Win32_DriverVXD@
	DD	FLAT:??_C@_0BG@LEBBIDOP@TargetOperatingSystem@
	DD	FLAT:??_C@_0BA@DGOGJGDP@Win32_DriverVXD@
	DD	FLAT:??_C@_07JENHGIOM@V86_API@
	DD	FLAT:??_C@_0BH@GBOCBJMM@Win32_FloppyController@
	DD	FLAT:??_C@_04FABLJDN@Name@
	DD	FLAT:??_C@_0BH@GBOCBJMM@Win32_FloppyController@
	DD	FLAT:??_C@_0M@HHJKGII@PNPDeviceID@
	DD	FLAT:??_C@_0BH@GBOCBJMM@Win32_FloppyController@
	DD	FLAT:??_C@_08JLPEJKOE@DeviceID@
	DD	FLAT:??_C@_0BH@GBOCBJMM@Win32_FloppyController@
	DD	FLAT:??_C@_0N@MFGCECDI@Availability@
	DD	FLAT:??_C@_0BH@GBOCBJMM@Win32_FloppyController@
	DD	FLAT:??_C@_0BH@JDEEEDCN@ConfigManagerErrorCode@
	DD	FLAT:??_C@_0BH@GBOCBJMM@Win32_FloppyController@
	DD	FLAT:??_C@_0BI@OBNCDCBF@ConfigManagerUserConfig@
	DD	FLAT:??_C@_0BH@GBOCBJMM@Win32_FloppyController@
	DD	FLAT:??_C@_0N@FJHLDHMG@ErrorCleared@
	DD	FLAT:??_C@_0BH@GBOCBJMM@Win32_FloppyController@
	DD	FLAT:??_C@_0BB@KIDBLMK@ErrorDescription@
	DD	FLAT:??_C@_0BH@GBOCBJMM@Win32_FloppyController@
	DD	FLAT:??_C@_0M@NBIJNNJJ@InstallDate@
	DD	FLAT:??_C@_0BH@GBOCBJMM@Win32_FloppyController@
	DD	FLAT:??_C@_0O@NDKHIJAE@LastErrorCode@
	DD	FLAT:??_C@_0BH@GBOCBJMM@Win32_FloppyController@
	DD	FLAT:??_C@_0N@BBNLMPJO@Manufacturer@
	DD	FLAT:??_C@_0BH@GBOCBJMM@Win32_FloppyController@
	DD	FLAT:??_C@_0BE@JDLAPHJE@MaxNumberControlled@
	DD	FLAT:??_C@_0BH@GBOCBJMM@Win32_FloppyController@
	DD	FLAT:??_C@_0BM@NFDEHNHA@PowerManagementCapabilities@
	DD	FLAT:??_C@_0BH@GBOCBJMM@Win32_FloppyController@
	DD	FLAT:??_C@_0BJ@CFOPGMLH@PowerManagementSupported@
	DD	FLAT:??_C@_0BH@GBOCBJMM@Win32_FloppyController@
	DD	FLAT:??_C@_0BC@JHPOAJCM@ProtocolSupported@
	DD	FLAT:??_C@_0BH@GBOCBJMM@Win32_FloppyController@
	DD	FLAT:??_C@_06PGDKHFME@Status@
	DD	FLAT:??_C@_0BH@GBOCBJMM@Win32_FloppyController@
	DD	FLAT:??_C@_0L@PKEHCAEI@StatusInfo@
	DD	FLAT:??_C@_0BH@GBOCBJMM@Win32_FloppyController@
	DD	FLAT:??_C@_0BA@HADKHLAI@TimeOfLastReset@
	DD	FLAT:??_C@_0BC@MGJAFBFH@Win32_FloppyDrive@
	DD	FLAT:??_C@_04FABLJDN@Name@
	DD	FLAT:??_C@_0BC@MGJAFBFH@Win32_FloppyDrive@
	DD	FLAT:??_C@_0M@HHJKGII@PNPDeviceID@
	DD	FLAT:??_C@_0BC@MGJAFBFH@Win32_FloppyDrive@
	DD	FLAT:??_C@_08JLPEJKOE@DeviceID@
	DD	FLAT:??_C@_0BC@MGJAFBFH@Win32_FloppyDrive@
	DD	FLAT:??_C@_0N@BBNLMPJO@Manufacturer@
	DD	FLAT:??_C@_0BC@MGJAFBFH@Win32_FloppyDrive@
	DD	FLAT:??_C@_0N@HEPDBKFE@MaxBlockSize@
	DD	FLAT:??_C@_0BC@MGJAFBFH@Win32_FloppyDrive@
	DD	FLAT:??_C@_0N@HBNKJHPM@MaxMediaSize@
	DD	FLAT:??_C@_0BC@MGJAFBFH@Win32_FloppyDrive@
	DD	FLAT:??_C@_0N@DELMGCCC@MinBlockSize@
	DD	FLAT:??_C@_0BC@MGJAFBFH@Win32_FloppyDrive@
	DD	FLAT:??_C@_0N@MFGCECDI@Availability@
	DD	FLAT:??_C@_0BC@MGJAFBFH@Win32_FloppyDrive@
	DD	FLAT:??_C@_0N@FNJCOOAL@Capabilities@
	DD	FLAT:??_C@_0BC@MGJAFBFH@Win32_FloppyDrive@
	DD	FLAT:??_C@_0BH@EPMKAGLN@CapabilityDescriptions@
	DD	FLAT:??_C@_0BC@MGJAFBFH@Win32_FloppyDrive@
	DD	FLAT:??_C@_0BC@MBGAHHAB@CompressionMethod@
	DD	FLAT:??_C@_0BC@MGJAFBFH@Win32_FloppyDrive@
	DD	FLAT:??_C@_0BH@JDEEEDCN@ConfigManagerErrorCode@
	DD	FLAT:??_C@_0BC@MGJAFBFH@Win32_FloppyDrive@
	DD	FLAT:??_C@_0BI@OBNCDCBF@ConfigManagerUserConfig@
	DD	FLAT:??_C@_0BC@MGJAFBFH@Win32_FloppyDrive@
	DD	FLAT:??_C@_0BB@GHOHONOE@DefaultBlockSize@
	DD	FLAT:??_C@_0BC@MGJAFBFH@Win32_FloppyDrive@
	DD	FLAT:??_C@_0N@FJHLDHMG@ErrorCleared@
	DD	FLAT:??_C@_0BC@MGJAFBFH@Win32_FloppyDrive@
	DD	FLAT:??_C@_0BB@KIDBLMK@ErrorDescription@
	DD	FLAT:??_C@_0BC@MGJAFBFH@Win32_FloppyDrive@
	DD	FLAT:??_C@_0BB@PNCBAHDK@ErrorMethodology@
	DD	FLAT:??_C@_0BC@MGJAFBFH@Win32_FloppyDrive@
	DD	FLAT:??_C@_0M@NBIJNNJJ@InstallDate@
	DD	FLAT:??_C@_0BC@MGJAFBFH@Win32_FloppyDrive@
	DD	FLAT:??_C@_0O@NDKHIJAE@LastErrorCode@
	DD	FLAT:??_C@_0BC@MGJAFBFH@Win32_FloppyDrive@
	DD	FLAT:??_C@_0O@IIJMNCFJ@NeedsCleaning@
	DD	FLAT:??_C@_0BC@MGJAFBFH@Win32_FloppyDrive@
	DD	FLAT:??_C@_0BH@COPKOGMD@NumberOfMediaSupported@
	DD	FLAT:??_C@_0BC@MGJAFBFH@Win32_FloppyDrive@
	DD	FLAT:??_C@_0BM@NFDEHNHA@PowerManagementCapabilities@
	DD	FLAT:??_C@_0BC@MGJAFBFH@Win32_FloppyDrive@
	DD	FLAT:??_C@_0BJ@CFOPGMLH@PowerManagementSupported@
	DD	FLAT:??_C@_0BC@MGJAFBFH@Win32_FloppyDrive@
	DD	FLAT:??_C@_06PGDKHFME@Status@
	DD	FLAT:??_C@_0BC@MGJAFBFH@Win32_FloppyDrive@
	DD	FLAT:??_C@_0L@PKEHCAEI@StatusInfo@
	DD	FLAT:??_C@_0P@MCPBPNON@Win32_HeatPipe@
	DD	FLAT:??_C@_04FABLJDN@Name@
	DD	FLAT:??_C@_0P@MCPBPNON@Win32_HeatPipe@
	DD	FLAT:??_C@_0M@HHJKGII@PNPDeviceID@
	DD	FLAT:??_C@_0P@MCPBPNON@Win32_HeatPipe@
	DD	FLAT:??_C@_08JLPEJKOE@DeviceID@
	DD	FLAT:??_C@_0P@MCPBPNON@Win32_HeatPipe@
	DD	FLAT:??_C@_0O@PBOKHICP@ActiveCooling@
	DD	FLAT:??_C@_0P@MCPBPNON@Win32_HeatPipe@
	DD	FLAT:??_C@_0N@MFGCECDI@Availability@
	DD	FLAT:??_C@_0P@MCPBPNON@Win32_HeatPipe@
	DD	FLAT:??_C@_07OJKFJLLK@Caption@
	DD	FLAT:??_C@_0P@MCPBPNON@Win32_HeatPipe@
	DD	FLAT:??_C@_0BH@JDEEEDCN@ConfigManagerErrorCode@
	DD	FLAT:??_C@_0P@MCPBPNON@Win32_HeatPipe@
	DD	FLAT:??_C@_0BI@OBNCDCBF@ConfigManagerUserConfig@
	DD	FLAT:??_C@_0P@MCPBPNON@Win32_HeatPipe@
	DD	FLAT:??_C@_0M@OHKMKKDH@Description@
	DD	FLAT:??_C@_0P@MCPBPNON@Win32_HeatPipe@
	DD	FLAT:??_C@_0N@FJHLDHMG@ErrorCleared@
	DD	FLAT:??_C@_0P@MCPBPNON@Win32_HeatPipe@
	DD	FLAT:??_C@_0BB@KIDBLMK@ErrorDescription@
	DD	FLAT:??_C@_0P@MCPBPNON@Win32_HeatPipe@
	DD	FLAT:??_C@_0M@NBIJNNJJ@InstallDate@
	DD	FLAT:??_C@_0P@MCPBPNON@Win32_HeatPipe@
	DD	FLAT:??_C@_0O@NDKHIJAE@LastErrorCode@
	DD	FLAT:??_C@_0P@MCPBPNON@Win32_HeatPipe@
	DD	FLAT:??_C@_0BM@NFDEHNHA@PowerManagementCapabilities@
	DD	FLAT:??_C@_0P@MCPBPNON@Win32_HeatPipe@
	DD	FLAT:??_C@_0BJ@CFOPGMLH@PowerManagementSupported@
	DD	FLAT:??_C@_0P@MCPBPNON@Win32_HeatPipe@
	DD	FLAT:??_C@_06PGDKHFME@Status@
	DD	FLAT:??_C@_0P@MCPBPNON@Win32_HeatPipe@
	DD	FLAT:??_C@_0L@PKEHCAEI@StatusInfo@
	DD	FLAT:??_C@_0BE@FMCMMJCA@Win32_IDEController@
	DD	FLAT:??_C@_04FABLJDN@Name@
	DD	FLAT:??_C@_0BE@FMCMMJCA@Win32_IDEController@
	DD	FLAT:??_C@_0M@HHJKGII@PNPDeviceID@
	DD	FLAT:??_C@_0BE@FMCMMJCA@Win32_IDEController@
	DD	FLAT:??_C@_08JLPEJKOE@DeviceID@
	DD	FLAT:??_C@_0BE@FMCMMJCA@Win32_IDEController@
	DD	FLAT:??_C@_0N@BBNLMPJO@Manufacturer@
	DD	FLAT:??_C@_0BE@FMCMMJCA@Win32_IDEController@
	DD	FLAT:??_C@_0N@MFGCECDI@Availability@
	DD	FLAT:??_C@_0BE@FMCMMJCA@Win32_IDEController@
	DD	FLAT:??_C@_0BH@JDEEEDCN@ConfigManagerErrorCode@
	DD	FLAT:??_C@_0BE@FMCMMJCA@Win32_IDEController@
	DD	FLAT:??_C@_0BI@OBNCDCBF@ConfigManagerUserConfig@
	DD	FLAT:??_C@_0BE@FMCMMJCA@Win32_IDEController@
	DD	FLAT:??_C@_0N@FJHLDHMG@ErrorCleared@
	DD	FLAT:??_C@_0BE@FMCMMJCA@Win32_IDEController@
	DD	FLAT:??_C@_0BB@KIDBLMK@ErrorDescription@
	DD	FLAT:??_C@_0BE@FMCMMJCA@Win32_IDEController@
	DD	FLAT:??_C@_0M@NBIJNNJJ@InstallDate@
	DD	FLAT:??_C@_0BE@FMCMMJCA@Win32_IDEController@
	DD	FLAT:??_C@_0O@NDKHIJAE@LastErrorCode@
	DD	FLAT:??_C@_0BE@FMCMMJCA@Win32_IDEController@
	DD	FLAT:??_C@_0BE@JDLAPHJE@MaxNumberControlled@
	DD	FLAT:??_C@_0BE@FMCMMJCA@Win32_IDEController@
	DD	FLAT:??_C@_0BM@NFDEHNHA@PowerManagementCapabilities@
	DD	FLAT:??_C@_0BE@FMCMMJCA@Win32_IDEController@
	DD	FLAT:??_C@_0BJ@CFOPGMLH@PowerManagementSupported@
	DD	FLAT:??_C@_0BE@FMCMMJCA@Win32_IDEController@
	DD	FLAT:??_C@_0BC@JHPOAJCM@ProtocolSupported@
	DD	FLAT:??_C@_0BE@FMCMMJCA@Win32_IDEController@
	DD	FLAT:??_C@_06PGDKHFME@Status@
	DD	FLAT:??_C@_0BE@FMCMMJCA@Win32_IDEController@
	DD	FLAT:??_C@_0L@PKEHCAEI@StatusInfo@
	DD	FLAT:??_C@_0BE@FMCMMJCA@Win32_IDEController@
	DD	FLAT:??_C@_0BA@HADKHLAI@TimeOfLastReset@
	DD	FLAT:??_C@_0BF@EEIPINHM@Win32_InfraredDevice@
	DD	FLAT:??_C@_04FABLJDN@Name@
	DD	FLAT:??_C@_0BF@EEIPINHM@Win32_InfraredDevice@
	DD	FLAT:??_C@_0M@HHJKGII@PNPDeviceID@
	DD	FLAT:??_C@_0BF@EEIPINHM@Win32_InfraredDevice@
	DD	FLAT:??_C@_08JLPEJKOE@DeviceID@
	DD	FLAT:??_C@_0BF@EEIPINHM@Win32_InfraredDevice@
	DD	FLAT:??_C@_0N@BBNLMPJO@Manufacturer@
	DD	FLAT:??_C@_0BF@EEIPINHM@Win32_InfraredDevice@
	DD	FLAT:??_C@_0N@MFGCECDI@Availability@
	DD	FLAT:??_C@_0BF@EEIPINHM@Win32_InfraredDevice@
	DD	FLAT:??_C@_07OJKFJLLK@Caption@
	DD	FLAT:??_C@_0BF@EEIPINHM@Win32_InfraredDevice@
	DD	FLAT:??_C@_0BH@JDEEEDCN@ConfigManagerErrorCode@
	DD	FLAT:??_C@_0BF@EEIPINHM@Win32_InfraredDevice@
	DD	FLAT:??_C@_0BI@OBNCDCBF@ConfigManagerUserConfig@
	DD	FLAT:??_C@_0BF@EEIPINHM@Win32_InfraredDevice@
	DD	FLAT:??_C@_0M@OHKMKKDH@Description@
	DD	FLAT:??_C@_0BF@EEIPINHM@Win32_InfraredDevice@
	DD	FLAT:??_C@_0N@FJHLDHMG@ErrorCleared@
	DD	FLAT:??_C@_0BF@EEIPINHM@Win32_InfraredDevice@
	DD	FLAT:??_C@_0BB@KIDBLMK@ErrorDescription@
	DD	FLAT:??_C@_0BF@EEIPINHM@Win32_InfraredDevice@
	DD	FLAT:??_C@_0M@NBIJNNJJ@InstallDate@
	DD	FLAT:??_C@_0BF@EEIPINHM@Win32_InfraredDevice@
	DD	FLAT:??_C@_0O@NDKHIJAE@LastErrorCode@
	DD	FLAT:??_C@_0BF@EEIPINHM@Win32_InfraredDevice@
	DD	FLAT:??_C@_0BE@JDLAPHJE@MaxNumberControlled@
	DD	FLAT:??_C@_0BF@EEIPINHM@Win32_InfraredDevice@
	DD	FLAT:??_C@_0BM@NFDEHNHA@PowerManagementCapabilities@
	DD	FLAT:??_C@_0BF@EEIPINHM@Win32_InfraredDevice@
	DD	FLAT:??_C@_0BJ@CFOPGMLH@PowerManagementSupported@
	DD	FLAT:??_C@_0BF@EEIPINHM@Win32_InfraredDevice@
	DD	FLAT:??_C@_0BC@JHPOAJCM@ProtocolSupported@
	DD	FLAT:??_C@_0BF@EEIPINHM@Win32_InfraredDevice@
	DD	FLAT:??_C@_06PGDKHFME@Status@
	DD	FLAT:??_C@_0BF@EEIPINHM@Win32_InfraredDevice@
	DD	FLAT:??_C@_0L@PKEHCAEI@StatusInfo@
	DD	FLAT:??_C@_0BF@EEIPINHM@Win32_InfraredDevice@
	DD	FLAT:??_C@_0BA@HADKHLAI@TimeOfLastReset@
	DD	FLAT:??_C@_0BC@MGLAEOHD@Win32_IRQResource@
	DD	FLAT:??_C@_04FABLJDN@Name@
	DD	FLAT:??_C@_0BC@MGLAEOHD@Win32_IRQResource@
	DD	FLAT:??_C@_0N@MFGCECDI@Availability@
	DD	FLAT:??_C@_0BC@MGLAEOHD@Win32_IRQResource@
	DD	FLAT:??_C@_08PPIOJEA@Hardware@
	DD	FLAT:??_C@_0BC@MGLAEOHD@Win32_IRQResource@
	DD	FLAT:??_C@_0M@NBIJNNJJ@InstallDate@
	DD	FLAT:??_C@_0BC@MGLAEOHD@Win32_IRQResource@
	DD	FLAT:??_C@_09PKFILKGD@Shareable@
	DD	FLAT:??_C@_0BC@MGLAEOHD@Win32_IRQResource@
	DD	FLAT:??_C@_06PGDKHFME@Status@
	DD	FLAT:??_C@_0BC@MGLAEOHD@Win32_IRQResource@
	DD	FLAT:??_C@_0N@NCNNCPPP@TriggerLevel@
	DD	FLAT:??_C@_0BC@MGLAEOHD@Win32_IRQResource@
	DD	FLAT:??_C@_0M@NKHMGHID@TriggerType@
	DD	FLAT:??_C@_0BC@MGLAEOHD@Win32_IRQResource@
	DD	FLAT:??_C@_06BOOCMPNK@Vector@
	DD	FLAT:??_C@_0P@IGJIBAJA@Win32_Keyboard@
	DD	FLAT:??_C@_04FABLJDN@Name@
	DD	FLAT:??_C@_0P@IGJIBAJA@Win32_Keyboard@
	DD	FLAT:??_C@_0M@HHJKGII@PNPDeviceID@
	DD	FLAT:??_C@_0P@IGJIBAJA@Win32_Keyboard@
	DD	FLAT:??_C@_08JLPEJKOE@DeviceID@
	DD	FLAT:??_C@_0P@IGJIBAJA@Win32_Keyboard@
	DD	FLAT:??_C@_06KMHOJANB@Layout@
	DD	FLAT:??_C@_0P@IGJIBAJA@Win32_Keyboard@
	DD	FLAT:??_C@_0BF@DODFNOHG@NumberOfFunctionKeys@
	DD	FLAT:??_C@_0P@IGJIBAJA@Win32_Keyboard@
	DD	FLAT:??_C@_0N@MFGCECDI@Availability@
	DD	FLAT:??_C@_0P@IGJIBAJA@Win32_Keyboard@
	DD	FLAT:??_C@_07OJKFJLLK@Caption@
	DD	FLAT:??_C@_0P@IGJIBAJA@Win32_Keyboard@
	DD	FLAT:??_C@_0BH@JDEEEDCN@ConfigManagerErrorCode@
	DD	FLAT:??_C@_0P@IGJIBAJA@Win32_Keyboard@
	DD	FLAT:??_C@_0BI@OBNCDCBF@ConfigManagerUserConfig@
	DD	FLAT:??_C@_0P@IGJIBAJA@Win32_Keyboard@
	DD	FLAT:??_C@_0M@OHKMKKDH@Description@
	DD	FLAT:??_C@_0P@IGJIBAJA@Win32_Keyboard@
	DD	FLAT:??_C@_0N@FJHLDHMG@ErrorCleared@
	DD	FLAT:??_C@_0P@IGJIBAJA@Win32_Keyboard@
	DD	FLAT:??_C@_0BB@KIDBLMK@ErrorDescription@
	DD	FLAT:??_C@_0P@IGJIBAJA@Win32_Keyboard@
	DD	FLAT:??_C@_0M@NBIJNNJJ@InstallDate@
	DD	FLAT:??_C@_0P@IGJIBAJA@Win32_Keyboard@
	DD	FLAT:??_C@_08EOCJLAAL@IsLocked@
	DD	FLAT:??_C@_0P@IGJIBAJA@Win32_Keyboard@
	DD	FLAT:??_C@_0O@NDKHIJAE@LastErrorCode@
	DD	FLAT:??_C@_0P@IGJIBAJA@Win32_Keyboard@
	DD	FLAT:??_C@_08FJIAHGMM@Password@
	DD	FLAT:??_C@_0P@IGJIBAJA@Win32_Keyboard@
	DD	FLAT:??_C@_0BM@NFDEHNHA@PowerManagementCapabilities@
	DD	FLAT:??_C@_0P@IGJIBAJA@Win32_Keyboard@
	DD	FLAT:??_C@_0BJ@CFOPGMLH@PowerManagementSupported@
	DD	FLAT:??_C@_0P@IGJIBAJA@Win32_Keyboard@
	DD	FLAT:??_C@_06PGDKHFME@Status@
	DD	FLAT:??_C@_0P@IGJIBAJA@Win32_Keyboard@
	DD	FLAT:??_C@_0L@PKEHCAEI@StatusInfo@
	DD	FLAT:??_C@_0BI@DKDNDIIN@Win32_MotherboardDevice@
	DD	FLAT:??_C@_04FABLJDN@Name@
	DD	FLAT:??_C@_0BI@DKDNDIIN@Win32_MotherboardDevice@
	DD	FLAT:??_C@_0M@HHJKGII@PNPDeviceID@
	DD	FLAT:??_C@_0BI@DKDNDIIN@Win32_MotherboardDevice@
	DD	FLAT:??_C@_08JLPEJKOE@DeviceID@
	DD	FLAT:??_C@_0BI@DKDNDIIN@Win32_MotherboardDevice@
	DD	FLAT:??_C@_0N@MFGCECDI@Availability@
	DD	FLAT:??_C@_0BI@DKDNDIIN@Win32_MotherboardDevice@
	DD	FLAT:??_C@_0BH@JDEEEDCN@ConfigManagerErrorCode@
	DD	FLAT:??_C@_0BI@DKDNDIIN@Win32_MotherboardDevice@
	DD	FLAT:??_C@_0BI@OBNCDCBF@ConfigManagerUserConfig@
	DD	FLAT:??_C@_0BI@DKDNDIIN@Win32_MotherboardDevice@
	DD	FLAT:??_C@_0N@FJHLDHMG@ErrorCleared@
	DD	FLAT:??_C@_0BI@DKDNDIIN@Win32_MotherboardDevice@
	DD	FLAT:??_C@_0BB@KIDBLMK@ErrorDescription@
	DD	FLAT:??_C@_0BI@DKDNDIIN@Win32_MotherboardDevice@
	DD	FLAT:??_C@_0M@NBIJNNJJ@InstallDate@
	DD	FLAT:??_C@_0BI@DKDNDIIN@Win32_MotherboardDevice@
	DD	FLAT:??_C@_0O@NDKHIJAE@LastErrorCode@
	DD	FLAT:??_C@_0BI@DKDNDIIN@Win32_MotherboardDevice@
	DD	FLAT:??_C@_0BM@NFDEHNHA@PowerManagementCapabilities@
	DD	FLAT:??_C@_0BI@DKDNDIIN@Win32_MotherboardDevice@
	DD	FLAT:??_C@_0BJ@CFOPGMLH@PowerManagementSupported@
	DD	FLAT:??_C@_0BI@DKDNDIIN@Win32_MotherboardDevice@
	DD	FLAT:??_C@_0P@GCEIIPJN@PrimaryBusType@
	DD	FLAT:??_C@_0BI@DKDNDIIN@Win32_MotherboardDevice@
	DD	FLAT:??_C@_0P@EJGNFGBG@RevisionNumber@
	DD	FLAT:??_C@_0BI@DKDNDIIN@Win32_MotherboardDevice@
	DD	FLAT:??_C@_0BB@MKKJDBAN@SecondaryBusType@
	DD	FLAT:??_C@_0BI@DKDNDIIN@Win32_MotherboardDevice@
	DD	FLAT:??_C@_06PGDKHFME@Status@
	DD	FLAT:??_C@_0BI@DKDNDIIN@Win32_MotherboardDevice@
	DD	FLAT:??_C@_0L@PKEHCAEI@StatusInfo@
	DD	FLAT:??_C@_0BE@ILPPNPBM@Win32_OnBoardDevice@
	DD	FLAT:??_C@_03PJHNOEGB@Tag@
	DD	FLAT:??_C@_0BE@ILPPNPBM@Win32_OnBoardDevice@
	DD	FLAT:??_C@_05NFIJOKEG@Model@
	DD	FLAT:??_C@_0BE@ILPPNPBM@Win32_OnBoardDevice@
	DD	FLAT:??_C@_07NGFJPNPN@Version@
	DD	FLAT:??_C@_0BE@ILPPNPBM@Win32_OnBoardDevice@
	DD	FLAT:??_C@_0N@BBNLMPJO@Manufacturer@
	DD	FLAT:??_C@_0BE@ILPPNPBM@Win32_OnBoardDevice@
	DD	FLAT:??_C@_0N@FPJJBBNM@SerialNumber@
	DD	FLAT:??_C@_0BE@ILPPNPBM@Win32_OnBoardDevice@
	DD	FLAT:??_C@_0L@MIOPIENN@PartNumber@
	DD	FLAT:??_C@_0BE@ILPPNPBM@Win32_OnBoardDevice@
	DD	FLAT:??_C@_0M@OHKMKKDH@Description@
	DD	FLAT:??_C@_0BE@ILPPNPBM@Win32_OnBoardDevice@
	DD	FLAT:??_C@_0L@PMICFDLL@DeviceType@
	DD	FLAT:??_C@_0BE@ILPPNPBM@Win32_OnBoardDevice@
	DD	FLAT:??_C@_07DOAOMMKG@Enabled@
	DD	FLAT:??_C@_0BE@ILPPNPBM@Win32_OnBoardDevice@
	DD	FLAT:??_C@_0N@FCOIALPI@HotSwappable@
	DD	FLAT:??_C@_0BE@ILPPNPBM@Win32_OnBoardDevice@
	DD	FLAT:??_C@_0M@NBIJNNJJ@InstallDate@
	DD	FLAT:??_C@_0BE@ILPPNPBM@Win32_OnBoardDevice@
	DD	FLAT:??_C@_0BF@DMENANMJ@OtherIdentifyingInfo@
	DD	FLAT:??_C@_0BE@ILPPNPBM@Win32_OnBoardDevice@
	DD	FLAT:??_C@_09HKGEBMAI@PoweredOn@
	DD	FLAT:??_C@_0BE@ILPPNPBM@Win32_OnBoardDevice@
	DD	FLAT:??_C@_09DADBKOHO@Removable@
	DD	FLAT:??_C@_0BE@ILPPNPBM@Win32_OnBoardDevice@
	DD	FLAT:??_C@_0M@KLOLJEDG@Replaceable@
	DD	FLAT:??_C@_0BE@ILPPNPBM@Win32_OnBoardDevice@
	DD	FLAT:??_C@_03LMAAELJP@SKU@
	DD	FLAT:??_C@_0BE@ILPPNPBM@Win32_OnBoardDevice@
	DD	FLAT:??_C@_06PGDKHFME@Status@
	DD	FLAT:??_C@_0BH@CNGPGCKD@Win32_PCMCIAController@
	DD	FLAT:??_C@_04FABLJDN@Name@
	DD	FLAT:??_C@_0BH@CNGPGCKD@Win32_PCMCIAController@
	DD	FLAT:??_C@_0M@HHJKGII@PNPDeviceID@
	DD	FLAT:??_C@_0BH@CNGPGCKD@Win32_PCMCIAController@
	DD	FLAT:??_C@_08JLPEJKOE@DeviceID@
	DD	FLAT:??_C@_0BH@CNGPGCKD@Win32_PCMCIAController@
	DD	FLAT:??_C@_0BE@JDLAPHJE@MaxNumberControlled@
	DD	FLAT:??_C@_0BH@CNGPGCKD@Win32_PCMCIAController@
	DD	FLAT:??_C@_0BC@JHPOAJCM@ProtocolSupported@
	DD	FLAT:??_C@_0BH@CNGPGCKD@Win32_PCMCIAController@
	DD	FLAT:??_C@_0N@MFGCECDI@Availability@
	DD	FLAT:??_C@_0BH@CNGPGCKD@Win32_PCMCIAController@
	DD	FLAT:??_C@_07OJKFJLLK@Caption@
	DD	FLAT:??_C@_0BH@CNGPGCKD@Win32_PCMCIAController@
	DD	FLAT:??_C@_0BH@JDEEEDCN@ConfigManagerErrorCode@
	DD	FLAT:??_C@_0BH@CNGPGCKD@Win32_PCMCIAController@
	DD	FLAT:??_C@_0BI@OBNCDCBF@ConfigManagerUserConfig@
	DD	FLAT:??_C@_0BH@CNGPGCKD@Win32_PCMCIAController@
	DD	FLAT:??_C@_0M@OHKMKKDH@Description@
	DD	FLAT:??_C@_0BH@CNGPGCKD@Win32_PCMCIAController@
	DD	FLAT:??_C@_0N@FJHLDHMG@ErrorCleared@
	DD	FLAT:??_C@_0BH@CNGPGCKD@Win32_PCMCIAController@
	DD	FLAT:??_C@_0BB@KIDBLMK@ErrorDescription@
	DD	FLAT:??_C@_0BH@CNGPGCKD@Win32_PCMCIAController@
	DD	FLAT:??_C@_0M@NBIJNNJJ@InstallDate@
	DD	FLAT:??_C@_0BH@CNGPGCKD@Win32_PCMCIAController@
	DD	FLAT:??_C@_0O@NDKHIJAE@LastErrorCode@
	DD	FLAT:??_C@_0BH@CNGPGCKD@Win32_PCMCIAController@
	DD	FLAT:??_C@_0N@BBNLMPJO@Manufacturer@
	DD	FLAT:??_C@_0BH@CNGPGCKD@Win32_PCMCIAController@
	DD	FLAT:??_C@_0BM@NFDEHNHA@PowerManagementCapabilities@
	DD	FLAT:??_C@_0BH@CNGPGCKD@Win32_PCMCIAController@
	DD	FLAT:??_C@_0BJ@CFOPGMLH@PowerManagementSupported@
	DD	FLAT:??_C@_0BH@CNGPGCKD@Win32_PCMCIAController@
	DD	FLAT:??_C@_06PGDKHFME@Status@
	DD	FLAT:??_C@_0BH@CNGPGCKD@Win32_PCMCIAController@
	DD	FLAT:??_C@_0L@PKEHCAEI@StatusInfo@
	DD	FLAT:??_C@_0BH@CNGPGCKD@Win32_PCMCIAController@
	DD	FLAT:??_C@_0BA@HADKHLAI@TimeOfLastReset@
	DD	FLAT:??_C@_0BA@EHCOOLPP@Win32_PnPEntity@
	DD	FLAT:??_C@_04FABLJDN@Name@
	DD	FLAT:??_C@_0BA@EHCOOLPP@Win32_PnPEntity@
	DD	FLAT:??_C@_07LMLHFMEG@Service@
	DD	FLAT:??_C@_0BA@EHCOOLPP@Win32_PnPEntity@
	DD	FLAT:??_C@_0M@HHJKGII@PNPDeviceID@
	DD	FLAT:??_C@_0BA@EHCOOLPP@Win32_PnPEntity@
	DD	FLAT:??_C@_08JLPEJKOE@DeviceID@
	DD	FLAT:??_C@_0BA@EHCOOLPP@Win32_PnPEntity@
	DD	FLAT:??_C@_09GPHNMGJN@ClassGuid@
	DD	FLAT:??_C@_0BA@EHCOOLPP@Win32_PnPEntity@
	DD	FLAT:??_C@_0N@MFGCECDI@Availability@
	DD	FLAT:??_C@_0BA@EHCOOLPP@Win32_PnPEntity@
	DD	FLAT:??_C@_0N@EEHHOFBP@CompatibleID@
	DD	FLAT:??_C@_0BA@EHCOOLPP@Win32_PnPEntity@
	DD	FLAT:??_C@_0BH@JDEEEDCN@ConfigManagerErrorCode@
	DD	FLAT:??_C@_0BA@EHCOOLPP@Win32_PnPEntity@
	DD	FLAT:??_C@_0BI@OBNCDCBF@ConfigManagerUserConfig@
	DD	FLAT:??_C@_0BA@EHCOOLPP@Win32_PnPEntity@
	DD	FLAT:??_C@_0N@FJHLDHMG@ErrorCleared@
	DD	FLAT:??_C@_0BA@EHCOOLPP@Win32_PnPEntity@
	DD	FLAT:??_C@_0BB@KIDBLMK@ErrorDescription@
	DD	FLAT:??_C@_0BA@EHCOOLPP@Win32_PnPEntity@
	DD	FLAT:??_C@_0L@MCPBCGGP@HardwareID@
	DD	FLAT:??_C@_0BA@EHCOOLPP@Win32_PnPEntity@
	DD	FLAT:??_C@_0M@NBIJNNJJ@InstallDate@
	DD	FLAT:??_C@_0BA@EHCOOLPP@Win32_PnPEntity@
	DD	FLAT:??_C@_0O@NDKHIJAE@LastErrorCode@
	DD	FLAT:??_C@_0BA@EHCOOLPP@Win32_PnPEntity@
	DD	FLAT:??_C@_0N@BBNLMPJO@Manufacturer@
	DD	FLAT:??_C@_0BA@EHCOOLPP@Win32_PnPEntity@
	DD	FLAT:??_C@_0BM@NFDEHNHA@PowerManagementCapabilities@
	DD	FLAT:??_C@_0BA@EHCOOLPP@Win32_PnPEntity@
	DD	FLAT:??_C@_0BJ@CFOPGMLH@PowerManagementSupported@
	DD	FLAT:??_C@_0BA@EHCOOLPP@Win32_PnPEntity@
	DD	FLAT:??_C@_06PGDKHFME@Status@
	DD	FLAT:??_C@_0BA@EHCOOLPP@Win32_PnPEntity@
	DD	FLAT:??_C@_0L@PKEHCAEI@StatusInfo@
	DD	FLAT:??_C@_0BF@MJMHBKMK@Win32_PointingDevice@
	DD	FLAT:??_C@_04FABLJDN@Name@
	DD	FLAT:??_C@_0BF@MJMHBKMK@Win32_PointingDevice@
	DD	FLAT:??_C@_0M@HHJKGII@PNPDeviceID@
	DD	FLAT:??_C@_0BF@MJMHBKMK@Win32_PointingDevice@
	DD	FLAT:??_C@_08JLPEJKOE@DeviceID@
	DD	FLAT:??_C@_0BF@MJMHBKMK@Win32_PointingDevice@
	DD	FLAT:??_C@_0N@BBNLMPJO@Manufacturer@
	DD	FLAT:??_C@_0BF@MJMHBKMK@Win32_PointingDevice@
	DD	FLAT:??_C@_0N@HMDMLBLH@PointingType@
	DD	FLAT:??_C@_0BF@MJMHBKMK@Win32_PointingDevice@
	DD	FLAT:??_C@_0BA@EHILAMBM@NumberOfButtons@
	DD	FLAT:??_C@_0BF@MJMHBKMK@Win32_PointingDevice@
	DD	FLAT:??_C@_0BA@PLLFIHNG@DeviceInterface@
	DD	FLAT:??_C@_0BF@MJMHBKMK@Win32_PointingDevice@
	DD	FLAT:??_C@_0N@OGCCLEJJ@HardwareType@
	DD	FLAT:??_C@_0BF@MJMHBKMK@Win32_PointingDevice@
	DD	FLAT:??_C@_0L@DEGCDBKP@Handedness@
	DD	FLAT:??_C@_0BF@MJMHBKMK@Win32_PointingDevice@
	DD	FLAT:??_C@_0N@MFGCECDI@Availability@
	DD	FLAT:??_C@_0BF@MJMHBKMK@Win32_PointingDevice@
	DD	FLAT:??_C@_0BH@JDEEEDCN@ConfigManagerErrorCode@
	DD	FLAT:??_C@_0BF@MJMHBKMK@Win32_PointingDevice@
	DD	FLAT:??_C@_0BI@OBNCDCBF@ConfigManagerUserConfig@
	DD	FLAT:??_C@_0BF@MJMHBKMK@Win32_PointingDevice@
	DD	FLAT:??_C@_0BF@FLDPHBAC@DoubleSpeedThreshold@
	DD	FLAT:??_C@_0BF@MJMHBKMK@Win32_PointingDevice@
	DD	FLAT:??_C@_0N@FJHLDHMG@ErrorCleared@
	DD	FLAT:??_C@_0BF@MJMHBKMK@Win32_PointingDevice@
	DD	FLAT:??_C@_0BB@KIDBLMK@ErrorDescription@
	DD	FLAT:??_C@_0BF@MJMHBKMK@Win32_PointingDevice@
	DD	FLAT:??_C@_0M@LNGELFEC@InfFileName@
	DD	FLAT:??_C@_0BF@MJMHBKMK@Win32_PointingDevice@
	DD	FLAT:??_C@_0L@KHOEHLLF@InfSection@
	DD	FLAT:??_C@_0BF@MJMHBKMK@Win32_PointingDevice@
	DD	FLAT:??_C@_0M@NBIJNNJJ@InstallDate@
	DD	FLAT:??_C@_0BF@MJMHBKMK@Win32_PointingDevice@
	DD	FLAT:??_C@_08EOCJLAAL@IsLocked@
	DD	FLAT:??_C@_0BF@MJMHBKMK@Win32_PointingDevice@
	DD	FLAT:??_C@_0O@NDKHIJAE@LastErrorCode@
	DD	FLAT:??_C@_0BF@MJMHBKMK@Win32_PointingDevice@
	DD	FLAT:??_C@_0BM@NFDEHNHA@PowerManagementCapabilities@
	DD	FLAT:??_C@_0BF@MJMHBKMK@Win32_PointingDevice@
	DD	FLAT:??_C@_0BJ@CFOPGMLH@PowerManagementSupported@
	DD	FLAT:??_C@_0BF@MJMHBKMK@Win32_PointingDevice@
	DD	FLAT:??_C@_0BD@MJAHKLJJ@QuadSpeedThreshold@
	DD	FLAT:??_C@_0BF@MJMHBKMK@Win32_PointingDevice@
	DD	FLAT:??_C@_0L@KGPBCGJE@Resolution@
	DD	FLAT:??_C@_0BF@MJMHBKMK@Win32_PointingDevice@
	DD	FLAT:??_C@_0L@NEGJIGMA@SampleRate@
	DD	FLAT:??_C@_0BF@MJMHBKMK@Win32_PointingDevice@
	DD	FLAT:??_C@_06PGDKHFME@Status@
	DD	FLAT:??_C@_0BF@MJMHBKMK@Win32_PointingDevice@
	DD	FLAT:??_C@_0L@PKEHCAEI@StatusInfo@
	DD	FLAT:??_C@_0BF@MJMHBKMK@Win32_PointingDevice@
	DD	FLAT:??_C@_05MKJLCFN@Synch@
	DD	FLAT:??_C@_0BE@BFHBBNBL@Win32_PortConnector@
	DD	FLAT:??_C@_03PJHNOEGB@Tag@
	DD	FLAT:??_C@_0BE@BFHBBNBL@Win32_PortConnector@
	DD	FLAT:??_C@_0N@BBNLMPJO@Manufacturer@
	DD	FLAT:??_C@_0BE@BFHBBNBL@Win32_PortConnector@
	DD	FLAT:??_C@_0N@FPJJBBNM@SerialNumber@
	DD	FLAT:??_C@_0BE@BFHBBNBL@Win32_PortConnector@
	DD	FLAT:??_C@_05NFIJOKEG@Model@
	DD	FLAT:??_C@_0BE@BFHBBNBL@Win32_PortConnector@
	DD	FLAT:??_C@_07NGFJPNPN@Version@
	DD	FLAT:??_C@_0BE@BFHBBNBL@Win32_PortConnector@
	DD	FLAT:??_C@_0BM@OAEDMMAI@ExternalReferenceDesignator@
	DD	FLAT:??_C@_0BE@BFHBBNBL@Win32_PortConnector@
	DD	FLAT:??_C@_0BM@JBGCGAG@InternalReferenceDesignator@
	DD	FLAT:??_C@_0BE@BFHBBNBL@Win32_PortConnector@
	DD	FLAT:??_C@_08BOPEOHEK@PortType@
	DD	FLAT:??_C@_0BE@BFHBBNBL@Win32_PortConnector@
	DD	FLAT:??_C@_0O@CPCPFFAH@ConnectorType@
	DD	FLAT:??_C@_0BE@BFHBBNBL@Win32_PortConnector@
	DD	FLAT:??_C@_0BA@KNNOFNF@ConnectorPinout@
	DD	FLAT:??_C@_0BE@BFHBBNBL@Win32_PortConnector@
	DD	FLAT:??_C@_0M@NBIJNNJJ@InstallDate@
	DD	FLAT:??_C@_0BE@BFHBBNBL@Win32_PortConnector@
	DD	FLAT:??_C@_0BF@DMENANMJ@OtherIdentifyingInfo@
	DD	FLAT:??_C@_0BE@BFHBBNBL@Win32_PortConnector@
	DD	FLAT:??_C@_0L@MIOPIENN@PartNumber@
	DD	FLAT:??_C@_0BE@BFHBBNBL@Win32_PortConnector@
	DD	FLAT:??_C@_09HKGEBMAI@PoweredOn@
	DD	FLAT:??_C@_0BE@BFHBBNBL@Win32_PortConnector@
	DD	FLAT:??_C@_03LMAAELJP@SKU@
	DD	FLAT:??_C@_0BE@BFHBBNBL@Win32_PortConnector@
	DD	FLAT:??_C@_06PGDKHFME@Status@
	DD	FLAT:??_C@_0BD@JJNGNMBL@Win32_PortResource@
	DD	FLAT:??_C@_04FABLJDN@Name@
	DD	FLAT:??_C@_0BD@JJNGNMBL@Win32_PortResource@
	DD	FLAT:??_C@_05NNNCCOHC@Alias@
	DD	FLAT:??_C@_0BD@JJNGNMBL@Win32_PortResource@
	DD	FLAT:??_C@_0M@NBIJNNJJ@InstallDate@
	DD	FLAT:??_C@_0BD@JJNGNMBL@Win32_PortResource@
	DD	FLAT:??_C@_06PGDKHFME@Status@
	DD	FLAT:??_C@_0BE@HLKMDILE@Win32_PrinterDriver@
	DD	FLAT:??_C@_04FABLJDN@Name@
	DD	FLAT:??_C@_0BE@HLKMDILE@Win32_PrinterDriver@
	DD	FLAT:??_C@_0BA@PFCCEOEE@DefaultDataType@
	DD	FLAT:??_C@_0BE@HLKMDILE@Win32_PrinterDriver@
	DD	FLAT:??_C@_0L@EAJLGPDF@DriverPath@
	DD	FLAT:??_C@_0BE@HLKMDILE@Win32_PrinterDriver@
	DD	FLAT:??_C@_08CKKAOMLK@FilePath@
	DD	FLAT:??_C@_0BE@HLKMDILE@Win32_PrinterDriver@
	DD	FLAT:??_C@_0L@LKBOBDBI@ConfigFile@
	DD	FLAT:??_C@_0BE@HLKMDILE@Win32_PrinterDriver@
	DD	FLAT:??_C@_08JFJMIJHO@DataFile@
	DD	FLAT:??_C@_0BE@HLKMDILE@Win32_PrinterDriver@
	DD	FLAT:??_C@_0M@PJPGFADP@MonitorName@
	DD	FLAT:??_C@_0BE@HLKMDILE@Win32_PrinterDriver@
	DD	FLAT:??_C@_0BC@MLDLGMGB@SupportedPlatform@
	DD	FLAT:??_C@_0BE@HLKMDILE@Win32_PrinterDriver@
	DD	FLAT:??_C@_07NGFJPNPN@Version@
	DD	FLAT:??_C@_0BE@HLKMDILE@Win32_PrinterDriver@
	DD	FLAT:??_C@_07JFPHJDHA@InfName@
	DD	FLAT:??_C@_0BE@HLKMDILE@Win32_PrinterDriver@
	DD	FLAT:??_C@_08GLFJHHAH@HelpFile@
	DD	FLAT:??_C@_0BE@HLKMDILE@Win32_PrinterDriver@
	DD	FLAT:??_C@_07OJKFJLLK@Caption@
	DD	FLAT:??_C@_0BE@HLKMDILE@Win32_PrinterDriver@
	DD	FLAT:??_C@_0P@NBBGILI@DependentFiles@
	DD	FLAT:??_C@_0BE@HLKMDILE@Win32_PrinterDriver@
	DD	FLAT:??_C@_0M@OHKMKKDH@Description@
	DD	FLAT:??_C@_0BE@HLKMDILE@Win32_PrinterDriver@
	DD	FLAT:??_C@_0M@NBIJNNJJ@InstallDate@
	DD	FLAT:??_C@_0BE@HLKMDILE@Win32_PrinterDriver@
	DD	FLAT:??_C@_06ENMIEFDD@OEMUrl@
	DD	FLAT:??_C@_0BE@HLKMDILE@Win32_PrinterDriver@
	DD	FLAT:??_C@_07LCDJNPHI@Started@
	DD	FLAT:??_C@_0BE@HLKMDILE@Win32_PrinterDriver@
	DD	FLAT:??_C@_09IAGOJBFI@StartMode@
	DD	FLAT:??_C@_0BE@HLKMDILE@Win32_PrinterDriver@
	DD	FLAT:??_C@_06PGDKHFME@Status@
	DD	FLAT:??_C@_0BA@OJJOBJJP@Win32_Processor@
	DD	FLAT:??_C@_04FABLJDN@Name@
	DD	FLAT:??_C@_0BA@OJJOBJJP@Win32_Processor@
	DD	FLAT:??_C@_0M@HHJKGII@PNPDeviceID@
	DD	FLAT:??_C@_0BA@OJJOBJJP@Win32_Processor@
	DD	FLAT:??_C@_08JLPEJKOE@DeviceID@
	DD	FLAT:??_C@_0BA@OJJOBJJP@Win32_Processor@
	DD	FLAT:??_C@_0N@MDJPNJNL@Architecture@
	DD	FLAT:??_C@_0BA@OJJOBJJP@Win32_Processor@
	DD	FLAT:??_C@_0N@BBNLMPJO@Manufacturer@
	DD	FLAT:??_C@_0BA@OJJOBJJP@Win32_Processor@
	DD	FLAT:??_C@_07NGFJPNPN@Version@
	DD	FLAT:??_C@_0BA@OJJOBJJP@Win32_Processor@
	DD	FLAT:??_C@_0O@FFCOPHIP@NumberOfCores@
	DD	FLAT:??_C@_0BA@OJJOBJJP@Win32_Processor@
	DD	FLAT:??_C@_0O@MJOHKFKO@MaxClockSpeed@
	DD	FLAT:??_C@_0BA@OJJOBJJP@Win32_Processor@
	DD	FLAT:??_C@_0BK@OBFFNDNO@NumberOfLogicalProcessors@
	DD	FLAT:??_C@_0BA@OJJOBJJP@Win32_Processor@
	DD	FLAT:??_C@_06BOFMEHLD@Family@
	DD	FLAT:??_C@_0BA@OJJOBJJP@Win32_Processor@
	DD	FLAT:??_C@_0M@DJKFFMLN@L2CacheSize@
	DD	FLAT:??_C@_0BA@OJJOBJJP@Win32_Processor@
	DD	FLAT:??_C@_0N@NBPCHGPE@L2CacheSpeed@
	DD	FLAT:??_C@_0BA@OJJOBJJP@Win32_Processor@
	DD	FLAT:??_C@_0M@PICLIDHN@L3CacheSize@
	DD	FLAT:??_C@_0BA@OJJOBJJP@Win32_Processor@
	DD	FLAT:??_C@_0N@EKFHDKJL@L3CacheSpeed@
	DD	FLAT:??_C@_0BA@OJJOBJJP@Win32_Processor@
	DD	FLAT:??_C@_0N@IPOPOCBB@AddressWidth@
	DD	FLAT:??_C@_0BA@OJJOBJJP@Win32_Processor@
	DD	FLAT:??_C@_0N@MFGCECDI@Availability@
	DD	FLAT:??_C@_0BA@OJJOBJJP@Win32_Processor@
	DD	FLAT:??_C@_0BH@JDEEEDCN@ConfigManagerErrorCode@
	DD	FLAT:??_C@_0BA@OJJOBJJP@Win32_Processor@
	DD	FLAT:??_C@_0BI@OBNCDCBF@ConfigManagerUserConfig@
	DD	FLAT:??_C@_0BA@OJJOBJJP@Win32_Processor@
	DD	FLAT:??_C@_09OJECCCEO@CpuStatus@
	DD	FLAT:??_C@_0BA@OJJOBJJP@Win32_Processor@
	DD	FLAT:??_C@_0BC@JFANJPME@CurrentClockSpeed@
	DD	FLAT:??_C@_0BA@OJJOBJJP@Win32_Processor@
	DD	FLAT:??_C@_0P@IHAGOHLC@CurrentVoltage@
	DD	FLAT:??_C@_0BA@OJJOBJJP@Win32_Processor@
	DD	FLAT:??_C@_09KNGBBIL@DataWidth@
	DD	FLAT:??_C@_0BA@OJJOBJJP@Win32_Processor@
	DD	FLAT:??_C@_0M@OHKMKKDH@Description@
	DD	FLAT:??_C@_0BA@OJJOBJJP@Win32_Processor@
	DD	FLAT:??_C@_0N@FJHLDHMG@ErrorCleared@
	DD	FLAT:??_C@_0BA@OJJOBJJP@Win32_Processor@
	DD	FLAT:??_C@_0BB@KIDBLMK@ErrorDescription@
	DD	FLAT:??_C@_0BA@OJJOBJJP@Win32_Processor@
	DD	FLAT:??_C@_08JALCBBMK@ExtClock@
	DD	FLAT:??_C@_0BA@OJJOBJJP@Win32_Processor@
	DD	FLAT:??_C@_0M@NBIJNNJJ@InstallDate@
	DD	FLAT:??_C@_0BA@OJJOBJJP@Win32_Processor@
	DD	FLAT:??_C@_0O@NDKHIJAE@LastErrorCode@
	DD	FLAT:??_C@_0BA@OJJOBJJP@Win32_Processor@
	DD	FLAT:??_C@_05KOHFLOFG@Level@
	DD	FLAT:??_C@_0BA@OJJOBJJP@Win32_Processor@
	DD	FLAT:??_C@_0P@HLLBIGKP@LoadPercentage@
	DD	FLAT:??_C@_0BA@OJJOBJJP@Win32_Processor@
	DD	FLAT:??_C@_0BH@LLAHKBOJ@OtherFamilyDescription@
	DD	FLAT:??_C@_0BA@OJJOBJJP@Win32_Processor@
	DD	FLAT:??_C@_0BM@NFDEHNHA@PowerManagementCapabilities@
	DD	FLAT:??_C@_0BA@OJJOBJJP@Win32_Processor@
	DD	FLAT:??_C@_0BJ@CFOPGMLH@PowerManagementSupported@
	DD	FLAT:??_C@_0BA@OJJOBJJP@Win32_Processor@
	DD	FLAT:??_C@_0M@DHKOOBFD@ProcessorId@
	DD	FLAT:??_C@_0BA@OJJOBJJP@Win32_Processor@
	DD	FLAT:??_C@_0O@DAODMABE@ProcessorType@
	DD	FLAT:??_C@_0BA@OJJOBJJP@Win32_Processor@
	DD	FLAT:??_C@_08DNLDHPFP@Revision@
	DD	FLAT:??_C@_0BA@OJJOBJJP@Win32_Processor@
	DD	FLAT:??_C@_04EBAMNOLK@Role@
	DD	FLAT:??_C@_0BA@OJJOBJJP@Win32_Processor@
	DD	FLAT:??_C@_0BC@GCIFEBIL@SocketDesignation@
	DD	FLAT:??_C@_0BA@OJJOBJJP@Win32_Processor@
	DD	FLAT:??_C@_06PGDKHFME@Status@
	DD	FLAT:??_C@_0BA@OJJOBJJP@Win32_Processor@
	DD	FLAT:??_C@_0L@PKEHCAEI@StatusInfo@
	DD	FLAT:??_C@_0BA@OJJOBJJP@Win32_Processor@
	DD	FLAT:??_C@_08HPJGCEAH@Stepping@
	DD	FLAT:??_C@_0BA@OJJOBJJP@Win32_Processor@
	DD	FLAT:??_C@_08HJBCPKNB@UniqueId@
	DD	FLAT:??_C@_0BA@OJJOBJJP@Win32_Processor@
	DD	FLAT:??_C@_0O@KHACBBMN@UpgradeMethod@
	DD	FLAT:??_C@_0BA@OJJOBJJP@Win32_Processor@
	DD	FLAT:??_C@_0M@DEJHGOJI@VoltageCaps@
	DD	FLAT:??_C@_0BF@OGHHAMBD@Win32_SCSIController@
	DD	FLAT:??_C@_04FABLJDN@Name@
	DD	FLAT:??_C@_0BF@OGHHAMBD@Win32_SCSIController@
	DD	FLAT:??_C@_0M@HHJKGII@PNPDeviceID@
	DD	FLAT:??_C@_0BF@OGHHAMBD@Win32_SCSIController@
	DD	FLAT:??_C@_08JLPEJKOE@DeviceID@
	DD	FLAT:??_C@_0BF@OGHHAMBD@Win32_SCSIController@
	DD	FLAT:??_C@_0N@BBNLMPJO@Manufacturer@
	DD	FLAT:??_C@_0BF@OGHHAMBD@Win32_SCSIController@
	DD	FLAT:??_C@_0L@DJBCKAGE@DriverName@
	DD	FLAT:??_C@_0BF@OGHHAMBD@Win32_SCSIController@
	DD	FLAT:??_C@_0BA@BJODOJJC@HardwareVersion@
	DD	FLAT:??_C@_0BF@OGHHAMBD@Win32_SCSIController@
	DD	FLAT:??_C@_0N@MFGCECDI@Availability@
	DD	FLAT:??_C@_0BF@OGHHAMBD@Win32_SCSIController@
	DD	FLAT:??_C@_0BH@JDEEEDCN@ConfigManagerErrorCode@
	DD	FLAT:??_C@_0BF@OGHHAMBD@Win32_SCSIController@
	DD	FLAT:??_C@_0BI@OBNCDCBF@ConfigManagerUserConfig@
	DD	FLAT:??_C@_0BF@OGHHAMBD@Win32_SCSIController@
	DD	FLAT:??_C@_0BD@LPBNFPJD@ControllerTimeouts@
	DD	FLAT:??_C@_0BF@OGHHAMBD@Win32_SCSIController@
	DD	FLAT:??_C@_09DJCHLIFB@DeviceMap@
	DD	FLAT:??_C@_0BF@OGHHAMBD@Win32_SCSIController@
	DD	FLAT:??_C@_0N@FJHLDHMG@ErrorCleared@
	DD	FLAT:??_C@_0BF@OGHHAMBD@Win32_SCSIController@
	DD	FLAT:??_C@_0BB@KIDBLMK@ErrorDescription@
	DD	FLAT:??_C@_0BF@OGHHAMBD@Win32_SCSIController@
	DD	FLAT:??_C@_05FNNGFGLF@Index@
	DD	FLAT:??_C@_0BF@OGHHAMBD@Win32_SCSIController@
	DD	FLAT:??_C@_0M@NBIJNNJJ@InstallDate@
	DD	FLAT:??_C@_0BF@OGHHAMBD@Win32_SCSIController@
	DD	FLAT:??_C@_0O@NDKHIJAE@LastErrorCode@
	DD	FLAT:??_C@_0BF@OGHHAMBD@Win32_SCSIController@
	DD	FLAT:??_C@_0N@OLJPFNHL@MaxDataWidth@
	DD	FLAT:??_C@_0BF@OGHHAMBD@Win32_SCSIController@
	DD	FLAT:??_C@_0BE@JDLAPHJE@MaxNumberControlled@
	DD	FLAT:??_C@_0BF@OGHHAMBD@Win32_SCSIController@
	DD	FLAT:??_C@_0BA@IDEAMGMB@MaxTransferRate@
	DD	FLAT:??_C@_0BF@OGHHAMBD@Win32_SCSIController@
	DD	FLAT:??_C@_0BM@NFDEHNHA@PowerManagementCapabilities@
	DD	FLAT:??_C@_0BF@OGHHAMBD@Win32_SCSIController@
	DD	FLAT:??_C@_0BJ@CFOPGMLH@PowerManagementSupported@
	DD	FLAT:??_C@_0BF@OGHHAMBD@Win32_SCSIController@
	DD	FLAT:??_C@_0BF@OGNJDJGP@ProtectionManagement@
	DD	FLAT:??_C@_0BF@OGHHAMBD@Win32_SCSIController@
	DD	FLAT:??_C@_0BC@JHPOAJCM@ProtocolSupported@
	DD	FLAT:??_C@_0BF@OGHHAMBD@Win32_SCSIController@
	DD	FLAT:??_C@_06PGDKHFME@Status@
	DD	FLAT:??_C@_0BF@OGHHAMBD@Win32_SCSIController@
	DD	FLAT:??_C@_0L@PKEHCAEI@StatusInfo@
	DD	FLAT:??_C@_0BF@OGHHAMBD@Win32_SCSIController@
	DD	FLAT:??_C@_0BA@HADKHLAI@TimeOfLastReset@
	DD	FLAT:??_C@_0BB@DLHLCIMJ@Win32_SerialPort@
	DD	FLAT:??_C@_04FABLJDN@Name@
	DD	FLAT:??_C@_0BB@DLHLCIMJ@Win32_SerialPort@
	DD	FLAT:??_C@_0M@HHJKGII@PNPDeviceID@
	DD	FLAT:??_C@_0BB@DLHLCIMJ@Win32_SerialPort@
	DD	FLAT:??_C@_08JLPEJKOE@DeviceID@
	DD	FLAT:??_C@_0BB@DLHLCIMJ@Win32_SerialPort@
	DD	FLAT:??_C@_0M@BFAJGJNN@MaxBaudRate@
	DD	FLAT:??_C@_0BB@DLHLCIMJ@Win32_SerialPort@
	DD	FLAT:??_C@_0BC@JHPOAJCM@ProtocolSupported@
	DD	FLAT:??_C@_0BB@DLHLCIMJ@Win32_SerialPort@
	DD	FLAT:??_C@_0N@KFNBCBNP@ProviderType@
	DD	FLAT:??_C@_0BB@DLHLCIMJ@Win32_SerialPort@
	DD	FLAT:??_C@_0N@MFGCECDI@Availability@
	DD	FLAT:??_C@_0BB@DLHLCIMJ@Win32_SerialPort@
	DD	FLAT:??_C@_06JCOMDNII@Binary@
	DD	FLAT:??_C@_0BB@DLHLCIMJ@Win32_SerialPort@
	DD	FLAT:??_C@_0N@FNJCOOAL@Capabilities@
	DD	FLAT:??_C@_0BB@DLHLCIMJ@Win32_SerialPort@
	DD	FLAT:??_C@_0BH@EPMKAGLN@CapabilityDescriptions@
	DD	FLAT:??_C@_0BB@DLHLCIMJ@Win32_SerialPort@
	DD	FLAT:??_C@_0BH@JDEEEDCN@ConfigManagerErrorCode@
	DD	FLAT:??_C@_0BB@DLHLCIMJ@Win32_SerialPort@
	DD	FLAT:??_C@_0BI@OBNCDCBF@ConfigManagerUserConfig@
	DD	FLAT:??_C@_0BB@DLHLCIMJ@Win32_SerialPort@
	DD	FLAT:??_C@_0N@FJHLDHMG@ErrorCleared@
	DD	FLAT:??_C@_0BB@DLHLCIMJ@Win32_SerialPort@
	DD	FLAT:??_C@_0BB@KIDBLMK@ErrorDescription@
	DD	FLAT:??_C@_0BB@DLHLCIMJ@Win32_SerialPort@
	DD	FLAT:??_C@_0M@NBIJNNJJ@InstallDate@
	DD	FLAT:??_C@_0BB@DLHLCIMJ@Win32_SerialPort@
	DD	FLAT:??_C@_0O@NDKHIJAE@LastErrorCode@
	DD	FLAT:??_C@_0BB@DLHLCIMJ@Win32_SerialPort@
	DD	FLAT:??_C@_0BH@PKAPBGLB@MaximumInputBufferSize@
	DD	FLAT:??_C@_0BB@DLHLCIMJ@Win32_SerialPort@
	DD	FLAT:??_C@_0BI@EAKFLPF@MaximumOutputBufferSize@
	DD	FLAT:??_C@_0BB@DLHLCIMJ@Win32_SerialPort@
	DD	FLAT:??_C@_0BE@JDLAPHJE@MaxNumberControlled@
	DD	FLAT:??_C@_0BB@DLHLCIMJ@Win32_SerialPort@
	DD	FLAT:??_C@_0BB@NCMHEECO@OSAutoDiscovered@
	DD	FLAT:??_C@_0BB@DLHLCIMJ@Win32_SerialPort@
	DD	FLAT:??_C@_0BM@NFDEHNHA@PowerManagementCapabilities@
	DD	FLAT:??_C@_0BB@DLHLCIMJ@Win32_SerialPort@
	DD	FLAT:??_C@_0BJ@CFOPGMLH@PowerManagementSupported@
	DD	FLAT:??_C@_0BB@DLHLCIMJ@Win32_SerialPort@
	DD	FLAT:??_C@_0BB@CCEBCKAP@SettableBaudRate@
	DD	FLAT:??_C@_0BB@DLHLCIMJ@Win32_SerialPort@
	DD	FLAT:??_C@_0BB@BOCNMDDI@SettableDataBits@
	DD	FLAT:??_C@_0BB@DLHLCIMJ@Win32_SerialPort@
	DD	FLAT:??_C@_0BE@FMKJPGFK@SettableFlowControl@
	DD	FLAT:??_C@_0BB@DLHLCIMJ@Win32_SerialPort@
	DD	FLAT:??_C@_0P@MOHECAJ@SettableParity@
	DD	FLAT:??_C@_0BB@DLHLCIMJ@Win32_SerialPort@
	DD	FLAT:??_C@_0BE@NMPLPPIE@SettableParityCheck@
	DD	FLAT:??_C@_0BB@DLHLCIMJ@Win32_SerialPort@
	DD	FLAT:??_C@_0N@OBGEBGNG@SettableRLSD@
	DD	FLAT:??_C@_0BB@DLHLCIMJ@Win32_SerialPort@
	DD	FLAT:??_C@_0BB@EPIEMKMF@SettableStopBits@
	DD	FLAT:??_C@_0BB@DLHLCIMJ@Win32_SerialPort@
	DD	FLAT:??_C@_06PGDKHFME@Status@
	DD	FLAT:??_C@_0BB@DLHLCIMJ@Win32_SerialPort@
	DD	FLAT:??_C@_0L@PKEHCAEI@StatusInfo@
	DD	FLAT:??_C@_0BB@DLHLCIMJ@Win32_SerialPort@
	DD	FLAT:??_C@_0BC@EEEMKCBH@Supports16BitMode@
	DD	FLAT:??_C@_0BB@DLHLCIMJ@Win32_SerialPort@
	DD	FLAT:??_C@_0P@GODDIGIP@SupportsDTRDSR@
	DD	FLAT:??_C@_0BB@DLHLCIMJ@Win32_SerialPort@
	DD	FLAT:??_C@_0BI@LJLLOLPH@SupportsElapsedTimeouts@
	DD	FLAT:??_C@_0BB@DLHLCIMJ@Win32_SerialPort@
	DD	FLAT:??_C@_0BE@JOEIKOLI@SupportsIntTimeouts@
	DD	FLAT:??_C@_0BB@DLHLCIMJ@Win32_SerialPort@
	DD	FLAT:??_C@_0BE@JCPAAGPO@SupportsParityCheck@
	DD	FLAT:??_C@_0BB@DLHLCIMJ@Win32_SerialPort@
	DD	FLAT:??_C@_0N@GBIJPBEE@SupportsRLSD@
	DD	FLAT:??_C@_0BB@DLHLCIMJ@Win32_SerialPort@
	DD	FLAT:??_C@_0P@NGNOBJLG@SupportsRTSCTS@
	DD	FLAT:??_C@_0BB@DLHLCIMJ@Win32_SerialPort@
	DD	FLAT:??_C@_0BK@GGENNCGN@SupportsSpecialCharacters@
	DD	FLAT:??_C@_0BB@DLHLCIMJ@Win32_SerialPort@
	DD	FLAT:??_C@_0BA@OPAGJFHI@SupportsXOnXOff@
	DD	FLAT:??_C@_0BB@DLHLCIMJ@Win32_SerialPort@
	DD	FLAT:??_C@_0BD@GDEAPHBI@SupportsXOnXOffSet@
	DD	FLAT:??_C@_0BB@DLHLCIMJ@Win32_SerialPort@
	DD	FLAT:??_C@_0BA@HADKHLAI@TimeOfLastReset@
	DD	FLAT:??_C@_0BO@BPJAPEGK@Win32_SerialPortConfiguration@
	DD	FLAT:??_C@_04FABLJDN@Name@
	DD	FLAT:??_C@_0BO@BPJAPEGK@Win32_SerialPortConfiguration@
	DD	FLAT:??_C@_08FCNNIBJG@BaudRate@
	DD	FLAT:??_C@_0BO@BPJAPEGK@Win32_SerialPortConfiguration@
	DD	FLAT:??_C@_0M@PAFDOFKP@BitsPerByte@
	DD	FLAT:??_C@_0BO@BPJAPEGK@Win32_SerialPortConfiguration@
	DD	FLAT:??_C@_06OKNHBMNM@Parity@
	DD	FLAT:??_C@_0BO@BPJAPEGK@Win32_SerialPortConfiguration@
	DD	FLAT:??_C@_08DPBIGBFM@StopBits@
	DD	FLAT:??_C@_0BO@BPJAPEGK@Win32_SerialPortConfiguration@
	DD	FLAT:??_C@_06OICOCAHF@IsBusy@
	DD	FLAT:??_C@_0BO@BPJAPEGK@Win32_SerialPortConfiguration@
	DD	FLAT:??_C@_0BG@DFLLPBBO@AbortReadWriteOnError@
	DD	FLAT:??_C@_0BO@BPJAPEGK@Win32_SerialPortConfiguration@
	DD	FLAT:??_C@_0BC@OGEDEEBA@BinaryModeEnabled@
	DD	FLAT:??_C@_0BO@BPJAPEGK@Win32_SerialPortConfiguration@
	DD	FLAT:??_C@_0BD@MCBMPIAJ@ContinueXMitOnXOff@
	DD	FLAT:??_C@_0BO@BPJAPEGK@Win32_SerialPortConfiguration@
	DD	FLAT:??_C@_0BC@BMKJGEMK@CTSOutflowControl@
	DD	FLAT:??_C@_0BO@BPJAPEGK@Win32_SerialPortConfiguration@
	DD	FLAT:??_C@_0BB@LNMOOKGE@DiscardNULLBytes@
	DD	FLAT:??_C@_0BO@BPJAPEGK@Win32_SerialPortConfiguration@
	DD	FLAT:??_C@_0BC@HDHNIDHE@DSROutflowControl@
	DD	FLAT:??_C@_0BO@BPJAPEGK@Win32_SerialPortConfiguration@
	DD	FLAT:??_C@_0P@FDLAEJMA@DSRSensitivity@
	DD	FLAT:??_C@_0BO@BPJAPEGK@Win32_SerialPortConfiguration@
	DD	FLAT:??_C@_0BD@HKACMHPL@DTRFlowControlType@
	DD	FLAT:??_C@_0BO@BPJAPEGK@Win32_SerialPortConfiguration@
	DD	FLAT:??_C@_0N@HDNBGKMG@EOFCharacter@
	DD	FLAT:??_C@_0BO@BPJAPEGK@Win32_SerialPortConfiguration@
	DD	FLAT:??_C@_0BG@HECEEKCN@ErrorReplaceCharacter@
	DD	FLAT:??_C@_0BO@BPJAPEGK@Win32_SerialPortConfiguration@
	DD	FLAT:??_C@_0BI@MDNCEDD@ErrorReplacementEnabled@
	DD	FLAT:??_C@_0BO@BPJAPEGK@Win32_SerialPortConfiguration@
	DD	FLAT:??_C@_0P@ELDMBJ@EventCharacter@
	DD	FLAT:??_C@_0BO@BPJAPEGK@Win32_SerialPortConfiguration@
	DD	FLAT:??_C@_0BD@KACACAPH@ParityCheckEnabled@
	DD	FLAT:??_C@_0BO@BPJAPEGK@Win32_SerialPortConfiguration@
	DD	FLAT:??_C@_0BD@HDDKDMKB@RTSFlowControlType@
	DD	FLAT:??_C@_0BO@BPJAPEGK@Win32_SerialPortConfiguration@
	DD	FLAT:??_C@_09CMMJGBDB@SettingID@
	DD	FLAT:??_C@_0BO@BPJAPEGK@Win32_SerialPortConfiguration@
	DD	FLAT:??_C@_0O@IABHIILA@XOffCharacter@
	DD	FLAT:??_C@_0BO@BPJAPEGK@Win32_SerialPortConfiguration@
	DD	FLAT:??_C@_0BC@PIOKAKHD@XOffXMitThreshold@
	DD	FLAT:??_C@_0BO@BPJAPEGK@Win32_SerialPortConfiguration@
	DD	FLAT:??_C@_0N@LMKFMCPA@XOnCharacter@
	DD	FLAT:??_C@_0BO@BPJAPEGK@Win32_SerialPortConfiguration@
	DD	FLAT:??_C@_0BB@OHGPOKOF@XOnXMitThreshold@
	DD	FLAT:??_C@_0BO@BPJAPEGK@Win32_SerialPortConfiguration@
	DD	FLAT:??_C@_0BF@FMELJHC@XOnXOffInFlowControl@
	DD	FLAT:??_C@_0BO@BPJAPEGK@Win32_SerialPortConfiguration@
	DD	FLAT:??_C@_0BG@LCMFOHKE@XOnXOffOutFlowControl@
	DD	FLAT:??_C@_0BC@INJPMPPD@Win32_SoundDevice@
	DD	FLAT:??_C@_0M@MNPNDAHP@ProductName@
	DD	FLAT:??_C@_0BC@INJPMPPD@Win32_SoundDevice@
	DD	FLAT:??_C@_0M@HHJKGII@PNPDeviceID@
	DD	FLAT:??_C@_0BC@INJPMPPD@Win32_SoundDevice@
	DD	FLAT:??_C@_08JLPEJKOE@DeviceID@
	DD	FLAT:??_C@_0BC@INJPMPPD@Win32_SoundDevice@
	DD	FLAT:??_C@_0N@BBNLMPJO@Manufacturer@
	DD	FLAT:??_C@_0BC@INJPMPPD@Win32_SoundDevice@
	DD	FLAT:??_C@_0O@GILLNKKD@MPU401Address@
	DD	FLAT:??_C@_0BC@INJPMPPD@Win32_SoundDevice@
	DD	FLAT:??_C@_0N@MFGCECDI@Availability@
	DD	FLAT:??_C@_0BC@INJPMPPD@Win32_SoundDevice@
	DD	FLAT:??_C@_0BH@JDEEEDCN@ConfigManagerErrorCode@
	DD	FLAT:??_C@_0BC@INJPMPPD@Win32_SoundDevice@
	DD	FLAT:??_C@_0BI@OBNCDCBF@ConfigManagerUserConfig@
	DD	FLAT:??_C@_0BC@INJPMPPD@Win32_SoundDevice@
	DD	FLAT:??_C@_0O@GHJKPLAG@DMABufferSize@
	DD	FLAT:??_C@_0BC@INJPMPPD@Win32_SoundDevice@
	DD	FLAT:??_C@_0N@FJHLDHMG@ErrorCleared@
	DD	FLAT:??_C@_0BC@INJPMPPD@Win32_SoundDevice@
	DD	FLAT:??_C@_0BB@KIDBLMK@ErrorDescription@
	DD	FLAT:??_C@_0BC@INJPMPPD@Win32_SoundDevice@
	DD	FLAT:??_C@_0M@NBIJNNJJ@InstallDate@
	DD	FLAT:??_C@_0BC@INJPMPPD@Win32_SoundDevice@
	DD	FLAT:??_C@_0O@NDKHIJAE@LastErrorCode@
	DD	FLAT:??_C@_0BC@INJPMPPD@Win32_SoundDevice@
	DD	FLAT:??_C@_0BM@NFDEHNHA@PowerManagementCapabilities@
	DD	FLAT:??_C@_0BC@INJPMPPD@Win32_SoundDevice@
	DD	FLAT:??_C@_0BJ@CFOPGMLH@PowerManagementSupported@
	DD	FLAT:??_C@_0BC@INJPMPPD@Win32_SoundDevice@
	DD	FLAT:??_C@_06PGDKHFME@Status@
	DD	FLAT:??_C@_0BC@INJPMPPD@Win32_SoundDevice@
	DD	FLAT:??_C@_0L@PKEHCAEI@StatusInfo@
	DD	FLAT:??_C@_0BE@KNIHCNGM@Win32_USBController@
	DD	FLAT:??_C@_04FABLJDN@Name@
	DD	FLAT:??_C@_0BE@KNIHCNGM@Win32_USBController@
	DD	FLAT:??_C@_0M@HHJKGII@PNPDeviceID@
	DD	FLAT:??_C@_0BE@KNIHCNGM@Win32_USBController@
	DD	FLAT:??_C@_08JLPEJKOE@DeviceID@
	DD	FLAT:??_C@_0BE@KNIHCNGM@Win32_USBController@
	DD	FLAT:??_C@_0N@BBNLMPJO@Manufacturer@
	DD	FLAT:??_C@_0BE@KNIHCNGM@Win32_USBController@
	DD	FLAT:??_C@_0BC@JHPOAJCM@ProtocolSupported@
	DD	FLAT:??_C@_0BE@KNIHCNGM@Win32_USBController@
	DD	FLAT:??_C@_0N@MFGCECDI@Availability@
	DD	FLAT:??_C@_0BE@KNIHCNGM@Win32_USBController@
	DD	FLAT:??_C@_0BH@JDEEEDCN@ConfigManagerErrorCode@
	DD	FLAT:??_C@_0BE@KNIHCNGM@Win32_USBController@
	DD	FLAT:??_C@_0BI@OBNCDCBF@ConfigManagerUserConfig@
	DD	FLAT:??_C@_0BE@KNIHCNGM@Win32_USBController@
	DD	FLAT:??_C@_0N@FJHLDHMG@ErrorCleared@
	DD	FLAT:??_C@_0BE@KNIHCNGM@Win32_USBController@
	DD	FLAT:??_C@_0BB@KIDBLMK@ErrorDescription@
	DD	FLAT:??_C@_0BE@KNIHCNGM@Win32_USBController@
	DD	FLAT:??_C@_0M@NBIJNNJJ@InstallDate@
	DD	FLAT:??_C@_0BE@KNIHCNGM@Win32_USBController@
	DD	FLAT:??_C@_0O@NDKHIJAE@LastErrorCode@
	DD	FLAT:??_C@_0BE@KNIHCNGM@Win32_USBController@
	DD	FLAT:??_C@_0BE@JDLAPHJE@MaxNumberControlled@
	DD	FLAT:??_C@_0BE@KNIHCNGM@Win32_USBController@
	DD	FLAT:??_C@_0BM@NFDEHNHA@PowerManagementCapabilities@
	DD	FLAT:??_C@_0BE@KNIHCNGM@Win32_USBController@
	DD	FLAT:??_C@_0BJ@CFOPGMLH@PowerManagementSupported@
	DD	FLAT:??_C@_0BE@KNIHCNGM@Win32_USBController@
	DD	FLAT:??_C@_06PGDKHFME@Status@
	DD	FLAT:??_C@_0BE@KNIHCNGM@Win32_USBController@
	DD	FLAT:??_C@_0L@PKEHCAEI@StatusInfo@
	DD	FLAT:??_C@_0BE@KNIHCNGM@Win32_USBController@
	DD	FLAT:??_C@_0BA@HADKHLAI@TimeOfLastReset@
	DD	FLAT:??_C@_0BG@IOBPPLKC@Win32_VideoController@
	DD	FLAT:??_C@_04FABLJDN@Name@
	DD	FLAT:??_C@_0BG@IOBPPLKC@Win32_VideoController@
	DD	FLAT:??_C@_0M@HHJKGII@PNPDeviceID@
	DD	FLAT:??_C@_0BG@IOBPPLKC@Win32_VideoController@
	DD	FLAT:??_C@_08JLPEJKOE@DeviceID@
	DD	FLAT:??_C@_0BG@IOBPPLKC@Win32_VideoController@
	DD	FLAT:??_C@_0BE@FEOPMOOE@CurrentBitsPerPixel@
	DD	FLAT:??_C@_0BG@IOBPPLKC@Win32_VideoController@
	DD	FLAT:??_C@_0BM@OFHJCNEB@CurrentHorizontalResolution@
	DD	FLAT:??_C@_0BG@IOBPPLKC@Win32_VideoController@
	DD	FLAT:??_C@_0BK@LFIAOAGD@CurrentVerticalResolution@
	DD	FLAT:??_C@_0BG@IOBPPLKC@Win32_VideoController@
	DD	FLAT:??_C@_0BG@NCBMILGB@CurrentNumberOfColors@
	DD	FLAT:??_C@_0BG@IOBPPLKC@Win32_VideoController@
	DD	FLAT:??_C@_0BD@JKLPINND@CurrentRefreshRate@
	DD	FLAT:??_C@_0BG@IOBPPLKC@Win32_VideoController@
	DD	FLAT:??_C@_0BA@CDIHNLEF@CurrentScanMode@
	DD	FLAT:??_C@_0BG@IOBPPLKC@Win32_VideoController@
	DD	FLAT:??_C@_0BH@IKBJPLJ@CurrentNumberOfColumns@
	DD	FLAT:??_C@_0BG@IOBPPLKC@Win32_VideoController@
	DD	FLAT:??_C@_0BE@BKBIMFEG@CurrentNumberOfRows@
	DD	FLAT:??_C@_0BG@IOBPPLKC@Win32_VideoController@
	DD	FLAT:??_C@_0BC@GFHBBCIN@VideoArchitecture@
	DD	FLAT:??_C@_0BG@IOBPPLKC@Win32_VideoController@
	DD	FLAT:??_C@_0BA@COFLHODM@VideoMemoryType@
	DD	FLAT:??_C@_0BG@IOBPPLKC@Win32_VideoController@
	DD	FLAT:??_C@_09LIEAKBEG@VideoMode@
	DD	FLAT:??_C@_0BG@IOBPPLKC@Win32_VideoController@
	DD	FLAT:??_C@_0BF@MAGAOPPB@VideoModeDescription@
	DD	FLAT:??_C@_0BG@IOBPPLKC@Win32_VideoController@
	DD	FLAT:??_C@_0P@OMEGAAG@VideoProcessor@
	DD	FLAT:??_C@_0BG@IOBPPLKC@Win32_VideoController@
	DD	FLAT:??_C@_0BC@PEHKLIOA@ColorTableEntries@
	DD	FLAT:??_C@_0BG@IOBPPLKC@Win32_VideoController@
	DD	FLAT:??_C@_0BF@JCFFEIIM@NumberOfColorPlanes?$DL@
	DD	FLAT:??_C@_0BG@IOBPPLKC@Win32_VideoController@
	DD	FLAT:??_C@_0BD@DECAKEGH@NumberOfVideoPages@
	DD	FLAT:??_C@_0BG@IOBPPLKC@Win32_VideoController@
	DD	FLAT:??_C@_0BF@FKKNOPFN@SystemPaletteEntries@
	DD	FLAT:??_C@_0BG@IOBPPLKC@Win32_VideoController@
	DD	FLAT:??_C@_0BI@DFJMJFBI@AcceleratorCapabilities@
	DD	FLAT:??_C@_0BG@IOBPPLKC@Win32_VideoController@
	DD	FLAT:??_C@_0BF@LPCADEJI@AdapterCompatibility@
	DD	FLAT:??_C@_0BG@IOBPPLKC@Win32_VideoController@
	DD	FLAT:??_C@_0P@MPKKGADB@AdapterDACType@
	DD	FLAT:??_C@_0BG@IOBPPLKC@Win32_VideoController@
	DD	FLAT:??_C@_0L@CKHNOAKJ@AdapterRAM@
	DD	FLAT:??_C@_0BG@IOBPPLKC@Win32_VideoController@
	DD	FLAT:??_C@_0M@HMKFJKEG@InfFilename@
	DD	FLAT:??_C@_0BG@IOBPPLKC@Win32_VideoController@
	DD	FLAT:??_C@_0L@KHOEHLLF@InfSection@
	DD	FLAT:??_C@_0BG@IOBPPLKC@Win32_VideoController@
	DD	FLAT:??_C@_0BC@JHPOAJCM@ProtocolSupported@
	DD	FLAT:??_C@_0BG@IOBPPLKC@Win32_VideoController@
	DD	FLAT:??_C@_0O@KKIKAADI@DriverVersion@
	DD	FLAT:??_C@_0BG@IOBPPLKC@Win32_VideoController@
	DD	FLAT:??_C@_0N@MFGCECDI@Availability@
	DD	FLAT:??_C@_0BG@IOBPPLKC@Win32_VideoController@
	DD	FLAT:??_C@_0BH@EPMKAGLN@CapabilityDescriptions@
	DD	FLAT:??_C@_0BG@IOBPPLKC@Win32_VideoController@
	DD	FLAT:??_C@_0BH@JDEEEDCN@ConfigManagerErrorCode@
	DD	FLAT:??_C@_0BG@IOBPPLKC@Win32_VideoController@
	DD	FLAT:??_C@_0BI@OBNCDCBF@ConfigManagerUserConfig@
	DD	FLAT:??_C@_0BG@IOBPPLKC@Win32_VideoController@
	DD	FLAT:??_C@_0BD@HBMCPLLH@DeviceSpecificPens@
	DD	FLAT:??_C@_0BG@IOBPPLKC@Win32_VideoController@
	DD	FLAT:??_C@_0L@HJOBJMDE@DitherType@
	DD	FLAT:??_C@_0BG@IOBPPLKC@Win32_VideoController@
	DD	FLAT:??_C@_0L@GAFFCADK@DriverDate@
	DD	FLAT:??_C@_0BG@IOBPPLKC@Win32_VideoController@
	DD	FLAT:??_C@_0N@FJHLDHMG@ErrorCleared@
	DD	FLAT:??_C@_0BG@IOBPPLKC@Win32_VideoController@
	DD	FLAT:??_C@_0BB@KIDBLMK@ErrorDescription@
	DD	FLAT:??_C@_0BG@IOBPPLKC@Win32_VideoController@
	DD	FLAT:??_C@_09MBIABGHL@ICMIntent@
	DD	FLAT:??_C@_0BG@IOBPPLKC@Win32_VideoController@
	DD	FLAT:??_C@_09OGGCGCBA@ICMMethod@
	DD	FLAT:??_C@_0BG@IOBPPLKC@Win32_VideoController@
	DD	FLAT:??_C@_0M@NBIJNNJJ@InstallDate@
	DD	FLAT:??_C@_0BG@IOBPPLKC@Win32_VideoController@
	DD	FLAT:??_C@_0BI@NCJGCGIA@InstalledDisplayDrivers@
	DD	FLAT:??_C@_0BG@IOBPPLKC@Win32_VideoController@
	DD	FLAT:??_C@_0O@NDKHIJAE@LastErrorCode@
	DD	FLAT:??_C@_0BG@IOBPPLKC@Win32_VideoController@
	DD	FLAT:??_C@_0BD@KFJBBNPN@MaxMemorySupported@
	DD	FLAT:??_C@_0BG@IOBPPLKC@Win32_VideoController@
	DD	FLAT:??_C@_0BE@JDLAPHJE@MaxNumberControlled@
	DD	FLAT:??_C@_0BG@IOBPPLKC@Win32_VideoController@
	DD	FLAT:??_C@_0P@DHIEOPKP@MaxRefreshRate@
	DD	FLAT:??_C@_0BG@IOBPPLKC@Win32_VideoController@
	DD	FLAT:??_C@_0P@BADPIIJO@MinRefreshRate@
	DD	FLAT:??_C@_0BG@IOBPPLKC@Win32_VideoController@
	DD	FLAT:??_C@_0L@NCAJOFAD@Monochrome@
	DD	FLAT:??_C@_0BG@IOBPPLKC@Win32_VideoController@
	DD	FLAT:??_C@_0BM@NFDEHNHA@PowerManagementCapabilities@
	DD	FLAT:??_C@_0BG@IOBPPLKC@Win32_VideoController@
	DD	FLAT:??_C@_0BJ@CFOPGMLH@PowerManagementSupported@
	DD	FLAT:??_C@_0BG@IOBPPLKC@Win32_VideoController@
	DD	FLAT:??_C@_0BN@FJFLBOEO@ReservedSystemPaletteEntries@
	DD	FLAT:??_C@_0BG@IOBPPLKC@Win32_VideoController@
	DD	FLAT:??_C@_0BF@HGGDLIIF@SpecificationVersion@
	DD	FLAT:??_C@_0BG@IOBPPLKC@Win32_VideoController@
	DD	FLAT:??_C@_06PGDKHFME@Status@
	DD	FLAT:??_C@_0BG@IOBPPLKC@Win32_VideoController@
	DD	FLAT:??_C@_0L@PKEHCAEI@StatusInfo@
	DD	FLAT:??_C@_0BG@IOBPPLKC@Win32_VideoController@
	DD	FLAT:??_C@_0BA@HADKHLAI@TimeOfLastReset@
	DD	FLAT:??_C@_0BA@CJPFNKBD@Win32_DiskDrive@
	DD	FLAT:??_C@_04FABLJDN@Name@
	DD	FLAT:??_C@_0BA@CJPFNKBD@Win32_DiskDrive@
	DD	FLAT:??_C@_0M@HHJKGII@PNPDeviceID@
	DD	FLAT:??_C@_0BA@CJPFNKBD@Win32_DiskDrive@
	DD	FLAT:??_C@_08JLPEJKOE@DeviceID@
	DD	FLAT:??_C@_0BA@CJPFNKBD@Win32_DiskDrive@
	DD	FLAT:??_C@_0L@BLANPANH@Partitions@
	DD	FLAT:??_C@_0BA@CJPFNKBD@Win32_DiskDrive@
	DD	FLAT:??_C@_0N@FPJJBBNM@SerialNumber@
	DD	FLAT:??_C@_0BA@CJPFNKBD@Win32_DiskDrive@
	DD	FLAT:??_C@_04EBKMHHBE@Size@
	DD	FLAT:??_C@_0BA@CJPFNKBD@Win32_DiskDrive@
	DD	FLAT:??_C@_09HPDNNFFF@MediaType@
	DD	FLAT:??_C@_0BA@CJPFNKBD@Win32_DiskDrive@
	DD	FLAT:??_C@_09GDNFOKKF@Signature@
	DD	FLAT:??_C@_0BA@CJPFNKBD@Win32_DiskDrive@
	DD	FLAT:??_C@_0N@MFGCECDI@Availability@
	DD	FLAT:??_C@_0BA@CJPFNKBD@Win32_DiskDrive@
	DD	FLAT:??_C@_0P@MMMIFHLL@BytesPerSector@
	DD	FLAT:??_C@_0BA@CJPFNKBD@Win32_DiskDrive@
	DD	FLAT:??_C@_0N@FNJCOOAL@Capabilities@
	DD	FLAT:??_C@_0BA@CJPFNKBD@Win32_DiskDrive@
	DD	FLAT:??_C@_0BH@EPMKAGLN@CapabilityDescriptions@
	DD	FLAT:??_C@_0BA@CJPFNKBD@Win32_DiskDrive@
	DD	FLAT:??_C@_07OJKFJLLK@Caption@
	DD	FLAT:??_C@_0BA@CJPFNKBD@Win32_DiskDrive@
	DD	FLAT:??_C@_0BC@MBGAHHAB@CompressionMethod@
	DD	FLAT:??_C@_0BA@CJPFNKBD@Win32_DiskDrive@
	DD	FLAT:??_C@_0BH@JDEEEDCN@ConfigManagerErrorCode@
	DD	FLAT:??_C@_0BA@CJPFNKBD@Win32_DiskDrive@
	DD	FLAT:??_C@_0BI@OBNCDCBF@ConfigManagerUserConfig@
	DD	FLAT:??_C@_0BA@CJPFNKBD@Win32_DiskDrive@
	DD	FLAT:??_C@_0BB@GHOHONOE@DefaultBlockSize@
	DD	FLAT:??_C@_0BA@CJPFNKBD@Win32_DiskDrive@
	DD	FLAT:??_C@_0M@OHKMKKDH@Description@
	DD	FLAT:??_C@_0BA@CJPFNKBD@Win32_DiskDrive@
	DD	FLAT:??_C@_0N@FJHLDHMG@ErrorCleared@
	DD	FLAT:??_C@_0BA@CJPFNKBD@Win32_DiskDrive@
	DD	FLAT:??_C@_0BB@KIDBLMK@ErrorDescription@
	DD	FLAT:??_C@_0BA@CJPFNKBD@Win32_DiskDrive@
	DD	FLAT:??_C@_0BB@PNCBAHDK@ErrorMethodology@
	DD	FLAT:??_C@_0BA@CJPFNKBD@Win32_DiskDrive@
	DD	FLAT:??_C@_0BB@HMBACBBL@FirmwareRevision@
	DD	FLAT:??_C@_0BA@CJPFNKBD@Win32_DiskDrive@
	DD	FLAT:??_C@_05FNNGFGLF@Index@
	DD	FLAT:??_C@_0BA@CJPFNKBD@Win32_DiskDrive@
	DD	FLAT:??_C@_0M@NBIJNNJJ@InstallDate@
	DD	FLAT:??_C@_0BA@CJPFNKBD@Win32_DiskDrive@
	DD	FLAT:??_C@_0O@IHENGMAG@InterfaceType@
	DD	FLAT:??_C@_0BA@CJPFNKBD@Win32_DiskDrive@
	DD	FLAT:??_C@_0O@NDKHIJAE@LastErrorCode@
	DD	FLAT:??_C@_0BA@CJPFNKBD@Win32_DiskDrive@
	DD	FLAT:??_C@_0N@BBNLMPJO@Manufacturer@
	DD	FLAT:??_C@_0BA@CJPFNKBD@Win32_DiskDrive@
	DD	FLAT:??_C@_0N@HEPDBKFE@MaxBlockSize@
	DD	FLAT:??_C@_0BA@CJPFNKBD@Win32_DiskDrive@
	DD	FLAT:??_C@_0N@HBNKJHPM@MaxMediaSize@
	DD	FLAT:??_C@_0BA@CJPFNKBD@Win32_DiskDrive@
	DD	FLAT:??_C@_0M@BKHKLNGH@MediaLoaded@
	DD	FLAT:??_C@_0BA@CJPFNKBD@Win32_DiskDrive@
	DD	FLAT:??_C@_0N@DELMGCCC@MinBlockSize@
	DD	FLAT:??_C@_0BA@CJPFNKBD@Win32_DiskDrive@
	DD	FLAT:??_C@_05NFIJOKEG@Model@
	DD	FLAT:??_C@_0BA@CJPFNKBD@Win32_DiskDrive@
	DD	FLAT:??_C@_0O@IIJMNCFJ@NeedsCleaning@
	DD	FLAT:??_C@_0BA@CJPFNKBD@Win32_DiskDrive@
	DD	FLAT:??_C@_0BH@COPKOGMD@NumberOfMediaSupported@
	DD	FLAT:??_C@_0BA@CJPFNKBD@Win32_DiskDrive@
	DD	FLAT:??_C@_0BM@NFDEHNHA@PowerManagementCapabilities@
	DD	FLAT:??_C@_0BA@CJPFNKBD@Win32_DiskDrive@
	DD	FLAT:??_C@_0BJ@CFOPGMLH@PowerManagementSupported@
	DD	FLAT:??_C@_0BA@CJPFNKBD@Win32_DiskDrive@
	DD	FLAT:??_C@_07IMFLOLAO@SCSIBus@
	DD	FLAT:??_C@_0BA@CJPFNKBD@Win32_DiskDrive@
	DD	FLAT:??_C@_0BA@FGFDLPLK@SCSILogicalUnit@
	DD	FLAT:??_C@_0BA@CJPFNKBD@Win32_DiskDrive@
	DD	FLAT:??_C@_08IICBNDDA@SCSIPort@
	DD	FLAT:??_C@_0BA@CJPFNKBD@Win32_DiskDrive@
	DD	FLAT:??_C@_0N@BGGJIJCI@SCSITargetId@
	DD	FLAT:??_C@_0BA@CJPFNKBD@Win32_DiskDrive@
	DD	FLAT:??_C@_0BA@CCMKCJPC@SectorsPerTrack@
	DD	FLAT:??_C@_0BA@CJPFNKBD@Win32_DiskDrive@
	DD	FLAT:??_C@_06PGDKHFME@Status@
	DD	FLAT:??_C@_0BA@CJPFNKBD@Win32_DiskDrive@
	DD	FLAT:??_C@_0L@PKEHCAEI@StatusInfo@
	DD	FLAT:??_C@_0BA@CJPFNKBD@Win32_DiskDrive@
	DD	FLAT:??_C@_0P@NEMACPGO@TotalCylinders@
	DD	FLAT:??_C@_0BA@CJPFNKBD@Win32_DiskDrive@
	DD	FLAT:??_C@_0L@PLGEACLG@TotalHeads@
	DD	FLAT:??_C@_0BA@CJPFNKBD@Win32_DiskDrive@
	DD	FLAT:??_C@_0N@BJMAPGKO@TotalSectors@
	DD	FLAT:??_C@_0BA@CJPFNKBD@Win32_DiskDrive@
	DD	FLAT:??_C@_0M@BHKEFGGG@TotalTracks@
	DD	FLAT:??_C@_0BA@CJPFNKBD@Win32_DiskDrive@
	DD	FLAT:??_C@_0BC@KOKBEBBE@TracksPerCylinder@
	DD	FLAT:??_C@_0BE@GBMGFCLI@Win32_DiskPartition@
	DD	FLAT:??_C@_04FABLJDN@Name@
	DD	FLAT:??_C@_0BE@GBMGFCLI@Win32_DiskPartition@
	DD	FLAT:??_C@_0M@HHJKGII@PNPDeviceID@
	DD	FLAT:??_C@_0BE@GBMGFCLI@Win32_DiskPartition@
	DD	FLAT:??_C@_08JLPEJKOE@DeviceID@
	DD	FLAT:??_C@_0BE@GBMGFCLI@Win32_DiskPartition@
	DD	FLAT:??_C@_04EBKMHHBE@Size@
	DD	FLAT:??_C@_0BE@GBMGFCLI@Win32_DiskPartition@
	DD	FLAT:??_C@_04KOACHJEN@Type@
	DD	FLAT:??_C@_0BE@GBMGFCLI@Win32_DiskPartition@
	DD	FLAT:??_C@_08GBCOMNMP@Bootable@
	DD	FLAT:??_C@_0BE@GBMGFCLI@Win32_DiskPartition@
	DD	FLAT:??_C@_0O@GKABHDFN@BootPartition@
	DD	FLAT:??_C@_0BE@GBMGFCLI@Win32_DiskPartition@
	DD	FLAT:??_C@_0BB@GMPNKCND@PrimaryPartition@
	DD	FLAT:??_C@_0BE@GBMGFCLI@Win32_DiskPartition@
	DD	FLAT:??_C@_06IOEANFCI@Access@
	DD	FLAT:??_C@_0BE@GBMGFCLI@Win32_DiskPartition@
	DD	FLAT:??_C@_0N@MFGCECDI@Availability@
	DD	FLAT:??_C@_0BE@GBMGFCLI@Win32_DiskPartition@
	DD	FLAT:??_C@_09JFLKFGKE@BlockSize@
	DD	FLAT:??_C@_0BE@GBMGFCLI@Win32_DiskPartition@
	DD	FLAT:??_C@_0P@PGINBNEO@NumberOfBlocks@
	DD	FLAT:??_C@_0BE@GBMGFCLI@Win32_DiskPartition@
	DD	FLAT:??_C@_0BH@JDEEEDCN@ConfigManagerErrorCode@
	DD	FLAT:??_C@_0BE@GBMGFCLI@Win32_DiskPartition@
	DD	FLAT:??_C@_0BI@OBNCDCBF@ConfigManagerUserConfig@
	DD	FLAT:??_C@_0BE@GBMGFCLI@Win32_DiskPartition@
	DD	FLAT:??_C@_0N@FJHLDHMG@ErrorCleared@
	DD	FLAT:??_C@_0BE@GBMGFCLI@Win32_DiskPartition@
	DD	FLAT:??_C@_0BB@KIDBLMK@ErrorDescription@
	DD	FLAT:??_C@_0BE@GBMGFCLI@Win32_DiskPartition@
	DD	FLAT:??_C@_0BB@PNCBAHDK@ErrorMethodology@
	DD	FLAT:??_C@_0BE@GBMGFCLI@Win32_DiskPartition@
	DD	FLAT:??_C@_0O@NMDEFEE@HiddenSectors@
	DD	FLAT:??_C@_0BE@GBMGFCLI@Win32_DiskPartition@
	DD	FLAT:??_C@_0M@NBIJNNJJ@InstallDate@
	DD	FLAT:??_C@_0BE@GBMGFCLI@Win32_DiskPartition@
	DD	FLAT:??_C@_0O@NDKHIJAE@LastErrorCode@
	DD	FLAT:??_C@_0BE@GBMGFCLI@Win32_DiskPartition@
	DD	FLAT:??_C@_0BM@NFDEHNHA@PowerManagementCapabilities@
	DD	FLAT:??_C@_0BE@GBMGFCLI@Win32_DiskPartition@
	DD	FLAT:??_C@_0BJ@CFOPGMLH@PowerManagementSupported@
	DD	FLAT:??_C@_0BE@GBMGFCLI@Win32_DiskPartition@
	DD	FLAT:??_C@_07ODOLMOGH@Purpose@
	DD	FLAT:??_C@_0BE@GBMGFCLI@Win32_DiskPartition@
	DD	FLAT:??_C@_0BB@CLPKNLNO@RewritePartition@
	DD	FLAT:??_C@_0BE@GBMGFCLI@Win32_DiskPartition@
	DD	FLAT:??_C@_0P@HEMAHOJD@StartingOffset@
	DD	FLAT:??_C@_0BE@GBMGFCLI@Win32_DiskPartition@
	DD	FLAT:??_C@_06PGDKHFME@Status@
	DD	FLAT:??_C@_0BE@GBMGFCLI@Win32_DiskPartition@
	DD	FLAT:??_C@_0L@PKEHCAEI@StatusInfo@
	DD	FLAT:??_C@_0BE@JBJLNBAC@Win32_PhysicalMedia@
	DD	FLAT:??_C@_03PJHNOEGB@Tag@
	DD	FLAT:??_C@_0BE@JBJLNBAC@Win32_PhysicalMedia@
	DD	FLAT:??_C@_04FABLJDN@Name@
	DD	FLAT:??_C@_0BE@JBJLNBAC@Win32_PhysicalMedia@
	DD	FLAT:??_C@_09HPDNNFFF@MediaType@
	DD	FLAT:??_C@_0BE@JBJLNBAC@Win32_PhysicalMedia@
	DD	FLAT:??_C@_0BB@GANKFIKA@MediaDescription@
	DD	FLAT:??_C@_0BE@JBJLNBAC@Win32_PhysicalMedia@
	DD	FLAT:??_C@_0N@BBNLMPJO@Manufacturer@
	DD	FLAT:??_C@_0BE@JBJLNBAC@Win32_PhysicalMedia@
	DD	FLAT:??_C@_05NFIJOKEG@Model@
	DD	FLAT:??_C@_0BE@JBJLNBAC@Win32_PhysicalMedia@
	DD	FLAT:??_C@_0N@FPJJBBNM@SerialNumber@
	DD	FLAT:??_C@_0BE@JBJLNBAC@Win32_PhysicalMedia@
	DD	FLAT:??_C@_07NGFJPNPN@Version@
	DD	FLAT:??_C@_0BE@JBJLNBAC@Win32_PhysicalMedia@
	DD	FLAT:??_C@_07OJKFJLLK@Caption@
	DD	FLAT:??_C@_0BE@JBJLNBAC@Win32_PhysicalMedia@
	DD	FLAT:??_C@_0M@OHKMKKDH@Description@
	DD	FLAT:??_C@_0BE@JBJLNBAC@Win32_PhysicalMedia@
	DD	FLAT:??_C@_0M@NBIJNNJJ@InstallDate@
	DD	FLAT:??_C@_0BE@JBJLNBAC@Win32_PhysicalMedia@
	DD	FLAT:??_C@_06PGDKHFME@Status@
	DD	FLAT:??_C@_0BE@JBJLNBAC@Win32_PhysicalMedia@
	DD	FLAT:??_C@_0BC@FNAKMFAB@CreationClassName@
	DD	FLAT:??_C@_0BE@JBJLNBAC@Win32_PhysicalMedia@
	DD	FLAT:??_C@_03LMAAELJP@SKU@
	DD	FLAT:??_C@_0BE@JBJLNBAC@Win32_PhysicalMedia@
	DD	FLAT:??_C@_0L@MIOPIENN@PartNumber@
	DD	FLAT:??_C@_0BE@JBJLNBAC@Win32_PhysicalMedia@
	DD	FLAT:??_C@_0BF@DMENANMJ@OtherIdentifyingInfo@
	DD	FLAT:??_C@_0BE@JBJLNBAC@Win32_PhysicalMedia@
	DD	FLAT:??_C@_09HKGEBMAI@PoweredOn@
	DD	FLAT:??_C@_0BE@JBJLNBAC@Win32_PhysicalMedia@
	DD	FLAT:??_C@_09DADBKOHO@Removable@
	DD	FLAT:??_C@_0BE@JBJLNBAC@Win32_PhysicalMedia@
	DD	FLAT:??_C@_0M@KLOLJEDG@Replaceable@
	DD	FLAT:??_C@_0BE@JBJLNBAC@Win32_PhysicalMedia@
	DD	FLAT:??_C@_0N@FCOIALPI@HotSwappable@
	DD	FLAT:??_C@_0BE@JBJLNBAC@Win32_PhysicalMedia@
	DD	FLAT:??_C@_08PINBMPEF@Capacity@
	DD	FLAT:??_C@_0BE@JBJLNBAC@Win32_PhysicalMedia@
	DD	FLAT:??_C@_0P@CNPPDDMA@WriteProtectOn@
	DD	FLAT:??_C@_0BE@JBJLNBAC@Win32_PhysicalMedia@
	DD	FLAT:??_C@_0N@NINPCONM@CleanerMedia@
	DD	FLAT:??_C@_0BA@GLDDIFFN@Win32_TapeDrive@
	DD	FLAT:??_C@_04FABLJDN@Name@
	DD	FLAT:??_C@_0BA@GLDDIFFN@Win32_TapeDrive@
	DD	FLAT:??_C@_0M@HHJKGII@PNPDeviceID@
	DD	FLAT:??_C@_0BA@GLDDIFFN@Win32_TapeDrive@
	DD	FLAT:??_C@_08JLPEJKOE@DeviceID@
	DD	FLAT:??_C@_0BA@GLDDIFFN@Win32_TapeDrive@
	DD	FLAT:??_C@_0N@BBNLMPJO@Manufacturer@
	DD	FLAT:??_C@_0BA@GLDDIFFN@Win32_TapeDrive@
	DD	FLAT:??_C@_02HOGEDOAB@Id@
	DD	FLAT:??_C@_0BA@GLDDIFFN@Win32_TapeDrive@
	DD	FLAT:??_C@_0N@MFGCECDI@Availability@
	DD	FLAT:??_C@_0BA@GLDDIFFN@Win32_TapeDrive@
	DD	FLAT:??_C@_0N@FNJCOOAL@Capabilities@
	DD	FLAT:??_C@_0BA@GLDDIFFN@Win32_TapeDrive@
	DD	FLAT:??_C@_0BH@EPMKAGLN@CapabilityDescriptions@
	DD	FLAT:??_C@_0BA@GLDDIFFN@Win32_TapeDrive@
	DD	FLAT:??_C@_07OJKFJLLK@Caption@
	DD	FLAT:??_C@_0BA@GLDDIFFN@Win32_TapeDrive@
	DD	FLAT:??_C@_0M@COKFBABJ@Compression@
	DD	FLAT:??_C@_0BA@GLDDIFFN@Win32_TapeDrive@
	DD	FLAT:??_C@_0BC@MBGAHHAB@CompressionMethod@
	DD	FLAT:??_C@_0BA@GLDDIFFN@Win32_TapeDrive@
	DD	FLAT:??_C@_0BH@JDEEEDCN@ConfigManagerErrorCode@
	DD	FLAT:??_C@_0BA@GLDDIFFN@Win32_TapeDrive@
	DD	FLAT:??_C@_0BI@OBNCDCBF@ConfigManagerUserConfig@
	DD	FLAT:??_C@_0BA@GLDDIFFN@Win32_TapeDrive@
	DD	FLAT:??_C@_0BB@GHOHONOE@DefaultBlockSize@
	DD	FLAT:??_C@_0BA@GLDDIFFN@Win32_TapeDrive@
	DD	FLAT:??_C@_0M@OHKMKKDH@Description@
	DD	FLAT:??_C@_0BA@GLDDIFFN@Win32_TapeDrive@
	DD	FLAT:??_C@_03NLPJKHLD@ECC@
	DD	FLAT:??_C@_0BA@GLDDIFFN@Win32_TapeDrive@
	DD	FLAT:??_C@_0BD@IDPNAMKG@EOTWarningZoneSize@
	DD	FLAT:??_C@_0BA@GLDDIFFN@Win32_TapeDrive@
	DD	FLAT:??_C@_0N@FJHLDHMG@ErrorCleared@
	DD	FLAT:??_C@_0BA@GLDDIFFN@Win32_TapeDrive@
	DD	FLAT:??_C@_0BB@KIDBLMK@ErrorDescription@
	DD	FLAT:??_C@_0BA@GLDDIFFN@Win32_TapeDrive@
	DD	FLAT:??_C@_0BB@PNCBAHDK@ErrorMethodology@
	DD	FLAT:??_C@_0BA@GLDDIFFN@Win32_TapeDrive@
	DD	FLAT:??_C@_0N@PNICBLFI@FeaturesHigh@
	DD	FLAT:??_C@_0BA@GLDDIFFN@Win32_TapeDrive@
	DD	FLAT:??_C@_0M@GCKGDCME@FeaturesLow@
	DD	FLAT:??_C@_0BA@GLDDIFFN@Win32_TapeDrive@
	DD	FLAT:??_C@_0M@NBIJNNJJ@InstallDate@
	DD	FLAT:??_C@_0BA@GLDDIFFN@Win32_TapeDrive@
	DD	FLAT:??_C@_0O@NDKHIJAE@LastErrorCode@
	DD	FLAT:??_C@_0BA@GLDDIFFN@Win32_TapeDrive@
	DD	FLAT:??_C@_0N@HEPDBKFE@MaxBlockSize@
	DD	FLAT:??_C@_0BA@GLDDIFFN@Win32_TapeDrive@
	DD	FLAT:??_C@_0N@HBNKJHPM@MaxMediaSize@
	DD	FLAT:??_C@_0BA@GLDDIFFN@Win32_TapeDrive@
	DD	FLAT:??_C@_0BC@NKLHGLCM@MaxPartitionCount@
	DD	FLAT:??_C@_0BA@GLDDIFFN@Win32_TapeDrive@
	DD	FLAT:??_C@_09HPDNNFFF@MediaType@
	DD	FLAT:??_C@_0BA@GLDDIFFN@Win32_TapeDrive@
	DD	FLAT:??_C@_0N@DELMGCCC@MinBlockSize@
	DD	FLAT:??_C@_0BA@GLDDIFFN@Win32_TapeDrive@
	DD	FLAT:??_C@_0O@IIJMNCFJ@NeedsCleaning@
	DD	FLAT:??_C@_0BA@GLDDIFFN@Win32_TapeDrive@
	DD	FLAT:??_C@_0BH@COPKOGMD@NumberOfMediaSupported@
	DD	FLAT:??_C@_0BA@GLDDIFFN@Win32_TapeDrive@
	DD	FLAT:??_C@_07DDDGKLAD@Padding@
	DD	FLAT:??_C@_0BA@GLDDIFFN@Win32_TapeDrive@
	DD	FLAT:??_C@_0BM@NFDEHNHA@PowerManagementCapabilities@
	DD	FLAT:??_C@_0BA@GLDDIFFN@Win32_TapeDrive@
	DD	FLAT:??_C@_0BJ@CFOPGMLH@PowerManagementSupported@
	DD	FLAT:??_C@_0BA@GLDDIFFN@Win32_TapeDrive@
	DD	FLAT:??_C@_0P@OCFCAPCK@ReportSetMarks@
	DD	FLAT:??_C@_0BA@GLDDIFFN@Win32_TapeDrive@
	DD	FLAT:??_C@_06PGDKHFME@Status@
	DD	FLAT:??_C@_0BA@GLDDIFFN@Win32_TapeDrive@
	DD	FLAT:??_C@_0L@PKEHCAEI@StatusInfo@
	DD	FLAT:??_C@_0BC@BKKBKJDE@Win32_CacheMemory@
	DD	FLAT:??_C@_0M@HHJKGII@PNPDeviceID@
	DD	FLAT:??_C@_0BC@BKKBKJDE@Win32_CacheMemory@
	DD	FLAT:??_C@_08JLPEJKOE@DeviceID@
	DD	FLAT:??_C@_0BC@BKKBKJDE@Win32_CacheMemory@
	DD	FLAT:??_C@_07ODOLMOGH@Purpose@
	DD	FLAT:??_C@_0BC@BKKBKJDE@Win32_CacheMemory@
	DD	FLAT:??_C@_06IOEANFCI@Access@
	DD	FLAT:??_C@_0BC@BKKBKJDE@Win32_CacheMemory@
	DD	FLAT:??_C@_0BE@FGEPBFNL@AdditionalErrorData@
	DD	FLAT:??_C@_0BC@BKKBKJDE@Win32_CacheMemory@
	DD	FLAT:??_C@_0O@BJAAJMNJ@Associativity@
	DD	FLAT:??_C@_0BC@BKKBKJDE@Win32_CacheMemory@
	DD	FLAT:??_C@_0N@MFGCECDI@Availability@
	DD	FLAT:??_C@_0BC@BKKBKJDE@Win32_CacheMemory@
	DD	FLAT:??_C@_09JFLKFGKE@BlockSize@
	DD	FLAT:??_C@_0BC@BKKBKJDE@Win32_CacheMemory@
	DD	FLAT:??_C@_0P@PGINBNEO@NumberOfBlocks@
	DD	FLAT:??_C@_0BC@BKKBKJDE@Win32_CacheMemory@
	DD	FLAT:??_C@_0L@GKCEABFB@CacheSpeed@
	DD	FLAT:??_C@_0BC@BKKBKJDE@Win32_CacheMemory@
	DD	FLAT:??_C@_09LDLPEFB@CacheType@
	DD	FLAT:??_C@_0BC@BKKBKJDE@Win32_CacheMemory@
	DD	FLAT:??_C@_0N@FNMLGPI@MaxCacheSize@
	DD	FLAT:??_C@_0BC@BKKBKJDE@Win32_CacheMemory@
	DD	FLAT:??_C@_0BH@JDEEEDCN@ConfigManagerErrorCode@
	DD	FLAT:??_C@_0BC@BKKBKJDE@Win32_CacheMemory@
	DD	FLAT:??_C@_0BI@OBNCDCBF@ConfigManagerUserConfig@
	DD	FLAT:??_C@_0BC@BKKBKJDE@Win32_CacheMemory@
	DD	FLAT:??_C@_0BB@HJBOPHEK@CorrectableError@
	DD	FLAT:??_C@_0BC@BKKBKJDE@Win32_CacheMemory@
	DD	FLAT:??_C@_0M@JJECGOOK@CurrentSRAM@
	DD	FLAT:??_C@_0BC@BKKBKJDE@Win32_CacheMemory@
	DD	FLAT:??_C@_0O@DMEOEBEF@EndingAddress@
	DD	FLAT:??_C@_0BC@BKKBKJDE@Win32_CacheMemory@
	DD	FLAT:??_C@_0M@PJGEGKNG@ErrorAccess@
	DD	FLAT:??_C@_0BC@BKKBKJDE@Win32_CacheMemory@
	DD	FLAT:??_C@_0N@BEELHEFJ@ErrorAddress@
	DD	FLAT:??_C@_0BC@BKKBKJDE@Win32_CacheMemory@
	DD	FLAT:??_C@_0N@FJHLDHMG@ErrorCleared@
	DD	FLAT:??_C@_0BC@BKKBKJDE@Win32_CacheMemory@
	DD	FLAT:??_C@_0BB@OEAEPHLK@ErrorCorrectType@
	DD	FLAT:??_C@_0BC@BKKBKJDE@Win32_CacheMemory@
	DD	FLAT:??_C@_09GOCFECJA@ErrorData@
	DD	FLAT:??_C@_0BC@BKKBKJDE@Win32_CacheMemory@
	DD	FLAT:??_C@_0P@LPKOAMHJ@ErrorDataOrder@
	DD	FLAT:??_C@_0BC@BKKBKJDE@Win32_CacheMemory@
	DD	FLAT:??_C@_0BB@KIDBLMK@ErrorDescription@
	DD	FLAT:??_C@_0BC@BKKBKJDE@Win32_CacheMemory@
	DD	FLAT:??_C@_09EPPHMMOH@ErrorInfo@
	DD	FLAT:??_C@_0BC@BKKBKJDE@Win32_CacheMemory@
	DD	FLAT:??_C@_0BB@PNCBAHDK@ErrorMethodology@
	DD	FLAT:??_C@_0BC@BKKBKJDE@Win32_CacheMemory@
	DD	FLAT:??_C@_0BA@DBMDPLBE@ErrorResolution@
	DD	FLAT:??_C@_0BC@BKKBKJDE@Win32_CacheMemory@
	DD	FLAT:??_C@_09LMOKKAAG@ErrorTime@
	DD	FLAT:??_C@_0BC@BKKBKJDE@Win32_CacheMemory@
	DD	FLAT:??_C@_0BC@FEODMBII@ErrorTransferSize@
	DD	FLAT:??_C@_0BC@BKKBKJDE@Win32_CacheMemory@
	DD	FLAT:??_C@_0L@NIIIAJJG@FlushTimer@
	DD	FLAT:??_C@_0BC@BKKBKJDE@Win32_CacheMemory@
	DD	FLAT:??_C@_0M@NBIJNNJJ@InstallDate@
	DD	FLAT:??_C@_0BC@BKKBKJDE@Win32_CacheMemory@
	DD	FLAT:??_C@_0O@BJDNNDOA@InstalledSize@
	DD	FLAT:??_C@_0BC@BKKBKJDE@Win32_CacheMemory@
	DD	FLAT:??_C@_0O@NDKHIJAE@LastErrorCode@
	DD	FLAT:??_C@_0BC@BKKBKJDE@Win32_CacheMemory@
	DD	FLAT:??_C@_05KOHFLOFG@Level@
	DD	FLAT:??_C@_0BC@BKKBKJDE@Win32_CacheMemory@
	DD	FLAT:??_C@_08BFDFHGHF@LineSize@
	DD	FLAT:??_C@_0BC@BKKBKJDE@Win32_CacheMemory@
	DD	FLAT:??_C@_08KDOEBHGA@Location@
	DD	FLAT:??_C@_0BC@BKKBKJDE@Win32_CacheMemory@
	DD	FLAT:??_C@_0BG@GMMANAIM@OtherErrorDescription@
	DD	FLAT:??_C@_0BC@BKKBKJDE@Win32_CacheMemory@
	DD	FLAT:??_C@_0BM@NFDEHNHA@PowerManagementCapabilities@
	DD	FLAT:??_C@_0BC@BKKBKJDE@Win32_CacheMemory@
	DD	FLAT:??_C@_0BJ@CFOPGMLH@PowerManagementSupported@
	DD	FLAT:??_C@_0BC@BKKBKJDE@Win32_CacheMemory@
	DD	FLAT:??_C@_0L@OICKBPFP@ReadPolicy@
	DD	FLAT:??_C@_0BC@BKKBKJDE@Win32_CacheMemory@
	DD	FLAT:??_C@_0BC@CACAEAGO@ReplacementPolicy@
	DD	FLAT:??_C@_0BC@BKKBKJDE@Win32_CacheMemory@
	DD	FLAT:??_C@_0BA@JKJCLFJA@StartingAddress@
	DD	FLAT:??_C@_0BC@BKKBKJDE@Win32_CacheMemory@
	DD	FLAT:??_C@_06PGDKHFME@Status@
	DD	FLAT:??_C@_0BC@BKKBKJDE@Win32_CacheMemory@
	DD	FLAT:??_C@_0L@PKEHCAEI@StatusInfo@
	DD	FLAT:??_C@_0BC@BKKBKJDE@Win32_CacheMemory@
	DD	FLAT:??_C@_0O@LOONNFKJ@SupportedSRAM@
	DD	FLAT:??_C@_0BC@BKKBKJDE@Win32_CacheMemory@
	DD	FLAT:??_C@_0BD@EHELDMNK@SystemLevelAddress@
	DD	FLAT:??_C@_0BC@BKKBKJDE@Win32_CacheMemory@
	DD	FLAT:??_C@_0M@GMGLDKG@WritePolicy@
	DD	FLAT:??_C@_0BK@CHMJMDKA@Win32_DeviceMemoryAddress@
	DD	FLAT:??_C@_04FABLJDN@Name@
	DD	FLAT:??_C@_0BK@CHMJMDKA@Win32_DeviceMemoryAddress@
	DD	FLAT:??_C@_0L@NKIIONIP@MemoryType@
	DD	FLAT:??_C@_0BK@CHMJMDKA@Win32_DeviceMemoryAddress@
	DD	FLAT:??_C@_0M@NBIJNNJJ@InstallDate@
	DD	FLAT:??_C@_0BK@CHMJMDKA@Win32_DeviceMemoryAddress@
	DD	FLAT:??_C@_06PGDKHFME@Status@
	DD	FLAT:??_C@_0BC@NBCNDILJ@Win32_MemoryArray@
	DD	FLAT:??_C@_0M@HHJKGII@PNPDeviceID@
	DD	FLAT:??_C@_0BC@NBCNDILJ@Win32_MemoryArray@
	DD	FLAT:??_C@_08JLPEJKOE@DeviceID@
	DD	FLAT:??_C@_0BC@NBCNDILJ@Win32_MemoryArray@
	DD	FLAT:??_C@_0BA@JKJCLFJA@StartingAddress@
	DD	FLAT:??_C@_0BC@NBCNDILJ@Win32_MemoryArray@
	DD	FLAT:??_C@_0O@DMEOEBEF@EndingAddress@
	DD	FLAT:??_C@_0BC@NBCNDILJ@Win32_MemoryArray@
	DD	FLAT:??_C@_0BD@EHELDMNK@SystemLevelAddress@
	DD	FLAT:??_C@_0BC@NBCNDILJ@Win32_MemoryArray@
	DD	FLAT:??_C@_06IOEANFCI@Access@
	DD	FLAT:??_C@_0BC@NBCNDILJ@Win32_MemoryArray@
	DD	FLAT:??_C@_0BE@FGEPBFNL@AdditionalErrorData@
	DD	FLAT:??_C@_0BC@NBCNDILJ@Win32_MemoryArray@
	DD	FLAT:??_C@_0N@MFGCECDI@Availability@
	DD	FLAT:??_C@_0BC@NBCNDILJ@Win32_MemoryArray@
	DD	FLAT:??_C@_09JFLKFGKE@BlockSize@
	DD	FLAT:??_C@_0BC@NBCNDILJ@Win32_MemoryArray@
	DD	FLAT:??_C@_0P@PGINBNEO@NumberOfBlocks@
	DD	FLAT:??_C@_0BC@NBCNDILJ@Win32_MemoryArray@
	DD	FLAT:??_C@_0BH@JDEEEDCN@ConfigManagerErrorCode@
	DD	FLAT:??_C@_0BC@NBCNDILJ@Win32_MemoryArray@
	DD	FLAT:??_C@_0BI@OBNCDCBF@ConfigManagerUserConfig@
	DD	FLAT:??_C@_0BC@NBCNDILJ@Win32_MemoryArray@
	DD	FLAT:??_C@_0BB@HJBOPHEK@CorrectableError@
	DD	FLAT:??_C@_0BC@NBCNDILJ@Win32_MemoryArray@
	DD	FLAT:??_C@_0M@PJGEGKNG@ErrorAccess@
	DD	FLAT:??_C@_0BC@NBCNDILJ@Win32_MemoryArray@
	DD	FLAT:??_C@_0N@BEELHEFJ@ErrorAddress@
	DD	FLAT:??_C@_0BC@NBCNDILJ@Win32_MemoryArray@
	DD	FLAT:??_C@_0N@FJHLDHMG@ErrorCleared@
	DD	FLAT:??_C@_0BC@NBCNDILJ@Win32_MemoryArray@
	DD	FLAT:??_C@_09GOCFECJA@ErrorData@
	DD	FLAT:??_C@_0BC@NBCNDILJ@Win32_MemoryArray@
	DD	FLAT:??_C@_0P@LPKOAMHJ@ErrorDataOrder@
	DD	FLAT:??_C@_0BC@NBCNDILJ@Win32_MemoryArray@
	DD	FLAT:??_C@_0BB@KIDBLMK@ErrorDescription@
	DD	FLAT:??_C@_0BC@NBCNDILJ@Win32_MemoryArray@
	DD	FLAT:??_C@_0BB@CCADGENH@ErrorGranularity@
	DD	FLAT:??_C@_0BC@NBCNDILJ@Win32_MemoryArray@
	DD	FLAT:??_C@_09EPPHMMOH@ErrorInfo@
	DD	FLAT:??_C@_0BC@NBCNDILJ@Win32_MemoryArray@
	DD	FLAT:??_C@_0BB@PNCBAHDK@ErrorMethodology@
	DD	FLAT:??_C@_0BC@NBCNDILJ@Win32_MemoryArray@
	DD	FLAT:??_C@_0BA@DBMDPLBE@ErrorResolution@
	DD	FLAT:??_C@_0BC@NBCNDILJ@Win32_MemoryArray@
	DD	FLAT:??_C@_09LMOKKAAG@ErrorTime@
	DD	FLAT:??_C@_0BC@NBCNDILJ@Win32_MemoryArray@
	DD	FLAT:??_C@_0BC@FEODMBII@ErrorTransferSize@
	DD	FLAT:??_C@_0BC@NBCNDILJ@Win32_MemoryArray@
	DD	FLAT:??_C@_0M@NBIJNNJJ@InstallDate@
	DD	FLAT:??_C@_0BC@NBCNDILJ@Win32_MemoryArray@
	DD	FLAT:??_C@_0O@NDKHIJAE@LastErrorCode@
	DD	FLAT:??_C@_0BC@NBCNDILJ@Win32_MemoryArray@
	DD	FLAT:??_C@_0BG@GMMANAIM@OtherErrorDescription@
	DD	FLAT:??_C@_0BC@NBCNDILJ@Win32_MemoryArray@
	DD	FLAT:??_C@_0BM@NFDEHNHA@PowerManagementCapabilities@
	DD	FLAT:??_C@_0BC@NBCNDILJ@Win32_MemoryArray@
	DD	FLAT:??_C@_0BJ@CFOPGMLH@PowerManagementSupported@
	DD	FLAT:??_C@_0BC@NBCNDILJ@Win32_MemoryArray@
	DD	FLAT:??_C@_07ODOLMOGH@Purpose@
	DD	FLAT:??_C@_0BC@NBCNDILJ@Win32_MemoryArray@
	DD	FLAT:??_C@_06PGDKHFME@Status@
	DD	FLAT:??_C@_0BC@NBCNDILJ@Win32_MemoryArray@
	DD	FLAT:??_C@_0L@PKEHCAEI@StatusInfo@
	DD	FLAT:??_C@_0BD@MHIIAMPP@Win32_MemoryDevice@
	DD	FLAT:??_C@_0M@HHJKGII@PNPDeviceID@
	DD	FLAT:??_C@_0BD@MHIIAMPP@Win32_MemoryDevice@
	DD	FLAT:??_C@_08JLPEJKOE@DeviceID@
	DD	FLAT:??_C@_0BD@MHIIAMPP@Win32_MemoryDevice@
	DD	FLAT:??_C@_0BA@JKJCLFJA@StartingAddress@
	DD	FLAT:??_C@_0BD@MHIIAMPP@Win32_MemoryDevice@
	DD	FLAT:??_C@_0O@DMEOEBEF@EndingAddress@
	DD	FLAT:??_C@_0BD@MHIIAMPP@Win32_MemoryDevice@
	DD	FLAT:??_C@_09JFLKFGKE@BlockSize@
	DD	FLAT:??_C@_0BD@MHIIAMPP@Win32_MemoryDevice@
	DD	FLAT:??_C@_0P@PGINBNEO@NumberOfBlocks@
	DD	FLAT:??_C@_0BD@MHIIAMPP@Win32_MemoryDevice@
	DD	FLAT:??_C@_06IOEANFCI@Access@
	DD	FLAT:??_C@_0BD@MHIIAMPP@Win32_MemoryDevice@
	DD	FLAT:??_C@_0BE@FGEPBFNL@AdditionalErrorData@
	DD	FLAT:??_C@_0BD@MHIIAMPP@Win32_MemoryDevice@
	DD	FLAT:??_C@_0N@MFGCECDI@Availability@
	DD	FLAT:??_C@_0BD@MHIIAMPP@Win32_MemoryDevice@
	DD	FLAT:??_C@_0BH@JDEEEDCN@ConfigManagerErrorCode@
	DD	FLAT:??_C@_0BD@MHIIAMPP@Win32_MemoryDevice@
	DD	FLAT:??_C@_0BI@OBNCDCBF@ConfigManagerUserConfig@
	DD	FLAT:??_C@_0BD@MHIIAMPP@Win32_MemoryDevice@
	DD	FLAT:??_C@_0BB@HJBOPHEK@CorrectableError@
	DD	FLAT:??_C@_0BD@MHIIAMPP@Win32_MemoryDevice@
	DD	FLAT:??_C@_0M@PJGEGKNG@ErrorAccess@
	DD	FLAT:??_C@_0BD@MHIIAMPP@Win32_MemoryDevice@
	DD	FLAT:??_C@_0N@BEELHEFJ@ErrorAddress@
	DD	FLAT:??_C@_0BD@MHIIAMPP@Win32_MemoryDevice@
	DD	FLAT:??_C@_0N@FJHLDHMG@ErrorCleared@
	DD	FLAT:??_C@_0BD@MHIIAMPP@Win32_MemoryDevice@
	DD	FLAT:??_C@_09GOCFECJA@ErrorData@
	DD	FLAT:??_C@_0BD@MHIIAMPP@Win32_MemoryDevice@
	DD	FLAT:??_C@_0P@LPKOAMHJ@ErrorDataOrder@
	DD	FLAT:??_C@_0BD@MHIIAMPP@Win32_MemoryDevice@
	DD	FLAT:??_C@_0BB@KIDBLMK@ErrorDescription@
	DD	FLAT:??_C@_0BD@MHIIAMPP@Win32_MemoryDevice@
	DD	FLAT:??_C@_0BB@CCADGENH@ErrorGranularity@
	DD	FLAT:??_C@_0BD@MHIIAMPP@Win32_MemoryDevice@
	DD	FLAT:??_C@_09EPPHMMOH@ErrorInfo@
	DD	FLAT:??_C@_0BD@MHIIAMPP@Win32_MemoryDevice@
	DD	FLAT:??_C@_0BB@PNCBAHDK@ErrorMethodology@
	DD	FLAT:??_C@_0BD@MHIIAMPP@Win32_MemoryDevice@
	DD	FLAT:??_C@_0BA@DBMDPLBE@ErrorResolution@
	DD	FLAT:??_C@_0BD@MHIIAMPP@Win32_MemoryDevice@
	DD	FLAT:??_C@_09LMOKKAAG@ErrorTime@
	DD	FLAT:??_C@_0BD@MHIIAMPP@Win32_MemoryDevice@
	DD	FLAT:??_C@_0BC@FEODMBII@ErrorTransferSize@
	DD	FLAT:??_C@_0BD@MHIIAMPP@Win32_MemoryDevice@
	DD	FLAT:??_C@_0M@NBIJNNJJ@InstallDate@
	DD	FLAT:??_C@_0BD@MHIIAMPP@Win32_MemoryDevice@
	DD	FLAT:??_C@_0O@NDKHIJAE@LastErrorCode@
	DD	FLAT:??_C@_0BD@MHIIAMPP@Win32_MemoryDevice@
	DD	FLAT:??_C@_0BG@GMMANAIM@OtherErrorDescription@
	DD	FLAT:??_C@_0BD@MHIIAMPP@Win32_MemoryDevice@
	DD	FLAT:??_C@_0BM@NFDEHNHA@PowerManagementCapabilities@
	DD	FLAT:??_C@_0BD@MHIIAMPP@Win32_MemoryDevice@
	DD	FLAT:??_C@_0BJ@CFOPGMLH@PowerManagementSupported@
	DD	FLAT:??_C@_0BD@MHIIAMPP@Win32_MemoryDevice@
	DD	FLAT:??_C@_07ODOLMOGH@Purpose@
	DD	FLAT:??_C@_0BD@MHIIAMPP@Win32_MemoryDevice@
	DD	FLAT:??_C@_06PGDKHFME@Status@
	DD	FLAT:??_C@_0BD@MHIIAMPP@Win32_MemoryDevice@
	DD	FLAT:??_C@_0L@PKEHCAEI@StatusInfo@
	DD	FLAT:??_C@_0BD@MHIIAMPP@Win32_MemoryDevice@
	DD	FLAT:??_C@_0BD@EHELDMNK@SystemLevelAddress@
	DD	FLAT:??_C@_0BF@CGHJBIMG@Win32_PhysicalMemory@
	DD	FLAT:??_C@_03PJHNOEGB@Tag@
	DD	FLAT:??_C@_0BF@CGHJBIMG@Win32_PhysicalMemory@
	DD	FLAT:??_C@_09ELEBPJGH@BankLabel@
	DD	FLAT:??_C@_0BF@CGHJBIMG@Win32_PhysicalMemory@
	DD	FLAT:??_C@_08PINBMPEF@Capacity@
	DD	FLAT:??_C@_0BF@CGHJBIMG@Win32_PhysicalMemory@
	DD	FLAT:??_C@_09KNGBBIL@DataWidth@
	DD	FLAT:??_C@_0BF@CGHJBIMG@Win32_PhysicalMemory@
	DD	FLAT:??_C@_0O@DKGGAIKL@DeviceLocator@
	DD	FLAT:??_C@_0BF@CGHJBIMG@Win32_PhysicalMemory@
	DD	FLAT:??_C@_0L@JPOMKNPI@FormFactor@
	DD	FLAT:??_C@_0BF@CGHJBIMG@Win32_PhysicalMemory@
	DD	FLAT:??_C@_0N@FCOIALPI@HotSwappable@
	DD	FLAT:??_C@_0BF@CGHJBIMG@Win32_PhysicalMemory@
	DD	FLAT:??_C@_0M@NBIJNNJJ@InstallDate@
	DD	FLAT:??_C@_0BF@CGHJBIMG@Win32_PhysicalMemory@
	DD	FLAT:??_C@_0BE@GAJMAAIE@InterleaveDataDepth@
	DD	FLAT:??_C@_0BF@CGHJBIMG@Win32_PhysicalMemory@
	DD	FLAT:??_C@_0BD@OOBFBMPB@InterleavePosition@
	DD	FLAT:??_C@_0BF@CGHJBIMG@Win32_PhysicalMemory@
	DD	FLAT:??_C@_0N@BBNLMPJO@Manufacturer@
	DD	FLAT:??_C@_0BF@CGHJBIMG@Win32_PhysicalMemory@
	DD	FLAT:??_C@_0L@NKIIONIP@MemoryType@
	DD	FLAT:??_C@_0BF@CGHJBIMG@Win32_PhysicalMemory@
	DD	FLAT:??_C@_05NFIJOKEG@Model@
	DD	FLAT:??_C@_0BF@CGHJBIMG@Win32_PhysicalMemory@
	DD	FLAT:??_C@_0BF@DMENANMJ@OtherIdentifyingInfo@
	DD	FLAT:??_C@_0BF@CGHJBIMG@Win32_PhysicalMemory@
	DD	FLAT:??_C@_0L@MIOPIENN@PartNumber@
	DD	FLAT:??_C@_0BF@CGHJBIMG@Win32_PhysicalMemory@
	DD	FLAT:??_C@_0O@MJAFBIEI@PositionInRow@
	DD	FLAT:??_C@_0BF@CGHJBIMG@Win32_PhysicalMemory@
	DD	FLAT:??_C@_09HKGEBMAI@PoweredOn@
	DD	FLAT:??_C@_0BF@CGHJBIMG@Win32_PhysicalMemory@
	DD	FLAT:??_C@_09DADBKOHO@Removable@
	DD	FLAT:??_C@_0BF@CGHJBIMG@Win32_PhysicalMemory@
	DD	FLAT:??_C@_0M@KLOLJEDG@Replaceable@
	DD	FLAT:??_C@_0BF@CGHJBIMG@Win32_PhysicalMemory@
	DD	FLAT:??_C@_0N@FPJJBBNM@SerialNumber@
	DD	FLAT:??_C@_0BF@CGHJBIMG@Win32_PhysicalMemory@
	DD	FLAT:??_C@_03LMAAELJP@SKU@
	DD	FLAT:??_C@_0BF@CGHJBIMG@Win32_PhysicalMemory@
	DD	FLAT:??_C@_05HOIAGEJD@Speed@
	DD	FLAT:??_C@_0BF@CGHJBIMG@Win32_PhysicalMemory@
	DD	FLAT:??_C@_06PGDKHFME@Status@
	DD	FLAT:??_C@_0BF@CGHJBIMG@Win32_PhysicalMemory@
	DD	FLAT:??_C@_0L@EONKMHCB@TotalWidth@
	DD	FLAT:??_C@_0BF@CGHJBIMG@Win32_PhysicalMemory@
	DD	FLAT:??_C@_0L@NHBAOOAD@TypeDetail@
	DD	FLAT:??_C@_0BF@CGHJBIMG@Win32_PhysicalMemory@
	DD	FLAT:??_C@_07NGFJPNPN@Version@
	DD	FLAT:??_C@_0BK@FKMONDCJ@Win32_PhysicalMemoryArray@
	DD	FLAT:??_C@_03PJHNOEGB@Tag@
	DD	FLAT:??_C@_0BK@FKMONDCJ@Win32_PhysicalMemoryArray@
	DD	FLAT:??_C@_0N@BBNLMPJO@Manufacturer@
	DD	FLAT:??_C@_0BK@FKMONDCJ@Win32_PhysicalMemoryArray@
	DD	FLAT:??_C@_0N@FPJJBBNM@SerialNumber@
	DD	FLAT:??_C@_0BK@FKMONDCJ@Win32_PhysicalMemoryArray@
	DD	FLAT:??_C@_05NFIJOKEG@Model@
	DD	FLAT:??_C@_0BK@FKMONDCJ@Win32_PhysicalMemoryArray@
	DD	FLAT:??_C@_07NGFJPNPN@Version@
	DD	FLAT:??_C@_0BK@FKMONDCJ@Win32_PhysicalMemoryArray@
	DD	FLAT:??_C@_0O@EOCLGIEK@MemoryDevices@
	DD	FLAT:??_C@_0BK@FKMONDCJ@Win32_PhysicalMemoryArray@
	DD	FLAT:??_C@_05BOMFGPKE@Depth@
	DD	FLAT:??_C@_0BK@FKMONDCJ@Win32_PhysicalMemoryArray@
	DD	FLAT:??_C@_06HCAKHJJK@Height@
	DD	FLAT:??_C@_0BK@FKMONDCJ@Win32_PhysicalMemoryArray@
	DD	FLAT:??_C@_05IBAMDCFI@Width@
	DD	FLAT:??_C@_0BK@FKMONDCJ@Win32_PhysicalMemoryArray@
	DD	FLAT:??_C@_06ODJMJFLN@Weight@
	DD	FLAT:??_C@_0BK@FKMONDCJ@Win32_PhysicalMemoryArray@
	DD	FLAT:??_C@_0N@FCOIALPI@HotSwappable@
	DD	FLAT:??_C@_0BK@FKMONDCJ@Win32_PhysicalMemoryArray@
	DD	FLAT:??_C@_0M@NBIJNNJJ@InstallDate@
	DD	FLAT:??_C@_0BK@FKMONDCJ@Win32_PhysicalMemoryArray@
	DD	FLAT:??_C@_08KDOEBHGA@Location@
	DD	FLAT:??_C@_0BK@FKMONDCJ@Win32_PhysicalMemoryArray@
	DD	FLAT:??_C@_0M@LPAFCHAO@MaxCapacity@
	DD	FLAT:??_C@_0BK@FKMONDCJ@Win32_PhysicalMemoryArray@
	DD	FLAT:??_C@_0BG@BDKPEMKD@MemoryErrorCorrection@
	DD	FLAT:??_C@_0BK@FKMONDCJ@Win32_PhysicalMemoryArray@
	DD	FLAT:??_C@_0BF@DMENANMJ@OtherIdentifyingInfo@
	DD	FLAT:??_C@_0BK@FKMONDCJ@Win32_PhysicalMemoryArray@
	DD	FLAT:??_C@_0L@MIOPIENN@PartNumber@
	DD	FLAT:??_C@_0BK@FKMONDCJ@Win32_PhysicalMemoryArray@
	DD	FLAT:??_C@_09HKGEBMAI@PoweredOn@
	DD	FLAT:??_C@_0BK@FKMONDCJ@Win32_PhysicalMemoryArray@
	DD	FLAT:??_C@_09DADBKOHO@Removable@
	DD	FLAT:??_C@_0BK@FKMONDCJ@Win32_PhysicalMemoryArray@
	DD	FLAT:??_C@_0M@KLOLJEDG@Replaceable@
	DD	FLAT:??_C@_0BK@FKMONDCJ@Win32_PhysicalMemoryArray@
	DD	FLAT:??_C@_03LMAAELJP@SKU@
	DD	FLAT:??_C@_0BK@FKMONDCJ@Win32_PhysicalMemoryArray@
	DD	FLAT:??_C@_06PGDKHFME@Status@
	DD	FLAT:??_C@_0BK@FKMONDCJ@Win32_PhysicalMemoryArray@
	DD	FLAT:??_C@_03GMFFJGJI@Use@
	DD	FLAT:??_C@_0BD@CLOLHCII@Win32_SMBIOSMemory@
	DD	FLAT:??_C@_0M@HHJKGII@PNPDeviceID@
	DD	FLAT:??_C@_0BD@CLOLHCII@Win32_SMBIOSMemory@
	DD	FLAT:??_C@_08JLPEJKOE@DeviceID@
	DD	FLAT:??_C@_0BD@CLOLHCII@Win32_SMBIOSMemory@
	DD	FLAT:??_C@_0BA@JKJCLFJA@StartingAddress@
	DD	FLAT:??_C@_0BD@CLOLHCII@Win32_SMBIOSMemory@
	DD	FLAT:??_C@_0O@DMEOEBEF@EndingAddress@
	DD	FLAT:??_C@_0BD@CLOLHCII@Win32_SMBIOSMemory@
	DD	FLAT:??_C@_06IOEANFCI@Access@
	DD	FLAT:??_C@_0BD@CLOLHCII@Win32_SMBIOSMemory@
	DD	FLAT:??_C@_0BE@FGEPBFNL@AdditionalErrorData@
	DD	FLAT:??_C@_0BD@CLOLHCII@Win32_SMBIOSMemory@
	DD	FLAT:??_C@_0N@MFGCECDI@Availability@
	DD	FLAT:??_C@_0BD@CLOLHCII@Win32_SMBIOSMemory@
	DD	FLAT:??_C@_09JFLKFGKE@BlockSize@
	DD	FLAT:??_C@_0BD@CLOLHCII@Win32_SMBIOSMemory@
	DD	FLAT:??_C@_0BH@JDEEEDCN@ConfigManagerErrorCode@
	DD	FLAT:??_C@_0BD@CLOLHCII@Win32_SMBIOSMemory@
	DD	FLAT:??_C@_0BI@OBNCDCBF@ConfigManagerUserConfig@
	DD	FLAT:??_C@_0BD@CLOLHCII@Win32_SMBIOSMemory@
	DD	FLAT:??_C@_0BB@HJBOPHEK@CorrectableError@
	DD	FLAT:??_C@_0BD@CLOLHCII@Win32_SMBIOSMemory@
	DD	FLAT:??_C@_0M@PJGEGKNG@ErrorAccess@
	DD	FLAT:??_C@_0BD@CLOLHCII@Win32_SMBIOSMemory@
	DD	FLAT:??_C@_0N@BEELHEFJ@ErrorAddress@
	DD	FLAT:??_C@_0BD@CLOLHCII@Win32_SMBIOSMemory@
	DD	FLAT:??_C@_0N@FJHLDHMG@ErrorCleared@
	DD	FLAT:??_C@_0BD@CLOLHCII@Win32_SMBIOSMemory@
	DD	FLAT:??_C@_09GOCFECJA@ErrorData@
	DD	FLAT:??_C@_0BD@CLOLHCII@Win32_SMBIOSMemory@
	DD	FLAT:??_C@_0P@LPKOAMHJ@ErrorDataOrder@
	DD	FLAT:??_C@_0BD@CLOLHCII@Win32_SMBIOSMemory@
	DD	FLAT:??_C@_0BB@KIDBLMK@ErrorDescription@
	DD	FLAT:??_C@_0BD@CLOLHCII@Win32_SMBIOSMemory@
	DD	FLAT:??_C@_09EPPHMMOH@ErrorInfo@
	DD	FLAT:??_C@_0BD@CLOLHCII@Win32_SMBIOSMemory@
	DD	FLAT:??_C@_0BB@PNCBAHDK@ErrorMethodology@
	DD	FLAT:??_C@_0BD@CLOLHCII@Win32_SMBIOSMemory@
	DD	FLAT:??_C@_0BA@DBMDPLBE@ErrorResolution@
	DD	FLAT:??_C@_0BD@CLOLHCII@Win32_SMBIOSMemory@
	DD	FLAT:??_C@_09LMOKKAAG@ErrorTime@
	DD	FLAT:??_C@_0BD@CLOLHCII@Win32_SMBIOSMemory@
	DD	FLAT:??_C@_0BC@FEODMBII@ErrorTransferSize@
	DD	FLAT:??_C@_0BD@CLOLHCII@Win32_SMBIOSMemory@
	DD	FLAT:??_C@_0M@NBIJNNJJ@InstallDate@
	DD	FLAT:??_C@_0BD@CLOLHCII@Win32_SMBIOSMemory@
	DD	FLAT:??_C@_0O@NDKHIJAE@LastErrorCode@
	DD	FLAT:??_C@_0BD@CLOLHCII@Win32_SMBIOSMemory@
	DD	FLAT:??_C@_0P@PGINBNEO@NumberOfBlocks@
	DD	FLAT:??_C@_0BD@CLOLHCII@Win32_SMBIOSMemory@
	DD	FLAT:??_C@_0BG@GMMANAIM@OtherErrorDescription@
	DD	FLAT:??_C@_0BD@CLOLHCII@Win32_SMBIOSMemory@
	DD	FLAT:??_C@_0BM@NFDEHNHA@PowerManagementCapabilities@
	DD	FLAT:??_C@_0BD@CLOLHCII@Win32_SMBIOSMemory@
	DD	FLAT:??_C@_0BJ@CFOPGMLH@PowerManagementSupported@
	DD	FLAT:??_C@_0BD@CLOLHCII@Win32_SMBIOSMemory@
	DD	FLAT:??_C@_07ODOLMOGH@Purpose@
	DD	FLAT:??_C@_0BD@CLOLHCII@Win32_SMBIOSMemory@
	DD	FLAT:??_C@_06PGDKHFME@Status@
	DD	FLAT:??_C@_0BD@CLOLHCII@Win32_SMBIOSMemory@
	DD	FLAT:??_C@_0L@PKEHCAEI@StatusInfo@
	DD	FLAT:??_C@_0BD@CLOLHCII@Win32_SMBIOSMemory@
	DD	FLAT:??_C@_0BD@EHELDMNK@SystemLevelAddress@
	DD	FLAT:??_C@_0BL@GIIBFPAF@Win32_SystemMemoryResource@
	DD	FLAT:??_C@_04FABLJDN@Name@
	DD	FLAT:??_C@_0BL@GIIBFPAF@Win32_SystemMemoryResource@
	DD	FLAT:??_C@_0M@NBIJNNJJ@InstallDate@
	DD	FLAT:??_C@_0BL@GIIBFPAF@Win32_SystemMemoryResource@
	DD	FLAT:??_C@_06PGDKHFME@Status@
	DD	FLAT:??_C@_0BF@GMDCFJKK@Win32_ComputerSystem@
	DD	FLAT:??_C@_04FABLJDN@Name@
	DD	FLAT:??_C@_0BF@GMDCFJKK@Win32_ComputerSystem@
	DD	FLAT:??_C@_0N@BBNLMPJO@Manufacturer@
	DD	FLAT:??_C@_0BF@GMDCFJKK@Win32_ComputerSystem@
	DD	FLAT:??_C@_05NFIJOKEG@Model@
	DD	FLAT:??_C@_0BF@GMDCFJKK@Win32_ComputerSystem@
	DD	FLAT:??_C@_0L@GEHHDFHH@SystemType@
	DD	FLAT:??_C@_0BF@GMDCFJKK@Win32_ComputerSystem@
	DD	FLAT:??_C@_0BD@KEFEPCEP@NumberOfProcessors@
	DD	FLAT:??_C@_0BF@GMDCFJKK@Win32_ComputerSystem@
	DD	FLAT:??_C@_0BK@OBFFNDNO@NumberOfLogicalProcessors@
	DD	FLAT:??_C@_0BF@GMDCFJKK@Win32_ComputerSystem@
	DD	FLAT:??_C@_08KAFEAHEM@UserName@
	DD	FLAT:??_C@_0BF@GMDCFJKK@Win32_ComputerSystem@
	DD	FLAT:??_C@_0BE@BPKIAGEB@AdminPasswordStatus@
	DD	FLAT:??_C@_0BF@GMDCFJKK@Win32_ComputerSystem@
	DD	FLAT:??_C@_0BJ@GMKDMOMC@AutomaticManagedPagefile@
	DD	FLAT:??_C@_0BF@GMDCFJKK@Win32_ComputerSystem@
	DD	FLAT:??_C@_0BJ@CCCKPNOE@AutomaticResetBootOption@
	DD	FLAT:??_C@_0BF@GMDCFJKK@Win32_ComputerSystem@
	DD	FLAT:??_C@_0BJ@HFJMLPDD@AutomaticResetCapability@
	DD	FLAT:??_C@_0BF@GMDCFJKK@Win32_ComputerSystem@
	DD	FLAT:??_C@_0BC@LOIFGJNH@BootOptionOnLimit@
	DD	FLAT:??_C@_0BF@GMDCFJKK@Win32_ComputerSystem@
	DD	FLAT:??_C@_0BF@NHNHHNLM@BootOptionOnWatchDog@
	DD	FLAT:??_C@_0BF@GMDCFJKK@Win32_ComputerSystem@
	DD	FLAT:??_C@_0BB@KCAGDBFG@BootROMSupported@
	DD	FLAT:??_C@_0BF@GMDCFJKK@Win32_ComputerSystem@
	DD	FLAT:??_C@_0M@FAIFADKE@BootupState@
	DD	FLAT:??_C@_0BF@GMDCFJKK@Win32_ComputerSystem@
	DD	FLAT:??_C@_0BD@NPOFELCJ@ChassisBootupState@
	DD	FLAT:??_C@_0BF@GMDCFJKK@Win32_ComputerSystem@
	DD	FLAT:??_C@_0BA@KEBGPOLH@CurrentTimeZone@
	DD	FLAT:??_C@_0BF@GMDCFJKK@Win32_ComputerSystem@
	DD	FLAT:??_C@_0BB@PNOOHJBN@DaylightInEffect@
	DD	FLAT:??_C@_0BF@GMDCFJKK@Win32_ComputerSystem@
	DD	FLAT:??_C@_0M@OHKMKKDH@Description@
	DD	FLAT:??_C@_0BF@GMDCFJKK@Win32_ComputerSystem@
	DD	FLAT:??_C@_0M@HMDMJNAL@DNSHostName@
	DD	FLAT:??_C@_0BF@GMDCFJKK@Win32_ComputerSystem@
	DD	FLAT:??_C@_06HFDFFJHI@Domain@
	DD	FLAT:??_C@_0BF@GMDCFJKK@Win32_ComputerSystem@
	DD	FLAT:??_C@_0L@DHGJAMBB@DomainRole@
	DD	FLAT:??_C@_0BF@GMDCFJKK@Win32_ComputerSystem@
	DD	FLAT:??_C@_0BK@DMLHGPE@EnableDaylightSavingsTime@
	DD	FLAT:??_C@_0BF@GMDCFJKK@Win32_ComputerSystem@
	DD	FLAT:??_C@_0BG@OFHEPCGG@FrontPanelResetStatus@
	DD	FLAT:??_C@_0BF@GMDCFJKK@Win32_ComputerSystem@
	DD	FLAT:??_C@_0BC@MOGIEFCC@InfraredSupported@
	DD	FLAT:??_C@_0BF@GMDCFJKK@Win32_ComputerSystem@
	DD	FLAT:??_C@_0BA@FHFMLOBH@InitialLoadInfo@
	DD	FLAT:??_C@_0BF@GMDCFJKK@Win32_ComputerSystem@
	DD	FLAT:??_C@_0M@NBIJNNJJ@InstallDate@
	DD	FLAT:??_C@_0BF@GMDCFJKK@Win32_ComputerSystem@
	DD	FLAT:??_C@_0BH@NPMFKEOG@KeyboardPasswordStatus@
	DD	FLAT:??_C@_0BF@GMDCFJKK@Win32_ComputerSystem@
	DD	FLAT:??_C@_0N@FDMFJCLB@LastLoadInfo@
	DD	FLAT:??_C@_0BF@GMDCFJKK@Win32_ComputerSystem@
	DD	FLAT:??_C@_0L@INCFKHMA@NameFormat@
	DD	FLAT:??_C@_0BF@GMDCFJKK@Win32_ComputerSystem@
	DD	FLAT:??_C@_0BJ@OJMPPEPI@NetworkServerModeEnabled@
	DD	FLAT:??_C@_0BF@GMDCFJKK@Win32_ComputerSystem@
	DD	FLAT:??_C@_0O@KFCLFAME@OEMLogoBitmap@
	DD	FLAT:??_C@_0BF@GMDCFJKK@Win32_ComputerSystem@
	DD	FLAT:??_C@_0P@DEDOEGFN@OEMStringArray@
	DD	FLAT:??_C@_0BF@GMDCFJKK@Win32_ComputerSystem@
	DD	FLAT:??_C@_0N@BDBDHMKI@PartOfDomain@
	DD	FLAT:??_C@_0BF@GMDCFJKK@Win32_ComputerSystem@
	DD	FLAT:??_C@_0BA@BAAGJACJ@PauseAfterReset@
	DD	FLAT:??_C@_0BF@GMDCFJKK@Win32_ComputerSystem@
	DD	FLAT:??_C@_0N@EOPDJAGI@PCSystemType@
	DD	FLAT:??_C@_0BF@GMDCFJKK@Win32_ComputerSystem@
	DD	FLAT:??_C@_0BM@NFDEHNHA@PowerManagementCapabilities@
	DD	FLAT:??_C@_0BF@GMDCFJKK@Win32_ComputerSystem@
	DD	FLAT:??_C@_0BJ@CFOPGMLH@PowerManagementSupported@
	DD	FLAT:??_C@_0BF@GMDCFJKK@Win32_ComputerSystem@
	DD	FLAT:??_C@_0BG@MGBDJIM@PowerOnPasswordStatus@
	DD	FLAT:??_C@_0BF@GMDCFJKK@Win32_ComputerSystem@
	DD	FLAT:??_C@_0L@PFLEPOFF@PowerState@
	DD	FLAT:??_C@_0BF@GMDCFJKK@Win32_ComputerSystem@
	DD	FLAT:??_C@_0BB@PGEJAGBJ@PowerSupplyState@
	DD	FLAT:??_C@_0BF@GMDCFJKK@Win32_ComputerSystem@
	DD	FLAT:??_C@_0BE@GNDJOKHP@PrimaryOwnerContact@
	DD	FLAT:??_C@_0BF@GMDCFJKK@Win32_ComputerSystem@
	DD	FLAT:??_C@_0BB@CIHLIHGG@PrimaryOwnerName@
	DD	FLAT:??_C@_0BF@GMDCFJKK@Win32_ComputerSystem@
	DD	FLAT:??_C@_0BA@JGMMLHGF@ResetCapability@
	DD	FLAT:??_C@_0BF@GMDCFJKK@Win32_ComputerSystem@
	DD	FLAT:??_C@_0L@NDDNCBN@ResetCount@
	DD	FLAT:??_C@_0BF@GMDCFJKK@Win32_ComputerSystem@
	DD	FLAT:??_C@_0L@ODMHPMJN@ResetLimit@
	DD	FLAT:??_C@_0BF@GMDCFJKK@Win32_ComputerSystem@
	DD	FLAT:??_C@_05CPOHHMHJ@Roles@
	DD	FLAT:??_C@_0BF@GMDCFJKK@Win32_ComputerSystem@
	DD	FLAT:??_C@_06PGDKHFME@Status@
	DD	FLAT:??_C@_0BF@GMDCFJKK@Win32_ComputerSystem@
	DD	FLAT:??_C@_0BK@GHHBNFKI@SupportContactDescription@
	DD	FLAT:??_C@_0BF@GMDCFJKK@Win32_ComputerSystem@
	DD	FLAT:??_C@_0BD@MJBJDOPG@SystemStartupDelay@
	DD	FLAT:??_C@_0BF@GMDCFJKK@Win32_ComputerSystem@
	DD	FLAT:??_C@_0BF@HNHDCNN@SystemStartupOptions@
	DD	FLAT:??_C@_0BF@GMDCFJKK@Win32_ComputerSystem@
	DD	FLAT:??_C@_0BF@IKJAHOGK@SystemStartupSetting@
	DD	FLAT:??_C@_0BF@GMDCFJKK@Win32_ComputerSystem@
	DD	FLAT:??_C@_0N@HHACICKK@ThermalState@
	DD	FLAT:??_C@_0BF@GMDCFJKK@Win32_ComputerSystem@
	DD	FLAT:??_C@_0BE@LPDNMOEG@TotalPhysicalMemory@
	DD	FLAT:??_C@_0BF@GMDCFJKK@Win32_ComputerSystem@
	DD	FLAT:??_C@_0L@FAPFOCCC@WakeUpType@
	DD	FLAT:??_C@_0BF@GMDCFJKK@Win32_ComputerSystem@
	DD	FLAT:??_C@_09CLAAHCGK@Workgroup@
	DD	FLAT:??_C@_0BM@IEKJLBKB@Win32_ComputerSystemProduct@
	DD	FLAT:??_C@_04FABLJDN@Name@
	DD	FLAT:??_C@_0BM@IEKJLBKB@Win32_ComputerSystemProduct@
	DD	FLAT:??_C@_06LGGLFMPE@Vendor@
	DD	FLAT:??_C@_0BM@IEKJLBKB@Win32_ComputerSystemProduct@
	DD	FLAT:??_C@_07NGFJPNPN@Version@
	DD	FLAT:??_C@_0BM@IEKJLBKB@Win32_ComputerSystemProduct@
	DD	FLAT:??_C@_04NOKDILIH@UUID@
	DD	FLAT:??_C@_0BM@IEKJLBKB@Win32_ComputerSystemProduct@
	DD	FLAT:??_C@_0BC@IBEJLMDM@IdentifyingNumber@
	DD	FLAT:??_C@_0BM@IEKJLBKB@Win32_ComputerSystemProduct@
	DD	FLAT:??_C@_09ODBEMGCH@SKUNumber@
	DD	FLAT:??_C@_0O@LCAALOJJ@Win32_Product@
	DD	FLAT:??_C@_04FABLJDN@Name@
	DD	FLAT:??_C@_0O@LCAALOJJ@Win32_Product@
	DD	FLAT:??_C@_07NGFJPNPN@Version@
	DD	FLAT:??_C@_0O@LCAALOJJ@Win32_Product@
	DD	FLAT:??_C@_09IHHILKBJ@ProductID@
	DD	FLAT:??_C@_0O@LCAALOJJ@Win32_Product@
	DD	FLAT:??_C@_06LGGLFMPE@Vendor@
	DD	FLAT:??_C@_0O@LCAALOJJ@Win32_Product@
	DD	FLAT:??_C@_0P@CAOEPKFE@AssignmentType@
	DD	FLAT:??_C@_0O@LCAALOJJ@Win32_Product@
	DD	FLAT:??_C@_0BC@IBEJLMDM@IdentifyingNumber@
	DD	FLAT:??_C@_0O@LCAALOJJ@Win32_Product@
	DD	FLAT:??_C@_0M@NBIJNNJJ@InstallDate@
	DD	FLAT:??_C@_0O@LCAALOJJ@Win32_Product@
	DD	FLAT:??_C@_0BA@DLLPKNMD@InstallLocation@
	DD	FLAT:??_C@_0O@LCAALOJJ@Win32_Product@
	DD	FLAT:??_C@_0N@FNHIHJOE@InstallState@
	DD	FLAT:??_C@_0O@LCAALOJJ@Win32_Product@
	DD	FLAT:??_C@_08LMOOJGEG@HelpLink@
	DD	FLAT:??_C@_0O@LCAALOJJ@Win32_Product@
	DD	FLAT:??_C@_0O@PPCFOOHH@HelpTelephone@
	DD	FLAT:??_C@_0O@LCAALOJJ@Win32_Product@
	DD	FLAT:??_C@_0O@GCCHCBIO@InstallSource@
	DD	FLAT:??_C@_0O@LCAALOJJ@Win32_Product@
	DD	FLAT:??_C@_08BENDAOKD@Language@
	DD	FLAT:??_C@_0O@LCAALOJJ@Win32_Product@
	DD	FLAT:??_C@_0N@ONDNCIN@LocalPackage@
	DD	FLAT:??_C@_0O@LCAALOJJ@Win32_Product@
	DD	FLAT:??_C@_0N@LIDMIFHK@PackageCache@
	DD	FLAT:??_C@_0O@LCAALOJJ@Win32_Product@
	DD	FLAT:??_C@_0M@OMMGPPBL@PackageCode@
	DD	FLAT:??_C@_0O@LCAALOJJ@Win32_Product@
	DD	FLAT:??_C@_0M@PLFIHHBG@PackageName@
	DD	FLAT:??_C@_0O@LCAALOJJ@Win32_Product@
	DD	FLAT:??_C@_08KOFIEIPM@RegOwner@
	DD	FLAT:??_C@_0O@LCAALOJJ@Win32_Product@
	DD	FLAT:??_C@_0L@BDBMLIBF@RegCompany@
	DD	FLAT:??_C@_0O@LCAALOJJ@Win32_Product@
	DD	FLAT:??_C@_09ODBEMGCH@SKUNumber@
	DD	FLAT:??_C@_0O@LCAALOJJ@Win32_Product@
	DD	FLAT:??_C@_0L@LNLOEOEC@Transforms@
	DD	FLAT:??_C@_0O@LCAALOJJ@Win32_Product@
	DD	FLAT:??_C@_0N@CIJCJNDA@URLInfoAbout@
	DD	FLAT:??_C@_0O@LCAALOJJ@Win32_Product@
	DD	FLAT:??_C@_0O@FDAGMPND@URLUpdateInfo@
	DD	FLAT:??_C@_0O@LCAALOJJ@Win32_Product@
	DD	FLAT:??_C@_09JCLOCIPO@WordCount@
	DD	FLAT:??_C@_0BK@FHHANEEI@Win32_QuickFixEngineering@
	DD	FLAT:??_C@_04FABLJDN@Name@
	DD	FLAT:??_C@_0BK@FHHANEEI@Win32_QuickFixEngineering@
	DD	FLAT:??_C@_08GFKGEEBB@HotFixID@
	DD	FLAT:??_C@_0BK@FHHANEEI@Win32_QuickFixEngineering@
	DD	FLAT:??_C@_0M@NBIJNNJJ@InstallDate@
	DD	FLAT:??_C@_0BK@FHHANEEI@Win32_QuickFixEngineering@
	DD	FLAT:??_C@_0M@NMGHOPGA@InstalledBy@
	DD	FLAT:??_C@_0BK@FHHANEEI@Win32_QuickFixEngineering@
	DD	FLAT:??_C@_0M@NBDMPIKF@InstalledOn@
	DD	FLAT:??_C@_0BK@FHHANEEI@Win32_QuickFixEngineering@
	DD	FLAT:??_C@_07OJKFJLLK@Caption@
	DD	FLAT:??_C@_0BK@FHHANEEI@Win32_QuickFixEngineering@
	DD	FLAT:??_C@_0M@OHKMKKDH@Description@
	DD	FLAT:??_C@_0BK@FHHANEEI@Win32_QuickFixEngineering@
	DD	FLAT:??_C@_0M@PIGNGIJB@FixComments@
	DD	FLAT:??_C@_0BK@FHHANEEI@Win32_QuickFixEngineering@
	DD	FLAT:??_C@_0BE@FBEKBLIJ@ServicePackInEffect@
	DD	FLAT:??_C@_0BK@FHHANEEI@Win32_QuickFixEngineering@
	DD	FLAT:??_C@_06PGDKHFME@Status@
	DD	FLAT:??_C@_0BE@DKANKDCG@Win32_Refrigeration@
	DD	FLAT:??_C@_04FABLJDN@Name@
	DD	FLAT:??_C@_0BE@DKANKDCG@Win32_Refrigeration@
	DD	FLAT:??_C@_0M@HHJKGII@PNPDeviceID@
	DD	FLAT:??_C@_0BE@DKANKDCG@Win32_Refrigeration@
	DD	FLAT:??_C@_08JLPEJKOE@DeviceID@
	DD	FLAT:??_C@_0BE@DKANKDCG@Win32_Refrigeration@
	DD	FLAT:??_C@_0O@PBOKHICP@ActiveCooling@
	DD	FLAT:??_C@_0BE@DKANKDCG@Win32_Refrigeration@
	DD	FLAT:??_C@_0N@MFGCECDI@Availability@
	DD	FLAT:??_C@_0BE@DKANKDCG@Win32_Refrigeration@
	DD	FLAT:??_C@_07OJKFJLLK@Caption@
	DD	FLAT:??_C@_0BE@DKANKDCG@Win32_Refrigeration@
	DD	FLAT:??_C@_0BH@JDEEEDCN@ConfigManagerErrorCode@
	DD	FLAT:??_C@_0BE@DKANKDCG@Win32_Refrigeration@
	DD	FLAT:??_C@_0BI@OBNCDCBF@ConfigManagerUserConfig@
	DD	FLAT:??_C@_0BE@DKANKDCG@Win32_Refrigeration@
	DD	FLAT:??_C@_0M@OHKMKKDH@Description@
	DD	FLAT:??_C@_0BE@DKANKDCG@Win32_Refrigeration@
	DD	FLAT:??_C@_0N@FJHLDHMG@ErrorCleared@
	DD	FLAT:??_C@_0BE@DKANKDCG@Win32_Refrigeration@
	DD	FLAT:??_C@_0BB@KIDBLMK@ErrorDescription@
	DD	FLAT:??_C@_0BE@DKANKDCG@Win32_Refrigeration@
	DD	FLAT:??_C@_0M@NBIJNNJJ@InstallDate@
	DD	FLAT:??_C@_0BE@DKANKDCG@Win32_Refrigeration@
	DD	FLAT:??_C@_0O@NDKHIJAE@LastErrorCode@
	DD	FLAT:??_C@_0BE@DKANKDCG@Win32_Refrigeration@
	DD	FLAT:??_C@_0BM@NFDEHNHA@PowerManagementCapabilities@
	DD	FLAT:??_C@_0BE@DKANKDCG@Win32_Refrigeration@
	DD	FLAT:??_C@_0BJ@CFOPGMLH@PowerManagementSupported@
	DD	FLAT:??_C@_0BE@DKANKDCG@Win32_Refrigeration@
	DD	FLAT:??_C@_06PGDKHFME@Status@
	DD	FLAT:??_C@_0BE@DKANKDCG@Win32_Refrigeration@
	DD	FLAT:??_C@_0L@PKEHCAEI@StatusInfo@
	DD	FLAT:??_C@_0P@OGGGECNI@Win32_Registry@
	DD	FLAT:??_C@_04FABLJDN@Name@
	DD	FLAT:??_C@_0P@OGGGECNI@Win32_Registry@
	DD	FLAT:??_C@_0M@MLALLFJB@CurrentSize@
	DD	FLAT:??_C@_0P@OGGGECNI@Win32_Registry@
	DD	FLAT:??_C@_0M@NBIJNNJJ@InstallDate@
	DD	FLAT:??_C@_0P@OGGGECNI@Win32_Registry@
	DD	FLAT:??_C@_0M@JHEHBNHB@MaximumSize@
	DD	FLAT:??_C@_0P@OGGGECNI@Win32_Registry@
	DD	FLAT:??_C@_0N@JHIKPPPP@ProposedSize@
	DD	FLAT:??_C@_0P@OGGGECNI@Win32_Registry@
	DD	FLAT:??_C@_06PGDKHFME@Status@
	DD	FLAT:??_C@_0BE@DHOOODEL@Win32_SystemAccount@
	DD	FLAT:??_C@_04FABLJDN@Name@
	DD	FLAT:??_C@_0BE@DHOOODEL@Win32_SystemAccount@
	DD	FLAT:??_C@_03OMFNLMOB@SID@
	DD	FLAT:??_C@_0BE@DHOOODEL@Win32_SystemAccount@
	DD	FLAT:??_C@_06HFDFFJHI@Domain@
	DD	FLAT:??_C@_0BE@DHOOODEL@Win32_SystemAccount@
	DD	FLAT:??_C@_0M@NBIJNNJJ@InstallDate@
	DD	FLAT:??_C@_0BE@DHOOODEL@Win32_SystemAccount@
	DD	FLAT:??_C@_0N@FPKOIMIG@LocalAccount@
	DD	FLAT:??_C@_0BE@DHOOODEL@Win32_SystemAccount@
	DD	FLAT:??_C@_07JDPBNNMM@SIDType@
	DD	FLAT:??_C@_0BE@DHOOODEL@Win32_SystemAccount@
	DD	FLAT:??_C@_06PGDKHFME@Status@
	DD	FLAT:??_C@_0BD@GGPCAOMO@Win32_SystemDriver@
	DD	FLAT:??_C@_04FABLJDN@Name@
	DD	FLAT:??_C@_0BD@GGPCAOMO@Win32_SystemDriver@
	DD	FLAT:??_C@_0M@MLHPPPJP@DisplayName@
	DD	FLAT:??_C@_0BD@GGPCAOMO@Win32_SystemDriver@
	DD	FLAT:??_C@_08LHLJMCNC@PathName@
	DD	FLAT:??_C@_0BD@GGPCAOMO@Win32_SystemDriver@
	DD	FLAT:??_C@_0M@MEIJGDEJ@AcceptPause@
	DD	FLAT:??_C@_0BD@GGPCAOMO@Win32_SystemDriver@
	DD	FLAT:??_C@_0L@MPAKMMDG@AcceptStop@
	DD	FLAT:??_C@_0BD@GGPCAOMO@Win32_SystemDriver@
	DD	FLAT:??_C@_0BA@DKLNMHH@DesktopInteract@
	DD	FLAT:??_C@_0BD@GGPCAOMO@Win32_SystemDriver@
	DD	FLAT:??_C@_0N@GPBKMKLE@ErrorControl@
	DD	FLAT:??_C@_0BD@GGPCAOMO@Win32_SystemDriver@
	DD	FLAT:??_C@_08FHJJFIAP@ExitCode@
	DD	FLAT:??_C@_0BD@GGPCAOMO@Win32_SystemDriver@
	DD	FLAT:??_C@_0M@NBIJNNJJ@InstallDate@
	DD	FLAT:??_C@_0BD@GGPCAOMO@Win32_SystemDriver@
	DD	FLAT:??_C@_0BI@JAIDFKNN@ServiceSpecificExitCode@
	DD	FLAT:??_C@_0BD@GGPCAOMO@Win32_SystemDriver@
	DD	FLAT:??_C@_0M@CFFFGGEC@ServiceType@
	DD	FLAT:??_C@_0BD@GGPCAOMO@Win32_SystemDriver@
	DD	FLAT:??_C@_07LCDJNPHI@Started@
	DD	FLAT:??_C@_0BD@GGPCAOMO@Win32_SystemDriver@
	DD	FLAT:??_C@_09IAGOJBFI@StartMode@
	DD	FLAT:??_C@_0BD@GGPCAOMO@Win32_SystemDriver@
	DD	FLAT:??_C@_09CIMAKHDE@StartName@
	DD	FLAT:??_C@_0BD@GGPCAOMO@Win32_SystemDriver@
	DD	FLAT:??_C@_05JNKNAC@State@
	DD	FLAT:??_C@_0BD@GGPCAOMO@Win32_SystemDriver@
	DD	FLAT:??_C@_06PGDKHFME@Status@
	DD	FLAT:??_C@_0BD@GGPCAOMO@Win32_SystemDriver@
	DD	FLAT:??_C@_05KFFLJNBG@TagId@
	DD	FLAT:??_C@_0BG@COLMHJCF@Win32_SystemEnclosure@
	DD	FLAT:??_C@_03PJHNOEGB@Tag@
	DD	FLAT:??_C@_0BG@COLMHJCF@Win32_SystemEnclosure@
	DD	FLAT:??_C@_07NGFJPNPN@Version@
	DD	FLAT:??_C@_0BG@COLMHJCF@Win32_SystemEnclosure@
	DD	FLAT:??_C@_0N@BBNLMPJO@Manufacturer@
	DD	FLAT:??_C@_0BG@COLMHJCF@Win32_SystemEnclosure@
	DD	FLAT:??_C@_05NFIJOKEG@Model@
	DD	FLAT:??_C@_0BG@COLMHJCF@Win32_SystemEnclosure@
	DD	FLAT:??_C@_0N@FPJJBBNM@SerialNumber@
	DD	FLAT:??_C@_0BG@COLMHJCF@Win32_SystemEnclosure@
	DD	FLAT:??_C@_0N@MLFAOMIG@ChassisTypes@
	DD	FLAT:??_C@_0BG@COLMHJCF@Win32_SystemEnclosure@
	DD	FLAT:??_C@_05BOMFGPKE@Depth@
	DD	FLAT:??_C@_0BG@COLMHJCF@Win32_SystemEnclosure@
	DD	FLAT:??_C@_06HCAKHJJK@Height@
	DD	FLAT:??_C@_0BG@COLMHJCF@Win32_SystemEnclosure@
	DD	FLAT:??_C@_05IBAMDCFI@Width@
	DD	FLAT:??_C@_0BG@COLMHJCF@Win32_SystemEnclosure@
	DD	FLAT:??_C@_06ODJMJFLN@Weight@
	DD	FLAT:??_C@_0BG@COLMHJCF@Win32_SystemEnclosure@
	DD	FLAT:??_C@_0N@FBKDMIBE@AudibleAlarm@
	DD	FLAT:??_C@_0BG@COLMHJCF@Win32_SystemEnclosure@
	DD	FLAT:??_C@_0BC@OICCILBJ@BreachDescription@
	DD	FLAT:??_C@_0BG@COLMHJCF@Win32_SystemEnclosure@
	DD	FLAT:??_C@_0BI@OIOFCGCN@CableManagementStrategy@
	DD	FLAT:??_C@_0BG@COLMHJCF@Win32_SystemEnclosure@
	DD	FLAT:??_C@_0BK@DMAHAAAM@CurrentRequiredOrProduced@
	DD	FLAT:??_C@_0BG@COLMHJCF@Win32_SystemEnclosure@
	DD	FLAT:??_C@_0P@FPMIANAI@HeatGeneration@
	DD	FLAT:??_C@_0BG@COLMHJCF@Win32_SystemEnclosure@
	DD	FLAT:??_C@_0N@FCOIALPI@HotSwappable@
	DD	FLAT:??_C@_0BG@COLMHJCF@Win32_SystemEnclosure@
	DD	FLAT:??_C@_0M@NBIJNNJJ@InstallDate@
	DD	FLAT:??_C@_0BG@COLMHJCF@Win32_SystemEnclosure@
	DD	FLAT:??_C@_0M@FLPBGKMO@LockPresent@
	DD	FLAT:??_C@_0BG@COLMHJCF@Win32_SystemEnclosure@
	DD	FLAT:??_C@_0BD@BOLIJOBH@NumberOfPowerCords@
	DD	FLAT:??_C@_0BG@COLMHJCF@Win32_SystemEnclosure@
	DD	FLAT:??_C@_0BF@DMENANMJ@OtherIdentifyingInfo@
	DD	FLAT:??_C@_0BG@COLMHJCF@Win32_SystemEnclosure@
	DD	FLAT:??_C@_0L@MIOPIENN@PartNumber@
	DD	FLAT:??_C@_0BG@COLMHJCF@Win32_SystemEnclosure@
	DD	FLAT:??_C@_09HKGEBMAI@PoweredOn@
	DD	FLAT:??_C@_0BG@COLMHJCF@Win32_SystemEnclosure@
	DD	FLAT:??_C@_09DADBKOHO@Removable@
	DD	FLAT:??_C@_0BG@COLMHJCF@Win32_SystemEnclosure@
	DD	FLAT:??_C@_0M@KLOLJEDG@Replaceable@
	DD	FLAT:??_C@_0BG@COLMHJCF@Win32_SystemEnclosure@
	DD	FLAT:??_C@_0P@IFAJDLJO@SecurityBreach@
	DD	FLAT:??_C@_0BG@COLMHJCF@Win32_SystemEnclosure@
	DD	FLAT:??_C@_0P@LBCDFKMM@SecurityStatus@
	DD	FLAT:??_C@_0BG@COLMHJCF@Win32_SystemEnclosure@
	DD	FLAT:??_C@_0BE@CDEDGENH@ServiceDescriptions@
	DD	FLAT:??_C@_0BG@COLMHJCF@Win32_SystemEnclosure@
	DD	FLAT:??_C@_0BC@MJACHPAA@ServicePhilosophy@
	DD	FLAT:??_C@_0BG@COLMHJCF@Win32_SystemEnclosure@
	DD	FLAT:??_C@_03LMAAELJP@SKU@
	DD	FLAT:??_C@_0BG@COLMHJCF@Win32_SystemEnclosure@
	DD	FLAT:??_C@_0P@GDBINLPP@SMBIOSAssetTag@
	DD	FLAT:??_C@_0BG@COLMHJCF@Win32_SystemEnclosure@
	DD	FLAT:??_C@_06PGDKHFME@Status@
	DD	FLAT:??_C@_0BG@COLMHJCF@Win32_SystemEnclosure@
	DD	FLAT:??_C@_0BB@EPPDMJMG@TypeDescriptions@
	DD	FLAT:??_C@_0BG@COLMHJCF@Win32_SystemEnclosure@
	DD	FLAT:??_C@_0N@BGAIBJKD@VisibleAlarm@
	DD	FLAT:??_C@_0BB@IINEGLLN@Win32_SystemSlot@
	DD	FLAT:??_C@_03PJHNOEGB@Tag@
	DD	FLAT:??_C@_0BB@IINEGLLN@Win32_SystemSlot@
	DD	FLAT:??_C@_07NGFJPNPN@Version@
	DD	FLAT:??_C@_0BB@IINEGLLN@Win32_SystemSlot@
	DD	FLAT:??_C@_0BA@JKMEMADA@SlotDesignation@
	DD	FLAT:??_C@_0BB@IINEGLLN@Win32_SystemSlot@
	DD	FLAT:??_C@_0O@CPCPFFAH@ConnectorType@
	DD	FLAT:??_C@_0BB@IINEGLLN@Win32_SystemSlot@
	DD	FLAT:??_C@_0N@BBNLMPJO@Manufacturer@
	DD	FLAT:??_C@_0BB@IINEGLLN@Win32_SystemSlot@
	DD	FLAT:??_C@_05NFIJOKEG@Model@
	DD	FLAT:??_C@_0BB@IINEGLLN@Win32_SystemSlot@
	DD	FLAT:??_C@_0N@FPJJBBNM@SerialNumber@
	DD	FLAT:??_C@_0BB@IINEGLLN@Win32_SystemSlot@
	DD	FLAT:??_C@_0BA@KNNOFNF@ConnectorPinout@
	DD	FLAT:??_C@_0BB@IINEGLLN@Win32_SystemSlot@
	DD	FLAT:??_C@_0N@OHNMFPEL@CurrentUsage@
	DD	FLAT:??_C@_0BB@IINEGLLN@Win32_SystemSlot@
	DD	FLAT:??_C@_0O@JIADPBNP@HeightAllowed@
	DD	FLAT:??_C@_0BB@IINEGLLN@Win32_SystemSlot@
	DD	FLAT:??_C@_0M@NBIJNNJJ@InstallDate@
	DD	FLAT:??_C@_0BB@IINEGLLN@Win32_SystemSlot@
	DD	FLAT:??_C@_0O@ICFBEHEI@LengthAllowed@
	DD	FLAT:??_C@_0BB@IINEGLLN@Win32_SystemSlot@
	DD	FLAT:??_C@_0N@OLJPFNHL@MaxDataWidth@
	DD	FLAT:??_C@_0BB@IINEGLLN@Win32_SystemSlot@
	DD	FLAT:??_C@_0BF@DMENANMJ@OtherIdentifyingInfo@
	DD	FLAT:??_C@_0BB@IINEGLLN@Win32_SystemSlot@
	DD	FLAT:??_C@_0L@MIOPIENN@PartNumber@
	DD	FLAT:??_C@_0BB@IINEGLLN@Win32_SystemSlot@
	DD	FLAT:??_C@_09KGLBDKHB@PMESignal@
	DD	FLAT:??_C@_0BB@IINEGLLN@Win32_SystemSlot@
	DD	FLAT:??_C@_09HKGEBMAI@PoweredOn@
	DD	FLAT:??_C@_0BB@IINEGLLN@Win32_SystemSlot@
	DD	FLAT:??_C@_0BD@MJCDBDLK@PurposeDescription@
	DD	FLAT:??_C@_0BB@IINEGLLN@Win32_SystemSlot@
	DD	FLAT:??_C@_06LOOAMPBO@Shared@
	DD	FLAT:??_C@_0BB@IINEGLLN@Win32_SystemSlot@
	DD	FLAT:??_C@_03LMAAELJP@SKU@
	DD	FLAT:??_C@_0BB@IINEGLLN@Win32_SystemSlot@
	DD	FLAT:??_C@_0P@MHGKENBB@SpecialPurpose@
	DD	FLAT:??_C@_0BB@IINEGLLN@Win32_SystemSlot@
	DD	FLAT:??_C@_06PGDKHFME@Status@
	DD	FLAT:??_C@_0BB@IINEGLLN@Win32_SystemSlot@
	DD	FLAT:??_C@_0BA@HLMBNLEL@SupportsHotPlug@
	DD	FLAT:??_C@_0BB@IINEGLLN@Win32_SystemSlot@
	DD	FLAT:??_C@_0O@OPICFFNJ@ThermalRating@
	DD	FLAT:??_C@_0BB@IINEGLLN@Win32_SystemSlot@
	DD	FLAT:??_C@_0BH@BMAHGALK@VccMixedVoltageSupport@
	DD	FLAT:??_C@_0BB@IINEGLLN@Win32_SystemSlot@
	DD	FLAT:??_C@_0BH@LMHCBHLE@VppMixedVoltageSupport@
	DD	FLAT:??_C@_0BF@IPHNLIOA@Win32_NetworkAdapter@
	DD	FLAT:??_C@_0M@MNPNDAHP@ProductName@
	DD	FLAT:??_C@_0BF@IPHNLIOA@Win32_NetworkAdapter@
	DD	FLAT:??_C@_0M@HHJKGII@PNPDeviceID@
	DD	FLAT:??_C@_0BF@IPHNLIOA@Win32_NetworkAdapter@
	DD	FLAT:??_C@_08JLPEJKOE@DeviceID@
	DD	FLAT:??_C@_0BF@IPHNLIOA@Win32_NetworkAdapter@
	DD	FLAT:??_C@_0L@MLCHOGMM@MACAddress@
	DD	FLAT:??_C@_0BF@IPHNLIOA@Win32_NetworkAdapter@
	DD	FLAT:??_C@_0N@BBNLMPJO@Manufacturer@
	DD	FLAT:??_C@_0BF@IPHNLIOA@Win32_NetworkAdapter@
	DD	FLAT:??_C@_0BA@PKOOKBHK@PhysicalAdapter@
	DD	FLAT:??_C@_0BF@IPHNLIOA@Win32_NetworkAdapter@
	DD	FLAT:??_C@_0M@IOFGKGDC@ServiceName@
	DD	FLAT:??_C@_0BF@IPHNLIOA@Win32_NetworkAdapter@
	DD	FLAT:??_C@_0BA@FMEGGBNH@NetConnectionID@
	DD	FLAT:??_C@_0BF@IPHNLIOA@Win32_NetworkAdapter@
	DD	FLAT:??_C@_0BE@OHJLPIPO@NetConnectionStatus@
	DD	FLAT:??_C@_0BF@IPHNLIOA@Win32_NetworkAdapter@
	DD	FLAT:??_C@_05HOIAGEJD@Speed@
	DD	FLAT:??_C@_0BF@IPHNLIOA@Win32_NetworkAdapter@
	DD	FLAT:??_C@_08MFFAALKH@MaxSpeed@
	DD	FLAT:??_C@_0BF@IPHNLIOA@Win32_NetworkAdapter@
	DD	FLAT:??_C@_04MEIDEPGF@GUID@
	DD	FLAT:??_C@_0BF@IPHNLIOA@Win32_NetworkAdapter@
	DD	FLAT:??_C@_0BB@HCIBJPII@NetworkAddresses@
	DD	FLAT:??_C@_0BF@IPHNLIOA@Win32_NetworkAdapter@
	DD	FLAT:??_C@_0BB@CPOCLJND@PermanentAddress@
	DD	FLAT:??_C@_0BF@IPHNLIOA@Win32_NetworkAdapter@
	DD	FLAT:??_C@_0M@CBMGKKGD@AdapterType@
	DD	FLAT:??_C@_0BF@IPHNLIOA@Win32_NetworkAdapter@
	DD	FLAT:??_C@_0O@JDINGPBK@AdapterTypeID@
	DD	FLAT:??_C@_0BF@IPHNLIOA@Win32_NetworkAdapter@
	DD	FLAT:??_C@_09MMNBJFFE@AutoSense@
	DD	FLAT:??_C@_0BF@IPHNLIOA@Win32_NetworkAdapter@
	DD	FLAT:??_C@_0N@MFGCECDI@Availability@
	DD	FLAT:??_C@_0BF@IPHNLIOA@Win32_NetworkAdapter@
	DD	FLAT:??_C@_07OJKFJLLK@Caption@
	DD	FLAT:??_C@_0BF@IPHNLIOA@Win32_NetworkAdapter@
	DD	FLAT:??_C@_0BH@JDEEEDCN@ConfigManagerErrorCode@
	DD	FLAT:??_C@_0BF@IPHNLIOA@Win32_NetworkAdapter@
	DD	FLAT:??_C@_0BI@OBNCDCBF@ConfigManagerUserConfig@
	DD	FLAT:??_C@_0BF@IPHNLIOA@Win32_NetworkAdapter@
	DD	FLAT:??_C@_0M@OHKMKKDH@Description@
	DD	FLAT:??_C@_0BF@IPHNLIOA@Win32_NetworkAdapter@
	DD	FLAT:??_C@_0N@FJHLDHMG@ErrorCleared@
	DD	FLAT:??_C@_0BF@IPHNLIOA@Win32_NetworkAdapter@
	DD	FLAT:??_C@_0BB@KIDBLMK@ErrorDescription@
	DD	FLAT:??_C@_0BF@IPHNLIOA@Win32_NetworkAdapter@
	DD	FLAT:??_C@_0M@NBIJNNJJ@InstallDate@
	DD	FLAT:??_C@_0BF@IPHNLIOA@Win32_NetworkAdapter@
	DD	FLAT:??_C@_09HBJECKPO@Installed@
	DD	FLAT:??_C@_0BF@IPHNLIOA@Win32_NetworkAdapter@
	DD	FLAT:??_C@_0P@LMPBIBLI@InterfaceIndex@
	DD	FLAT:??_C@_0BF@IPHNLIOA@Win32_NetworkAdapter@
	DD	FLAT:??_C@_0O@NDKHIJAE@LastErrorCode@
	DD	FLAT:??_C@_0BF@IPHNLIOA@Win32_NetworkAdapter@
	DD	FLAT:??_C@_0BE@JDLAPHJE@MaxNumberControlled@
	DD	FLAT:??_C@_0BF@IPHNLIOA@Win32_NetworkAdapter@
	DD	FLAT:??_C@_0L@COBEMNCH@NetEnabled@
	DD	FLAT:??_C@_0BF@IPHNLIOA@Win32_NetworkAdapter@
	DD	FLAT:??_C@_0BM@NFDEHNHA@PowerManagementCapabilities@
	DD	FLAT:??_C@_0BF@IPHNLIOA@Win32_NetworkAdapter@
	DD	FLAT:??_C@_0BJ@CFOPGMLH@PowerManagementSupported@
	DD	FLAT:??_C@_0BF@IPHNLIOA@Win32_NetworkAdapter@
	DD	FLAT:??_C@_06PGDKHFME@Status@
	DD	FLAT:??_C@_0BF@IPHNLIOA@Win32_NetworkAdapter@
	DD	FLAT:??_C@_0L@PKEHCAEI@StatusInfo@
	DD	FLAT:??_C@_0BF@IPHNLIOA@Win32_NetworkAdapter@
	DD	FLAT:??_C@_0BA@HADKHLAI@TimeOfLastReset@
	DD	FLAT:??_C@_0CC@CIAMNGGL@Win32_NetworkAdapterConfigurati@
	DD	FLAT:??_C@_0L@MLCHOGMM@MACAddress@
	DD	FLAT:??_C@_0CC@CIAMNGGL@Win32_NetworkAdapterConfigurati@
	DD	FLAT:??_C@_09NIGMFFPO@IPAddress@
	DD	FLAT:??_C@_0CC@CIAMNGGL@Win32_NetworkAdapterConfigurati@
	DD	FLAT:??_C@_0L@BJOKJMLN@DHCPServer@
	DD	FLAT:??_C@_0CC@CIAMNGGL@Win32_NetworkAdapterConfigurati@
	DD	FLAT:??_C@_0BB@HACNIBBH@DefaultIPGateway@
	DD	FLAT:??_C@_0CC@CIAMNGGL@Win32_NetworkAdapterConfigurati@
	DD	FLAT:??_C@_09FBHLGFBK@DNSDomain@
	DD	FLAT:??_C@_0CC@CIAMNGGL@Win32_NetworkAdapterConfigurati@
	DD	FLAT:??_C@_0M@HMDMJNAL@DNSHostName@
	DD	FLAT:??_C@_0CC@CIAMNGGL@Win32_NetworkAdapterConfigurati@
	DD	FLAT:??_C@_08EKHHNDLH@IPSubnet@
	DD	FLAT:??_C@_0CC@CIAMNGGL@Win32_NetworkAdapterConfigurati@
	DD	FLAT:??_C@_0M@IOFGKGDC@ServiceName@
	DD	FLAT:??_C@_0CC@CIAMNGGL@Win32_NetworkAdapterConfigurati@
	DD	FLAT:??_C@_0BF@NNMMFFI@ArpAlwaysSourceRoute@
	DD	FLAT:??_C@_0CC@CIAMNGGL@Win32_NetworkAdapterConfigurati@
	DD	FLAT:??_C@_0BA@DHDIOMKI@ArpUseEtherSNAP@
	DD	FLAT:??_C@_0CC@CIAMNGGL@Win32_NetworkAdapterConfigurati@
	DD	FLAT:??_C@_07OJKFJLLK@Caption@
	DD	FLAT:??_C@_0CC@CIAMNGGL@Win32_NetworkAdapterConfigurati@
	DD	FLAT:??_C@_0N@OAKOAPMO@DatabasePath@
	DD	FLAT:??_C@_0CC@CIAMNGGL@Win32_NetworkAdapterConfigurati@
	DD	FLAT:??_C@_0BE@GOBIIDKA@DeadGWDetectEnabled@
	DD	FLAT:??_C@_0CC@CIAMNGGL@Win32_NetworkAdapterConfigurati@
	DD	FLAT:??_C@_0L@JFBEJJHM@DefaultTOS@
	DD	FLAT:??_C@_0CC@CIAMNGGL@Win32_NetworkAdapterConfigurati@
	DD	FLAT:??_C@_0L@EIDNNLHD@DefaultTTL@
	DD	FLAT:??_C@_0CC@CIAMNGGL@Win32_NetworkAdapterConfigurati@
	DD	FLAT:??_C@_0M@HIMIFMFA@DHCPEnabled@
	DD	FLAT:??_C@_0CC@CIAMNGGL@Win32_NetworkAdapterConfigurati@
	DD	FLAT:??_C@_0BB@BOGKHOEE@DHCPLeaseExpires@
	DD	FLAT:??_C@_0CC@CIAMNGGL@Win32_NetworkAdapterConfigurati@
	DD	FLAT:??_C@_0BC@MIONLOAH@DHCPLeaseObtained@
	DD	FLAT:??_C@_0CC@CIAMNGGL@Win32_NetworkAdapterConfigurati@
	DD	FLAT:??_C@_0BL@NEHFNDKH@DNSDomainSuffixSearchOrder@
	DD	FLAT:??_C@_0CC@CIAMNGGL@Win32_NetworkAdapterConfigurati@
	DD	FLAT:??_C@_0BM@LEBEBEIJ@DNSEnabledForWINSResolution@
	DD	FLAT:??_C@_0CC@CIAMNGGL@Win32_NetworkAdapterConfigurati@
	DD	FLAT:??_C@_0BF@CIMMNJEP@DNSServerSearchOrder@
	DD	FLAT:??_C@_0CC@CIAMNGGL@Win32_NetworkAdapterConfigurati@
	DD	FLAT:??_C@_0BN@OACMHJBD@DomainDNSRegistrationEnabled@
	DD	FLAT:??_C@_0CC@CIAMNGGL@Win32_NetworkAdapterConfigurati@
	DD	FLAT:??_C@_0BE@GGFBGHJP@ForwardBufferMemory@
	DD	FLAT:??_C@_0CC@CIAMNGGL@Win32_NetworkAdapterConfigurati@
	DD	FLAT:??_C@_0BL@EIIPDLGE@FullDNSRegistrationEnabled@
	DD	FLAT:??_C@_0CC@CIAMNGGL@Win32_NetworkAdapterConfigurati@
	DD	FLAT:??_C@_0BC@JPOLFPNM@GatewayCostMetric@
	DD	FLAT:??_C@_0CC@CIAMNGGL@Win32_NetworkAdapterConfigurati@
	DD	FLAT:??_C@_09LFCMALKM@IGMPLevel@
	DD	FLAT:??_C@_0CC@CIAMNGGL@Win32_NetworkAdapterConfigurati@
	DD	FLAT:??_C@_0P@LMPBIBLI@InterfaceIndex@
	DD	FLAT:??_C@_0CC@CIAMNGGL@Win32_NetworkAdapterConfigurati@
	DD	FLAT:??_C@_0BD@KDBLHBOO@IPConnectionMetric@
	DD	FLAT:??_C@_0CC@CIAMNGGL@Win32_NetworkAdapterConfigurati@
	DD	FLAT:??_C@_09KIFLBGKF@IPEnabled@
	DD	FLAT:??_C@_0CC@CIAMNGGL@Win32_NetworkAdapterConfigurati@
	DD	FLAT:??_C@_0BI@LBDHONDJ@IPFilterSecurityEnabled@
	DD	FLAT:??_C@_0CC@CIAMNGGL@Win32_NetworkAdapterConfigurati@
	DD	FLAT:??_C@_0BG@IJANIIKC@IPPortSecurityEnabled@
	DD	FLAT:??_C@_0CC@CIAMNGGL@Win32_NetworkAdapterConfigurati@
	DD	FLAT:??_C@_0BH@HHIPIHMF@IPSecPermitIPProtocols@
	DD	FLAT:??_C@_0CC@CIAMNGGL@Win32_NetworkAdapterConfigurati@
	DD	FLAT:??_C@_0BE@JOIOPHFJ@IPSecPermitTCPPorts@
	DD	FLAT:??_C@_0CC@CIAMNGGL@Win32_NetworkAdapterConfigurati@
	DD	FLAT:??_C@_0BE@IDDAOKAD@IPSecPermitUDPPorts@
	DD	FLAT:??_C@_0CC@CIAMNGGL@Win32_NetworkAdapterConfigurati@
	DD	FLAT:??_C@_0BD@EFBIPBIB@IPUseZeroBroadcast@
	DD	FLAT:??_C@_0CC@CIAMNGGL@Win32_NetworkAdapterConfigurati@
	DD	FLAT:??_C@_0L@JNAHKDDE@IPXAddress@
	DD	FLAT:??_C@_0CC@CIAMNGGL@Win32_NetworkAdapterConfigurati@
	DD	FLAT:??_C@_0L@ONDAOAGP@IPXEnabled@
	DD	FLAT:??_C@_0CC@CIAMNGGL@Win32_NetworkAdapterConfigurati@
	DD	FLAT:??_C@_0N@EAKCLKKB@IPXFrameType@
	DD	FLAT:??_C@_0CC@CIAMNGGL@Win32_NetworkAdapterConfigurati@
	DD	FLAT:??_C@_0N@FHNNAGIP@IPXMediaType@
	DD	FLAT:??_C@_0CC@CIAMNGGL@Win32_NetworkAdapterConfigurati@
	DD	FLAT:??_C@_0BB@HFHJDNKD@IPXNetworkNumber@
	DD	FLAT:??_C@_0CC@CIAMNGGL@Win32_NetworkAdapterConfigurati@
	DD	FLAT:??_C@_0BE@KIGHGIHN@IPXVirtualNetNumber@
	DD	FLAT:??_C@_0CC@CIAMNGGL@Win32_NetworkAdapterConfigurati@
	DD	FLAT:??_C@_0BC@HLLJNCGL@KeepAliveInterval@
	DD	FLAT:??_C@_0CC@CIAMNGGL@Win32_NetworkAdapterConfigurati@
	DD	FLAT:??_C@_0O@HNPIKCNH@KeepAliveTime@
	DD	FLAT:??_C@_0CC@CIAMNGGL@Win32_NetworkAdapterConfigurati@
	DD	FLAT:??_C@_03BLLMIPHO@MTU@
	DD	FLAT:??_C@_0CC@CIAMNGGL@Win32_NetworkAdapterConfigurati@
	DD	FLAT:??_C@_0BC@CHJCENM@NumForwardPackets@
	DD	FLAT:??_C@_0CC@CIAMNGGL@Win32_NetworkAdapterConfigurati@
	DD	FLAT:??_C@_0BF@DPKIODPI@PMTUBHDetectEnabled?$DL@
	DD	FLAT:??_C@_0CC@CIAMNGGL@Win32_NetworkAdapterConfigurati@
	DD	FLAT:??_C@_0BF@KBFAFCNG@PMTUDiscoveryEnabled@
	DD	FLAT:??_C@_0CC@CIAMNGGL@Win32_NetworkAdapterConfigurati@
	DD	FLAT:??_C@_09CMMJGBDB@SettingID@
	DD	FLAT:??_C@_0CC@CIAMNGGL@Win32_NetworkAdapterConfigurati@
	DD	FLAT:??_C@_0BE@MJKNHDFN@TcpipNetbiosOptions@
	DD	FLAT:??_C@_0CC@CIAMNGGL@Win32_NetworkAdapterConfigurati@
	DD	FLAT:??_C@_0BN@NBAJINBE@TcpMaxConnectRetransmissions@
	DD	FLAT:??_C@_0CC@CIAMNGGL@Win32_NetworkAdapterConfigurati@
	DD	FLAT:??_C@_0BK@ICGANMDC@TcpMaxDataRetransmissions@
	DD	FLAT:??_C@_0CC@CIAMNGGL@Win32_NetworkAdapterConfigurati@
	DD	FLAT:??_C@_0BC@CEGEJAFC@TcpNumConnections@
	DD	FLAT:??_C@_0CC@CIAMNGGL@Win32_NetworkAdapterConfigurati@
	DD	FLAT:??_C@_0BL@JOFENPLC@TcpUseRFC1122UrgentPointer@
	DD	FLAT:??_C@_0CC@CIAMNGGL@Win32_NetworkAdapterConfigurati@
	DD	FLAT:??_C@_0O@CIEPJIDD@TcpWindowSize@
	DD	FLAT:??_C@_0CC@CIAMNGGL@Win32_NetworkAdapterConfigurati@
	DD	FLAT:??_C@_0BI@MIGGLKDO@WINSEnableLMHostsLookup@
	DD	FLAT:??_C@_0CC@CIAMNGGL@Win32_NetworkAdapterConfigurati@
	DD	FLAT:??_C@_0BD@POPKKJKC@WINSHostLookupFile@
	DD	FLAT:??_C@_0CC@CIAMNGGL@Win32_NetworkAdapterConfigurati@
	DD	FLAT:??_C@_0BC@BECMMLFM@WINSPrimaryServer@
	DD	FLAT:??_C@_0CC@CIAMNGGL@Win32_NetworkAdapterConfigurati@
	DD	FLAT:??_C@_0M@CMEBCDLL@WINSScopeID@
	DD	FLAT:??_C@_0CC@CIAMNGGL@Win32_NetworkAdapterConfigurati@
	DD	FLAT:??_C@_0BE@CHHDIDN@WINSSecondaryServer@
	DD	FLAT:??_C@_0BK@BBOKMFIH@Win32_NetworkLoginProfile@
	DD	FLAT:??_C@_04FABLJDN@Name@
	DD	FLAT:??_C@_0BK@BBOKMFIH@Win32_NetworkLoginProfile@
	DD	FLAT:??_C@_08FPDCFGEH@FullName@
	DD	FLAT:??_C@_0BK@BBOKMFIH@Win32_NetworkLoginProfile@
	DD	FLAT:??_C@_0O@PKMMPAKN@HomeDirectory@
	DD	FLAT:??_C@_0BK@BBOKMFIH@Win32_NetworkLoginProfile@
	DD	FLAT:??_C@_0BD@GBDEODMP@HomeDirectoryDrive@
	DD	FLAT:??_C@_0BK@BBOKMFIH@Win32_NetworkLoginProfile@
	DD	FLAT:??_C@_0M@NDLIHBHJ@LogonServer@
	DD	FLAT:??_C@_0BK@BBOKMFIH@Win32_NetworkLoginProfile@
	DD	FLAT:??_C@_06HAPGBBDI@UserId@
	DD	FLAT:??_C@_0BK@BBOKMFIH@Win32_NetworkLoginProfile@
	DD	FLAT:??_C@_08LFHMHDM@UserType@
	DD	FLAT:??_C@_0BK@BBOKMFIH@Win32_NetworkLoginProfile@
	DD	FLAT:??_C@_0M@KEGPAPIK@UserComment@
	DD	FLAT:??_C@_0BK@BBOKMFIH@Win32_NetworkLoginProfile@
	DD	FLAT:??_C@_0P@FLJOKOM@AccountExpires@
	DD	FLAT:??_C@_0BK@BBOKMFIH@Win32_NetworkLoginProfile@
	DD	FLAT:??_C@_0BD@JGGENGAP@AuthorizationFlags@
	DD	FLAT:??_C@_0BK@BBOKMFIH@Win32_NetworkLoginProfile@
	DD	FLAT:??_C@_0BB@OBONNEPA@BadPasswordCount@
	DD	FLAT:??_C@_0BK@BBOKMFIH@Win32_NetworkLoginProfile@
	DD	FLAT:??_C@_08BHOPBADB@Caption?$DL@
	DD	FLAT:??_C@_0BK@BBOKMFIH@Win32_NetworkLoginProfile@
	DD	FLAT:??_C@_08DOHJINHB@CodePage@
	DD	FLAT:??_C@_0BK@BBOKMFIH@Win32_NetworkLoginProfile@
	DD	FLAT:??_C@_07JABLCLAF@Comment@
	DD	FLAT:??_C@_0BK@BBOKMFIH@Win32_NetworkLoginProfile@
	DD	FLAT:??_C@_0M@NALIBBDH@CountryCode@
	DD	FLAT:??_C@_0BK@BBOKMFIH@Win32_NetworkLoginProfile@
	DD	FLAT:??_C@_0M@OHKMKKDH@Description@
	DD	FLAT:??_C@_0BK@BBOKMFIH@Win32_NetworkLoginProfile@
	DD	FLAT:??_C@_05BOOEKJH@Flags@
	DD	FLAT:??_C@_0BK@BBOKMFIH@Win32_NetworkLoginProfile@
	DD	FLAT:??_C@_0L@NKJIFPDG@LastLogoff@
	DD	FLAT:??_C@_0BK@BBOKMFIH@Win32_NetworkLoginProfile@
	DD	FLAT:??_C@_09JEOPKIAO@LastLogon@
	DD	FLAT:??_C@_0BK@BBOKMFIH@Win32_NetworkLoginProfile@
	DD	FLAT:??_C@_0L@HFGJFNDM@LogonHours@
	DD	FLAT:??_C@_0BK@BBOKMFIH@Win32_NetworkLoginProfile@
	DD	FLAT:??_C@_0P@BDLNENEK@MaximumStorage@
	DD	FLAT:??_C@_0BK@BBOKMFIH@Win32_NetworkLoginProfile@
	DD	FLAT:??_C@_0P@FMELCCCP@NumberOfLogons@
	DD	FLAT:??_C@_0BK@BBOKMFIH@Win32_NetworkLoginProfile@
	DD	FLAT:??_C@_0L@PBGCNDPG@Parameters@
	DD	FLAT:??_C@_0BK@BBOKMFIH@Win32_NetworkLoginProfile@
	DD	FLAT:??_C@_0M@HKNCEPDC@PasswordAge@
	DD	FLAT:??_C@_0BK@BBOKMFIH@Win32_NetworkLoginProfile@
	DD	FLAT:??_C@_0BA@HLOHOKEI@PasswordExpires@
	DD	FLAT:??_C@_0BK@BBOKMFIH@Win32_NetworkLoginProfile@
	DD	FLAT:??_C@_0P@CIBDNLPH@PrimaryGroupId@
	DD	FLAT:??_C@_0BK@BBOKMFIH@Win32_NetworkLoginProfile@
	DD	FLAT:??_C@_0L@FILALLBE@Privileges@
	DD	FLAT:??_C@_0BK@BBOKMFIH@Win32_NetworkLoginProfile@
	DD	FLAT:??_C@_07EELFDIBP@Profile@
	DD	FLAT:??_C@_0BK@BBOKMFIH@Win32_NetworkLoginProfile@
	DD	FLAT:??_C@_0L@GHILPLPE@ScriptPath@
	DD	FLAT:??_C@_0BK@BBOKMFIH@Win32_NetworkLoginProfile@
	DD	FLAT:??_C@_09CMMJGBDB@SettingID@
	DD	FLAT:??_C@_0BK@BBOKMFIH@Win32_NetworkLoginProfile@
	DD	FLAT:??_C@_0N@LMMEGDEF@UnitsPerWeek@
	DD	FLAT:??_C@_0BK@BBOKMFIH@Win32_NetworkLoginProfile@
	DD	FLAT:??_C@_0N@LMIHDJBC@Workstations@
	DD	FLAT:??_C@_0BG@IFKJCFNC@Win32_NetworkProtocol@
	DD	FLAT:??_C@_04FABLJDN@Name@
	DD	FLAT:??_C@_0BG@IFKJCFNC@Win32_NetworkProtocol@
	DD	FLAT:??_C@_07OJKFJLLK@Caption@
	DD	FLAT:??_C@_0BG@IFKJCFNC@Win32_NetworkProtocol@
	DD	FLAT:??_C@_0BG@IODJFDPJ@ConnectionlessService@
	DD	FLAT:??_C@_0BG@IFKJCFNC@Win32_NetworkProtocol@
	DD	FLAT:??_C@_0M@OHKMKKDH@Description@
	DD	FLAT:??_C@_0BG@IFKJCFNC@Win32_NetworkProtocol@
	DD	FLAT:??_C@_0BD@ECGOALCK@GuaranteesDelivery@
	DD	FLAT:??_C@_0BG@IFKJCFNC@Win32_NetworkProtocol@
	DD	FLAT:??_C@_0BF@FAHCIDLD@GuaranteesSequencing@
	DD	FLAT:??_C@_0BG@IFKJCFNC@Win32_NetworkProtocol@
	DD	FLAT:??_C@_0M@NBIJNNJJ@InstallDate@
	DD	FLAT:??_C@_0BG@IFKJCFNC@Win32_NetworkProtocol@
	DD	FLAT:??_C@_0BD@FFCOFDOJ@MaximumAddressSize@
	DD	FLAT:??_C@_0BG@IFKJCFNC@Win32_NetworkProtocol@
	DD	FLAT:??_C@_0BD@IBPHBINL@MaximumMessageSize@
	DD	FLAT:??_C@_0BG@IFKJCFNC@Win32_NetworkProtocol@
	DD	FLAT:??_C@_0BA@NLEIFDG@MessageOriented@
	DD	FLAT:??_C@_0BG@IFKJCFNC@Win32_NetworkProtocol@
	DD	FLAT:??_C@_0BD@PCBKNDJA@MinimumAddressSize@
	DD	FLAT:??_C@_0BG@IFKJCFNC@Win32_NetworkProtocol@
	DD	FLAT:??_C@_0BF@DJOBDJFP@PseudoStreamOriented@
	DD	FLAT:??_C@_0BG@IFKJCFNC@Win32_NetworkProtocol@
	DD	FLAT:??_C@_06PGDKHFME@Status@
	DD	FLAT:??_C@_0BG@IFKJCFNC@Win32_NetworkProtocol@
	DD	FLAT:??_C@_0BF@ONDNBOBK@SupportsBroadcasting@
	DD	FLAT:??_C@_0BG@IFKJCFNC@Win32_NetworkProtocol@
	DD	FLAT:??_C@_0BE@OAOGNDFG@SupportsConnectData@
	DD	FLAT:??_C@_0BG@IFKJCFNC@Win32_NetworkProtocol@
	DD	FLAT:??_C@_0BH@KMFDMCNH@SupportsDisconnectData@
	DD	FLAT:??_C@_0BG@IFKJCFNC@Win32_NetworkProtocol@
	DD	FLAT:??_C@_0BD@BJHEFNDH@SupportsEncryption@
	DD	FLAT:??_C@_0BG@IFKJCFNC@Win32_NetworkProtocol@
	DD	FLAT:??_C@_0BG@MJFBKLBP@SupportsExpeditedData@
